Archive member included because of file (symbol)

c:/program files (x86)/microchip/xc32/v2.30/bin/bin/../../lib/gcc/pic32mx/4.8.3/../../../../pic32mx/lib\libmchp_peripheral_32MX470F512L.a(soft_reset_lib.o)
                              output\mal.o (SoftReset)
c:/program files (x86)/microchip/xc32/v2.30/bin/bin/../../lib/gcc/pic32mx/4.8.3/../../../../pic32mx/lib\libmchp_peripheral_32MX470F512L.a(pcache.o)
                              output\main.o (CheKseg0CacheOn)
c:/program files (x86)/microchip/xc32/v2.30/bin/bin/../../lib/gcc/pic32mx/4.8.3/../../../../pic32mx/lib\libmchp_peripheral_32MX470F512L.a(int_disable_interrupts_lib.o)
                              c:/program files (x86)/microchip/xc32/v2.30/bin/bin/../../lib/gcc/pic32mx/4.8.3/../../../../pic32mx/lib\libmchp_peripheral_32MX470F512L.a(soft_reset_lib.o) (INTDisableInterrupts)
c:/program files (x86)/microchip/xc32/v2.30/bin/bin/../../lib/gcc/pic32mx/4.8.3/../../../../pic32mx/lib\libmchp_peripheral_32MX470F512L.a(power_idle_lib.o)
                              output\sleep.o (PowerSaveIdle)
c:/program files (x86)/microchip/xc32/v2.30/bin/bin/../../lib/gcc/pic32mx/4.8.3/../../../../pic32mx/lib\libmchp_peripheral_32MX470F512L.a(power_sleep_lib.o)
                              output\sleep.o (PowerSaveSleep)
c:/program files (x86)/microchip/xc32/v2.30/bin/bin/../../lib/gcc/pic32mx/4.8.3/../../../../pic32mx/lib\libmchp_peripheral_32MX470F512L.a(nvm_erase_page_lib.o)
                              output\dee_page.o (NVMErasePage)
c:/program files (x86)/microchip/xc32/v2.30/bin/bin/../../lib/gcc/pic32mx/4.8.3/../../../../pic32mx/lib\libmchp_peripheral_32MX470F512L.a(nvm_operation_lib.o)
                              c:/program files (x86)/microchip/xc32/v2.30/bin/bin/../../lib/gcc/pic32mx/4.8.3/../../../../pic32mx/lib\libmchp_peripheral_32MX470F512L.a(nvm_erase_page_lib.o) (_NVMOperation)
c:/program files (x86)/microchip/xc32/v2.30/bin/bin/../../lib/gcc/pic32mx/4.8.3/../../../../pic32mx/lib\libmchp_peripheral_32MX470F512L.a(nvm_write_word_lib.o)
                              output\dee_page.o (NVMWriteWord)
c:/program files (x86)/microchip/xc32/v2.30/bin/bin/../../lib/gcc/pic32mx/4.8.3/../../../../pic32mx/lib\libmchp_peripheral_32MX470F512L.a(int_restore_interrupts_lib.o)
                              c:/program files (x86)/microchip/xc32/v2.30/bin/bin/../../lib/gcc/pic32mx/4.8.3/../../../../pic32mx/lib\libmchp_peripheral_32MX470F512L.a(power_idle_lib.o) (INTRestoreInterrupts)
c:/program files (x86)/microchip/xc32/v2.30/bin/bin/../../lib/gcc/pic32mx/4.8.3\libgcc.a(_fixunssfdi.o)
                              output\stepper.o (__fixunssfdi)
c:/program files (x86)/microchip/xc32/v2.30/bin/bin/../../lib/gcc/pic32mx/4.8.3\libgcc.a(_floatundisf.o)
                              output\stepper.o (__floatundisf)
c:/program files (x86)/microchip/xc32/v2.30/bin/bin/../../lib/gcc/pic32mx/4.8.3\libgcc.a(floatunsisf.o)
                              output\limits.o (__floatunsisf)
c:/program files (x86)/microchip/xc32/v2.30/bin/bin/../../lib/gcc/pic32mx/4.8.3\libgcc.a(floatunsidf.o)
                              c:/program files (x86)/microchip/xc32/v2.30/bin/bin/../../lib/gcc/pic32mx/4.8.3\libgcc.a(_fixunssfdi.o) (__floatunsidf)
c:/program files (x86)/microchip/xc32/v2.30/bin/bin/../../lib/gcc/pic32mx/4.8.3/../../../../pic32mx/lib\libpic32.a(memcpy.o)
                              output\eep_manager.o (memcpy)
c:/program files (x86)/microchip/xc32/v2.30/bin/bin/../../lib/gcc/pic32mx/4.8.3/../../../../pic32mx/lib\libpic32.a(memset.o)
                              output\ringBuffer.o (memset)
c:/program files (x86)/microchip/xc32/v2.30/bin/bin/../../lib/gcc/pic32mx/4.8.3/../../../../pic32mx/lib\libpic32.a(strcmp.o)
                              output\grbl_protocol.o (strcmp)
c:/program files (x86)/microchip/xc32/v2.30/bin/bin/../../lib/gcc/pic32mx/4.8.3/../../../../pic32mx/lib\libpic32.a(strlen.o)
                              output\UDP.o (strlen)
c:/program files (x86)/microchip/xc32/v2.30/bin/bin/../../lib/gcc/pic32mx/4.8.3/../../../../pic32mx/lib\libpic32.a(default-bootstrap-exception-handler.o)
                              C:\Users\Xeon5430\AppData\Local\Temp\cc0y46GM.o (_bootstrap_exception_handler)
c:/program files (x86)/microchip/xc32/v2.30/bin/bin/../../lib/gcc/pic32mx/4.8.3/../../../../pic32mx/lib\libpic32.a(default-on-reset.o)
                              C:\Users\Xeon5430\AppData\Local\Temp\cc0y46GM.o (_on_reset)
c:/program files (x86)/microchip/xc32/v2.30/bin/bin/../../lib/gcc/pic32mx/4.8.3/../../../../pic32mx/lib\libpic32.a(default-on-bootstrap.o)
                              C:\Users\Xeon5430\AppData\Local\Temp\cc0y46GM.o (_on_bootstrap)
c:/program files (x86)/microchip/xc32/v2.30/bin/bin/../../lib/gcc/pic32mx/4.8.3/../../../../pic32mx/lib\libpic32.a(default-nmi-handler.o)
                              C:\Users\Xeon5430\AppData\Local\Temp\cc0y46GM.o (_nmi_handler)
c:/program files (x86)/microchip/xc32/v2.30/bin/bin/../../lib/gcc/pic32mx/4.8.3/../../../../pic32mx/lib\libpic32.a(pic32_data_init.o)
                              C:\Users\Xeon5430\AppData\Local\Temp\cc0y46GM.o (__pic32_data_init)
c:/program files (x86)/microchip/xc32/v2.30/bin/bin/../../lib/gcc/pic32mx/4.8.3/../../../../pic32mx/lib\libpic32.a(general-exception.o)
                              C:\Users\Xeon5430\AppData\Local\Temp\cc0y46GM.o (_general_exception_context)
c:/program files (x86)/microchip/xc32/v2.30/bin/bin/../../lib/gcc/pic32mx/4.8.3/../../../../pic32mx/lib\libpic32.a(vector1.o)
                              C:\Users\Xeon5430\AppData\Local\Temp\ccMLxUIM.o (__vector_dispatch_1)
c:/program files (x86)/microchip/xc32/v2.30/bin/bin/../../lib/gcc/pic32mx/4.8.3/../../../../pic32mx/lib\libpic32.a(vector2.o)
                              C:\Users\Xeon5430\AppData\Local\Temp\ccMLxUIM.o (__vector_dispatch_2)
c:/program files (x86)/microchip/xc32/v2.30/bin/bin/../../lib/gcc/pic32mx/4.8.3/../../../../pic32mx/lib\libpic32.a(vector3.o)
                              C:\Users\Xeon5430\AppData\Local\Temp\ccMLxUIM.o (__vector_dispatch_3)
c:/program files (x86)/microchip/xc32/v2.30/bin/bin/../../lib/gcc/pic32mx/4.8.3/../../../../pic32mx/lib\libpic32.a(vector5.o)
                              C:\Users\Xeon5430\AppData\Local\Temp\ccMLxUIM.o (__vector_dispatch_5)
c:/program files (x86)/microchip/xc32/v2.30/bin/bin/../../lib/gcc/pic32mx/4.8.3/../../../../pic32mx/lib\libpic32.a(vector6.o)
                              C:\Users\Xeon5430\AppData\Local\Temp\ccMLxUIM.o (__vector_dispatch_6)
c:/program files (x86)/microchip/xc32/v2.30/bin/bin/../../lib/gcc/pic32mx/4.8.3/../../../../pic32mx/lib\libpic32.a(vector7.o)
                              C:\Users\Xeon5430\AppData\Local\Temp\ccMLxUIM.o (__vector_dispatch_7)
c:/program files (x86)/microchip/xc32/v2.30/bin/bin/../../lib/gcc/pic32mx/4.8.3/../../../../pic32mx/lib\libpic32.a(vector9.o)
                              C:\Users\Xeon5430\AppData\Local\Temp\ccMLxUIM.o (__vector_dispatch_9)
c:/program files (x86)/microchip/xc32/v2.30/bin/bin/../../lib/gcc/pic32mx/4.8.3/../../../../pic32mx/lib\libpic32.a(vector10.o)
                              C:\Users\Xeon5430\AppData\Local\Temp\ccMLxUIM.o (__vector_dispatch_10)
c:/program files (x86)/microchip/xc32/v2.30/bin/bin/../../lib/gcc/pic32mx/4.8.3/../../../../pic32mx/lib\libpic32.a(vector11.o)
                              C:\Users\Xeon5430\AppData\Local\Temp\ccMLxUIM.o (__vector_dispatch_11)
c:/program files (x86)/microchip/xc32/v2.30/bin/bin/../../lib/gcc/pic32mx/4.8.3/../../../../pic32mx/lib\libpic32.a(vector13.o)
                              C:\Users\Xeon5430\AppData\Local\Temp\ccMLxUIM.o (__vector_dispatch_13)
c:/program files (x86)/microchip/xc32/v2.30/bin/bin/../../lib/gcc/pic32mx/4.8.3/../../../../pic32mx/lib\libpic32.a(vector14.o)
                              C:\Users\Xeon5430\AppData\Local\Temp\ccMLxUIM.o (__vector_dispatch_14)
c:/program files (x86)/microchip/xc32/v2.30/bin/bin/../../lib/gcc/pic32mx/4.8.3/../../../../pic32mx/lib\libpic32.a(vector17.o)
                              C:\Users\Xeon5430\AppData\Local\Temp\ccMLxUIM.o (__vector_dispatch_17)
c:/program files (x86)/microchip/xc32/v2.30/bin/bin/../../lib/gcc/pic32mx/4.8.3/../../../../pic32mx/lib\libpic32.a(vector18.o)
                              C:\Users\Xeon5430\AppData\Local\Temp\ccMLxUIM.o (__vector_dispatch_18)
c:/program files (x86)/microchip/xc32/v2.30/bin/bin/../../lib/gcc/pic32mx/4.8.3/../../../../pic32mx/lib\libpic32.a(vector19.o)
                              C:\Users\Xeon5430\AppData\Local\Temp\ccMLxUIM.o (__vector_dispatch_19)
c:/program files (x86)/microchip/xc32/v2.30/bin/bin/../../lib/gcc/pic32mx/4.8.3/../../../../pic32mx/lib\libpic32.a(vector21.o)
                              C:\Users\Xeon5430\AppData\Local\Temp\ccMLxUIM.o (__vector_dispatch_21)
c:/program files (x86)/microchip/xc32/v2.30/bin/bin/../../lib/gcc/pic32mx/4.8.3/../../../../pic32mx/lib\libpic32.a(vector22.o)
                              C:\Users\Xeon5430\AppData\Local\Temp\ccMLxUIM.o (__vector_dispatch_22)
c:/program files (x86)/microchip/xc32/v2.30/bin/bin/../../lib/gcc/pic32mx/4.8.3/../../../../pic32mx/lib\libpic32.a(vector23.o)
                              C:\Users\Xeon5430\AppData\Local\Temp\ccMLxUIM.o (__vector_dispatch_23)
c:/program files (x86)/microchip/xc32/v2.30/bin/bin/../../lib/gcc/pic32mx/4.8.3/../../../../pic32mx/lib\libpic32.a(vector24.o)
                              C:\Users\Xeon5430\AppData\Local\Temp\ccMLxUIM.o (__vector_dispatch_24)
c:/program files (x86)/microchip/xc32/v2.30/bin/bin/../../lib/gcc/pic32mx/4.8.3/../../../../pic32mx/lib\libpic32.a(vector25.o)
                              C:\Users\Xeon5430\AppData\Local\Temp\ccMLxUIM.o (__vector_dispatch_25)
c:/program files (x86)/microchip/xc32/v2.30/bin/bin/../../lib/gcc/pic32mx/4.8.3/../../../../pic32mx/lib\libpic32.a(vector26.o)
                              C:\Users\Xeon5430\AppData\Local\Temp\ccMLxUIM.o (__vector_dispatch_26)
c:/program files (x86)/microchip/xc32/v2.30/bin/bin/../../lib/gcc/pic32mx/4.8.3/../../../../pic32mx/lib\libpic32.a(vector27.o)
                              C:\Users\Xeon5430\AppData\Local\Temp\ccMLxUIM.o (__vector_dispatch_27)
c:/program files (x86)/microchip/xc32/v2.30/bin/bin/../../lib/gcc/pic32mx/4.8.3/../../../../pic32mx/lib\libpic32.a(vector28.o)
                              C:\Users\Xeon5430\AppData\Local\Temp\ccMLxUIM.o (__vector_dispatch_28)
c:/program files (x86)/microchip/xc32/v2.30/bin/bin/../../lib/gcc/pic32mx/4.8.3/../../../../pic32mx/lib\libpic32.a(vector30.o)
                              C:\Users\Xeon5430\AppData\Local\Temp\ccMLxUIM.o (__vector_dispatch_30)
c:/program files (x86)/microchip/xc32/v2.30/bin/bin/../../lib/gcc/pic32mx/4.8.3/../../../../pic32mx/lib\libpic32.a(vector32.o)
                              C:\Users\Xeon5430\AppData\Local\Temp\ccMLxUIM.o (__vector_dispatch_32)
c:/program files (x86)/microchip/xc32/v2.30/bin/bin/../../lib/gcc/pic32mx/4.8.3/../../../../pic32mx/lib\libpic32.a(vector34.o)
                              C:\Users\Xeon5430\AppData\Local\Temp\ccMLxUIM.o (__vector_dispatch_34)
c:/program files (x86)/microchip/xc32/v2.30/bin/bin/../../lib/gcc/pic32mx/4.8.3/../../../../pic32mx/lib\libpic32.a(vector37.o)
                              C:\Users\Xeon5430\AppData\Local\Temp\ccMLxUIM.o (__vector_dispatch_37)
c:/program files (x86)/microchip/xc32/v2.30/bin/bin/../../lib/gcc/pic32mx/4.8.3/../../../../pic32mx/lib\libpic32.a(vector38.o)
                              C:\Users\Xeon5430\AppData\Local\Temp\ccMLxUIM.o (__vector_dispatch_38)
c:/program files (x86)/microchip/xc32/v2.30/bin/bin/../../lib/gcc/pic32mx/4.8.3/../../../../pic32mx/lib\libpic32.a(vector39.o)
                              C:\Users\Xeon5430\AppData\Local\Temp\ccMLxUIM.o (__vector_dispatch_39)
c:/program files (x86)/microchip/xc32/v2.30/bin/bin/../../lib/gcc/pic32mx/4.8.3/../../../../pic32mx/lib\libpic32.a(vector40.o)
                              C:\Users\Xeon5430\AppData\Local\Temp\ccMLxUIM.o (__vector_dispatch_40)
c:/program files (x86)/microchip/xc32/v2.30/bin/bin/../../lib/gcc/pic32mx/4.8.3/../../../../pic32mx/lib\libpic32.a(vector41.o)
                              C:\Users\Xeon5430\AppData\Local\Temp\ccMLxUIM.o (__vector_dispatch_41)
c:/program files (x86)/microchip/xc32/v2.30/bin/bin/../../lib/gcc/pic32mx/4.8.3/../../../../pic32mx/lib\libpic32.a(defaultinterrupt.o)
                              c:/program files (x86)/microchip/xc32/v2.30/bin/bin/../../lib/gcc/pic32mx/4.8.3/../../../../pic32mx/lib\libpic32.a(vector1.o) (_DefaultInterrupt)
c:/program files (x86)/microchip/xc32/v2.30/bin/bin/../../lib/gcc/pic32mx/4.8.3/../../../../pic32mx/lib\liblega-c.a(strncmp.o)
                              output\grbl_protocol.o (strncmp)
c:/program files (x86)/microchip/xc32/v2.30/bin/bin/../../lib/gcc/pic32mx/4.8.3/../../../../pic32mx/lib\liblega-c.a(strncpy.o)
                              output\Helpers.o (strncpy)
c:/program files (x86)/microchip/xc32/v2.30/bin/bin/../../lib/gcc/pic32mx/4.8.3/../../../../pic32mx/lib\libm.a(dp32mul.o)
                              c:/program files (x86)/microchip/xc32/v2.30/bin/bin/../../lib/gcc/pic32mx/4.8.3\libgcc.a(_fixunssfdi.o) (dpmul)
c:/program files (x86)/microchip/xc32/v2.30/bin/bin/../../lib/gcc/pic32mx/4.8.3/../../../../pic32mx/lib\libm.a(dp32subadd.o)
                              c:/program files (x86)/microchip/xc32/v2.30/bin/bin/../../lib/gcc/pic32mx/4.8.3\libgcc.a(_fixunssfdi.o) (dpsub)
c:/program files (x86)/microchip/xc32/v2.30/bin/bin/../../lib/gcc/pic32mx/4.8.3/../../../../pic32mx/lib\libm.a(dptofp.o)
                              c:/program files (x86)/microchip/xc32/v2.30/bin/bin/../../lib/gcc/pic32mx/4.8.3\libgcc.a(_floatundisf.o) (dptofp)
c:/program files (x86)/microchip/xc32/v2.30/bin/bin/../../lib/gcc/pic32mx/4.8.3/../../../../pic32mx/lib\libm.a(dptoul.o)
                              c:/program files (x86)/microchip/xc32/v2.30/bin/bin/../../lib/gcc/pic32mx/4.8.3\libgcc.a(_fixunssfdi.o) (dptoul)
c:/program files (x86)/microchip/xc32/v2.30/bin/bin/../../lib/gcc/pic32mx/4.8.3/../../../../pic32mx/lib\libm.a(fp32div.o)
                              output\gcode.o (fpdiv)
c:/program files (x86)/microchip/xc32/v2.30/bin/bin/../../lib/gcc/pic32mx/4.8.3/../../../../pic32mx/lib\libm.a(fp32mul.o)
                              output\gcode.o (fpmul)
c:/program files (x86)/microchip/xc32/v2.30/bin/bin/../../lib/gcc/pic32mx/4.8.3/../../../../pic32mx/lib\libm.a(fp32subadd.o)
                              output\gcode.o (fpsub)
c:/program files (x86)/microchip/xc32/v2.30/bin/bin/../../lib/gcc/pic32mx/4.8.3/../../../../pic32mx/lib\libm.a(fpceil32.o)
                              output\nuts_bolts.o (ceilf)
c:/program files (x86)/microchip/xc32/v2.30/bin/bin/../../lib/gcc/pic32mx/4.8.3/../../../../pic32mx/lib\libm.a(fpcmp.o)
                              output\gcode.o (fpcmp)
c:/program files (x86)/microchip/xc32/v2.30/bin/bin/../../lib/gcc/pic32mx/4.8.3/../../../../pic32mx/lib\libm.a(fpcos32.o)
                              output\motion_control.o (cosf)
c:/program files (x86)/microchip/xc32/v2.30/bin/bin/../../lib/gcc/pic32mx/4.8.3/../../../../pic32mx/lib\libm.a(fpfloo32.o)
                              output\motion_control.o (floorf)
c:/program files (x86)/microchip/xc32/v2.30/bin/bin/../../lib/gcc/pic32mx/4.8.3/../../../../pic32mx/lib\libm.a(fpreduct32.o)
                              c:/program files (x86)/microchip/xc32/v2.30/bin/bin/../../lib/gcc/pic32mx/4.8.3/../../../../pic32mx/lib\libm.a(fpcos32.o) (fpreduct)
c:/program files (x86)/microchip/xc32/v2.30/bin/bin/../../lib/gcc/pic32mx/4.8.3/../../../../pic32mx/lib\libm.a(fpsin32.o)
                              output\motion_control.o (sinf)
c:/program files (x86)/microchip/xc32/v2.30/bin/bin/../../lib/gcc/pic32mx/4.8.3/../../../../pic32mx/lib\libm.a(fptodp.o)
                              c:/program files (x86)/microchip/xc32/v2.30/bin/bin/../../lib/gcc/pic32mx/4.8.3\libgcc.a(_fixunssfdi.o) (fptodp)
c:/program files (x86)/microchip/xc32/v2.30/bin/bin/../../lib/gcc/pic32mx/4.8.3/../../../../pic32mx/lib\libm.a(fptoli.o)
                              output\gcode.o (fptosi)
c:/program files (x86)/microchip/xc32/v2.30/bin/bin/../../lib/gcc/pic32mx/4.8.3/../../../../pic32mx/lib\libm.a(fptoul.o)
                              output\gcode.o (fptoui)
c:/program files (x86)/microchip/xc32/v2.30/bin/bin/../../lib/gcc/pic32mx/4.8.3/../../../../pic32mx/lib\libm.a(litodp.o)
                              c:/program files (x86)/microchip/xc32/v2.30/bin/bin/../../lib/gcc/pic32mx/4.8.3\libgcc.a(floatunsidf.o) (litodp)
c:/program files (x86)/microchip/xc32/v2.30/bin/bin/../../lib/gcc/pic32mx/4.8.3/../../../../pic32mx/lib\libm.a(sincof32.o)
                              c:/program files (x86)/microchip/xc32/v2.30/bin/bin/../../lib/gcc/pic32mx/4.8.3/../../../../pic32mx/lib\libm.a(fpcos32.o) (_sincof)
c:/program files (x86)/microchip/xc32/v2.30/bin/bin/../../lib/gcc/pic32mx/4.8.3/../../../../pic32mx/lib\libm.a(sitofp.o)
                              output\gcode.o (sitofp)
c:/program files (x86)/microchip/xc32/v2.30/bin/bin/../../lib/gcc/pic32mx/4.8.3/../../../../pic32mx/lib\libm.a(w_atan2f.o)
                              output\motion_control.o (atan2f)
c:/program files (x86)/microchip/xc32/v2.30/bin/bin/../../lib/gcc/pic32mx/4.8.3/../../../../pic32mx/lib\libm.a(w_sqrtf.o)
                              output\gcode.o (sqrtf)
c:/program files (x86)/microchip/xc32/v2.30/bin/bin/../../lib/gcc/pic32mx/4.8.3/../../../../pic32mx/lib\libm.a(support.o)
                              c:/program files (x86)/microchip/xc32/v2.30/bin/bin/../../lib/gcc/pic32mx/4.8.3/../../../../pic32mx/lib\libm.a(w_atan2f.o) (copysignl)
c:/program files (x86)/microchip/xc32/v2.30/bin/bin/../../lib/gcc/pic32mx/4.8.3/../../../../pic32mx/lib\libm.a(dpldexp.o)
                              c:/program files (x86)/microchip/xc32/v2.30/bin/bin/../../lib/gcc/pic32mx/4.8.3/../../../../pic32mx/lib\libm.a(support.o) (ldexp)
c:/program files (x86)/microchip/xc32/v2.30/bin/bin/../../lib/gcc/pic32mx/4.8.3/../../../../pic32mx/lib\libm.a(dp32div.o)
                              c:/program files (x86)/microchip/xc32/v2.30/bin/bin/../../lib/gcc/pic32mx/4.8.3/../../../../pic32mx/lib\libm.a(support.o) (dpdiv)
c:/program files (x86)/microchip/xc32/v2.30/bin/bin/../../lib/gcc/pic32mx/4.8.3/../../../../pic32mx/lib\libm.a(dpcmp.o)
                              c:/program files (x86)/microchip/xc32/v2.30/bin/bin/../../lib/gcc/pic32mx/4.8.3/../../../../pic32mx/lib\libm.a(w_atan2f.o) (dpcmp)
c:/program files (x86)/microchip/xc32/v2.30/bin/bin/../../lib/gcc/pic32mx/4.8.3/../../../../pic32mx/lib\libm.a(fpatan2.o)
                              c:/program files (x86)/microchip/xc32/v2.30/bin/bin/../../lib/gcc/pic32mx/4.8.3/../../../../pic32mx/lib\libm.a(w_atan2f.o) (__mchp_atan2f)
c:/program files (x86)/microchip/xc32/v2.30/bin/bin/../../lib/gcc/pic32mx/4.8.3/../../../../pic32mx/lib\libm.a(fpexatan.o)
                              c:/program files (x86)/microchip/xc32/v2.30/bin/bin/../../lib/gcc/pic32mx/4.8.3/../../../../pic32mx/lib\libm.a(fpatan2.o) (fpexatan)
c:/program files (x86)/microchip/xc32/v2.30/bin/bin/../../lib/gcc/pic32mx/4.8.3/../../../../pic32mx/lib\libm.a(fpexsqrt32.o)
                              c:/program files (x86)/microchip/xc32/v2.30/bin/bin/../../lib/gcc/pic32mx/4.8.3/../../../../pic32mx/lib\libm.a(fpexatan.o) (fpexsqrt)
c:/program files (x86)/microchip/xc32/v2.30/bin/bin/../../lib/gcc/pic32mx/4.8.3/../../../../pic32mx/lib\libm.a(fpsqrt32.o)
                              c:/program files (x86)/microchip/xc32/v2.30/bin/bin/../../lib/gcc/pic32mx/4.8.3/../../../../pic32mx/lib\libm.a(w_sqrtf.o) (__mchp_sqrtf)
c:/program files (x86)/microchip/xc32/v2.30/bin/bin/../../lib/gcc/pic32mx/4.8.3/../../../../pic32mx/lib\libm.a(s_lib_ver.o)
                              c:/program files (x86)/microchip/xc32/v2.30/bin/bin/../../lib/gcc/pic32mx/4.8.3/../../../../pic32mx/lib\libm.a(w_sqrtf.o) (math_errhandling)
c:/program files (x86)/microchip/xc32/v2.30/bin/bin/../../lib/gcc/pic32mx/4.8.3/../../../../pic32mx/lib\libpic32.a(errno.o)
                              c:/program files (x86)/microchip/xc32/v2.30/bin/bin/../../lib/gcc/pic32mx/4.8.3/../../../../pic32mx/lib\libm.a(w_sqrtf.o) (errno)

Allocating common symbols
Common symbol       size              file

axis_1_buffer       0x1               output\motion_control.o
_return_addr        0x4               output\exceptions.o
center_axis0        0x4               output\motion_control.o
limit_state         0x1               output\limits.o
adResults           0x2               output\ad.o
protocol_dwellTime  0x4               output\grbl_protocol.o
grbl_toolchange_failsafe_timeout
                    0x4               output\grbl_toolchange.o
block_buffer_head   0x1               output\planner.o
eep_coord_data      0x78              output\settings.o
dummyTRIS           0x4               output\grbl.o
UDPTxCount          0x2               output\UDP.o
linear_per_segment  0x4               output\motion_control.o
tempB               0x4               output\exceptions.o
dummyPORT           0x4               output\grbl.o
coord_offset_eep    0xc               output\gcode.o
tempA               0x4               output\exceptions.o
r_axisi             0x4               output\motion_control.o
theta_per_segment   0x4               output\motion_control.o
next_buffer_head    0x1               output\planner.o
settings            0x60              output\settings.o
prep                0x38              output\stepper.o
sin_Ti              0x4               output\motion_control.o
segment_buffer      0x120             output\stepper.o
eep_manager_write_all_trigger
                    0x38              output\eep_manager.o
_excep_code         0x4               output\exceptions.o
sys                 0x14              output\system.o
tempResult          0x4               output\exceptions.o
axislock            0x1               output\limits.o
axis_linear_buffer  0x1               output\motion_control.o
segment_buffer_head
                    0x1               output\stepper.o
cos_T               0x4               output\motion_control.o
gc_state            0x44              output\gcode.o
approach            0x1               output\limits.o
udpSkt              0x1               output\ethernet_grbl.o
gcodePositionSave   0x4               output\gcode.o
myRingBuffer_grbl_protocol_rx
                    0x18              output\grbl_protocol.o
r_axis0             0x4               output\motion_control.o
homing_rate         0x4               output\limits.o
activeUDPSocket     0x1               output\UDP.o
block_buffer_tail   0x1               output\planner.o
remoteNode          0xa               output\StackTsk.o
plan_data           0xc               output\limits.o
axis_0_buffer       0x1               output\motion_control.o
n_active_axis       0x1               output\limits.o
eth_tx              0x200             output\ethernet_grbl.o
gc_block            0x40              output\gcode.o
read_dee_page       0x4               output\dee_page.o
dataEEFlags         0x4               output\dee.o
ReceivedDataBuffer  0x40              output\ethernet_grbl.o
target_buffer       0xc               output\motion_control.o
taskLists           0x480             output\task.o
r_axis1             0x4               output\motion_control.o
eep_settings_backup
                    0x60              output\settings.o
myRingBuffer_eth_rx
                    0x18              output\ethernet_grbl.o
offset_buffer       0xc               output\motion_control.o
sys_probe_position  0xc               output\system.o
sin_T               0x4               output\motion_control.o
pl                  0x1c              output\planner.o
cycle_mask_buffer   0x1               output\motion_control.o
segment_buffer_tail
                    0x1               output\stepper.o
st_block_buffer     0x1cc             output\stepper.o
eep_build_info      0x50              output\settings.o
sys_position        0xc               output\system.o
pl_data_buffer      0xc               output\motion_control.o
_excep_addr         0x4               output\exceptions.o
max_travel          0x4               output\limits.o
AppConfig           0x33              output\ethernet.o
coord_system_eep    0xc               output\gcode.o
grbl_bootloader_timer
                    0x4               output\grbl_bootloader.o
step_pin            0x3               output\limits.o
line_buffer         0x50              output\grbl_protocol.o
radius_buffer       0x4               output\motion_control.o
ToSendDataBuffer    0x40              output\ethernet_grbl.o
eep_settings        0x60              output\settings.o
UDPRxCount          0x2               output\UDP.o
segment_next_head   0x1               output\stepper.o
eth_rx              0x200             output\ethernet_grbl.o
is_clockwise_arc_buffer
                    0x1               output\motion_control.o
system_suspendTime  0x4               output\system.o
center_axis1        0x4               output\motion_control.o
myRingBuffer_eth_tx
                    0x18              output\ethernet_grbl.o
cycle_mask_asynch   0x1               output\limits.o
pwm_duty            0x40              output\pwm.o
grbl_protocol_rx    0x80              output\grbl_protocol.o
block_buffer_planned
                    0x1               output\planner.o
block_buffer        0xd00             output\planner.o
n_cycle             0x1               output\limits.o
dee_debug_page_status
                    0xc               output\dee_page.o
UDPSocketInfo       0xe0              output\UDP.o
dummyLAT            0x4               output\grbl.o
segments_buffer     0x2               output\motion_control.o
eep_settings_version
                    0x1               output\settings.o
st                  0x28              output\stepper.o
loopCntHistory      0xf0              output\main.o
position_buffer     0xc               output\motion_control.o
eep_manager_debug_address
                    0x38              output\eep_manager.o
cos_Ti              0x4               output\motion_control.o
target              0xc               output\limits.o
i_buffer            0x2               output\motion_control.o

Microchip PIC32 Memory-Usage Report

kseg0 Program-Memory Usage
section                    address  length [bytes]      (dec)  Description
-------                 ----------  -------------------------  -----------
.text                   0x9d007490          0xba8        2984  App's exec code 
.text.libm              0x9d008038           0xb4         180   
.rodata                 0x9d0080ec           0x10          16  Read-only const 
_070105a05e999525       0x9d008100            0xc          12   
.rodata                 0x9d00810c           0x14          20  Read-only const 
_070106605e999525       0x9d008120            0xc          12   
.rodata                 0x9d00812c           0x10          16  Read-only const 
_070107205e999525       0x9d008140           0x20          32   
.text                   0x9d008160         0x59b4       22964  App's exec code 
.text                   0x9d00db14         0x428c       17036  App's exec code 
.text                   0x9d011da0         0x2fc0       12224  App's exec code 
.text                   0x9d014d60         0x29c0       10688  App's exec code 
.text                   0x9d017720         0x2380        9088  App's exec code 
.text                   0x9d019aa0         0x1efc        7932  App's exec code 
.text                   0x9d01b99c         0x1d04        7428  App's exec code 
.text                   0x9d01d6a0          0xda0        3488  App's exec code 
.text                   0x9d01e440         0x13c0        5056  App's exec code 
.text                   0x9d01f800         0x11cc        4556  App's exec code 
.text                   0x9d0209cc          0xed0        3792  App's exec code 
.dinit                  0x9d02189c          0x640        1600   
.text                   0x9d021edc          0xc04        3076  App's exec code 
.text                   0x9d022ae0          0xab4        2740  App's exec code 
.text                   0x9d023594          0x980        2432  App's exec code 
.text.dp32mul           0x9d023f14          0x4b8        1208   
.text                   0x9d0243cc          0x480        1152  App's exec code 
.text.dreml             0x9d02484c          0x470        1136   
.text                   0x9d024cbc          0x434        1076  App's exec code 
.text.dp32subadd        0x9d0250f0          0x430        1072   
.text                   0x9d025520          0x3f0        1008  App's exec code 
.rodata                 0x9d025910          0x3d8         984  Read-only const 
.text                   0x9d025ce8          0x720        1824  App's exec code 
.text.libm              0x9d026408          0x350         848   
.text                   0x9d026758          0x68c        1676  App's exec code 
.text                   0x9d026de4          0x664        1636  App's exec code 
.text.dp32mul           0x9d027448          0x32c         812   
.text                   0x9d027774          0x5d8        1496  App's exec code 
.text                   0x9d027d4c          0x568        1384  App's exec code 
.text.fpsubadd          0x9d0282b4          0x278         632   
.text.libm              0x9d02852c          0x248         584   
.text                   0x9d028774          0x230         560  App's exec code 
.text.fp32div           0x9d0289a4          0x230         560   
.text                   0x9d028bd4          0x3f8        1016  App's exec code 
.text.atan2f            0x9d028fcc          0x1e0         480   
.text.fp32mul           0x9d0291ac          0x1bc         444   
.text.libm              0x9d029368          0x1ac         428   
.text                   0x9d029514          0x304         772  App's exec code 
.text                   0x9d029818          0x174         372  App's exec code 
.text.libm              0x9d02998c          0x16c         364   
.rodata                 0x9d029af8          0x168         360  Read-only const 
.text                   0x9d029c60          0x2d0         720  App's exec code 
.text                   0x9d029f30          0x2c8         712  App's exec code 
.text                   0x9d02a1f8          0x2b4         692  App's exec code 
.text                   0x9d02a4ac          0x138         312  App's exec code 
.text.dpcmp             0x9d02a5e4          0x12c         300   
.text.logbl             0x9d02a710          0x124         292   
.text                   0x9d02a834          0x120         288  App's exec code 
.text.libm              0x9d02a954          0x234         564   
.text._NVMOperation     0x9d02ab88          0x114         276   
.text.PowerSaveIdle     0x9d02ac9c          0x110         272   
.text.PowerSaveSleep    0x9d02adac          0x110         272   
.text.libm              0x9d02aebc          0x10c         268   
.rodata                 0x9d02afc8          0x100         256  Read-only const 
.text.strncpy           0x9d02b0c8          0x100         256   
.text.dptofp            0x9d02b1c8          0x100         256   
.text.libm.fpexsqrt     0x9d02b2c8           0xfc         252   
.text                   0x9d02b3c4           0xf0         240  App's exec code 
.text.strncmp           0x9d02b4b4           0xe0         224   
.text.general_exception 0x9d02b594           0xdc         220   
.text                   0x9d02b670           0xd4         212  App's exec code 
.text.libm              0x9d02b744           0xb0         176   
.text.fptodp            0x9d02b7f4           0xac         172   
.text                   0x9d02b8a0          0x14c         332  App's exec code 
.text.fpcmp             0x9d02b9ec           0x9c         156   
.text                   0x9d02ba88           0x90         144  App's exec code 
.text.dptoul            0x9d02bb18           0x8c         140   
.text                   0x9d02bba4           0x84         132  App's exec code 
.text.fptoli            0x9d02bc28           0x80         128   
.text.SoftReset         0x9d02bca8           0x7c         124   
.text.fptoul            0x9d02bd24           0x7c         124   
.text.litodp            0x9d02bda0           0x78         120   
.text                   0x9d02be18           0x74         116  App's exec code 
.text                   0x9d02be90           0x70         112  App's exec code 
.text.sqrtf             0x9d02bf00           0x68         104   
.text.sitofp            0x9d02bf68           0x60          96   
.text.copysign          0x9d02bfc8           0x60          96   
.text.copysignf         0x9d02c028           0x60          96   
.text.main_entry        0x9d02c088           0x54          84   
.text                   0x9d02c0dc           0x4c          76  App's exec code 
.text._bootstrap_except 0x9d02c128           0x48          72   
.vector_default         0x9d02c170           0x48          72   
.text                   0x9d02c1b8           0x88         136  App's exec code 
.rodata                 0x9d02c240           0x34          52  Read-only const 
.text.NVMWriteWord      0x9d02c274           0x34          52   
.text.copysignl         0x9d02c2a8           0x34          52   
.text.logb              0x9d02c2dc           0x34          52   
.text.logbf             0x9d02c310           0x34          52   
.text.finite            0x9d02c344           0x34          52   
.text.finitef           0x9d02c378           0x34          52   
.text.NVMErasePage      0x9d02c3ac           0x2c          44   
.rodata                 0x9d02c3d8           0x50          80  Read-only const 
.text.drem              0x9d02c428           0x28          40   
.text.dremf             0x9d02c450           0x28          40   
.rodata                 0x9d02c478           0x24          36  Read-only const 
.rodata                 0x9d02c4a0           0x3c          60  Read-only const 
.rodata                 0x9d02c4dc           0x38          56  Read-only const 
.rodata                 0x9d02c514           0x1c          28  Read-only const 
.text.INTRestoreInterru 0x9d02c530           0x1c          28   
.text.finitel           0x9d02c54c           0x1c          28   
.rodata                 0x9d02c568           0x18          24  Read-only const 
.text.CheKseg0CacheOff  0x9d02c580           0x18          24   
.text.CheKseg0CacheOn   0x9d02c598           0x18          24   
.text                   0x9d02c5b0           0x18          24  App's exec code 
.rodata                 0x9d02c5c8           0x20          32  Read-only const 
.rodata                 0x9d02c5e8           0x1c          28  Read-only const 
.rodata                 0x9d02c604            0xc          12  Read-only const 
.text.INTDisableInterru 0x9d02c610            0x8           8   
.rodata                 0x9d02c618           0x10          16  Read-only const 
.text._on_reset         0x9d02c628            0x8           8   
.text._on_bootstrap     0x9d02c630            0x8           8   
_07808a205e999526       0x9d030000         0x9000       36864   
      Total kseg0_program_mem used  :     0x2e198      188824  38.2% of 0x78b70

kseg0 Boot-Memory Usage
section                    address  length [bytes]      (dec)  Description
-------                 ----------  -------------------------  -----------
         Total kseg0_boot_mem used  :           0           0  

Exception-Memory Usage 
section                    address  length [bytes]      (dec)  Description
-------                 ----------  -------------------------  -----------
.app_excpt              0x9d006180           0x10          16  General-Exception 
.vector_0               0x9d006200            0x8           8  Interrupt Vector 0 
.vector_1               0x9d006220            0x8           8  Interrupt Vector 1 
.vector_2               0x9d006240            0x8           8  Interrupt Vector 2 
.vector_3               0x9d006260            0x8           8  Interrupt Vector 3 
.vector_4               0x9d006280            0x8           8  Interrupt Vector 4 
.vector_5               0x9d0062a0            0x8           8  Interrupt Vector 5 
.vector_6               0x9d0062c0            0x8           8  Interrupt Vector 6 
.vector_7               0x9d0062e0            0x8           8  Interrupt Vector 7 
.vector_8               0x9d006300            0x8           8  Interrupt Vector 8 
.vector_9               0x9d006320            0x8           8  Interrupt Vector 9 
.vector_10              0x9d006340            0x8           8  Interrupt Vector 10 
.vector_11              0x9d006360            0x8           8  Interrupt Vector 11 
.vector_12              0x9d006380            0x8           8  Interrupt Vector 12 
.vector_13              0x9d0063a0            0x8           8  Interrupt Vector 13 
.vector_14              0x9d0063c0            0x8           8  Interrupt Vector 14 
.vector_15              0x9d0063e0            0x8           8  Interrupt Vector 15 
.vector_16              0x9d006400            0x8           8  Interrupt Vector 16 
.vector_17              0x9d006420            0x8           8  Interrupt Vector 17 
.vector_18              0x9d006440            0x8           8  Interrupt Vector 18 
.vector_19              0x9d006460            0x8           8  Interrupt Vector 19 
.vector_20              0x9d006480            0x8           8  Interrupt Vector 20 
.vector_21              0x9d0064a0            0x8           8  Interrupt Vector 21 
.vector_22              0x9d0064c0            0x8           8  Interrupt Vector 22 
.vector_23              0x9d0064e0            0x8           8  Interrupt Vector 23 
.vector_24              0x9d006500            0x8           8  Interrupt Vector 24 
.vector_25              0x9d006520            0x8           8  Interrupt Vector 25 
.vector_26              0x9d006540            0x8           8  Interrupt Vector 26 
.vector_27              0x9d006560            0x8           8  Interrupt Vector 27 
.vector_28              0x9d006580            0x8           8  Interrupt Vector 28 
.vector_29              0x9d0065a0            0x8           8  Interrupt Vector 29 
.vector_30              0x9d0065c0            0x8           8  Interrupt Vector 30 
.vector_31              0x9d0065e0            0x8           8  Interrupt Vector 31 
.vector_32              0x9d006600            0x8           8  Interrupt Vector 32 
.vector_33              0x9d006620            0x8           8  Interrupt Vector 33 
.vector_34              0x9d006640            0x8           8  Interrupt Vector 34 
.vector_35              0x9d006660            0x8           8  Interrupt Vector 35 
.vector_36              0x9d006680            0x8           8  Interrupt Vector 36 
.vector_37              0x9d0066a0            0x8           8  Interrupt Vector 37 
.vector_38              0x9d0066c0            0x8           8  Interrupt Vector 38 
.vector_39              0x9d0066e0            0x8           8  Interrupt Vector 39 
.vector_40              0x9d006700            0x8           8  Interrupt Vector 40 
.vector_41              0x9d006720            0x8           8  Interrupt Vector 41 
.vector_42              0x9d006740            0x8           8  Interrupt Vector 42 
.vector_43              0x9d006760            0x8           8  Interrupt Vector 43 
.vector_44              0x9d006780            0x8           8  Interrupt Vector 44 
.vector_45              0x9d0067a0            0x8           8  Interrupt Vector 45 
          Total exception_mem used  :       0x180         384  9.4% of 0x1000

kseg1 Boot-Memory Usage
section                    address  length [bytes]      (dec)  Description
-------                 ----------  -------------------------  -----------
.reset                  0x9d007000          0x19c         412  Reset handler 
.bev_excpt              0x9d007380           0x10          16  BEV-Exception 
         Total kseg1_boot_mem used  :       0x1ac         428  36.6% of 0x490
        --------------------------------------------------------------------------
         Total Program Memory used  :     0x2e4c4      189636  37.9% of 0x7a000
        --------------------------------------------------------------------------


kseg1 Data-Memory Usage
section                    address  length [bytes]      (dec)  Description
-------                 ----------  -------------------------  -----------
.sdata                  0xa0000004           0x48          72  Small init data 
.sbss                   0xa000004c          0x284         644  Small uninit data 
.bss                    0xa00002d0         0x2044        8260  Uninitialized data 
.data                   0xa0002314          0x218         536  Initialized data 
.data                   0xa000252c           0x50          80  Initialized data 
.bss                    0xa000257c           0x38          56  Uninitialized data 
.bss                    0xa00025b4            0xc          12  Uninitialized data 
.data.math_errhandling_ 0xa00025c0            0x4           4   
.bss.errno              0xa00025c4            0x4           4   
         Total kseg1_data_mem used  :      0x25c4        9668  7.4% of 0x20000
        --------------------------------------------------------------------------
            Total Data Memory used  :      0x25c4        9668  7.4% of 0x20000
        --------------------------------------------------------------------------


Dynamic Data-Memory Reservation
section                    address  length [bytes]      (dec)  Description
-------                 ----------  -------------------------  -----------
heap                    0xa00025d0         0x1000        4096  Reserved for heap 
stack                   0xa00035e8        0x1ca10      117264  Reserved for stack 

        --------------------------------------------------------------------------

Discarded input sections

 .reginfo       0x00000000       0x18 output\tmr.o
 .reginfo       0x00000000       0x18 output\mal.o
 .reginfo       0x00000000       0x18 output\ringBuffer.o
 .reginfo       0x00000000       0x18 output\task.o
 .reginfo       0x00000000       0x18 output\sleep.o
 .reginfo       0x00000000       0x18 output\eeprom.o
 .reginfo       0x00000000       0x18 output\eep_manager.o
 .reginfo       0x00000000       0x18 output\exceptions.o
 .reginfo       0x00000000       0x18 output\isr.o
 .reginfo       0x00000000       0x18 output\main.o
 .reginfo       0x00000000       0x18 output\c_eep_manager.o
 .reginfo       0x00000000       0x18 output\app.o
 .reginfo       0x00000000       0x18 output\ad.o
 .reginfo       0x00000000       0x18 output\gcode.o
 .reginfo       0x00000000       0x18 output\limits.o
 .reginfo       0x00000000       0x18 output\coolant_control.o
 .reginfo       0x00000000       0x18 output\motion_control.o
 .reginfo       0x00000000       0x18 output\nuts_bolts.o
 .reginfo       0x00000000       0x18 output\planner.o
 .reginfo       0x00000000       0x18 output\print.o
 .reginfo       0x00000000       0x18 output\report.o
 .reginfo       0x00000000       0x18 output\settings.o
 .reginfo       0x00000000       0x18 output\spindle_control.o
 .reginfo       0x00000000       0x18 output\stepper.o
 .reginfo       0x00000000       0x18 output\system.o
 .reginfo       0x00000000       0x18 output\grbl.o
 .reginfo       0x00000000       0x18 output\pwm.o
 .reginfo       0x00000000       0x18 output\jog.o
 .reginfo       0x00000000       0x18 output\dee.o
 .reginfo       0x00000000       0x18 output\dee_page.o
 .reginfo       0x00000000       0x18 output\dee_page_helper.o
 .reginfo       0x00000000       0x18 output\eep_manager_crc.o
 .reginfo       0x00000000       0x18 output\system_control.o
 .reginfo       0x00000000       0x18 output\stepper_enable.o
 .reginfo       0x00000000       0x18 output\system_exec.o
 .reginfo       0x00000000       0x18 output\system_alarm.o
 .reginfo       0x00000000       0x18 output\grbl_eeprom.o
 .reginfo       0x00000000       0x18 output\bootloader_interface.o
 .reginfo       0x00000000       0x18 output\grbl_protocol.o
 .reginfo       0x00000000       0x18 output\stackmeasure.o
 .reginfo       0x00000000       0x18 output\stackmeasure_helper.o
 .reginfo       0x00000000       0x18 output\grbl_toolchange.o
 .reginfo       0x00000000       0x18 output\grbl_running.o
 .reginfo       0x00000000       0x18 output\grbl_probe.o
 .reginfo       0x00000000       0x18 output\grbl_bootloader.o
 .reginfo       0x00000000       0x18 output\ethernet.o
 .reginfo       0x00000000       0x18 output\ethernet_grbl.o
 .reginfo       0x00000000       0x18 output\UDP.o
 .reginfo       0x00000000       0x18 output\Tick.o
 .reginfo       0x00000000       0x18 output\Helpers.o
 .reginfo       0x00000000       0x18 output\ARP.o
 .reginfo       0x00000000       0x18 output\ENC28J60.o
 .reginfo       0x00000000       0x18 output\Delay.o
 .reginfo       0x00000000       0x18 output\IP.o
 .reginfo       0x00000000       0x18 output\StackTsk.o
 .reginfo       0x00000000       0x18 output\ICMP.o
 .reginfo       0x00000000       0x18 output\DHCP.o
 .reginfo       0x00000000       0x18 output\Announce.o
 .reginfo       0x00000000       0x18 c:/program files (x86)/microchip/xc32/v2.30/bin/bin/../../lib/gcc/pic32mx/4.8.3/../../../../pic32mx/lib/./proc/32MX470F512L\processor.o
 .reginfo       0x00000000       0x18 c:/program files (x86)/microchip/xc32/v2.30/bin/bin/../../lib/gcc/pic32mx/4.8.3/../../../../pic32mx/lib\libmchp_peripheral_32MX470F512L.a(soft_reset_lib.o)
 .reginfo       0x00000000       0x18 c:/program files (x86)/microchip/xc32/v2.30/bin/bin/../../lib/gcc/pic32mx/4.8.3/../../../../pic32mx/lib\libmchp_peripheral_32MX470F512L.a(pcache.o)
 .reginfo       0x00000000       0x18 c:/program files (x86)/microchip/xc32/v2.30/bin/bin/../../lib/gcc/pic32mx/4.8.3/../../../../pic32mx/lib\libmchp_peripheral_32MX470F512L.a(int_disable_interrupts_lib.o)
 .reginfo       0x00000000       0x18 c:/program files (x86)/microchip/xc32/v2.30/bin/bin/../../lib/gcc/pic32mx/4.8.3/../../../../pic32mx/lib\libmchp_peripheral_32MX470F512L.a(power_idle_lib.o)
 .reginfo       0x00000000       0x18 c:/program files (x86)/microchip/xc32/v2.30/bin/bin/../../lib/gcc/pic32mx/4.8.3/../../../../pic32mx/lib\libmchp_peripheral_32MX470F512L.a(power_sleep_lib.o)
 .reginfo       0x00000000       0x18 c:/program files (x86)/microchip/xc32/v2.30/bin/bin/../../lib/gcc/pic32mx/4.8.3/../../../../pic32mx/lib\libmchp_peripheral_32MX470F512L.a(nvm_erase_page_lib.o)
 .reginfo       0x00000000       0x18 c:/program files (x86)/microchip/xc32/v2.30/bin/bin/../../lib/gcc/pic32mx/4.8.3/../../../../pic32mx/lib\libmchp_peripheral_32MX470F512L.a(nvm_operation_lib.o)
 .reginfo       0x00000000       0x18 c:/program files (x86)/microchip/xc32/v2.30/bin/bin/../../lib/gcc/pic32mx/4.8.3/../../../../pic32mx/lib\libmchp_peripheral_32MX470F512L.a(nvm_write_word_lib.o)
 .reginfo       0x00000000       0x18 c:/program files (x86)/microchip/xc32/v2.30/bin/bin/../../lib/gcc/pic32mx/4.8.3/../../../../pic32mx/lib\libmchp_peripheral_32MX470F512L.a(int_restore_interrupts_lib.o)
 .reginfo       0x00000000       0x18 C:\Users\Xeon5430\AppData\Local\Temp\cc0y46GM.o
 .reginfo       0x00000000       0x18 C:\Users\Xeon5430\AppData\Local\Temp\ccuxsepe.o
 .reginfo       0x00000000       0x18 C:\Users\Xeon5430\AppData\Local\Temp\ccMLxUIM.o
 .discard       0x00000000       0xb8 C:\Users\Xeon5430\AppData\Local\Temp\ccMLxUIM.o
 .reginfo       0x00000000       0x18 c:/program files (x86)/microchip/xc32/v2.30/bin/bin/../../lib/gcc/pic32mx/4.8.3/../../../../pic32mx/lib/./proc/32MX470F512L\default_isr_vectors.o
 .discard       0x00000000       0xb8 c:/program files (x86)/microchip/xc32/v2.30/bin/bin/../../lib/gcc/pic32mx/4.8.3/../../../../pic32mx/lib/./proc/32MX470F512L\default_isr_vectors.o
 .reginfo       0x00000000       0x18 c:/program files (x86)/microchip/xc32/v2.30/bin/bin/../../lib/gcc/pic32mx/4.8.3/../../../../pic32mx/lib\pic32_software_reset.o
 .reginfo       0x00000000       0x18 c:/program files (x86)/microchip/xc32/v2.30/bin/bin/../../lib/gcc/pic32mx/4.8.3\libgcc.a(_fixunssfdi.o)
 .reginfo       0x00000000       0x18 c:/program files (x86)/microchip/xc32/v2.30/bin/bin/../../lib/gcc/pic32mx/4.8.3\libgcc.a(_floatundisf.o)
 .reginfo       0x00000000       0x18 c:/program files (x86)/microchip/xc32/v2.30/bin/bin/../../lib/gcc/pic32mx/4.8.3\libgcc.a(floatunsisf.o)
 .reginfo       0x00000000       0x18 c:/program files (x86)/microchip/xc32/v2.30/bin/bin/../../lib/gcc/pic32mx/4.8.3\libgcc.a(floatunsidf.o)
 .reginfo       0x00000000       0x18 c:/program files (x86)/microchip/xc32/v2.30/bin/bin/../../lib/gcc/pic32mx/4.8.3/../../../../pic32mx/lib\libpic32.a(memcpy.o)
 .reginfo       0x00000000       0x18 c:/program files (x86)/microchip/xc32/v2.30/bin/bin/../../lib/gcc/pic32mx/4.8.3/../../../../pic32mx/lib\libpic32.a(memset.o)
 .reginfo       0x00000000       0x18 c:/program files (x86)/microchip/xc32/v2.30/bin/bin/../../lib/gcc/pic32mx/4.8.3/../../../../pic32mx/lib\libpic32.a(strcmp.o)
 .reginfo       0x00000000       0x18 c:/program files (x86)/microchip/xc32/v2.30/bin/bin/../../lib/gcc/pic32mx/4.8.3/../../../../pic32mx/lib\libpic32.a(strlen.o)
 .reginfo       0x00000000       0x18 c:/program files (x86)/microchip/xc32/v2.30/bin/bin/../../lib/gcc/pic32mx/4.8.3/../../../../pic32mx/lib\libpic32.a(default-bootstrap-exception-handler.o)
 .reginfo       0x00000000       0x18 c:/program files (x86)/microchip/xc32/v2.30/bin/bin/../../lib/gcc/pic32mx/4.8.3/../../../../pic32mx/lib\libpic32.a(default-on-reset.o)
 .reginfo       0x00000000       0x18 c:/program files (x86)/microchip/xc32/v2.30/bin/bin/../../lib/gcc/pic32mx/4.8.3/../../../../pic32mx/lib\libpic32.a(default-on-bootstrap.o)
 .reginfo       0x00000000       0x18 c:/program files (x86)/microchip/xc32/v2.30/bin/bin/../../lib/gcc/pic32mx/4.8.3/../../../../pic32mx/lib\libpic32.a(default-nmi-handler.o)
 .reginfo       0x00000000       0x18 c:/program files (x86)/microchip/xc32/v2.30/bin/bin/../../lib/gcc/pic32mx/4.8.3/../../../../pic32mx/lib\libpic32.a(pic32_data_init.o)
 .reginfo       0x00000000       0x18 c:/program files (x86)/microchip/xc32/v2.30/bin/bin/../../lib/gcc/pic32mx/4.8.3/../../../../pic32mx/lib\libpic32.a(general-exception.o)
 .reginfo       0x00000000       0x18 c:/program files (x86)/microchip/xc32/v2.30/bin/bin/../../lib/gcc/pic32mx/4.8.3/../../../../pic32mx/lib\libpic32.a(vector1.o)
 .reginfo       0x00000000       0x18 c:/program files (x86)/microchip/xc32/v2.30/bin/bin/../../lib/gcc/pic32mx/4.8.3/../../../../pic32mx/lib\libpic32.a(vector2.o)
 .reginfo       0x00000000       0x18 c:/program files (x86)/microchip/xc32/v2.30/bin/bin/../../lib/gcc/pic32mx/4.8.3/../../../../pic32mx/lib\libpic32.a(vector3.o)
 .reginfo       0x00000000       0x18 c:/program files (x86)/microchip/xc32/v2.30/bin/bin/../../lib/gcc/pic32mx/4.8.3/../../../../pic32mx/lib\libpic32.a(vector5.o)
 .reginfo       0x00000000       0x18 c:/program files (x86)/microchip/xc32/v2.30/bin/bin/../../lib/gcc/pic32mx/4.8.3/../../../../pic32mx/lib\libpic32.a(vector6.o)
 .reginfo       0x00000000       0x18 c:/program files (x86)/microchip/xc32/v2.30/bin/bin/../../lib/gcc/pic32mx/4.8.3/../../../../pic32mx/lib\libpic32.a(vector7.o)
 .reginfo       0x00000000       0x18 c:/program files (x86)/microchip/xc32/v2.30/bin/bin/../../lib/gcc/pic32mx/4.8.3/../../../../pic32mx/lib\libpic32.a(vector9.o)
 .reginfo       0x00000000       0x18 c:/program files (x86)/microchip/xc32/v2.30/bin/bin/../../lib/gcc/pic32mx/4.8.3/../../../../pic32mx/lib\libpic32.a(vector10.o)
 .reginfo       0x00000000       0x18 c:/program files (x86)/microchip/xc32/v2.30/bin/bin/../../lib/gcc/pic32mx/4.8.3/../../../../pic32mx/lib\libpic32.a(vector11.o)
 .reginfo       0x00000000       0x18 c:/program files (x86)/microchip/xc32/v2.30/bin/bin/../../lib/gcc/pic32mx/4.8.3/../../../../pic32mx/lib\libpic32.a(vector13.o)
 .reginfo       0x00000000       0x18 c:/program files (x86)/microchip/xc32/v2.30/bin/bin/../../lib/gcc/pic32mx/4.8.3/../../../../pic32mx/lib\libpic32.a(vector14.o)
 .reginfo       0x00000000       0x18 c:/program files (x86)/microchip/xc32/v2.30/bin/bin/../../lib/gcc/pic32mx/4.8.3/../../../../pic32mx/lib\libpic32.a(vector17.o)
 .reginfo       0x00000000       0x18 c:/program files (x86)/microchip/xc32/v2.30/bin/bin/../../lib/gcc/pic32mx/4.8.3/../../../../pic32mx/lib\libpic32.a(vector18.o)
 .reginfo       0x00000000       0x18 c:/program files (x86)/microchip/xc32/v2.30/bin/bin/../../lib/gcc/pic32mx/4.8.3/../../../../pic32mx/lib\libpic32.a(vector19.o)
 .reginfo       0x00000000       0x18 c:/program files (x86)/microchip/xc32/v2.30/bin/bin/../../lib/gcc/pic32mx/4.8.3/../../../../pic32mx/lib\libpic32.a(vector21.o)
 .reginfo       0x00000000       0x18 c:/program files (x86)/microchip/xc32/v2.30/bin/bin/../../lib/gcc/pic32mx/4.8.3/../../../../pic32mx/lib\libpic32.a(vector22.o)
 .reginfo       0x00000000       0x18 c:/program files (x86)/microchip/xc32/v2.30/bin/bin/../../lib/gcc/pic32mx/4.8.3/../../../../pic32mx/lib\libpic32.a(vector23.o)
 .reginfo       0x00000000       0x18 c:/program files (x86)/microchip/xc32/v2.30/bin/bin/../../lib/gcc/pic32mx/4.8.3/../../../../pic32mx/lib\libpic32.a(vector24.o)
 .reginfo       0x00000000       0x18 c:/program files (x86)/microchip/xc32/v2.30/bin/bin/../../lib/gcc/pic32mx/4.8.3/../../../../pic32mx/lib\libpic32.a(vector25.o)
 .reginfo       0x00000000       0x18 c:/program files (x86)/microchip/xc32/v2.30/bin/bin/../../lib/gcc/pic32mx/4.8.3/../../../../pic32mx/lib\libpic32.a(vector26.o)
 .reginfo       0x00000000       0x18 c:/program files (x86)/microchip/xc32/v2.30/bin/bin/../../lib/gcc/pic32mx/4.8.3/../../../../pic32mx/lib\libpic32.a(vector27.o)
 .reginfo       0x00000000       0x18 c:/program files (x86)/microchip/xc32/v2.30/bin/bin/../../lib/gcc/pic32mx/4.8.3/../../../../pic32mx/lib\libpic32.a(vector28.o)
 .reginfo       0x00000000       0x18 c:/program files (x86)/microchip/xc32/v2.30/bin/bin/../../lib/gcc/pic32mx/4.8.3/../../../../pic32mx/lib\libpic32.a(vector30.o)
 .reginfo       0x00000000       0x18 c:/program files (x86)/microchip/xc32/v2.30/bin/bin/../../lib/gcc/pic32mx/4.8.3/../../../../pic32mx/lib\libpic32.a(vector32.o)
 .reginfo       0x00000000       0x18 c:/program files (x86)/microchip/xc32/v2.30/bin/bin/../../lib/gcc/pic32mx/4.8.3/../../../../pic32mx/lib\libpic32.a(vector34.o)
 .reginfo       0x00000000       0x18 c:/program files (x86)/microchip/xc32/v2.30/bin/bin/../../lib/gcc/pic32mx/4.8.3/../../../../pic32mx/lib\libpic32.a(vector37.o)
 .reginfo       0x00000000       0x18 c:/program files (x86)/microchip/xc32/v2.30/bin/bin/../../lib/gcc/pic32mx/4.8.3/../../../../pic32mx/lib\libpic32.a(vector38.o)
 .reginfo       0x00000000       0x18 c:/program files (x86)/microchip/xc32/v2.30/bin/bin/../../lib/gcc/pic32mx/4.8.3/../../../../pic32mx/lib\libpic32.a(vector39.o)
 .reginfo       0x00000000       0x18 c:/program files (x86)/microchip/xc32/v2.30/bin/bin/../../lib/gcc/pic32mx/4.8.3/../../../../pic32mx/lib\libpic32.a(vector40.o)
 .reginfo       0x00000000       0x18 c:/program files (x86)/microchip/xc32/v2.30/bin/bin/../../lib/gcc/pic32mx/4.8.3/../../../../pic32mx/lib\libpic32.a(vector41.o)
 .reginfo       0x00000000       0x18 c:/program files (x86)/microchip/xc32/v2.30/bin/bin/../../lib/gcc/pic32mx/4.8.3/../../../../pic32mx/lib\libpic32.a(defaultinterrupt.o)
 .reginfo       0x00000000       0x18 c:/program files (x86)/microchip/xc32/v2.30/bin/bin/../../lib/gcc/pic32mx/4.8.3/../../../../pic32mx/lib\liblega-c.a(strncmp.o)
 .reginfo       0x00000000       0x18 c:/program files (x86)/microchip/xc32/v2.30/bin/bin/../../lib/gcc/pic32mx/4.8.3/../../../../pic32mx/lib\liblega-c.a(strncpy.o)
 .reginfo       0x00000000       0x18 c:/program files (x86)/microchip/xc32/v2.30/bin/bin/../../lib/gcc/pic32mx/4.8.3/../../../../pic32mx/lib\libm.a(dp32mul.o)
 .reginfo       0x00000000       0x18 c:/program files (x86)/microchip/xc32/v2.30/bin/bin/../../lib/gcc/pic32mx/4.8.3/../../../../pic32mx/lib\libm.a(dp32subadd.o)
 .reginfo       0x00000000       0x18 c:/program files (x86)/microchip/xc32/v2.30/bin/bin/../../lib/gcc/pic32mx/4.8.3/../../../../pic32mx/lib\libm.a(dptofp.o)
 .reginfo       0x00000000       0x18 c:/program files (x86)/microchip/xc32/v2.30/bin/bin/../../lib/gcc/pic32mx/4.8.3/../../../../pic32mx/lib\libm.a(dptoul.o)
 .reginfo       0x00000000       0x18 c:/program files (x86)/microchip/xc32/v2.30/bin/bin/../../lib/gcc/pic32mx/4.8.3/../../../../pic32mx/lib\libm.a(fp32div.o)
 .reginfo       0x00000000       0x18 c:/program files (x86)/microchip/xc32/v2.30/bin/bin/../../lib/gcc/pic32mx/4.8.3/../../../../pic32mx/lib\libm.a(fp32mul.o)
 .reginfo       0x00000000       0x18 c:/program files (x86)/microchip/xc32/v2.30/bin/bin/../../lib/gcc/pic32mx/4.8.3/../../../../pic32mx/lib\libm.a(fp32subadd.o)
 .reginfo       0x00000000       0x18 c:/program files (x86)/microchip/xc32/v2.30/bin/bin/../../lib/gcc/pic32mx/4.8.3/../../../../pic32mx/lib\libm.a(fpceil32.o)
 .reginfo       0x00000000       0x18 c:/program files (x86)/microchip/xc32/v2.30/bin/bin/../../lib/gcc/pic32mx/4.8.3/../../../../pic32mx/lib\libm.a(fpcmp.o)
 .reginfo       0x00000000       0x18 c:/program files (x86)/microchip/xc32/v2.30/bin/bin/../../lib/gcc/pic32mx/4.8.3/../../../../pic32mx/lib\libm.a(fpcos32.o)
 .reginfo       0x00000000       0x18 c:/program files (x86)/microchip/xc32/v2.30/bin/bin/../../lib/gcc/pic32mx/4.8.3/../../../../pic32mx/lib\libm.a(fpfloo32.o)
 .reginfo       0x00000000       0x18 c:/program files (x86)/microchip/xc32/v2.30/bin/bin/../../lib/gcc/pic32mx/4.8.3/../../../../pic32mx/lib\libm.a(fpreduct32.o)
 .reginfo       0x00000000       0x18 c:/program files (x86)/microchip/xc32/v2.30/bin/bin/../../lib/gcc/pic32mx/4.8.3/../../../../pic32mx/lib\libm.a(fpsin32.o)
 .reginfo       0x00000000       0x18 c:/program files (x86)/microchip/xc32/v2.30/bin/bin/../../lib/gcc/pic32mx/4.8.3/../../../../pic32mx/lib\libm.a(fptodp.o)
 .reginfo       0x00000000       0x18 c:/program files (x86)/microchip/xc32/v2.30/bin/bin/../../lib/gcc/pic32mx/4.8.3/../../../../pic32mx/lib\libm.a(fptoli.o)
 .reginfo       0x00000000       0x18 c:/program files (x86)/microchip/xc32/v2.30/bin/bin/../../lib/gcc/pic32mx/4.8.3/../../../../pic32mx/lib\libm.a(fptoul.o)
 .reginfo       0x00000000       0x18 c:/program files (x86)/microchip/xc32/v2.30/bin/bin/../../lib/gcc/pic32mx/4.8.3/../../../../pic32mx/lib\libm.a(litodp.o)
 .reginfo       0x00000000       0x18 c:/program files (x86)/microchip/xc32/v2.30/bin/bin/../../lib/gcc/pic32mx/4.8.3/../../../../pic32mx/lib\libm.a(sincof32.o)
 .reginfo       0x00000000       0x18 c:/program files (x86)/microchip/xc32/v2.30/bin/bin/../../lib/gcc/pic32mx/4.8.3/../../../../pic32mx/lib\libm.a(sitofp.o)
 .reginfo       0x00000000       0x18 c:/program files (x86)/microchip/xc32/v2.30/bin/bin/../../lib/gcc/pic32mx/4.8.3/../../../../pic32mx/lib\libm.a(w_atan2f.o)
 .reginfo       0x00000000       0x18 c:/program files (x86)/microchip/xc32/v2.30/bin/bin/../../lib/gcc/pic32mx/4.8.3/../../../../pic32mx/lib\libm.a(w_sqrtf.o)
 .reginfo       0x00000000       0x18 c:/program files (x86)/microchip/xc32/v2.30/bin/bin/../../lib/gcc/pic32mx/4.8.3/../../../../pic32mx/lib\libm.a(support.o)
 .reginfo       0x00000000       0x18 c:/program files (x86)/microchip/xc32/v2.30/bin/bin/../../lib/gcc/pic32mx/4.8.3/../../../../pic32mx/lib\libm.a(dpldexp.o)
 .reginfo       0x00000000       0x18 c:/program files (x86)/microchip/xc32/v2.30/bin/bin/../../lib/gcc/pic32mx/4.8.3/../../../../pic32mx/lib\libm.a(dp32div.o)
 .reginfo       0x00000000       0x18 c:/program files (x86)/microchip/xc32/v2.30/bin/bin/../../lib/gcc/pic32mx/4.8.3/../../../../pic32mx/lib\libm.a(dpcmp.o)
 .reginfo       0x00000000       0x18 c:/program files (x86)/microchip/xc32/v2.30/bin/bin/../../lib/gcc/pic32mx/4.8.3/../../../../pic32mx/lib\libm.a(fpatan2.o)
 .reginfo       0x00000000       0x18 c:/program files (x86)/microchip/xc32/v2.30/bin/bin/../../lib/gcc/pic32mx/4.8.3/../../../../pic32mx/lib\libm.a(fpexatan.o)
 .reginfo       0x00000000       0x18 c:/program files (x86)/microchip/xc32/v2.30/bin/bin/../../lib/gcc/pic32mx/4.8.3/../../../../pic32mx/lib\libm.a(fpexsqrt32.o)
 .reginfo       0x00000000       0x18 c:/program files (x86)/microchip/xc32/v2.30/bin/bin/../../lib/gcc/pic32mx/4.8.3/../../../../pic32mx/lib\libm.a(fpsqrt32.o)
 .reginfo       0x00000000       0x18 c:/program files (x86)/microchip/xc32/v2.30/bin/bin/../../lib/gcc/pic32mx/4.8.3/../../../../pic32mx/lib\libm.a(s_lib_ver.o)
 .reginfo       0x00000000       0x18 c:/program files (x86)/microchip/xc32/v2.30/bin/bin/../../lib/gcc/pic32mx/4.8.3/../../../../pic32mx/lib\libpic32.a(errno.o)

Memory Configuration

Name             Origin             Length             Attributes
kseg0_program_mem 0x9d007490         0x00078b70         xr
kseg0_boot_mem   0x9d006000         0x00000000
exception_mem    0x9d006000         0x00001000
kseg1_boot_mem   0x9d007000         0x00000490
debug_exec_mem   0xbfc02000         0x00000ff0
config3          0xbfc02ff0         0x00000004
config2          0xbfc02ff4         0x00000004
config1          0xbfc02ff8         0x00000004
config0          0xbfc02ffc         0x00000004
kseg1_data_mem   0xa0000000         0x00020000         w !x
sfrs             0xbf800000         0x00100000
configsfrs       0xbfc02ff0         0x00000010
*default*        0x00000000         0xffffffff

Linker script and memory map

LOAD c:/program files (x86)/microchip/xc32/v2.30/bin/bin/../../lib/gcc/pic32mx/4.8.3/../../../../pic32mx/lib\debug-exception-return.o
LOAD output\tmr.o
LOAD output\mal.o
LOAD output\ringBuffer.o
LOAD output\task.o
LOAD output\sleep.o
LOAD output\eeprom.o
LOAD output\eep_manager.o
LOAD output\exceptions.o
LOAD output\isr.o
LOAD output\main.o
LOAD output\c_eep_manager.o
LOAD output\app.o
LOAD output\ad.o
LOAD output\gcode.o
LOAD output\limits.o
LOAD output\coolant_control.o
LOAD output\motion_control.o
LOAD output\nuts_bolts.o
LOAD output\planner.o
LOAD output\print.o
LOAD output\report.o
LOAD output\settings.o
LOAD output\spindle_control.o
LOAD output\stepper.o
LOAD output\system.o
LOAD output\grbl.o
LOAD output\pwm.o
LOAD output\jog.o
LOAD output\dee.o
LOAD output\dee_page.o
LOAD output\dee_page_helper.o
LOAD output\eep_manager_crc.o
LOAD output\system_control.o
LOAD output\stepper_enable.o
LOAD output\system_exec.o
LOAD output\system_alarm.o
LOAD output\grbl_eeprom.o
LOAD output\bootloader_interface.o
LOAD output\grbl_protocol.o
LOAD output\stackmeasure.o
LOAD output\stackmeasure_helper.o
LOAD output\grbl_toolchange.o
LOAD output\grbl_running.o
LOAD output\grbl_probe.o
LOAD output\grbl_bootloader.o
LOAD output\ethernet.o
LOAD output\ethernet_grbl.o
LOAD output\UDP.o
LOAD output\Tick.o
LOAD output\Helpers.o
LOAD output\ARP.o
LOAD output\ENC28J60.o
LOAD output\Delay.o
LOAD output\IP.o
LOAD output\StackTsk.o
LOAD output\ICMP.o
LOAD output\DHCP.o
LOAD output\Announce.o
                0x00000400                PROVIDE (_min_stack_size, 0x400)
LOAD c:/program files (x86)/microchip/xc32/v2.30/bin/bin/../../lib/gcc/pic32mx/4.8.3/../../../../pic32mx/lib/./proc/32MX470F512L\processor.o
START GROUP
LOAD c:/program files (x86)/microchip/xc32/v2.30/bin/bin/../../lib/gcc/pic32mx/4.8.3/../../../../pic32mx/lib\libmchp_peripheral.a
END GROUP
START GROUP
LOAD c:/program files (x86)/microchip/xc32/v2.30/bin/bin/../../lib/gcc/pic32mx/4.8.3/../../../../pic32mx/lib\libmchp_peripheral_32MX470F512L.a
END GROUP
                0x00000001                PROVIDE (_vector_spacing, 0x1)
                0x9d006000                _ebase_address = 0x9d006000
                0x9d007000                _RESET_ADDR = 0x9d007000
                0x9d007380                _BEV_EXCPT_ADDR = 0x9d007380
                0x9d007480                _DBG_EXCPT_ADDR = 0x9d007480
                0xbfc02000                _DBG_CODE_ADDR = 0xbfc02000
                0x00000ff0                _DBG_CODE_SIZE = 0xff0
                0x9d006180                _GEN_EXCPT_ADDR = (_ebase_address + 0x180)

.config_BFC02FF0
 *(.config_BFC02FF0)

.config_BFC02FF4
 *(.config_BFC02FF4)

.config_BFC02FF8
 *(.config_BFC02FF8)

.config_BFC02FFC
 *(.config_BFC02FFC)
                0xbfc02000                PROVIDE (_DBG_CODE_ADDR, 0xbfc02000)
                0x00000ff0                PROVIDE (_DBG_CODE_SIZE, 0xff0)

.reset          0x9d007000      0x19c
 *(.reset)
 .reset         0x9d007000        0x8 C:\Users\Xeon5430\AppData\Local\Temp\cc0y46GM.o
                0x9d007000                _reset
 *(.reset.startup)
 .reset.startup
                0x9d007008      0x194 C:\Users\Xeon5430\AppData\Local\Temp\cc0y46GM.o
                0x9d007008                _startup

.bev_excpt      0x9d007380       0x10
 *(.bev_handler)
 .bev_handler   0x9d007380       0x10 C:\Users\Xeon5430\AppData\Local\Temp\cc0y46GM.o

.dbg_excpt      0x9d007480        0x0
                0x9d007480                . = (. + DEFINED (_DEBUGGER)?0x8:0x0)

.dbg_code       0xbfc02000        0x0
                0xbfc02000                . = (. + DEFINED (_DEBUGGER)?_DBG_CODE_SIZE:0x0)

.app_excpt      0x9d006180       0x10
 *(.gen_handler)
 .gen_handler   0x9d006180       0x10 C:\Users\Xeon5430\AppData\Local\Temp\cc0y46GM.o

.vector_0       0x9d006200        0x8
 *(.vector_0)
 .vector_0      0x9d006200        0x8 output\isr.o
                0x9d006200                __vector_dispatch_0
                0x00000001                ASSERT (((_vector_spacing == 0x0) || (SIZEOF (.vector_0) <= (_vector_spacing << 0x5))), function at exception vector 0 too large)

.vector_1       0x9d006220        0x8
 *(.vector_1)
 .vector_1      0x9d006220        0x8 c:/program files (x86)/microchip/xc32/v2.30/bin/bin/../../lib/gcc/pic32mx/4.8.3/../../../../pic32mx/lib\libpic32.a(vector1.o)
                0x9d006220                __vector_dispatch_1
                0x00000001                ASSERT (((_vector_spacing == 0x0) || (SIZEOF (.vector_1) <= (_vector_spacing << 0x5))), function at exception vector 1 too large)

.vector_2       0x9d006240        0x8
 *(.vector_2)
 .vector_2      0x9d006240        0x8 c:/program files (x86)/microchip/xc32/v2.30/bin/bin/../../lib/gcc/pic32mx/4.8.3/../../../../pic32mx/lib\libpic32.a(vector2.o)
                0x9d006240                __vector_dispatch_2
                0x00000001                ASSERT (((_vector_spacing == 0x0) || (SIZEOF (.vector_2) <= (_vector_spacing << 0x5))), function at exception vector 2 too large)

.vector_3       0x9d006260        0x8
 *(.vector_3)
 .vector_3      0x9d006260        0x8 c:/program files (x86)/microchip/xc32/v2.30/bin/bin/../../lib/gcc/pic32mx/4.8.3/../../../../pic32mx/lib\libpic32.a(vector3.o)
                0x9d006260                __vector_dispatch_3
                0x00000001                ASSERT (((_vector_spacing == 0x0) || (SIZEOF (.vector_3) <= (_vector_spacing << 0x5))), function at exception vector 3 too large)

.vector_4       0x9d006280        0x8
 *(.vector_4)
 .vector_4      0x9d006280        0x8 output\isr.o
                0x9d006280                __vector_dispatch_4
                0x00000001                ASSERT (((_vector_spacing == 0x0) || (SIZEOF (.vector_4) <= (_vector_spacing << 0x5))), function at exception vector 4 too large)

.vector_5       0x9d0062a0        0x8
 *(.vector_5)
 .vector_5      0x9d0062a0        0x8 c:/program files (x86)/microchip/xc32/v2.30/bin/bin/../../lib/gcc/pic32mx/4.8.3/../../../../pic32mx/lib\libpic32.a(vector5.o)
                0x9d0062a0                __vector_dispatch_5
                0x00000001                ASSERT (((_vector_spacing == 0x0) || (SIZEOF (.vector_5) <= (_vector_spacing << 0x5))), function at exception vector 5 too large)

.vector_6       0x9d0062c0        0x8
 *(.vector_6)
 .vector_6      0x9d0062c0        0x8 c:/program files (x86)/microchip/xc32/v2.30/bin/bin/../../lib/gcc/pic32mx/4.8.3/../../../../pic32mx/lib\libpic32.a(vector6.o)
                0x9d0062c0                __vector_dispatch_6
                0x00000001                ASSERT (((_vector_spacing == 0x0) || (SIZEOF (.vector_6) <= (_vector_spacing << 0x5))), function at exception vector 6 too large)

.vector_7       0x9d0062e0        0x8
 *(.vector_7)
 .vector_7      0x9d0062e0        0x8 c:/program files (x86)/microchip/xc32/v2.30/bin/bin/../../lib/gcc/pic32mx/4.8.3/../../../../pic32mx/lib\libpic32.a(vector7.o)
                0x9d0062e0                __vector_dispatch_7
                0x00000001                ASSERT (((_vector_spacing == 0x0) || (SIZEOF (.vector_7) <= (_vector_spacing << 0x5))), function at exception vector 7 too large)

.vector_8       0x9d006300        0x8
 *(.vector_8)
 .vector_8      0x9d006300        0x8 output\isr.o
                0x9d006300                __vector_dispatch_8
                0x00000001                ASSERT (((_vector_spacing == 0x0) || (SIZEOF (.vector_8) <= (_vector_spacing << 0x5))), function at exception vector 8 too large)

.vector_9       0x9d006320        0x8
 *(.vector_9)
 .vector_9      0x9d006320        0x8 c:/program files (x86)/microchip/xc32/v2.30/bin/bin/../../lib/gcc/pic32mx/4.8.3/../../../../pic32mx/lib\libpic32.a(vector9.o)
                0x9d006320                __vector_dispatch_9
                0x00000001                ASSERT (((_vector_spacing == 0x0) || (SIZEOF (.vector_9) <= (_vector_spacing << 0x5))), function at exception vector 9 too large)

.vector_10      0x9d006340        0x8
 *(.vector_10)
 .vector_10     0x9d006340        0x8 c:/program files (x86)/microchip/xc32/v2.30/bin/bin/../../lib/gcc/pic32mx/4.8.3/../../../../pic32mx/lib\libpic32.a(vector10.o)
                0x9d006340                __vector_dispatch_10
                0x00000001                ASSERT (((_vector_spacing == 0x0) || (SIZEOF (.vector_10) <= (_vector_spacing << 0x5))), function at exception vector 10 too large)

.vector_11      0x9d006360        0x8
 *(.vector_11)
 .vector_11     0x9d006360        0x8 c:/program files (x86)/microchip/xc32/v2.30/bin/bin/../../lib/gcc/pic32mx/4.8.3/../../../../pic32mx/lib\libpic32.a(vector11.o)
                0x9d006360                __vector_dispatch_11
                0x00000001                ASSERT (((_vector_spacing == 0x0) || (SIZEOF (.vector_11) <= (_vector_spacing << 0x5))), function at exception vector 11 too large)

.vector_12      0x9d006380        0x8
 *(.vector_12)
 .vector_12     0x9d006380        0x8 output\isr.o
                0x9d006380                __vector_dispatch_12
                0x00000001                ASSERT (((_vector_spacing == 0x0) || (SIZEOF (.vector_12) <= (_vector_spacing << 0x5))), function at exception vector 12 too large)

.vector_13      0x9d0063a0        0x8
 *(.vector_13)
 .vector_13     0x9d0063a0        0x8 c:/program files (x86)/microchip/xc32/v2.30/bin/bin/../../lib/gcc/pic32mx/4.8.3/../../../../pic32mx/lib\libpic32.a(vector13.o)
                0x9d0063a0                __vector_dispatch_13
                0x00000001                ASSERT (((_vector_spacing == 0x0) || (SIZEOF (.vector_13) <= (_vector_spacing << 0x5))), function at exception vector 13 too large)

.vector_14      0x9d0063c0        0x8
 *(.vector_14)
 .vector_14     0x9d0063c0        0x8 c:/program files (x86)/microchip/xc32/v2.30/bin/bin/../../lib/gcc/pic32mx/4.8.3/../../../../pic32mx/lib\libpic32.a(vector14.o)
                0x9d0063c0                __vector_dispatch_14
                0x00000001                ASSERT (((_vector_spacing == 0x0) || (SIZEOF (.vector_14) <= (_vector_spacing << 0x5))), function at exception vector 14 too large)

.vector_15      0x9d0063e0        0x8
 *(.vector_15)
 .vector_15     0x9d0063e0        0x8 output\isr.o
                0x9d0063e0                __vector_dispatch_15
                0x00000001                ASSERT (((_vector_spacing == 0x0) || (SIZEOF (.vector_15) <= (_vector_spacing << 0x5))), function at exception vector 15 too large)

.vector_16      0x9d006400        0x8
 *(.vector_16)
 .vector_16     0x9d006400        0x8 output\isr.o
                0x9d006400                __vector_dispatch_16
                0x00000001                ASSERT (((_vector_spacing == 0x0) || (SIZEOF (.vector_16) <= (_vector_spacing << 0x5))), function at exception vector 16 too large)

.vector_17      0x9d006420        0x8
 *(.vector_17)
 .vector_17     0x9d006420        0x8 c:/program files (x86)/microchip/xc32/v2.30/bin/bin/../../lib/gcc/pic32mx/4.8.3/../../../../pic32mx/lib\libpic32.a(vector17.o)
                0x9d006420                __vector_dispatch_17
                0x00000001                ASSERT (((_vector_spacing == 0x0) || (SIZEOF (.vector_17) <= (_vector_spacing << 0x5))), function at exception vector 17 too large)

.vector_18      0x9d006440        0x8
 *(.vector_18)
 .vector_18     0x9d006440        0x8 c:/program files (x86)/microchip/xc32/v2.30/bin/bin/../../lib/gcc/pic32mx/4.8.3/../../../../pic32mx/lib\libpic32.a(vector18.o)
                0x9d006440                __vector_dispatch_18
                0x00000001                ASSERT (((_vector_spacing == 0x0) || (SIZEOF (.vector_18) <= (_vector_spacing << 0x5))), function at exception vector 18 too large)

.vector_19      0x9d006460        0x8
 *(.vector_19)
 .vector_19     0x9d006460        0x8 c:/program files (x86)/microchip/xc32/v2.30/bin/bin/../../lib/gcc/pic32mx/4.8.3/../../../../pic32mx/lib\libpic32.a(vector19.o)
                0x9d006460                __vector_dispatch_19
                0x00000001                ASSERT (((_vector_spacing == 0x0) || (SIZEOF (.vector_19) <= (_vector_spacing << 0x5))), function at exception vector 19 too large)

.vector_20      0x9d006480        0x8
 *(.vector_20)
 .vector_20     0x9d006480        0x8 output\isr.o
                0x9d006480                __vector_dispatch_20
                0x00000001                ASSERT (((_vector_spacing == 0x0) || (SIZEOF (.vector_20) <= (_vector_spacing << 0x5))), function at exception vector 20 too large)

.vector_21      0x9d0064a0        0x8
 *(.vector_21)
 .vector_21     0x9d0064a0        0x8 c:/program files (x86)/microchip/xc32/v2.30/bin/bin/../../lib/gcc/pic32mx/4.8.3/../../../../pic32mx/lib\libpic32.a(vector21.o)
                0x9d0064a0                __vector_dispatch_21
                0x00000001                ASSERT (((_vector_spacing == 0x0) || (SIZEOF (.vector_21) <= (_vector_spacing << 0x5))), function at exception vector 21 too large)

.vector_22      0x9d0064c0        0x8
 *(.vector_22)
 .vector_22     0x9d0064c0        0x8 c:/program files (x86)/microchip/xc32/v2.30/bin/bin/../../lib/gcc/pic32mx/4.8.3/../../../../pic32mx/lib\libpic32.a(vector22.o)
                0x9d0064c0                __vector_dispatch_22
                0x00000001                ASSERT (((_vector_spacing == 0x0) || (SIZEOF (.vector_22) <= (_vector_spacing << 0x5))), function at exception vector 22 too large)

.vector_23      0x9d0064e0        0x8
 *(.vector_23)
 .vector_23     0x9d0064e0        0x8 c:/program files (x86)/microchip/xc32/v2.30/bin/bin/../../lib/gcc/pic32mx/4.8.3/../../../../pic32mx/lib\libpic32.a(vector23.o)
                0x9d0064e0                __vector_dispatch_23
                0x00000001                ASSERT (((_vector_spacing == 0x0) || (SIZEOF (.vector_23) <= (_vector_spacing << 0x5))), function at exception vector 23 too large)

.vector_24      0x9d006500        0x8
 *(.vector_24)
 .vector_24     0x9d006500        0x8 c:/program files (x86)/microchip/xc32/v2.30/bin/bin/../../lib/gcc/pic32mx/4.8.3/../../../../pic32mx/lib\libpic32.a(vector24.o)
                0x9d006500                __vector_dispatch_24
                0x00000001                ASSERT (((_vector_spacing == 0x0) || (SIZEOF (.vector_24) <= (_vector_spacing << 0x5))), function at exception vector 24 too large)

.vector_25      0x9d006520        0x8
 *(.vector_25)
 .vector_25     0x9d006520        0x8 c:/program files (x86)/microchip/xc32/v2.30/bin/bin/../../lib/gcc/pic32mx/4.8.3/../../../../pic32mx/lib\libpic32.a(vector25.o)
                0x9d006520                __vector_dispatch_25
                0x00000001                ASSERT (((_vector_spacing == 0x0) || (SIZEOF (.vector_25) <= (_vector_spacing << 0x5))), function at exception vector 25 too large)

.vector_26      0x9d006540        0x8
 *(.vector_26)
 .vector_26     0x9d006540        0x8 c:/program files (x86)/microchip/xc32/v2.30/bin/bin/../../lib/gcc/pic32mx/4.8.3/../../../../pic32mx/lib\libpic32.a(vector26.o)
                0x9d006540                __vector_dispatch_26
                0x00000001                ASSERT (((_vector_spacing == 0x0) || (SIZEOF (.vector_26) <= (_vector_spacing << 0x5))), function at exception vector 26 too large)

.vector_27      0x9d006560        0x8
 *(.vector_27)
 .vector_27     0x9d006560        0x8 c:/program files (x86)/microchip/xc32/v2.30/bin/bin/../../lib/gcc/pic32mx/4.8.3/../../../../pic32mx/lib\libpic32.a(vector27.o)
                0x9d006560                __vector_dispatch_27
                0x00000001                ASSERT (((_vector_spacing == 0x0) || (SIZEOF (.vector_27) <= (_vector_spacing << 0x5))), function at exception vector 27 too large)

.vector_28      0x9d006580        0x8
 *(.vector_28)
 .vector_28     0x9d006580        0x8 c:/program files (x86)/microchip/xc32/v2.30/bin/bin/../../lib/gcc/pic32mx/4.8.3/../../../../pic32mx/lib\libpic32.a(vector28.o)
                0x9d006580                __vector_dispatch_28
                0x00000001                ASSERT (((_vector_spacing == 0x0) || (SIZEOF (.vector_28) <= (_vector_spacing << 0x5))), function at exception vector 28 too large)

.vector_29      0x9d0065a0        0x8
 *(.vector_29)
 .vector_29     0x9d0065a0        0x8 output\isr.o
                0x9d0065a0                __vector_dispatch_29
                0x00000001                ASSERT (((_vector_spacing == 0x0) || (SIZEOF (.vector_29) <= (_vector_spacing << 0x5))), function at exception vector 29 too large)

.vector_30      0x9d0065c0        0x8
 *(.vector_30)
 .vector_30     0x9d0065c0        0x8 c:/program files (x86)/microchip/xc32/v2.30/bin/bin/../../lib/gcc/pic32mx/4.8.3/../../../../pic32mx/lib\libpic32.a(vector30.o)
                0x9d0065c0                __vector_dispatch_30
                0x00000001                ASSERT (((_vector_spacing == 0x0) || (SIZEOF (.vector_30) <= (_vector_spacing << 0x5))), function at exception vector 30 too large)

.vector_31      0x9d0065e0        0x8
 *(.vector_31)
 .vector_31     0x9d0065e0        0x8 output\isr.o
                0x9d0065e0                __vector_dispatch_31
                0x00000001                ASSERT (((_vector_spacing == 0x0) || (SIZEOF (.vector_31) <= (_vector_spacing << 0x5))), function at exception vector 31 too large)

.vector_32      0x9d006600        0x8
 *(.vector_32)
 .vector_32     0x9d006600        0x8 c:/program files (x86)/microchip/xc32/v2.30/bin/bin/../../lib/gcc/pic32mx/4.8.3/../../../../pic32mx/lib\libpic32.a(vector32.o)
                0x9d006600                __vector_dispatch_32
                0x00000001                ASSERT (((_vector_spacing == 0x0) || (SIZEOF (.vector_32) <= (_vector_spacing << 0x5))), function at exception vector 32 too large)

.vector_33      0x9d006620        0x8
 *(.vector_33)
 .vector_33     0x9d006620        0x8 output\isr.o
                0x9d006620                __vector_dispatch_33
                0x00000001                ASSERT (((_vector_spacing == 0x0) || (SIZEOF (.vector_33) <= (_vector_spacing << 0x5))), function at exception vector 33 too large)

.vector_34      0x9d006640        0x8
 *(.vector_34)
 .vector_34     0x9d006640        0x8 c:/program files (x86)/microchip/xc32/v2.30/bin/bin/../../lib/gcc/pic32mx/4.8.3/../../../../pic32mx/lib\libpic32.a(vector34.o)
                0x9d006640                __vector_dispatch_34
                0x00000001                ASSERT (((_vector_spacing == 0x0) || (SIZEOF (.vector_34) <= (_vector_spacing << 0x5))), function at exception vector 34 too large)

.vector_35      0x9d006660        0x8
 *(.vector_35)
 .vector_35     0x9d006660        0x8 output\isr.o
                0x9d006660                __vector_dispatch_35
                0x00000001                ASSERT (((_vector_spacing == 0x0) || (SIZEOF (.vector_35) <= (_vector_spacing << 0x5))), function at exception vector 35 too large)

.vector_36      0x9d006680        0x8
 *(.vector_36)
 .vector_36     0x9d006680        0x8 output\isr.o
                0x9d006680                __vector_dispatch_36
                0x00000001                ASSERT (((_vector_spacing == 0x0) || (SIZEOF (.vector_36) <= (_vector_spacing << 0x5))), function at exception vector 36 too large)

.vector_37      0x9d0066a0        0x8
 *(.vector_37)
 .vector_37     0x9d0066a0        0x8 c:/program files (x86)/microchip/xc32/v2.30/bin/bin/../../lib/gcc/pic32mx/4.8.3/../../../../pic32mx/lib\libpic32.a(vector37.o)
                0x9d0066a0                __vector_dispatch_37
                0x00000001                ASSERT (((_vector_spacing == 0x0) || (SIZEOF (.vector_37) <= (_vector_spacing << 0x5))), function at exception vector 37 too large)

.vector_38      0x9d0066c0        0x8
 *(.vector_38)
 .vector_38     0x9d0066c0        0x8 c:/program files (x86)/microchip/xc32/v2.30/bin/bin/../../lib/gcc/pic32mx/4.8.3/../../../../pic32mx/lib\libpic32.a(vector38.o)
                0x9d0066c0                __vector_dispatch_38
                0x00000001                ASSERT (((_vector_spacing == 0x0) || (SIZEOF (.vector_38) <= (_vector_spacing << 0x5))), function at exception vector 38 too large)

.vector_39      0x9d0066e0        0x8
 *(.vector_39)
 .vector_39     0x9d0066e0        0x8 c:/program files (x86)/microchip/xc32/v2.30/bin/bin/../../lib/gcc/pic32mx/4.8.3/../../../../pic32mx/lib\libpic32.a(vector39.o)
                0x9d0066e0                __vector_dispatch_39
                0x00000001                ASSERT (((_vector_spacing == 0x0) || (SIZEOF (.vector_39) <= (_vector_spacing << 0x5))), function at exception vector 39 too large)

.vector_40      0x9d006700        0x8
 *(.vector_40)
 .vector_40     0x9d006700        0x8 c:/program files (x86)/microchip/xc32/v2.30/bin/bin/../../lib/gcc/pic32mx/4.8.3/../../../../pic32mx/lib\libpic32.a(vector40.o)
                0x9d006700                __vector_dispatch_40
                0x00000001                ASSERT (((_vector_spacing == 0x0) || (SIZEOF (.vector_40) <= (_vector_spacing << 0x5))), function at exception vector 40 too large)

.vector_41      0x9d006720        0x8
 *(.vector_41)
 .vector_41     0x9d006720        0x8 c:/program files (x86)/microchip/xc32/v2.30/bin/bin/../../lib/gcc/pic32mx/4.8.3/../../../../pic32mx/lib\libpic32.a(vector41.o)
                0x9d006720                __vector_dispatch_41
                0x00000001                ASSERT (((_vector_spacing == 0x0) || (SIZEOF (.vector_41) <= (_vector_spacing << 0x5))), function at exception vector 41 too large)

.vector_42      0x9d006740        0x8
 *(.vector_42)
 .vector_42     0x9d006740        0x8 output\isr.o
                0x9d006740                __vector_dispatch_42
                0x00000001                ASSERT (((_vector_spacing == 0x0) || (SIZEOF (.vector_42) <= (_vector_spacing << 0x5))), function at exception vector 42 too large)

.vector_43      0x9d006760        0x8
 *(.vector_43)
 .vector_43     0x9d006760        0x8 output\isr.o
                0x9d006760                __vector_dispatch_43
                0x00000001                ASSERT (((_vector_spacing == 0x0) || (SIZEOF (.vector_43) <= (_vector_spacing << 0x5))), function at exception vector 43 too large)

.vector_44      0x9d006780        0x8
 *(.vector_44)
 .vector_44     0x9d006780        0x8 output\isr.o
                0x9d006780                __vector_dispatch_44
                0x00000001                ASSERT (((_vector_spacing == 0x0) || (SIZEOF (.vector_44) <= (_vector_spacing << 0x5))), function at exception vector 44 too large)

.vector_45      0x9d0067a0        0x8
 *(.vector_45)
 .vector_45     0x9d0067a0        0x8 output\isr.o
                0x9d0067a0                __vector_dispatch_45
                0x00000001                ASSERT (((_vector_spacing == 0x0) || (SIZEOF (.vector_45) <= (_vector_spacing << 0x5))), function at exception vector 45 too large)

.vector_46      0x9d0067c0        0x0
 *(.vector_46)
                0x00000001                ASSERT (((_vector_spacing == 0x0) || (SIZEOF (.vector_46) <= (_vector_spacing << 0x5))), function at exception vector 46 too large)

.vector_47      0x9d0067e0        0x0
 *(.vector_47)
                0x00000001                ASSERT (((_vector_spacing == 0x0) || (SIZEOF (.vector_47) <= (_vector_spacing << 0x5))), function at exception vector 47 too large)

.vector_48      0x9d006800        0x0
 *(.vector_48)
                0x00000001                ASSERT (((_vector_spacing == 0x0) || (SIZEOF (.vector_48) <= (_vector_spacing << 0x5))), function at exception vector 48 too large)

.vector_49      0x9d006820        0x0
 *(.vector_49)
                0x00000001                ASSERT (((_vector_spacing == 0x0) || (SIZEOF (.vector_49) <= (_vector_spacing << 0x5))), function at exception vector 49 too large)

.vector_50      0x9d006840        0x0
 *(.vector_50)
                0x00000001                ASSERT (((_vector_spacing == 0x0) || (SIZEOF (.vector_50) <= (_vector_spacing << 0x5))), function at exception vector 50 too large)

.vector_51      0x9d006860        0x0
 *(.vector_51)
                0x00000001                ASSERT (((_vector_spacing == 0x0) || (SIZEOF (.vector_51) <= (_vector_spacing << 0x5))), function at exception vector 51 too large)

.vector_52      0x9d006880        0x0
 *(.vector_52)
                0x00000001                ASSERT (((_vector_spacing == 0x0) || (SIZEOF (.vector_52) <= (_vector_spacing << 0x5))), function at exception vector 52 too large)

.vector_53      0x9d0068a0        0x0
 *(.vector_53)
                0x00000001                ASSERT (((_vector_spacing == 0x0) || (SIZEOF (.vector_53) <= (_vector_spacing << 0x5))), function at exception vector 53 too large)

.vector_54      0x9d0068c0        0x0
 *(.vector_54)
                0x00000001                ASSERT (((_vector_spacing == 0x0) || (SIZEOF (.vector_54) <= (_vector_spacing << 0x5))), function at exception vector 54 too large)

.vector_55      0x9d0068e0        0x0
 *(.vector_55)
                0x00000001                ASSERT (((_vector_spacing == 0x0) || (SIZEOF (.vector_55) <= (_vector_spacing << 0x5))), function at exception vector 55 too large)

.vector_56      0x9d006900        0x0
 *(.vector_56)
                0x00000001                ASSERT (((_vector_spacing == 0x0) || (SIZEOF (.vector_56) <= (_vector_spacing << 0x5))), function at exception vector 56 too large)

.vector_57      0x9d006920        0x0
 *(.vector_57)
                0x00000001                ASSERT (((_vector_spacing == 0x0) || (SIZEOF (.vector_57) <= (_vector_spacing << 0x5))), function at exception vector 57 too large)

.vector_58      0x9d006940        0x0
 *(.vector_58)
                0x00000001                ASSERT (((_vector_spacing == 0x0) || (SIZEOF (.vector_58) <= (_vector_spacing << 0x5))), function at exception vector 58 too large)

.vector_59      0x9d006960        0x0
 *(.vector_59)
                0x00000001                ASSERT (((_vector_spacing == 0x0) || (SIZEOF (.vector_59) <= (_vector_spacing << 0x5))), function at exception vector 59 too large)

.vector_60      0x9d006980        0x0
 *(.vector_60)
                0x00000001                ASSERT (((_vector_spacing == 0x0) || (SIZEOF (.vector_60) <= (_vector_spacing << 0x5))), function at exception vector 60 too large)

.vector_61      0x9d0069a0        0x0
 *(.vector_61)
                0x00000001                ASSERT (((_vector_spacing == 0x0) || (SIZEOF (.vector_61) <= (_vector_spacing << 0x5))), function at exception vector 61 too large)

.vector_62      0x9d0069c0        0x0
 *(.vector_62)
                0x00000001                ASSERT (((_vector_spacing == 0x0) || (SIZEOF (.vector_62) <= (_vector_spacing << 0x5))), function at exception vector 62 too large)

.vector_63      0x9d0069e0        0x0
 *(.vector_63)
                0x00000001                ASSERT (((_vector_spacing == 0x0) || (SIZEOF (.vector_63) <= (_vector_spacing << 0x5))), function at exception vector 63 too large)

.startup
 *(.startup)

.text           0x9d007490        0x0
 *(.stub .gnu.linkonce.t.*)
 *(.text.*personality*)
 *(.mips16.fn.*)
 *(.mips16.call.*)
 *(.gnu.warning)
                0x9d007490                . = ALIGN (0x4)

.init           0x9d007490        0x0
 *crti.o(.init)
 *crtbegin.o(.init)
 *(EXCLUDE_FILE(*crtn.o *crtend?.o *crtend.o) .init)
 *crtend.o(.init)
 *crtn.o(.init)
                0x9d007490                . = ALIGN (0x4)

.fini           0x9d007490        0x0
 *(.fini)
                0x9d007490                . = ALIGN (0x4)

.preinit_array  0x9d007490        0x0
                0x9d007490                PROVIDE (__preinit_array_start, .)
 *(.preinit_array)
                0x9d007490                PROVIDE (__preinit_array_end, .)
                0x9d007490                . = ALIGN (0x4)

.init_array     0x9d007490        0x0
                0x9d007490                PROVIDE (__init_array_start, .)
 *(SORT(.init_array.*))
 *(.init_array)
                0x9d007490                PROVIDE (__init_array_end, .)
                0x9d007490                . = ALIGN (0x4)

.fini_array     0x9d007490        0x0
                0x9d007490                PROVIDE (__fini_array_start, .)
 *(SORT(.fini_array.*))
 *(.fini_array)
                0x9d007490                PROVIDE (__fini_array_end, .)
                0x9d007490                . = ALIGN (0x4)

.ctors          0x9d007490        0x0
 *crtbegin.o(.ctors)
 *crtbegin?.o(.ctors)
 *(EXCLUDE_FILE(*crtend?.o *crtend.o) .ctors)
 *(SORT(.ctors.*))
 *(.ctors)
                0x9d007490                . = ALIGN (0x4)

.dtors          0x9d007490        0x0
 *crtbegin.o(.dtors)
 *crtbegin?.o(.dtors)
 *(EXCLUDE_FILE(*crtend?.o *crtend.o) .dtors)
 *(SORT(.dtors.*))
 *(.dtors)
                0x9d007490                . = ALIGN (0x4)

.rodata         0x9d007490        0x0
 *(.gnu.linkonce.r.*)
 *(.rodata1)
                0x9d007490                . = ALIGN (0x4)

.sdata2         0x9d006000        0x0
 *(.sdata2 .sdata2.* .gnu.linkonce.s2.*)
                0x9d006000                . = ALIGN (0x4)

.sbss2          0x9d006000        0x0
 *(.sbss2 .sbss2.* .gnu.linkonce.sb2.*)
                0x9d006000                . = ALIGN (0x4)

.eh_frame_hdr
 *(.eh_frame_hdr)
                0x9d006000                . = ALIGN (0x4)

.eh_frame
 *(.eh_frame)
                0x9d006000                . = ALIGN (0x4)

.gcc_except_table
 *(.gcc_except_table .gcc_except_table.*)
                0x9d006000                . = ALIGN (0x4)

.dbg_data       0xa0000000        0x0
                0xa0000000                . = (. + DEFINED (_DEBUGGER)?0x200:0x0)

.jcr            0xa0000000        0x0
 *(.jcr)
                0xa0000000                . = ALIGN (0x4)

.eh_frame
 *(.eh_frame)
                0xa0000000                . = ALIGN (0x4)

.gcc_except_table
 *(.gcc_except_table .gcc_except_table.*)
                0xa0000000                . = ALIGN (0x4)

.persist        0xa0000000        0x4
                0xa0000000                _persist_begin = .
 *(.persist .persist.*)
 *(.pbss .pbss.*)
 .pbss          0xa0000000        0x2 output\UDP.o
                0xa0000004                . = ALIGN (0x4)
 *fill*         0xa0000002        0x2 
                0xa0000004                _persist_end = .

.data           0xa0000004        0x0
 *(.gnu.linkonce.d.*)
 *(.data1)
                0xa0000004                . = ALIGN (0x4)
                0xa0000004                . = .
                0xa0008000                _gp = (ALIGN (0x10) + 0x7ff0)

.got            0xa0000004        0x0
 *(.got.plt)
 *(.got)
                0xa0000004                . = ALIGN (0x4)

.sdata          0xa0000004       0x48
                0xa0000004                _sdata_begin = .
 *(.sdata .sdata.* .gnu.linkonce.s.*)
 .sdata         0xa0000004        0x1 output\sleep.o
                0xa0000004                sleepGetMainLoopRun_result
 *fill*         0xa0000005        0x3 
 .sdata         0xa0000008        0x4 output\eep_manager.o
 .sdata         0xa000000c        0x1 output\app.o
 *fill*         0xa000000d        0x3 
 .sdata         0xa0000010        0x8 output\limits.o
                0xa0000010                pl_data
                0xa0000014                limits_disabled
 .sdata         0xa0000018        0x8 output\pwm.o
                0xa0000018                maxDuty
                0xa000001c                maxFreq
 .sdata         0xa0000020        0x1 output\dee.o
                0xa0000020                dee_debug_enable
 *fill*         0xa0000021        0x3 
 .sdata         0xa0000024        0x8 output\stepper_enable.o
                0xa0000024                stepper_enable_emergency_stop_active
 .sdata         0xa000002c        0x2 output\grbl_eeprom.o
                0xa000002c                master_eep_error_single_shoot
                0xa000002d                backup_eep_error_single_shoot
 *fill*         0xa000002e        0x2 
 .sdata         0xa0000030        0x8 output\stackmeasure.o
                0xa0000030                stackmeasure_from
                0xa0000034                stackmeasure_to
 .sdata         0xa0000038        0x1 output\grbl_running.o
 *fill*         0xa0000039        0x3 
 .sdata         0xa000003c        0x8 output\ethernet.o
                0xa000003c                SerializedMACAddress
 .sdata         0xa0000044        0x2 output\ethernet_grbl.o
                0xa0000044                serverPort
 .sdata         0xa0000046        0x2 output\UDP.o
 .sdata         0xa0000048        0x4 output\Helpers.o
                0xa000004c                . = ALIGN (0x4)
                0xa000004c                _sdata_end = .

.lit8
 *(.lit8)

.lit4
 *(.lit4)
                0xa000004c                . = ALIGN (0x4)
                0xa000004c                _data_end = .
                0xa000004c                _bss_begin = .

.sbss           0xa000004c      0x284
                0xa000004c                _sbss_begin = .
 *(.dynsbss)
 *(.sbss .sbss.* .gnu.linkonce.sb.*)
 .sbss          0xa000004c       0x14 output\tmr.o
                0xa000004c                globalTime
                0xa0000050                globalTimeUs
 .sbss          0xa0000060        0x8 output\mal.o
                0xa0000060                gieTemp
                0xa0000064                isrLockCnt
 .sbss          0xa0000068        0xc output\task.o
                0xa0000068                tasksTotalTime
                0xa000006c                doTaskList1ms
                0xa000006d                doTaskListGuard
                0xa0000070                taskListsPtr
 .sbss          0xa0000074       0x1c output\sleep.o
                0xa0000074                sleepTime
                0xa0000078                sleepRequestLock
                0xa000007c                sleepRequestApp
                0xa0000080                sleepRequestDriver
                0xa0000084                sleepAppRequest_delay
                0xa0000088                sleepDriverRequest_delay
                0xa000008c                sleepEdgeDetector
                0xa000008d                sleepPointOfNoReturn
                0xa000008e                sleepPointOfNoReturnRegisteredRequest
                0xa000008f                do_isr_sleep_1ms
 .sbss          0xa0000090       0x20 output\eep_manager.o
                0xa0000090                eep_manager_persistent_config
                0xa0000094                eep_manager_persistent_eeprom
                0xa0000098                eep_manager_persistent_eeprom_2
                0xa000009c                do_eep_manager_1ms
 .sbss          0xa00000b0        0x8 output\exceptions.o
                0xa00000b0                exceptionCounter
                0xa00000b4                generateException
 .sbss          0xa00000b8       0x20 output\main.o
                0xa00000b8                do_loopCnt
                0xa00000bc                loopCntTemp
                0xa00000c0                loopCnt
                0xa00000c4                tick_count
                0xa00000c8                loopCntHistoryCnt
                0xa00000cc                resetReason
                0xa00000d0                RCONtemp
 .sbss          0xa00000d8        0x2 output\ad.o
                0xa00000d8                doAd100ms
 .sbss          0xa00000da        0x1 output\gcode.o
 *fill*         0xa00000db        0x1 
 .sbss          0xa00000dc       0x14 output\limits.o
                0xa00000dc                do_limits_go_home
                0xa00000e0                limit_go_home_state
                0xa00000e4                do_limits_1ms
                0xa00000e5                do_limits_polling
                0xa00000e6                limits_get_state_last
                0xa00000e7                limits_get_state_current
                0xa00000e8                limits_get_state_debug
                0xa00000ea                limit_delay_home
                0xa00000ec                limit_flag_for_homeing_EXEC_CYCLE_STOP
 .sbss          0xa00000f0        0x8 output\motion_control.o
                0xa00000f0                do_ArcGenerating
                0xa00000f1                count
                0xa00000f2                do_mc_homing_cycle
                0xa00000f4                mc_homing_state_machine
 .sbss          0xa00000f8        0x5 output\nuts_bolts.o
                0xa00000f8                grbl_not_existing_tris
                0xa00000f9                grbl_not_existing_port
                0xa00000fa                grbl_not_existing_lat
                0xa00000fb                do_nuts_bolts_delay1ms
                0xa00000fc                nuts_bolts_delayCnt
 *fill*         0xa00000fd        0x3 
 .sbss          0xa0000100        0xc output\stepper.o
 .sbss          0xa000010c       0x10 output\system.o
                0xa000010c                grbl_system_sm
                0xa0000110                sys_rt_exec_motion_override
                0xa0000111                sys_rt_exec_accessory_override
                0xa0000114                restore_spindle_speed
                0xa0000118                restore_condition
 .sbss          0xa000011c       0x1c output\dee.o
                0xa000011c                dee_debug_last_return_value
                0xa0000120                dee_cache_valid
                0xa0000124                dee_data_cache
                0xa0000128                dee_addr_cache
                0xa000012c                do_dee_debug
                0xa0000130                dee_debug_init_dee
 .sbss          0xa0000138        0x6 output\system_control.o
                0xa0000138                system_reset_debug
                0xa0000139                do_system_control_1ms
                0xa000013a                do_system_poll_control_pins
                0xa000013b                system_control_get_state_current
                0xa000013c                system_control_get_state_last
                0xa000013d                system_control_get_state_debug
 *fill*         0xa000013e        0x2 
 .sbss          0xa0000140       0x10 output\stepper_enable.o
                0xa0000140                do_stepper_enable_1ms
                0xa0000141                stepper_enable_delayed_enabling
                0xa0000144                stepper_enable_delayed_enabling_cnt
                0xa0000148                stepper_enable_emergency_stop_delay
                0xa000014c                stepper_enable_emergency_stop_delay_cnt
 .sbss          0xa0000150        0x2 output\system_exec.o
                0xa0000150                sys_rt_exec_state
 .sbss          0xa0000152        0x2 output\system_alarm.o
                0xa0000152                sys_rt_exec_alarm
 .sbss          0xa0000154        0xe output\grbl_eeprom.o
                0xa0000154                do_grbl_eeprom_1ms
                0xa0000155                grbl_eeprom_triggerWriteAll
                0xa0000156                grbl_eeprom_triggerWriteSettings
                0xa0000157                grbl_eeprom_triggerWriteItems
                0xa0000158                grbl_master_eep_error
                0xa0000159                grbl_backup_eep_error
                0xa000015a                grbl_critical_eep_error
 *fill*         0xa0000162        0x2 
 .sbss          0xa0000164       0x14 output\grbl_protocol.o
                0xa0000164                lineStateMachine
                0xa0000168                requestSynchMotion
                0xa0000169                gc_execute_line_result
                0xa000016a                serialCharReceived
                0xa000016b                protocol_execute_line_status
                0xa000016c                protocol_set_requestDwell_dwellTime
                0xa0000170                missedRxChar_Grbl_Protocol
 .sbss          0xa0000178        0x8 output\stackmeasure.o
                0xa0000178                stackmeasure_current_pos
                0xa000017c                stackmeasure_maxfillness
 .sbss          0xa0000180        0xc output\grbl_toolchange.o
                0xa0000180                GRBL_Toolchange_SM_State
                0xa0000184                grbl_toolchange_isRunning
                0xa0000186                grbl_toolchange_toolNumber
                0xa0000188                grbl_toolchange_load_or_load_and_change
                0xa0000189                do_grbl_toolchange_1ms
 .sbss          0xa000018c       0x20 output\grbl_running.o
                0xa000018c                grbl_running_running_minutes
                0xa0000190                grbl_running_running_hours
                0xa0000194                grbl_running_startup_cnt
                0xa0000198                grbl_running_spindle_running_minutes
                0xa000019c                do_grbl_running_1s
                0xa000019d                do_grbl_running_1min
                0xa000019e                do_grbl_running_1h
 .sbss          0xa00001ac        0x6 output\grbl_probe.o
                0xa00001ac                probe_invert_mask
                0xa00001ad                probe_pin_state
                0xa00001ae                do_probe_1ms
                0xa00001af                sys_probe_state
                0xa00001b0                do_mc_probe_cycle
                0xa00001b1                probe_is_no_error
 .sbss          0xa00001b2        0x3 output\grbl_bootloader.o
                0xa00001b2                do_grbl_bootloader_1ms
                0xa00001b3                grbl_bootloader_triggered
 *fill*         0xa00001b5        0x3 
 .sbss          0xa00001b8        0xc output\ethernet_grbl.o
                0xa00001b8                missedTxCharHID
                0xa00001bc                missedRxCharHID
 .sbss          0xa00001c4        0x8 output\UDP.o
 *fill*         0xa00001cc        0x4 
 .sbss          0xa00001d0       0x10 output\Tick.o
 .sbss          0xa00001e0        0x4 output\ARP.o
 .sbss          0xa00001e4       0x1c output\ENC28J60.o
                0xa00001f1                do_enc28j60_1ms
                0xa00001f2                ENC28J60_EIE
                0xa00001f3                ENC28J60_EIR
                0xa00001f4                ENC28J60_ESTAT
                0xa00001f5                ENC28J60_ECON2
                0xa00001f6                ENC28J60_ECON1
                0xa00001f7                ENC28J60_ERXFCON
                0xa00001f8                ENC28J60_MICMD
                0xa00001f9                ENC28J60_EBSTCON
                0xa00001fa                ENC28J60_MISTAT
                0xa00001fb                ENC28J60_ECOCON
                0xa00001fc                ENC28J60_EFLOCON
                0xa00001fd                ENC28J60_MACON1
                0xa00001fe                ENC28J60_MACON3
                0xa00001ff                ENC28J60_MACON4
 .sbss          0xa0000200        0x4 output\IP.o
 .sbss          0xa0000204        0xc output\StackTsk.o
 .sbss          0xa0000210        0x8 output\Announce.o
 *(.scommon)
 .scommon       0xa0000218       0x18 output\exceptions.o
                0xa0000218                _return_addr
                0xa000021c                tempB
                0xa0000220                tempA
                0xa0000224                _excep_code
                0xa0000228                tempResult
                0xa000022c                _excep_addr
 .scommon       0xa0000230        0x2 output\ad.o
                0xa0000230                adResults
 *fill*         0xa0000232        0x2 
 .scommon       0xa0000234        0x4 output\gcode.o
                0xa0000234                gcodePositionSave
 .scommon       0xa0000238       0x15 output\limits.o
                0xa0000238                limit_state
                0xa0000239                axislock
                0xa000023a                approach
                0xa000023c                homing_rate
                0xa0000240                n_active_axis
                0xa0000244                max_travel
                0xa0000248                step_pin
                0xa000024b                cycle_mask_asynch
                0xa000024c                n_cycle
 *fill*         0xa000024d        0x3 
 .scommon       0xa0000250       0x4a output\motion_control.o
                0xa0000250                axis_1_buffer
                0xa0000254                center_axis0
                0xa0000258                linear_per_segment
                0xa000025c                r_axisi
                0xa0000260                theta_per_segment
                0xa0000264                sin_Ti
                0xa0000268                axis_linear_buffer
                0xa000026c                cos_T
                0xa0000270                r_axis0
                0xa0000274                axis_0_buffer
                0xa0000278                r_axis1
                0xa000027c                sin_T
                0xa0000280                cycle_mask_buffer
                0xa0000284                radius_buffer
                0xa0000288                is_clockwise_arc_buffer
                0xa000028c                center_axis1
                0xa0000290                segments_buffer
                0xa0000294                cos_Ti
                0xa0000298                i_buffer
 .scommon       0xa000029a        0x4 output\planner.o
                0xa000029a                block_buffer_head
                0xa000029b                next_buffer_head
                0xa000029c                block_buffer_tail
                0xa000029d                block_buffer_planned
 .scommon       0xa000029e        0x1 output\settings.o
                0xa000029e                eep_settings_version
 .scommon       0xa000029f        0x3 output\stepper.o
                0xa000029f                segment_buffer_head
                0xa00002a0                segment_buffer_tail
                0xa00002a1                segment_next_head
 *fill*         0xa00002a2        0x2 
 .scommon       0xa00002a4        0x4 output\system.o
                0xa00002a4                system_suspendTime
 .scommon       0xa00002a8        0xc output\grbl.o
                0xa00002a8                dummyTRIS
                0xa00002ac                dummyPORT
                0xa00002b0                dummyLAT
 .scommon       0xa00002b4        0x4 output\dee.o
                0xa00002b4                dataEEFlags
 .scommon       0xa00002b8        0x4 output\dee_page.o
                0xa00002b8                read_dee_page
 .scommon       0xa00002bc        0x4 output\grbl_protocol.o
                0xa00002bc                protocol_dwellTime
 .scommon       0xa00002c0        0x4 output\grbl_toolchange.o
                0xa00002c0                grbl_toolchange_failsafe_timeout
 .scommon       0xa00002c4        0x4 output\grbl_bootloader.o
                0xa00002c4                grbl_bootloader_timer
 .scommon       0xa00002c8        0x1 output\ethernet_grbl.o
                0xa00002c8                udpSkt
 *fill*         0xa00002c9        0x1 
 .scommon       0xa00002ca        0x6 output\UDP.o
                0xa00002ca                UDPTxCount
                0xa00002cc                activeUDPSocket
                0xa00002ce                UDPRxCount
                0xa00002d0                _sbss_end = .
                0xa00002d0                . = ALIGN (0x4)

.bss            0xa00002d0     0x2044
 *(.dynbss)
 *(COMMON)
 COMMON         0xa00002d0      0x480 output\task.o
                0xa00002d0                taskLists
 COMMON         0xa0000750       0x70 output\eep_manager.o
                0xa0000750                eep_manager_write_all_trigger
                0xa0000788                eep_manager_debug_address
 COMMON         0xa00007c0       0xf0 output\main.o
                0xa00007c0                loopCntHistory
 COMMON         0xa00008b0       0x9c output\gcode.o
                0xa00008b0                coord_offset_eep
                0xa00008bc                gc_state
                0xa0000900                gc_block
                0xa0000940                coord_system_eep
 COMMON         0xa000094c       0x18 output\limits.o
                0xa000094c                plan_data
                0xa0000958                target
 COMMON         0xa0000964       0x30 output\motion_control.o
                0xa0000964                target_buffer
                0xa0000970                offset_buffer
                0xa000097c                pl_data_buffer
                0xa0000988                position_buffer
 COMMON         0xa0000994      0xd1c output\planner.o
                0xa0000994                pl
                0xa00009b0                block_buffer
 COMMON         0xa00016b0      0x1e8 output\settings.o
                0xa00016b0                eep_coord_data
                0xa0001728                settings
                0xa0001788                eep_settings_backup
                0xa00017e8                eep_build_info
                0xa0001838                eep_settings
 COMMON         0xa0001898      0x34c output\stepper.o
                0xa0001898                prep
                0xa00018d0                segment_buffer
                0xa00019f0                st_block_buffer
                0xa0001bbc                st
 COMMON         0xa0001be4       0x2c output\system.o
                0xa0001be4                sys
                0xa0001bf8                sys_probe_position
                0xa0001c04                sys_position
 COMMON         0xa0001c10       0x40 output\pwm.o
                0xa0001c10                pwm_duty
 COMMON         0xa0001c50        0xc output\dee_page.o
                0xa0001c50                dee_debug_page_status
 COMMON         0xa0001c5c       0xe8 output\grbl_protocol.o
                0xa0001c5c                myRingBuffer_grbl_protocol_rx
                0xa0001c74                line_buffer
                0xa0001cc4                grbl_protocol_rx
 COMMON         0xa0001d44       0x33 output\ethernet.o
                0xa0001d44                AppConfig
 *fill*         0xa0001d77        0x1 
 COMMON         0xa0001d78      0x4b0 output\ethernet_grbl.o
                0xa0001d78                eth_tx
                0xa0001f78                ReceivedDataBuffer
                0xa0001fb8                myRingBuffer_eth_rx
                0xa0001fd0                ToSendDataBuffer
                0xa0002010                eth_rx
                0xa0002210                myRingBuffer_eth_tx
 COMMON         0xa0002228       0xe0 output\UDP.o
                0xa0002228                UDPSocketInfo
 COMMON         0xa0002308        0xa output\StackTsk.o
                0xa0002308                remoteNode
                0xa0002314                . = ALIGN ((. != 0x0)?0x4:0x1)
 *fill*         0xa0002312        0x2 
                0xa0002314                . = ALIGN (0x4)
                0xa0002314                _end = .
                0xa0002314                _bss_end = .
                0x00020000                _bmxdudba_address = 0x20000
                0x00020000                _bmxdupba_address = 0x20000

/DISCARD/
 *(.pdr)
 *(.rel.dyn)
 *(.note.GNU-stack)
 *(.note.GNU-stack)
 *(.gnu_debuglink)
 *(.gnu.lto_*)
 *(.discard)
 *(._debug_exception)

.gptab.sdata
 *(.gptab.data)
 *(.gptab.sdata)

.gptab.sbss
 *(.gptab.bss)
 *(.gptab.sbss)

.mdebug.abi32   0xa0002314        0x0
 *(.mdebug.abi32)
 .mdebug.abi32  0xa0002314        0x0 output\tmr.o
 .mdebug.abi32  0xa0002314        0x0 output\mal.o
 .mdebug.abi32  0xa0002314        0x0 output\ringBuffer.o
 .mdebug.abi32  0xa0002314        0x0 output\task.o
 .mdebug.abi32  0xa0002314        0x0 output\sleep.o
 .mdebug.abi32  0xa0002314        0x0 output\eeprom.o
 .mdebug.abi32  0xa0002314        0x0 output\eep_manager.o
 .mdebug.abi32  0xa0002314        0x0 output\exceptions.o
 .mdebug.abi32  0xa0002314        0x0 output\isr.o
 .mdebug.abi32  0xa0002314        0x0 output\main.o
 .mdebug.abi32  0xa0002314        0x0 output\c_eep_manager.o
 .mdebug.abi32  0xa0002314        0x0 output\app.o
 .mdebug.abi32  0xa0002314        0x0 output\ad.o
 .mdebug.abi32  0xa0002314        0x0 output\gcode.o
 .mdebug.abi32  0xa0002314        0x0 output\limits.o
 .mdebug.abi32  0xa0002314        0x0 output\coolant_control.o
 .mdebug.abi32  0xa0002314        0x0 output\motion_control.o
 .mdebug.abi32  0xa0002314        0x0 output\nuts_bolts.o
 .mdebug.abi32  0xa0002314        0x0 output\planner.o
 .mdebug.abi32  0xa0002314        0x0 output\print.o
 .mdebug.abi32  0xa0002314        0x0 output\report.o
 .mdebug.abi32  0xa0002314        0x0 output\settings.o
 .mdebug.abi32  0xa0002314        0x0 output\spindle_control.o
 .mdebug.abi32  0xa0002314        0x0 output\stepper.o
 .mdebug.abi32  0xa0002314        0x0 output\system.o
 .mdebug.abi32  0xa0002314        0x0 output\grbl.o
 .mdebug.abi32  0xa0002314        0x0 output\pwm.o
 .mdebug.abi32  0xa0002314        0x0 output\jog.o
 .mdebug.abi32  0xa0002314        0x0 output\dee.o
 .mdebug.abi32  0xa0002314        0x0 output\dee_page.o
 .mdebug.abi32  0xa0002314        0x0 output\dee_page_helper.o
 .mdebug.abi32  0xa0002314        0x0 output\eep_manager_crc.o
 .mdebug.abi32  0xa0002314        0x0 output\system_control.o
 .mdebug.abi32  0xa0002314        0x0 output\stepper_enable.o
 .mdebug.abi32  0xa0002314        0x0 output\system_exec.o
 .mdebug.abi32  0xa0002314        0x0 output\system_alarm.o
 .mdebug.abi32  0xa0002314        0x0 output\grbl_eeprom.o
 .mdebug.abi32  0xa0002314        0x0 output\bootloader_interface.o
 .mdebug.abi32  0xa0002314        0x0 output\grbl_protocol.o
 .mdebug.abi32  0xa0002314        0x0 output\stackmeasure.o
 .mdebug.abi32  0xa0002314        0x0 output\grbl_toolchange.o
 .mdebug.abi32  0xa0002314        0x0 output\grbl_running.o
 .mdebug.abi32  0xa0002314        0x0 output\grbl_probe.o
 .mdebug.abi32  0xa0002314        0x0 output\grbl_bootloader.o
 .mdebug.abi32  0xa0002314        0x0 output\ethernet.o
 .mdebug.abi32  0xa0002314        0x0 output\ethernet_grbl.o
 .mdebug.abi32  0xa0002314        0x0 output\UDP.o
 .mdebug.abi32  0xa0002314        0x0 output\Tick.o
 .mdebug.abi32  0xa0002314        0x0 output\Helpers.o
 .mdebug.abi32  0xa0002314        0x0 output\ARP.o
 .mdebug.abi32  0xa0002314        0x0 output\ENC28J60.o
 .mdebug.abi32  0xa0002314        0x0 output\Delay.o
 .mdebug.abi32  0xa0002314        0x0 output\IP.o
 .mdebug.abi32  0xa0002314        0x0 output\StackTsk.o
 .mdebug.abi32  0xa0002314        0x0 output\ICMP.o
 .mdebug.abi32  0xa0002314        0x0 output\DHCP.o
 .mdebug.abi32  0xa0002314        0x0 output\Announce.o
 .mdebug.abi32  0xa0002314        0x0 c:/program files (x86)/microchip/xc32/v2.30/bin/bin/../../lib/gcc/pic32mx/4.8.3/../../../../pic32mx/lib\libmchp_peripheral_32MX470F512L.a(soft_reset_lib.o)
 .mdebug.abi32  0xa0002314        0x0 c:/program files (x86)/microchip/xc32/v2.30/bin/bin/../../lib/gcc/pic32mx/4.8.3/../../../../pic32mx/lib\libmchp_peripheral_32MX470F512L.a(pcache.o)
 .mdebug.abi32  0xa0002314        0x0 c:/program files (x86)/microchip/xc32/v2.30/bin/bin/../../lib/gcc/pic32mx/4.8.3/../../../../pic32mx/lib\libmchp_peripheral_32MX470F512L.a(int_disable_interrupts_lib.o)
 .mdebug.abi32  0xa0002314        0x0 c:/program files (x86)/microchip/xc32/v2.30/bin/bin/../../lib/gcc/pic32mx/4.8.3/../../../../pic32mx/lib\libmchp_peripheral_32MX470F512L.a(power_idle_lib.o)
 .mdebug.abi32  0xa0002314        0x0 c:/program files (x86)/microchip/xc32/v2.30/bin/bin/../../lib/gcc/pic32mx/4.8.3/../../../../pic32mx/lib\libmchp_peripheral_32MX470F512L.a(power_sleep_lib.o)
 .mdebug.abi32  0xa0002314        0x0 c:/program files (x86)/microchip/xc32/v2.30/bin/bin/../../lib/gcc/pic32mx/4.8.3/../../../../pic32mx/lib\libmchp_peripheral_32MX470F512L.a(nvm_erase_page_lib.o)
 .mdebug.abi32  0xa0002314        0x0 c:/program files (x86)/microchip/xc32/v2.30/bin/bin/../../lib/gcc/pic32mx/4.8.3/../../../../pic32mx/lib\libmchp_peripheral_32MX470F512L.a(nvm_operation_lib.o)
 .mdebug.abi32  0xa0002314        0x0 c:/program files (x86)/microchip/xc32/v2.30/bin/bin/../../lib/gcc/pic32mx/4.8.3/../../../../pic32mx/lib\libmchp_peripheral_32MX470F512L.a(nvm_write_word_lib.o)
 .mdebug.abi32  0xa0002314        0x0 c:/program files (x86)/microchip/xc32/v2.30/bin/bin/../../lib/gcc/pic32mx/4.8.3/../../../../pic32mx/lib\libmchp_peripheral_32MX470F512L.a(int_restore_interrupts_lib.o)
 .mdebug.abi32  0xa0002314        0x0 c:/program files (x86)/microchip/xc32/v2.30/bin/bin/../../lib/gcc/pic32mx/4.8.3\libgcc.a(_fixunssfdi.o)
 .mdebug.abi32  0xa0002314        0x0 c:/program files (x86)/microchip/xc32/v2.30/bin/bin/../../lib/gcc/pic32mx/4.8.3\libgcc.a(_floatundisf.o)
 .mdebug.abi32  0xa0002314        0x0 c:/program files (x86)/microchip/xc32/v2.30/bin/bin/../../lib/gcc/pic32mx/4.8.3\libgcc.a(floatunsisf.o)
 .mdebug.abi32  0xa0002314        0x0 c:/program files (x86)/microchip/xc32/v2.30/bin/bin/../../lib/gcc/pic32mx/4.8.3\libgcc.a(floatunsidf.o)
 .mdebug.abi32  0xa0002314        0x0 c:/program files (x86)/microchip/xc32/v2.30/bin/bin/../../lib/gcc/pic32mx/4.8.3/../../../../pic32mx/lib\libpic32.a(default-bootstrap-exception-handler.o)
 .mdebug.abi32  0xa0002314        0x0 c:/program files (x86)/microchip/xc32/v2.30/bin/bin/../../lib/gcc/pic32mx/4.8.3/../../../../pic32mx/lib\libpic32.a(default-on-reset.o)
 .mdebug.abi32  0xa0002314        0x0 c:/program files (x86)/microchip/xc32/v2.30/bin/bin/../../lib/gcc/pic32mx/4.8.3/../../../../pic32mx/lib\libpic32.a(default-on-bootstrap.o)
 .mdebug.abi32  0xa0002314        0x0 c:/program files (x86)/microchip/xc32/v2.30/bin/bin/../../lib/gcc/pic32mx/4.8.3/../../../../pic32mx/lib\libpic32.a(defaultinterrupt.o)
 .mdebug.abi32  0xa0002314        0x0 c:/program files (x86)/microchip/xc32/v2.30/bin/bin/../../lib/gcc/pic32mx/4.8.3/../../../../pic32mx/lib\liblega-c.a(strncmp.o)
 .mdebug.abi32  0xa0002314        0x0 c:/program files (x86)/microchip/xc32/v2.30/bin/bin/../../lib/gcc/pic32mx/4.8.3/../../../../pic32mx/lib\liblega-c.a(strncpy.o)
 .mdebug.abi32  0xa0002314        0x0 c:/program files (x86)/microchip/xc32/v2.30/bin/bin/../../lib/gcc/pic32mx/4.8.3/../../../../pic32mx/lib\libm.a(w_atan2f.o)
 .mdebug.abi32  0xa0002314        0x0 c:/program files (x86)/microchip/xc32/v2.30/bin/bin/../../lib/gcc/pic32mx/4.8.3/../../../../pic32mx/lib\libm.a(w_sqrtf.o)
 .mdebug.abi32  0xa0002314        0x0 c:/program files (x86)/microchip/xc32/v2.30/bin/bin/../../lib/gcc/pic32mx/4.8.3/../../../../pic32mx/lib\libm.a(support.o)
 .mdebug.abi32  0xa0002314        0x0 c:/program files (x86)/microchip/xc32/v2.30/bin/bin/../../lib/gcc/pic32mx/4.8.3/../../../../pic32mx/lib\libm.a(s_lib_ver.o)
 .mdebug.abi32  0xa0002314        0x0 c:/program files (x86)/microchip/xc32/v2.30/bin/bin/../../lib/gcc/pic32mx/4.8.3/../../../../pic32mx/lib\libpic32.a(errno.o)

.mdebug.abiN32
 *(.mdebug.abiN32)

.mdebug.abi64
 *(.mdebug.abi64)

.mdebug.abiO64
 *(.mdebug.abiO64)

.mdebug.eabi32
 *(.mdebug.eabi32)

.mdebug.eabi64
 *(.mdebug.eabi64)

.gcc_compiled_long32
 *(.gcc_compiled_long32)

.gcc_compiled_long64
 *(.gcc_compiled_long64)

.stab
 *(.stab)

.stabstr
 *(.stabstr)

.stab.excl
 *(.stab.excl)

.stab.exclstr
 *(.stab.exclstr)

.stab.index
 *(.stab.index)

.stab.indexstr
 *(.stab.indexstr)

.comment        0x00000000      0x162
 *(.comment)
 .comment       0x00000000       0x3c output\tmr.o
                                 0x3d (size before relaxing)
 .comment       0x00000000       0x3d output\mal.o
 .comment       0x00000000       0x3d output\ringBuffer.o
 .comment       0x00000000       0x3d output\task.o
 .comment       0x00000000       0x3d output\sleep.o
 .comment       0x00000000       0x3d output\eeprom.o
 .comment       0x00000000       0x3d output\eep_manager.o
 .comment       0x00000000       0x3d output\exceptions.o
 .comment       0x00000000       0x3d output\isr.o
 .comment       0x00000000       0x3d output\main.o
 .comment       0x00000000       0x3d output\c_eep_manager.o
 .comment       0x00000000       0x3d output\app.o
 .comment       0x00000000       0x3d output\ad.o
 .comment       0x00000000       0x3d output\gcode.o
 .comment       0x00000000       0x3d output\limits.o
 .comment       0x00000000       0x3d output\coolant_control.o
 .comment       0x00000000       0x3d output\motion_control.o
 .comment       0x00000000       0x3d output\nuts_bolts.o
 .comment       0x00000000       0x3d output\planner.o
 .comment       0x00000000       0x3d output\print.o
 .comment       0x00000000       0x3d output\report.o
 .comment       0x00000000       0x3d output\settings.o
 .comment       0x00000000       0x3d output\spindle_control.o
 .comment       0x00000000       0x3d output\stepper.o
 .comment       0x00000000       0x3d output\system.o
 .comment       0x00000000       0x3d output\grbl.o
 .comment       0x00000000       0x3d output\pwm.o
 .comment       0x00000000       0x3d output\jog.o
 .comment       0x00000000       0x3d output\dee.o
 .comment       0x00000000       0x3d output\dee_page.o
 .comment       0x00000000       0x3d output\dee_page_helper.o
 .comment       0x00000000       0x3d output\eep_manager_crc.o
 .comment       0x00000000       0x3d output\system_control.o
 .comment       0x00000000       0x3d output\stepper_enable.o
 .comment       0x00000000       0x3d output\system_exec.o
 .comment       0x00000000       0x3d output\system_alarm.o
 .comment       0x00000000       0x3d output\grbl_eeprom.o
 .comment       0x00000000       0x3d output\bootloader_interface.o
 .comment       0x00000000       0x3d output\grbl_protocol.o
 .comment       0x00000000       0x3d output\stackmeasure.o
 .comment       0x00000000       0x3d output\grbl_toolchange.o
 .comment       0x00000000       0x3d output\grbl_running.o
 .comment       0x00000000       0x3d output\grbl_probe.o
 .comment       0x00000000       0x3d output\grbl_bootloader.o
 .comment       0x00000000       0x3d output\ethernet.o
 .comment       0x00000000       0x3d output\ethernet_grbl.o
 .comment       0x00000000       0x3d output\UDP.o
 .comment       0x00000000       0x3d output\Tick.o
 .comment       0x00000000       0x3d output\Helpers.o
 .comment       0x00000000       0x3d output\ARP.o
 .comment       0x00000000       0x3d output\ENC28J60.o
 .comment       0x00000000       0x3d output\Delay.o
 .comment       0x00000000       0x3d output\IP.o
 .comment       0x00000000       0x3d output\StackTsk.o
 .comment       0x00000000       0x3d output\ICMP.o
 .comment       0x00000000       0x3d output\DHCP.o
 .comment       0x00000000       0x3d output\Announce.o
 .comment       0x0000003c       0x3c c:/program files (x86)/microchip/xc32/v2.30/bin/bin/../../lib/gcc/pic32mx/4.8.3/../../../../pic32mx/lib\libmchp_peripheral_32MX470F512L.a(soft_reset_lib.o)
                                 0x3d (size before relaxing)
 .comment       0x00000000       0x3d c:/program files (x86)/microchip/xc32/v2.30/bin/bin/../../lib/gcc/pic32mx/4.8.3/../../../../pic32mx/lib\libmchp_peripheral_32MX470F512L.a(pcache.o)
 .comment       0x00000000       0x3d c:/program files (x86)/microchip/xc32/v2.30/bin/bin/../../lib/gcc/pic32mx/4.8.3/../../../../pic32mx/lib\libmchp_peripheral_32MX470F512L.a(int_disable_interrupts_lib.o)
 .comment       0x00000000       0x3d c:/program files (x86)/microchip/xc32/v2.30/bin/bin/../../lib/gcc/pic32mx/4.8.3/../../../../pic32mx/lib\libmchp_peripheral_32MX470F512L.a(power_idle_lib.o)
 .comment       0x00000000       0x3d c:/program files (x86)/microchip/xc32/v2.30/bin/bin/../../lib/gcc/pic32mx/4.8.3/../../../../pic32mx/lib\libmchp_peripheral_32MX470F512L.a(power_sleep_lib.o)
 .comment       0x00000000       0x3d c:/program files (x86)/microchip/xc32/v2.30/bin/bin/../../lib/gcc/pic32mx/4.8.3/../../../../pic32mx/lib\libmchp_peripheral_32MX470F512L.a(nvm_erase_page_lib.o)
 .comment       0x00000000       0x3d c:/program files (x86)/microchip/xc32/v2.30/bin/bin/../../lib/gcc/pic32mx/4.8.3/../../../../pic32mx/lib\libmchp_peripheral_32MX470F512L.a(nvm_operation_lib.o)
 .comment       0x00000000       0x3d c:/program files (x86)/microchip/xc32/v2.30/bin/bin/../../lib/gcc/pic32mx/4.8.3/../../../../pic32mx/lib\libmchp_peripheral_32MX470F512L.a(nvm_write_word_lib.o)
 .comment       0x00000000       0x3d c:/program files (x86)/microchip/xc32/v2.30/bin/bin/../../lib/gcc/pic32mx/4.8.3/../../../../pic32mx/lib\libmchp_peripheral_32MX470F512L.a(int_restore_interrupts_lib.o)
 .comment       0x00000000       0x3d c:/program files (x86)/microchip/xc32/v2.30/bin/bin/../../lib/gcc/pic32mx/4.8.3\libgcc.a(_fixunssfdi.o)
 .comment       0x00000000       0x3d c:/program files (x86)/microchip/xc32/v2.30/bin/bin/../../lib/gcc/pic32mx/4.8.3\libgcc.a(_floatundisf.o)
 .comment       0x00000000       0x3d c:/program files (x86)/microchip/xc32/v2.30/bin/bin/../../lib/gcc/pic32mx/4.8.3\libgcc.a(floatunsisf.o)
 .comment       0x00000000       0x3d c:/program files (x86)/microchip/xc32/v2.30/bin/bin/../../lib/gcc/pic32mx/4.8.3\libgcc.a(floatunsidf.o)
 .comment       0x00000078       0x18 c:/program files (x86)/microchip/xc32/v2.30/bin/bin/../../lib/gcc/pic32mx/4.8.3/../../../../pic32mx/lib\libpic32.a(memset.o)
                                 0x19 (size before relaxing)
 .comment       0x00000090       0x19 c:/program files (x86)/microchip/xc32/v2.30/bin/bin/../../lib/gcc/pic32mx/4.8.3/../../../../pic32mx/lib\libpic32.a(strcmp.o)
                                 0x1a (size before relaxing)
 .comment       0x000000a9       0x19 c:/program files (x86)/microchip/xc32/v2.30/bin/bin/../../lib/gcc/pic32mx/4.8.3/../../../../pic32mx/lib\libpic32.a(strlen.o)
                                 0x1a (size before relaxing)
 .comment       0x00000000       0x3d c:/program files (x86)/microchip/xc32/v2.30/bin/bin/../../lib/gcc/pic32mx/4.8.3/../../../../pic32mx/lib\libpic32.a(default-bootstrap-exception-handler.o)
 .comment       0x00000000       0x3d c:/program files (x86)/microchip/xc32/v2.30/bin/bin/../../lib/gcc/pic32mx/4.8.3/../../../../pic32mx/lib\libpic32.a(default-on-reset.o)
 .comment       0x00000000       0x3d c:/program files (x86)/microchip/xc32/v2.30/bin/bin/../../lib/gcc/pic32mx/4.8.3/../../../../pic32mx/lib\libpic32.a(default-on-bootstrap.o)
 .comment       0x00000000       0x3d c:/program files (x86)/microchip/xc32/v2.30/bin/bin/../../lib/gcc/pic32mx/4.8.3/../../../../pic32mx/lib\libpic32.a(defaultinterrupt.o)
 .comment       0x000000c2       0x50 c:/program files (x86)/microchip/xc32/v2.30/bin/bin/../../lib/gcc/pic32mx/4.8.3/../../../../pic32mx/lib\liblega-c.a(strncmp.o)
                                 0x8d (size before relaxing)
 .comment       0x00000112       0x50 c:/program files (x86)/microchip/xc32/v2.30/bin/bin/../../lib/gcc/pic32mx/4.8.3/../../../../pic32mx/lib\liblega-c.a(strncpy.o)
                                 0x8d (size before relaxing)
 .comment       0x00000000       0x3d c:/program files (x86)/microchip/xc32/v2.30/bin/bin/../../lib/gcc/pic32mx/4.8.3/../../../../pic32mx/lib\libm.a(w_atan2f.o)
 .comment       0x00000000       0x3d c:/program files (x86)/microchip/xc32/v2.30/bin/bin/../../lib/gcc/pic32mx/4.8.3/../../../../pic32mx/lib\libm.a(w_sqrtf.o)
 .comment       0x00000000       0x3d c:/program files (x86)/microchip/xc32/v2.30/bin/bin/../../lib/gcc/pic32mx/4.8.3/../../../../pic32mx/lib\libm.a(support.o)
 .comment       0x00000000       0x3d c:/program files (x86)/microchip/xc32/v2.30/bin/bin/../../lib/gcc/pic32mx/4.8.3/../../../../pic32mx/lib\libm.a(s_lib_ver.o)
 .comment       0x00000000       0x3d c:/program files (x86)/microchip/xc32/v2.30/bin/bin/../../lib/gcc/pic32mx/4.8.3/../../../../pic32mx/lib\libpic32.a(errno.o)

.debug
 *(.debug)

.line
 *(.line)

.debug_srcinfo
 *(.debug_srcinfo)

.debug_sfnames
 *(.debug_sfnames)

.debug_aranges  0x00000000      0x9f0
 *(.debug_aranges)
 .debug_aranges
                0x00000000       0x20 output\tmr.o
 .debug_aranges
                0x00000020       0x20 output\mal.o
 .debug_aranges
                0x00000040       0x20 output\ringBuffer.o
 .debug_aranges
                0x00000060       0x20 output\task.o
 .debug_aranges
                0x00000080       0x20 output\sleep.o
 .debug_aranges
                0x000000a0       0x20 output\eeprom.o
 .debug_aranges
                0x000000c0       0x20 output\eep_manager.o
 .debug_aranges
                0x000000e0       0x20 output\exceptions.o
 .debug_aranges
                0x00000100       0x20 output\isr.o
 .debug_aranges
                0x00000120       0x20 output\main.o
 .debug_aranges
                0x00000140       0x18 output\c_eep_manager.o
 .debug_aranges
                0x00000158       0x20 output\app.o
 .debug_aranges
                0x00000178       0x20 output\ad.o
 .debug_aranges
                0x00000198       0x20 output\gcode.o
 .debug_aranges
                0x000001b8       0x20 output\limits.o
 .debug_aranges
                0x000001d8       0x20 output\coolant_control.o
 .debug_aranges
                0x000001f8       0x20 output\motion_control.o
 .debug_aranges
                0x00000218       0x20 output\nuts_bolts.o
 .debug_aranges
                0x00000238       0x20 output\planner.o
 .debug_aranges
                0x00000258       0x20 output\print.o
 .debug_aranges
                0x00000278       0x20 output\report.o
 .debug_aranges
                0x00000298       0x20 output\settings.o
 .debug_aranges
                0x000002b8       0x20 output\spindle_control.o
 .debug_aranges
                0x000002d8       0x20 output\stepper.o
 .debug_aranges
                0x000002f8       0x20 output\system.o
 .debug_aranges
                0x00000318       0x20 output\grbl.o
 .debug_aranges
                0x00000338       0x20 output\pwm.o
 .debug_aranges
                0x00000358       0x20 output\jog.o
 .debug_aranges
                0x00000378       0x20 output\dee.o
 .debug_aranges
                0x00000398       0x20 output\dee_page.o
 .debug_aranges
                0x000003b8       0x20 output\dee_page_helper.o
 .debug_aranges
                0x000003d8       0x20 output\eep_manager_crc.o
 .debug_aranges
                0x000003f8       0x20 output\system_control.o
 .debug_aranges
                0x00000418       0x20 output\stepper_enable.o
 .debug_aranges
                0x00000438       0x20 output\system_exec.o
 .debug_aranges
                0x00000458       0x20 output\system_alarm.o
 .debug_aranges
                0x00000478       0x20 output\grbl_eeprom.o
 .debug_aranges
                0x00000498       0x20 output\bootloader_interface.o
 .debug_aranges
                0x000004b8       0x20 output\grbl_protocol.o
 .debug_aranges
                0x000004d8       0x20 output\stackmeasure.o
 .debug_aranges
                0x000004f8       0x20 output\grbl_toolchange.o
 .debug_aranges
                0x00000518       0x20 output\grbl_running.o
 .debug_aranges
                0x00000538       0x20 output\grbl_probe.o
 .debug_aranges
                0x00000558       0x20 output\grbl_bootloader.o
 .debug_aranges
                0x00000578       0x20 output\ethernet.o
 .debug_aranges
                0x00000598       0x20 output\ethernet_grbl.o
 .debug_aranges
                0x000005b8       0x20 output\UDP.o
 .debug_aranges
                0x000005d8       0x20 output\Tick.o
 .debug_aranges
                0x000005f8       0x20 output\Helpers.o
 .debug_aranges
                0x00000618       0x20 output\ARP.o
 .debug_aranges
                0x00000638       0x20 output\ENC28J60.o
 .debug_aranges
                0x00000658       0x20 output\Delay.o
 .debug_aranges
                0x00000678       0x20 output\IP.o
 .debug_aranges
                0x00000698       0x20 output\StackTsk.o
 .debug_aranges
                0x000006b8       0x20 output\ICMP.o
 .debug_aranges
                0x000006d8       0x18 output\DHCP.o
 .debug_aranges
                0x000006f0       0x20 output\Announce.o
 .debug_aranges
                0x00000710       0x20 c:/program files (x86)/microchip/xc32/v2.30/bin/bin/../../lib/gcc/pic32mx/4.8.3/../../../../pic32mx/lib\libmchp_peripheral_32MX470F512L.a(soft_reset_lib.o)
 .debug_aranges
                0x00000730       0x28 c:/program files (x86)/microchip/xc32/v2.30/bin/bin/../../lib/gcc/pic32mx/4.8.3/../../../../pic32mx/lib\libmchp_peripheral_32MX470F512L.a(pcache.o)
 .debug_aranges
                0x00000758       0x20 c:/program files (x86)/microchip/xc32/v2.30/bin/bin/../../lib/gcc/pic32mx/4.8.3/../../../../pic32mx/lib\libmchp_peripheral_32MX470F512L.a(int_disable_interrupts_lib.o)
 .debug_aranges
                0x00000778       0x20 c:/program files (x86)/microchip/xc32/v2.30/bin/bin/../../lib/gcc/pic32mx/4.8.3/../../../../pic32mx/lib\libmchp_peripheral_32MX470F512L.a(power_idle_lib.o)
 .debug_aranges
                0x00000798       0x20 c:/program files (x86)/microchip/xc32/v2.30/bin/bin/../../lib/gcc/pic32mx/4.8.3/../../../../pic32mx/lib\libmchp_peripheral_32MX470F512L.a(power_sleep_lib.o)
 .debug_aranges
                0x000007b8       0x20 c:/program files (x86)/microchip/xc32/v2.30/bin/bin/../../lib/gcc/pic32mx/4.8.3/../../../../pic32mx/lib\libmchp_peripheral_32MX470F512L.a(nvm_erase_page_lib.o)
 .debug_aranges
                0x000007d8       0x20 c:/program files (x86)/microchip/xc32/v2.30/bin/bin/../../lib/gcc/pic32mx/4.8.3/../../../../pic32mx/lib\libmchp_peripheral_32MX470F512L.a(nvm_operation_lib.o)
 .debug_aranges
                0x000007f8       0x20 c:/program files (x86)/microchip/xc32/v2.30/bin/bin/../../lib/gcc/pic32mx/4.8.3/../../../../pic32mx/lib\libmchp_peripheral_32MX470F512L.a(nvm_write_word_lib.o)
 .debug_aranges
                0x00000818       0x20 c:/program files (x86)/microchip/xc32/v2.30/bin/bin/../../lib/gcc/pic32mx/4.8.3/../../../../pic32mx/lib\libmchp_peripheral_32MX470F512L.a(int_restore_interrupts_lib.o)
 .debug_aranges
                0x00000838       0x20 c:/program files (x86)/microchip/xc32/v2.30/bin/bin/../../lib/gcc/pic32mx/4.8.3\libgcc.a(_fixunssfdi.o)
 .debug_aranges
                0x00000858       0x20 c:/program files (x86)/microchip/xc32/v2.30/bin/bin/../../lib/gcc/pic32mx/4.8.3\libgcc.a(_floatundisf.o)
 .debug_aranges
                0x00000878       0x20 c:/program files (x86)/microchip/xc32/v2.30/bin/bin/../../lib/gcc/pic32mx/4.8.3\libgcc.a(floatunsisf.o)
 .debug_aranges
                0x00000898       0x20 c:/program files (x86)/microchip/xc32/v2.30/bin/bin/../../lib/gcc/pic32mx/4.8.3\libgcc.a(floatunsidf.o)
 .debug_aranges
                0x000008b8       0x20 c:/program files (x86)/microchip/xc32/v2.30/bin/bin/../../lib/gcc/pic32mx/4.8.3/../../../../pic32mx/lib\libpic32.a(default-bootstrap-exception-handler.o)
 .debug_aranges
                0x000008d8       0x20 c:/program files (x86)/microchip/xc32/v2.30/bin/bin/../../lib/gcc/pic32mx/4.8.3/../../../../pic32mx/lib\libpic32.a(default-on-reset.o)
 .debug_aranges
                0x000008f8       0x20 c:/program files (x86)/microchip/xc32/v2.30/bin/bin/../../lib/gcc/pic32mx/4.8.3/../../../../pic32mx/lib\libpic32.a(default-on-bootstrap.o)
 .debug_aranges
                0x00000918       0x20 c:/program files (x86)/microchip/xc32/v2.30/bin/bin/../../lib/gcc/pic32mx/4.8.3/../../../../pic32mx/lib\libpic32.a(defaultinterrupt.o)
 .debug_aranges
                0x00000938       0x20 c:/program files (x86)/microchip/xc32/v2.30/bin/bin/../../lib/gcc/pic32mx/4.8.3/../../../../pic32mx/lib\libm.a(w_atan2f.o)
 .debug_aranges
                0x00000958       0x20 c:/program files (x86)/microchip/xc32/v2.30/bin/bin/../../lib/gcc/pic32mx/4.8.3/../../../../pic32mx/lib\libm.a(w_sqrtf.o)
 .debug_aranges
                0x00000978       0x78 c:/program files (x86)/microchip/xc32/v2.30/bin/bin/../../lib/gcc/pic32mx/4.8.3/../../../../pic32mx/lib\libm.a(support.o)

.debug_pubnames
 *(.debug_pubnames)

.debug_info     0x00000000    0x2c45e
 *(.debug_info .gnu.linkonce.wi.*)
 .debug_info    0x00000000      0x6ab output\tmr.o
 .debug_info    0x000006ab      0x471 output\mal.o
 .debug_info    0x00000b1c      0x581 output\ringBuffer.o
 .debug_info    0x0000109d      0x7f1 output\task.o
 .debug_info    0x0000188e      0x5f5 output\sleep.o
 .debug_info    0x00001e83      0x343 output\eeprom.o
 .debug_info    0x000021c6      0xcbf output\eep_manager.o
 .debug_info    0x00002e85      0x499 output\exceptions.o
 .debug_info    0x0000331e      0xbdc output\isr.o
 .debug_info    0x00003efa      0xb0b output\main.o
 .debug_info    0x00004a05     0x16b5 output\c_eep_manager.o
 .debug_info    0x000060ba      0x27b output\app.o
 .debug_info    0x00006335      0x859 output\ad.o
 .debug_info    0x00006b8e      0xeb3 output\gcode.o
 .debug_info    0x00007a41      0xc2d output\limits.o
 .debug_info    0x0000866e      0x3df output\coolant_control.o
 .debug_info    0x00008a4d      0xca9 output\motion_control.o
 .debug_info    0x000096f6      0x6ac output\nuts_bolts.o
 .debug_info    0x00009da2      0xdbb output\planner.o
 .debug_info    0x0000ab5d      0x764 output\print.o
 .debug_info    0x0000b2c1     0x1101 output\report.o
 .debug_info    0x0000c3c2      0x7a6 output\settings.o
 .debug_info    0x0000cb68      0x701 output\spindle_control.o
 .debug_info    0x0000d269     0x1056 output\stepper.o
 .debug_info    0x0000e2bf      0xfc2 output\system.o
 .debug_info    0x0000f281      0xd54 output\grbl.o
 .debug_info    0x0000ffd5      0xb73 output\pwm.o
 .debug_info    0x00010b48      0x7ad output\jog.o
 .debug_info    0x000112f5      0xb8d output\dee.o
 .debug_info    0x00011e82      0xb7d output\dee_page.o
 .debug_info    0x000129ff      0x51c output\dee_page_helper.o
 .debug_info    0x00012f1b      0x629 output\eep_manager_crc.o
 .debug_info    0x00013544      0x374 output\system_control.o
 .debug_info    0x000138b8      0x4a5 output\stepper_enable.o
 .debug_info    0x00013d5d      0x269 output\system_exec.o
 .debug_info    0x00013fc6      0x247 output\system_alarm.o
 .debug_info    0x0001420d      0x907 output\grbl_eeprom.o
 .debug_info    0x00014b14      0x13f output\bootloader_interface.o
 .debug_info    0x00014c53      0xd98 output\grbl_protocol.o
 .debug_info    0x000159eb      0x1f1 output\stackmeasure.o
 .debug_info    0x00015bdc      0x772 output\grbl_toolchange.o
 .debug_info    0x0001634e      0x550 output\grbl_running.o
 .debug_info    0x0001689e      0x8c9 output\grbl_probe.o
 .debug_info    0x00017167      0x475 output\grbl_bootloader.o
 .debug_info    0x000175dc     0x17ba output\ethernet.o
 .debug_info    0x00018d96     0x1232 output\ethernet_grbl.o
 .debug_info    0x00019fc8     0x1e17 output\UDP.o
 .debug_info    0x0001bddf      0xf67 output\Tick.o
 .debug_info    0x0001cd46     0x19a5 output\Helpers.o
 .debug_info    0x0001e6eb     0x17c0 output\ARP.o
 .debug_info    0x0001feab     0x3cbc output\ENC28J60.o
 .debug_info    0x00023b67      0xe2c output\Delay.o
 .debug_info    0x00024993     0x176f output\IP.o
 .debug_info    0x00026102     0x1649 output\StackTsk.o
 .debug_info    0x0002774b     0x138b output\ICMP.o
 .debug_info    0x00028ad6      0xd8c output\DHCP.o
 .debug_info    0x00029862     0x177a output\Announce.o
 .debug_info    0x0002afdc       0xb0 c:/program files (x86)/microchip/xc32/v2.30/bin/bin/../../lib/gcc/pic32mx/4.8.3/../../../../pic32mx/lib\libmchp_peripheral_32MX470F512L.a(soft_reset_lib.o)
 .debug_info    0x0002b08c       0xbe c:/program files (x86)/microchip/xc32/v2.30/bin/bin/../../lib/gcc/pic32mx/4.8.3/../../../../pic32mx/lib\libmchp_peripheral_32MX470F512L.a(pcache.o)
 .debug_info    0x0002b14a       0xb4 c:/program files (x86)/microchip/xc32/v2.30/bin/bin/../../lib/gcc/pic32mx/4.8.3/../../../../pic32mx/lib\libmchp_peripheral_32MX470F512L.a(int_disable_interrupts_lib.o)
 .debug_info    0x0002b1fe       0xc4 c:/program files (x86)/microchip/xc32/v2.30/bin/bin/../../lib/gcc/pic32mx/4.8.3/../../../../pic32mx/lib\libmchp_peripheral_32MX470F512L.a(power_idle_lib.o)
 .debug_info    0x0002b2c2       0xc6 c:/program files (x86)/microchip/xc32/v2.30/bin/bin/../../lib/gcc/pic32mx/4.8.3/../../../../pic32mx/lib\libmchp_peripheral_32MX470F512L.a(power_sleep_lib.o)
 .debug_info    0x0002b388       0xa4 c:/program files (x86)/microchip/xc32/v2.30/bin/bin/../../lib/gcc/pic32mx/4.8.3/../../../../pic32mx/lib\libmchp_peripheral_32MX470F512L.a(nvm_erase_page_lib.o)
 .debug_info    0x0002b42c       0xc5 c:/program files (x86)/microchip/xc32/v2.30/bin/bin/../../lib/gcc/pic32mx/4.8.3/../../../../pic32mx/lib\libmchp_peripheral_32MX470F512L.a(nvm_operation_lib.o)
 .debug_info    0x0002b4f1       0xa4 c:/program files (x86)/microchip/xc32/v2.30/bin/bin/../../lib/gcc/pic32mx/4.8.3/../../../../pic32mx/lib\libmchp_peripheral_32MX470F512L.a(nvm_write_word_lib.o)
 .debug_info    0x0002b595       0xb4 c:/program files (x86)/microchip/xc32/v2.30/bin/bin/../../lib/gcc/pic32mx/4.8.3/../../../../pic32mx/lib\libmchp_peripheral_32MX470F512L.a(int_restore_interrupts_lib.o)
 .debug_info    0x0002b649      0x280 c:/program files (x86)/microchip/xc32/v2.30/bin/bin/../../lib/gcc/pic32mx/4.8.3\libgcc.a(_fixunssfdi.o)
 .debug_info    0x0002b8c9      0x253 c:/program files (x86)/microchip/xc32/v2.30/bin/bin/../../lib/gcc/pic32mx/4.8.3\libgcc.a(_floatundisf.o)
 .debug_info    0x0002bb1c      0x129 c:/program files (x86)/microchip/xc32/v2.30/bin/bin/../../lib/gcc/pic32mx/4.8.3\libgcc.a(floatunsisf.o)
 .debug_info    0x0002bc45      0x137 c:/program files (x86)/microchip/xc32/v2.30/bin/bin/../../lib/gcc/pic32mx/4.8.3\libgcc.a(floatunsidf.o)
 .debug_info    0x0002bd7c       0xf4 c:/program files (x86)/microchip/xc32/v2.30/bin/bin/../../lib/gcc/pic32mx/4.8.3/../../../../pic32mx/lib\libpic32.a(default-bootstrap-exception-handler.o)
 .debug_info    0x0002be70       0xcd c:/program files (x86)/microchip/xc32/v2.30/bin/bin/../../lib/gcc/pic32mx/4.8.3/../../../../pic32mx/lib\libpic32.a(default-on-reset.o)
 .debug_info    0x0002bf3d       0xd5 c:/program files (x86)/microchip/xc32/v2.30/bin/bin/../../lib/gcc/pic32mx/4.8.3/../../../../pic32mx/lib\libpic32.a(default-on-bootstrap.o)
 .debug_info    0x0002c012       0xe7 c:/program files (x86)/microchip/xc32/v2.30/bin/bin/../../lib/gcc/pic32mx/4.8.3/../../../../pic32mx/lib\libpic32.a(defaultinterrupt.o)
 .debug_info    0x0002c0f9       0xce c:/program files (x86)/microchip/xc32/v2.30/bin/bin/../../lib/gcc/pic32mx/4.8.3/../../../../pic32mx/lib\libm.a(w_atan2f.o)
 .debug_info    0x0002c1c7       0xbe c:/program files (x86)/microchip/xc32/v2.30/bin/bin/../../lib/gcc/pic32mx/4.8.3/../../../../pic32mx/lib\libm.a(w_sqrtf.o)
 .debug_info    0x0002c285      0x1d9 c:/program files (x86)/microchip/xc32/v2.30/bin/bin/../../lib/gcc/pic32mx/4.8.3/../../../../pic32mx/lib\libm.a(support.o)

.debug_abbrev   0x00000000     0x5542
 *(.debug_abbrev)
 .debug_abbrev  0x00000000      0x15e output\tmr.o
 .debug_abbrev  0x0000015e      0x107 output\mal.o
 .debug_abbrev  0x00000265      0x100 output\ringBuffer.o
 .debug_abbrev  0x00000365      0x19b output\task.o
 .debug_abbrev  0x00000500      0x111 output\sleep.o
 .debug_abbrev  0x00000611       0xb8 output\eeprom.o
 .debug_abbrev  0x000006c9      0x221 output\eep_manager.o
 .debug_abbrev  0x000008ea      0x112 output\exceptions.o
 .debug_abbrev  0x000009fc      0x121 output\isr.o
 .debug_abbrev  0x00000b1d      0x170 output\main.o
 .debug_abbrev  0x00000c8d      0x160 output\c_eep_manager.o
 .debug_abbrev  0x00000ded       0xc8 output\app.o
 .debug_abbrev  0x00000eb5      0x12a output\ad.o
 .debug_abbrev  0x00000fdf      0x178 output\gcode.o
 .debug_abbrev  0x00001157      0x1d5 output\limits.o
 .debug_abbrev  0x0000132c       0xe6 output\coolant_control.o
 .debug_abbrev  0x00001412      0x1e8 output\motion_control.o
 .debug_abbrev  0x000015fa       0xef output\nuts_bolts.o
 .debug_abbrev  0x000016e9      0x270 output\planner.o
 .debug_abbrev  0x00001959       0xbe output\print.o
 .debug_abbrev  0x00001a17      0x1d3 output\report.o
 .debug_abbrev  0x00001bea      0x173 output\settings.o
 .debug_abbrev  0x00001d5d      0x112 output\spindle_control.o
 .debug_abbrev  0x00001e6f      0x1a8 output\stepper.o
 .debug_abbrev  0x00002017      0x216 output\system.o
 .debug_abbrev  0x0000222d      0x11d output\grbl.o
 .debug_abbrev  0x0000234a      0x189 output\pwm.o
 .debug_abbrev  0x000024d3       0xbd output\jog.o
 .debug_abbrev  0x00002590      0x1a1 output\dee.o
 .debug_abbrev  0x00002731      0x1ec output\dee_page.o
 .debug_abbrev  0x0000291d       0xf4 output\dee_page_helper.o
 .debug_abbrev  0x00002a11       0xc0 output\eep_manager_crc.o
 .debug_abbrev  0x00002ad1       0xc6 output\system_control.o
 .debug_abbrev  0x00002b97       0xe2 output\stepper_enable.o
 .debug_abbrev  0x00002c79       0xa9 output\system_exec.o
 .debug_abbrev  0x00002d22       0xc1 output\system_alarm.o
 .debug_abbrev  0x00002de3      0x133 output\grbl_eeprom.o
 .debug_abbrev  0x00002f16       0x4f output\bootloader_interface.o
 .debug_abbrev  0x00002f65      0x218 output\grbl_protocol.o
 .debug_abbrev  0x0000317d       0x9c output\stackmeasure.o
 .debug_abbrev  0x00003219      0x144 output\grbl_toolchange.o
 .debug_abbrev  0x0000335d       0xcb output\grbl_running.o
 .debug_abbrev  0x00003428      0x189 output\grbl_probe.o
 .debug_abbrev  0x000035b1       0xbe output\grbl_bootloader.o
 .debug_abbrev  0x0000366f      0x204 output\ethernet.o
 .debug_abbrev  0x00003873      0x1f3 output\ethernet_grbl.o
 .debug_abbrev  0x00003a66      0x2f3 output\UDP.o
 .debug_abbrev  0x00003d59      0x1c1 output\Tick.o
 .debug_abbrev  0x00003f1a      0x247 output\Helpers.o
 .debug_abbrev  0x00004161      0x253 output\ARP.o
 .debug_abbrev  0x000043b4      0x359 output\ENC28J60.o
 .debug_abbrev  0x0000470d      0x16e output\Delay.o
 .debug_abbrev  0x0000487b      0x201 output\IP.o
 .debug_abbrev  0x00004a7c      0x1c7 output\StackTsk.o
 .debug_abbrev  0x00004c43      0x179 output\ICMP.o
 .debug_abbrev  0x00004dbc      0x118 output\DHCP.o
 .debug_abbrev  0x00004ed4      0x1c9 output\Announce.o
 .debug_abbrev  0x0000509d       0x37 c:/program files (x86)/microchip/xc32/v2.30/bin/bin/../../lib/gcc/pic32mx/4.8.3/../../../../pic32mx/lib\libmchp_peripheral_32MX470F512L.a(soft_reset_lib.o)
 .debug_abbrev  0x000050d4       0x28 c:/program files (x86)/microchip/xc32/v2.30/bin/bin/../../lib/gcc/pic32mx/4.8.3/../../../../pic32mx/lib\libmchp_peripheral_32MX470F512L.a(pcache.o)
 .debug_abbrev  0x000050fc       0x28 c:/program files (x86)/microchip/xc32/v2.30/bin/bin/../../lib/gcc/pic32mx/4.8.3/../../../../pic32mx/lib\libmchp_peripheral_32MX470F512L.a(int_disable_interrupts_lib.o)
 .debug_abbrev  0x00005124       0x37 c:/program files (x86)/microchip/xc32/v2.30/bin/bin/../../lib/gcc/pic32mx/4.8.3/../../../../pic32mx/lib\libmchp_peripheral_32MX470F512L.a(power_idle_lib.o)
 .debug_abbrev  0x0000515b       0x37 c:/program files (x86)/microchip/xc32/v2.30/bin/bin/../../lib/gcc/pic32mx/4.8.3/../../../../pic32mx/lib\libmchp_peripheral_32MX470F512L.a(power_sleep_lib.o)
 .debug_abbrev  0x00005192       0x28 c:/program files (x86)/microchip/xc32/v2.30/bin/bin/../../lib/gcc/pic32mx/4.8.3/../../../../pic32mx/lib\libmchp_peripheral_32MX470F512L.a(nvm_erase_page_lib.o)
 .debug_abbrev  0x000051ba       0x37 c:/program files (x86)/microchip/xc32/v2.30/bin/bin/../../lib/gcc/pic32mx/4.8.3/../../../../pic32mx/lib\libmchp_peripheral_32MX470F512L.a(nvm_operation_lib.o)
 .debug_abbrev  0x000051f1       0x28 c:/program files (x86)/microchip/xc32/v2.30/bin/bin/../../lib/gcc/pic32mx/4.8.3/../../../../pic32mx/lib\libmchp_peripheral_32MX470F512L.a(nvm_write_word_lib.o)
 .debug_abbrev  0x00005219       0x28 c:/program files (x86)/microchip/xc32/v2.30/bin/bin/../../lib/gcc/pic32mx/4.8.3/../../../../pic32mx/lib\libmchp_peripheral_32MX470F512L.a(int_restore_interrupts_lib.o)
 .debug_abbrev  0x00005241       0x6d c:/program files (x86)/microchip/xc32/v2.30/bin/bin/../../lib/gcc/pic32mx/4.8.3\libgcc.a(_fixunssfdi.o)
 .debug_abbrev  0x000052ae       0x64 c:/program files (x86)/microchip/xc32/v2.30/bin/bin/../../lib/gcc/pic32mx/4.8.3\libgcc.a(_floatundisf.o)
 .debug_abbrev  0x00005312       0x62 c:/program files (x86)/microchip/xc32/v2.30/bin/bin/../../lib/gcc/pic32mx/4.8.3\libgcc.a(floatunsisf.o)
 .debug_abbrev  0x00005374       0x62 c:/program files (x86)/microchip/xc32/v2.30/bin/bin/../../lib/gcc/pic32mx/4.8.3\libgcc.a(floatunsidf.o)
 .debug_abbrev  0x000053d6       0x28 c:/program files (x86)/microchip/xc32/v2.30/bin/bin/../../lib/gcc/pic32mx/4.8.3/../../../../pic32mx/lib\libpic32.a(default-bootstrap-exception-handler.o)
 .debug_abbrev  0x000053fe       0x28 c:/program files (x86)/microchip/xc32/v2.30/bin/bin/../../lib/gcc/pic32mx/4.8.3/../../../../pic32mx/lib\libpic32.a(default-on-reset.o)
 .debug_abbrev  0x00005426       0x28 c:/program files (x86)/microchip/xc32/v2.30/bin/bin/../../lib/gcc/pic32mx/4.8.3/../../../../pic32mx/lib\libpic32.a(default-on-bootstrap.o)
 .debug_abbrev  0x0000544e       0x28 c:/program files (x86)/microchip/xc32/v2.30/bin/bin/../../lib/gcc/pic32mx/4.8.3/../../../../pic32mx/lib\libpic32.a(defaultinterrupt.o)
 .debug_abbrev  0x00005476       0x37 c:/program files (x86)/microchip/xc32/v2.30/bin/bin/../../lib/gcc/pic32mx/4.8.3/../../../../pic32mx/lib\libm.a(w_atan2f.o)
 .debug_abbrev  0x000054ad       0x28 c:/program files (x86)/microchip/xc32/v2.30/bin/bin/../../lib/gcc/pic32mx/4.8.3/../../../../pic32mx/lib\libm.a(w_sqrtf.o)
 .debug_abbrev  0x000054d5       0x6d c:/program files (x86)/microchip/xc32/v2.30/bin/bin/../../lib/gcc/pic32mx/4.8.3/../../../../pic32mx/lib\libm.a(support.o)

.debug_line     0x00000000     0x8513
 *(.debug_line)
 .debug_line    0x00000000      0x25d output\tmr.o
 .debug_line    0x0000025d      0x177 output\mal.o
 .debug_line    0x000003d4      0x140 output\ringBuffer.o
 .debug_line    0x00000514      0x1c6 output\task.o
 .debug_line    0x000006da      0x212 output\sleep.o
 .debug_line    0x000008ec       0xf1 output\eeprom.o
 .debug_line    0x000009dd      0x2fb output\eep_manager.o
 .debug_line    0x00000cd8       0xf4 output\exceptions.o
 .debug_line    0x00000dcc      0x1f8 output\isr.o
 .debug_line    0x00000fc4      0x22a output\main.o
 .debug_line    0x000011ee      0x2d1 output\c_eep_manager.o
 .debug_line    0x000014bf       0xbd output\app.o
 .debug_line    0x0000157c      0x17c output\ad.o
 .debug_line    0x000016f8      0x59e output\gcode.o
 .debug_line    0x00001c96      0x2a7 output\limits.o
 .debug_line    0x00001f3d      0x130 output\coolant_control.o
 .debug_line    0x0000206d      0x1f8 output\motion_control.o
 .debug_line    0x00002265      0x1bc output\nuts_bolts.o
 .debug_line    0x00002421      0x2bc output\planner.o
 .debug_line    0x000026dd      0x1bc output\print.o
 .debug_line    0x00002899      0x42e output\report.o
 .debug_line    0x00002cc7      0x222 output\settings.o
 .debug_line    0x00002ee9      0x179 output\spindle_control.o
 .debug_line    0x00003062      0x432 output\stepper.o
 .debug_line    0x00003494      0x3c3 output\system.o
 .debug_line    0x00003857      0x20e output\grbl.o
 .debug_line    0x00003a65      0x1fd output\pwm.o
 .debug_line    0x00003c62      0x171 output\jog.o
 .debug_line    0x00003dd3      0x2e2 output\dee.o
 .debug_line    0x000040b5      0x1a6 output\dee_page.o
 .debug_line    0x0000425b      0x171 output\dee_page_helper.o
 .debug_line    0x000043cc      0x14e output\eep_manager_crc.o
 .debug_line    0x0000451a       0xee output\system_control.o
 .debug_line    0x00004608      0x157 output\stepper_enable.o
 .debug_line    0x0000475f      0x115 output\system_exec.o
 .debug_line    0x00004874      0x111 output\system_alarm.o
 .debug_line    0x00004985      0x171 output\grbl_eeprom.o
 .debug_line    0x00004af6       0x77 output\bootloader_interface.o
 .debug_line    0x00004b6d      0x317 output\grbl_protocol.o
 .debug_line    0x00004e84       0x8e output\stackmeasure.o
 .debug_line    0x00004f12      0x169 output\grbl_toolchange.o
 .debug_line    0x0000507b      0x10d output\grbl_running.o
 .debug_line    0x00005188      0x1db output\grbl_probe.o
 .debug_line    0x00005363      0x148 output\grbl_bootloader.o
 .debug_line    0x000054ab      0x2e8 output\ethernet.o
 .debug_line    0x00005793      0x2f1 output\ethernet_grbl.o
 .debug_line    0x00005a84      0x3b0 output\UDP.o
 .debug_line    0x00005e34      0x24e output\Tick.o
 .debug_line    0x00006082      0x399 output\Helpers.o
 .debug_line    0x0000641b      0x2a9 output\ARP.o
 .debug_line    0x000066c4      0x66e output\ENC28J60.o
 .debug_line    0x00006d32      0x1dc output\Delay.o
 .debug_line    0x00006f0e      0x25d output\IP.o
 .debug_line    0x0000716b      0x262 output\StackTsk.o
 .debug_line    0x000073cd      0x226 output\ICMP.o
 .debug_line    0x000075f3      0x17b output\DHCP.o
 .debug_line    0x0000776e      0x27a output\Announce.o
 .debug_line    0x000079e8       0xa7 c:/program files (x86)/microchip/xc32/v2.30/bin/bin/../../lib/gcc/pic32mx/4.8.3/../../../../pic32mx/lib\libmchp_peripheral_32MX470F512L.a(soft_reset_lib.o)
 .debug_line    0x00007a8f       0x5f c:/program files (x86)/microchip/xc32/v2.30/bin/bin/../../lib/gcc/pic32mx/4.8.3/../../../../pic32mx/lib\libmchp_peripheral_32MX470F512L.a(pcache.o)
 .debug_line    0x00007aee       0x70 c:/program files (x86)/microchip/xc32/v2.30/bin/bin/../../lib/gcc/pic32mx/4.8.3/../../../../pic32mx/lib\libmchp_peripheral_32MX470F512L.a(int_disable_interrupts_lib.o)
 .debug_line    0x00007b5e       0xa7 c:/program files (x86)/microchip/xc32/v2.30/bin/bin/../../lib/gcc/pic32mx/4.8.3/../../../../pic32mx/lib\libmchp_peripheral_32MX470F512L.a(power_idle_lib.o)
 .debug_line    0x00007c05       0xa8 c:/program files (x86)/microchip/xc32/v2.30/bin/bin/../../lib/gcc/pic32mx/4.8.3/../../../../pic32mx/lib\libmchp_peripheral_32MX470F512L.a(power_sleep_lib.o)
 .debug_line    0x00007cad       0x68 c:/program files (x86)/microchip/xc32/v2.30/bin/bin/../../lib/gcc/pic32mx/4.8.3/../../../../pic32mx/lib\libmchp_peripheral_32MX470F512L.a(nvm_erase_page_lib.o)
 .debug_line    0x00007d15       0xa8 c:/program files (x86)/microchip/xc32/v2.30/bin/bin/../../lib/gcc/pic32mx/4.8.3/../../../../pic32mx/lib\libmchp_peripheral_32MX470F512L.a(nvm_operation_lib.o)
 .debug_line    0x00007dbd       0x68 c:/program files (x86)/microchip/xc32/v2.30/bin/bin/../../lib/gcc/pic32mx/4.8.3/../../../../pic32mx/lib\libmchp_peripheral_32MX470F512L.a(nvm_write_word_lib.o)
 .debug_line    0x00007e25       0x70 c:/program files (x86)/microchip/xc32/v2.30/bin/bin/../../lib/gcc/pic32mx/4.8.3/../../../../pic32mx/lib\libmchp_peripheral_32MX470F512L.a(int_restore_interrupts_lib.o)
 .debug_line    0x00007e95       0xa4 c:/program files (x86)/microchip/xc32/v2.30/bin/bin/../../lib/gcc/pic32mx/4.8.3\libgcc.a(_fixunssfdi.o)
 .debug_line    0x00007f39       0xaa c:/program files (x86)/microchip/xc32/v2.30/bin/bin/../../lib/gcc/pic32mx/4.8.3\libgcc.a(_floatundisf.o)
 .debug_line    0x00007fe3       0x94 c:/program files (x86)/microchip/xc32/v2.30/bin/bin/../../lib/gcc/pic32mx/4.8.3\libgcc.a(floatunsisf.o)
 .debug_line    0x00008077       0x93 c:/program files (x86)/microchip/xc32/v2.30/bin/bin/../../lib/gcc/pic32mx/4.8.3\libgcc.a(floatunsidf.o)
 .debug_line    0x0000810a       0xa6 c:/program files (x86)/microchip/xc32/v2.30/bin/bin/../../lib/gcc/pic32mx/4.8.3/../../../../pic32mx/lib\libpic32.a(default-bootstrap-exception-handler.o)
 .debug_line    0x000081b0       0x93 c:/program files (x86)/microchip/xc32/v2.30/bin/bin/../../lib/gcc/pic32mx/4.8.3/../../../../pic32mx/lib\libpic32.a(default-on-reset.o)
 .debug_line    0x00008243       0x97 c:/program files (x86)/microchip/xc32/v2.30/bin/bin/../../lib/gcc/pic32mx/4.8.3/../../../../pic32mx/lib\libpic32.a(default-on-bootstrap.o)
 .debug_line    0x000082da       0xa5 c:/program files (x86)/microchip/xc32/v2.30/bin/bin/../../lib/gcc/pic32mx/4.8.3/../../../../pic32mx/lib\libpic32.a(defaultinterrupt.o)
 .debug_line    0x0000837f       0x88 c:/program files (x86)/microchip/xc32/v2.30/bin/bin/../../lib/gcc/pic32mx/4.8.3/../../../../pic32mx/lib\libm.a(w_atan2f.o)
 .debug_line    0x00008407       0x87 c:/program files (x86)/microchip/xc32/v2.30/bin/bin/../../lib/gcc/pic32mx/4.8.3/../../../../pic32mx/lib\libm.a(w_sqrtf.o)
 .debug_line    0x0000848e       0x85 c:/program files (x86)/microchip/xc32/v2.30/bin/bin/../../lib/gcc/pic32mx/4.8.3/../../../../pic32mx/lib\libm.a(support.o)
 .debug_line    0x00008513        0x0 c:/program files (x86)/microchip/xc32/v2.30/bin/bin/../../lib/gcc/pic32mx/4.8.3/../../../../pic32mx/lib\libm.a(s_lib_ver.o)
 .debug_line    0x00008513        0x0 c:/program files (x86)/microchip/xc32/v2.30/bin/bin/../../lib/gcc/pic32mx/4.8.3/../../../../pic32mx/lib\libpic32.a(errno.o)

.debug_frame    0x00000000     0x4df0
 *(.debug_frame)
 .debug_frame   0x00000000      0x23c output\tmr.o
 .debug_frame   0x0000023c       0x50 output\mal.o
 .debug_frame   0x0000028c      0x11c output\ringBuffer.o
 .debug_frame   0x000003a8      0x27c output\task.o
 .debug_frame   0x00000624      0x208 output\sleep.o
 .debug_frame   0x0000082c       0xe8 output\eeprom.o
 .debug_frame   0x00000914      0x264 output\eep_manager.o
 .debug_frame   0x00000b78       0x94 output\exceptions.o
 .debug_frame   0x00000c0c      0x3d0 output\isr.o
 .debug_frame   0x00000fdc       0x74 output\main.o
 .debug_frame   0x00001050      0x118 output\app.o
 .debug_frame   0x00001168       0x90 output\ad.o
 .debug_frame   0x000011f8       0xe8 output\gcode.o
 .debug_frame   0x000012e0      0x1ac output\limits.o
 .debug_frame   0x0000148c       0xbc output\coolant_control.o
 .debug_frame   0x00001548      0x174 output\motion_control.o
 .debug_frame   0x000016bc      0x1b4 output\nuts_bolts.o
 .debug_frame   0x00001870      0x280 output\planner.o
 .debug_frame   0x00001af0      0x1c4 output\print.o
 .debug_frame   0x00001cb4      0x330 output\report.o
 .debug_frame   0x00001fe4      0x194 output\settings.o
 .debug_frame   0x00002178       0xc0 output\spindle_control.o
 .debug_frame   0x00002238      0x1dc output\stepper.o
 .debug_frame   0x00002414      0x2a4 output\system.o
 .debug_frame   0x000026b8      0x188 output\grbl.o
 .debug_frame   0x00002840       0xe0 output\pwm.o
 .debug_frame   0x00002920       0x34 output\jog.o
 .debug_frame   0x00002954      0x1dc output\dee.o
 .debug_frame   0x00002b30      0x258 output\dee_page.o
 .debug_frame   0x00002d88      0x104 output\dee_page_helper.o
 .debug_frame   0x00002e8c       0xb0 output\eep_manager_crc.o
 .debug_frame   0x00002f3c       0xd8 output\system_control.o
 .debug_frame   0x00003014      0x120 output\stepper_enable.o
 .debug_frame   0x00003134       0x70 output\system_exec.o
 .debug_frame   0x000031a4       0x70 output\system_alarm.o
 .debug_frame   0x00003214      0x118 output\grbl_eeprom.o
 .debug_frame   0x0000332c       0x50 output\bootloader_interface.o
 .debug_frame   0x0000337c      0x254 output\grbl_protocol.o
 .debug_frame   0x000035d0       0x94 output\stackmeasure.o
 .debug_frame   0x00003664       0xdc output\grbl_toolchange.o
 .debug_frame   0x00003740       0x74 output\grbl_running.o
 .debug_frame   0x000037b4      0x144 output\grbl_probe.o
 .debug_frame   0x000038f8       0x98 output\grbl_bootloader.o
 .debug_frame   0x00003990       0xe8 output\ethernet.o
 .debug_frame   0x00003a78      0x108 output\ethernet_grbl.o
 .debug_frame   0x00003b80      0x294 output\UDP.o
 .debug_frame   0x00003e14       0xfc output\Tick.o
 .debug_frame   0x00003f10      0x250 output\Helpers.o
 .debug_frame   0x00004160      0x104 output\ARP.o
 .debug_frame   0x00004264      0x4fc output\ENC28J60.o
 .debug_frame   0x00004760       0x54 output\Delay.o
 .debug_frame   0x000047b4       0xa0 output\IP.o
 .debug_frame   0x00004854       0x7c output\StackTsk.o
 .debug_frame   0x000048d0       0x34 output\ICMP.o
 .debug_frame   0x00004904       0x58 output\Announce.o
 .debug_frame   0x0000495c       0x28 c:/program files (x86)/microchip/xc32/v2.30/bin/bin/../../lib/gcc/pic32mx/4.8.3/../../../../pic32mx/lib\libmchp_peripheral_32MX470F512L.a(soft_reset_lib.o)
 .debug_frame   0x00004984       0x30 c:/program files (x86)/microchip/xc32/v2.30/bin/bin/../../lib/gcc/pic32mx/4.8.3/../../../../pic32mx/lib\libmchp_peripheral_32MX470F512L.a(pcache.o)
 .debug_frame   0x000049b4       0x20 c:/program files (x86)/microchip/xc32/v2.30/bin/bin/../../lib/gcc/pic32mx/4.8.3/../../../../pic32mx/lib\libmchp_peripheral_32MX470F512L.a(int_disable_interrupts_lib.o)
 .debug_frame   0x000049d4       0x28 c:/program files (x86)/microchip/xc32/v2.30/bin/bin/../../lib/gcc/pic32mx/4.8.3/../../../../pic32mx/lib\libmchp_peripheral_32MX470F512L.a(power_idle_lib.o)
 .debug_frame   0x000049fc       0x28 c:/program files (x86)/microchip/xc32/v2.30/bin/bin/../../lib/gcc/pic32mx/4.8.3/../../../../pic32mx/lib\libmchp_peripheral_32MX470F512L.a(power_sleep_lib.o)
 .debug_frame   0x00004a24       0x28 c:/program files (x86)/microchip/xc32/v2.30/bin/bin/../../lib/gcc/pic32mx/4.8.3/../../../../pic32mx/lib\libmchp_peripheral_32MX470F512L.a(nvm_erase_page_lib.o)
 .debug_frame   0x00004a4c       0x28 c:/program files (x86)/microchip/xc32/v2.30/bin/bin/../../lib/gcc/pic32mx/4.8.3/../../../../pic32mx/lib\libmchp_peripheral_32MX470F512L.a(nvm_operation_lib.o)
 .debug_frame   0x00004a74       0x28 c:/program files (x86)/microchip/xc32/v2.30/bin/bin/../../lib/gcc/pic32mx/4.8.3/../../../../pic32mx/lib\libmchp_peripheral_32MX470F512L.a(nvm_write_word_lib.o)
 .debug_frame   0x00004a9c       0x20 c:/program files (x86)/microchip/xc32/v2.30/bin/bin/../../lib/gcc/pic32mx/4.8.3/../../../../pic32mx/lib\libmchp_peripheral_32MX470F512L.a(int_restore_interrupts_lib.o)
 .debug_frame   0x00004abc       0x30 c:/program files (x86)/microchip/xc32/v2.30/bin/bin/../../lib/gcc/pic32mx/4.8.3\libgcc.a(_fixunssfdi.o)
 .debug_frame   0x00004aec       0x2c c:/program files (x86)/microchip/xc32/v2.30/bin/bin/../../lib/gcc/pic32mx/4.8.3\libgcc.a(_floatundisf.o)
 .debug_frame   0x00004b18       0x30 c:/program files (x86)/microchip/xc32/v2.30/bin/bin/../../lib/gcc/pic32mx/4.8.3\libgcc.a(floatunsisf.o)
 .debug_frame   0x00004b48       0x2c c:/program files (x86)/microchip/xc32/v2.30/bin/bin/../../lib/gcc/pic32mx/4.8.3\libgcc.a(floatunsidf.o)
 .debug_frame   0x00004b74       0x2c c:/program files (x86)/microchip/xc32/v2.30/bin/bin/../../lib/gcc/pic32mx/4.8.3/../../../../pic32mx/lib\libpic32.a(default-bootstrap-exception-handler.o)
 .debug_frame   0x00004ba0       0x20 c:/program files (x86)/microchip/xc32/v2.30/bin/bin/../../lib/gcc/pic32mx/4.8.3/../../../../pic32mx/lib\libpic32.a(default-on-reset.o)
 .debug_frame   0x00004bc0       0x20 c:/program files (x86)/microchip/xc32/v2.30/bin/bin/../../lib/gcc/pic32mx/4.8.3/../../../../pic32mx/lib\libpic32.a(default-on-bootstrap.o)
 .debug_frame   0x00004be0       0x20 c:/program files (x86)/microchip/xc32/v2.30/bin/bin/../../lib/gcc/pic32mx/4.8.3/../../../../pic32mx/lib\libpic32.a(defaultinterrupt.o)
 .debug_frame   0x00004c00       0x44 c:/program files (x86)/microchip/xc32/v2.30/bin/bin/../../lib/gcc/pic32mx/4.8.3/../../../../pic32mx/lib\libm.a(w_atan2f.o)
 .debug_frame   0x00004c44       0x30 c:/program files (x86)/microchip/xc32/v2.30/bin/bin/../../lib/gcc/pic32mx/4.8.3/../../../../pic32mx/lib\libm.a(w_sqrtf.o)
 .debug_frame   0x00004c74      0x17c c:/program files (x86)/microchip/xc32/v2.30/bin/bin/../../lib/gcc/pic32mx/4.8.3/../../../../pic32mx/lib\libm.a(support.o)

.debug_str      0x00000000      0x508
 *(.debug_str)
 .debug_str     0x00000000        0x7 output\tmr.o
 .debug_str     0x00000007        0x0 output\mal.o
 .debug_str     0x00000007       0x3c output\ringBuffer.o
 .debug_str     0x00000043       0x22 output\task.o
 .debug_str     0x00000065        0xe output\sleep.o
 .debug_str     0x00000073       0x15 output\eeprom.o
 .debug_str     0x00000088       0x41 output\eep_manager.o
 .debug_str     0x000000c9       0x18 output\exceptions.o
 .debug_str     0x000000e1        0x5 output\isr.o
 .debug_str     0x000000e6        0x0 output\main.o
 .debug_str     0x000000e6        0x0 output\c_eep_manager.o
 .debug_str     0x000000e6        0x0 output\app.o
 .debug_str     0x000000e6        0x0 output\ad.o
 .debug_str     0x000000e6       0x25 output\gcode.o
 .debug_str     0x0000010b       0x25 output\limits.o
 .debug_str     0x00000130        0x0 output\coolant_control.o
 .debug_str     0x00000130       0x66 output\motion_control.o
 .debug_str     0x00000196        0x0 output\nuts_bolts.o
 .debug_str     0x00000196       0x68 output\planner.o
 .debug_str     0x000001fe        0x0 output\print.o
 .debug_str     0x000001fe       0x34 output\report.o
 .debug_str     0x00000232       0x21 output\settings.o
 .debug_str     0x00000253        0xa output\spindle_control.o
 .debug_str     0x0000025d       0x53 output\stepper.o
 .debug_str     0x000002b0       0x36 output\system.o
 .debug_str     0x000002e6        0x0 output\grbl.o
 .debug_str     0x000002e6       0x21 output\pwm.o
 .debug_str     0x00000307       0x18 output\jog.o
 .debug_str     0x0000031f       0x79 output\dee.o
 .debug_str     0x00000398       0x23 output\dee_page.o
 .debug_str     0x000003bb       0x24 output\dee_page_helper.o
 .debug_str     0x000003df       0x10 output\eep_manager_crc.o
 .debug_str     0x000003ef        0x0 output\system_control.o
 .debug_str     0x000003ef        0x0 output\stepper_enable.o
 .debug_str     0x000003ef        0x0 output\system_exec.o
 .debug_str     0x000003ef        0x0 output\system_alarm.o
 .debug_str     0x000003ef        0x0 output\grbl_eeprom.o
 .debug_str     0x000003ef        0x0 output\bootloader_interface.o
 .debug_str     0x000003ef       0x14 output\grbl_protocol.o
 .debug_str     0x00000403        0x0 output\stackmeasure.o
 .debug_str     0x00000403        0x9 output\grbl_toolchange.o
 .debug_str     0x0000040c        0x0 output\grbl_running.o
 .debug_str     0x0000040c       0x1c output\grbl_probe.o
 .debug_str     0x00000428        0x0 output\grbl_bootloader.o
 .debug_str     0x00000428        0x0 output\ethernet.o
 .debug_str     0x00000428        0x7 output\ethernet_grbl.o
 .debug_str     0x0000042f       0x41 output\UDP.o
 .debug_str     0x00000470        0x0 output\Tick.o
 .debug_str     0x00000470        0x0 output\Helpers.o
 .debug_str     0x00000470        0xe output\ARP.o
 .debug_str     0x0000047e       0x6d output\ENC28J60.o
 .debug_str     0x000004eb        0x0 output\Delay.o
 .debug_str     0x000004eb        0x9 output\IP.o
 .debug_str     0x000004f4        0x0 output\StackTsk.o
 .debug_str     0x000004f4        0x0 output\ICMP.o
 .debug_str     0x000004f4        0x0 output\DHCP.o
 .debug_str     0x000004f4       0x14 output\Announce.o
 .debug_str     0x00000508        0x0 c:/program files (x86)/microchip/xc32/v2.30/bin/bin/../../lib/gcc/pic32mx/4.8.3/../../../../pic32mx/lib\libmchp_peripheral_32MX470F512L.a(soft_reset_lib.o)
 .debug_str     0x00000508        0x0 c:/program files (x86)/microchip/xc32/v2.30/bin/bin/../../lib/gcc/pic32mx/4.8.3/../../../../pic32mx/lib\libmchp_peripheral_32MX470F512L.a(pcache.o)
 .debug_str     0x00000508        0x0 c:/program files (x86)/microchip/xc32/v2.30/bin/bin/../../lib/gcc/pic32mx/4.8.3/../../../../pic32mx/lib\libmchp_peripheral_32MX470F512L.a(int_disable_interrupts_lib.o)
 .debug_str     0x00000508        0x0 c:/program files (x86)/microchip/xc32/v2.30/bin/bin/../../lib/gcc/pic32mx/4.8.3/../../../../pic32mx/lib\libmchp_peripheral_32MX470F512L.a(power_idle_lib.o)
 .debug_str     0x00000508        0x0 c:/program files (x86)/microchip/xc32/v2.30/bin/bin/../../lib/gcc/pic32mx/4.8.3/../../../../pic32mx/lib\libmchp_peripheral_32MX470F512L.a(power_sleep_lib.o)
 .debug_str     0x00000508        0x0 c:/program files (x86)/microchip/xc32/v2.30/bin/bin/../../lib/gcc/pic32mx/4.8.3/../../../../pic32mx/lib\libmchp_peripheral_32MX470F512L.a(nvm_erase_page_lib.o)
 .debug_str     0x00000508        0x0 c:/program files (x86)/microchip/xc32/v2.30/bin/bin/../../lib/gcc/pic32mx/4.8.3/../../../../pic32mx/lib\libmchp_peripheral_32MX470F512L.a(nvm_operation_lib.o)
 .debug_str     0x00000508        0x0 c:/program files (x86)/microchip/xc32/v2.30/bin/bin/../../lib/gcc/pic32mx/4.8.3/../../../../pic32mx/lib\libmchp_peripheral_32MX470F512L.a(nvm_write_word_lib.o)
 .debug_str     0x00000508        0x0 c:/program files (x86)/microchip/xc32/v2.30/bin/bin/../../lib/gcc/pic32mx/4.8.3/../../../../pic32mx/lib\libmchp_peripheral_32MX470F512L.a(int_restore_interrupts_lib.o)
 .debug_str     0x00000508        0x0 c:/program files (x86)/microchip/xc32/v2.30/bin/bin/../../lib/gcc/pic32mx/4.8.3\libgcc.a(_fixunssfdi.o)
 .debug_str     0x00000508        0x0 c:/program files (x86)/microchip/xc32/v2.30/bin/bin/../../lib/gcc/pic32mx/4.8.3\libgcc.a(_floatundisf.o)
 .debug_str     0x00000508        0x0 c:/program files (x86)/microchip/xc32/v2.30/bin/bin/../../lib/gcc/pic32mx/4.8.3\libgcc.a(floatunsisf.o)
 .debug_str     0x00000508        0x0 c:/program files (x86)/microchip/xc32/v2.30/bin/bin/../../lib/gcc/pic32mx/4.8.3\libgcc.a(floatunsidf.o)
 .debug_str     0x00000508        0x0 c:/program files (x86)/microchip/xc32/v2.30/bin/bin/../../lib/gcc/pic32mx/4.8.3/../../../../pic32mx/lib\libpic32.a(default-bootstrap-exception-handler.o)
 .debug_str     0x00000508        0x0 c:/program files (x86)/microchip/xc32/v2.30/bin/bin/../../lib/gcc/pic32mx/4.8.3/../../../../pic32mx/lib\libpic32.a(default-on-reset.o)
 .debug_str     0x00000508        0x0 c:/program files (x86)/microchip/xc32/v2.30/bin/bin/../../lib/gcc/pic32mx/4.8.3/../../../../pic32mx/lib\libpic32.a(default-on-bootstrap.o)
 .debug_str     0x00000508        0x0 c:/program files (x86)/microchip/xc32/v2.30/bin/bin/../../lib/gcc/pic32mx/4.8.3/../../../../pic32mx/lib\libpic32.a(defaultinterrupt.o)
 .debug_str     0x00000508        0x0 c:/program files (x86)/microchip/xc32/v2.30/bin/bin/../../lib/gcc/pic32mx/4.8.3/../../../../pic32mx/lib\libm.a(w_atan2f.o)
 .debug_str     0x00000508        0x0 c:/program files (x86)/microchip/xc32/v2.30/bin/bin/../../lib/gcc/pic32mx/4.8.3/../../../../pic32mx/lib\libm.a(w_sqrtf.o)
 .debug_str     0x00000508        0x0 c:/program files (x86)/microchip/xc32/v2.30/bin/bin/../../lib/gcc/pic32mx/4.8.3/../../../../pic32mx/lib\libm.a(support.o)
 .debug_str     0x00000508        0x0 c:/program files (x86)/microchip/xc32/v2.30/bin/bin/../../lib/gcc/pic32mx/4.8.3/../../../../pic32mx/lib\libm.a(s_lib_ver.o)
 .debug_str     0x00000508        0x0 c:/program files (x86)/microchip/xc32/v2.30/bin/bin/../../lib/gcc/pic32mx/4.8.3/../../../../pic32mx/lib\libpic32.a(errno.o)

.debug_loc      0x00000000      0x43e
 *(.debug_loc)
 .debug_loc     0x00000000       0xe5 c:/program files (x86)/microchip/xc32/v2.30/bin/bin/../../lib/gcc/pic32mx/4.8.3\libgcc.a(_fixunssfdi.o)
 .debug_loc     0x000000e5       0x40 c:/program files (x86)/microchip/xc32/v2.30/bin/bin/../../lib/gcc/pic32mx/4.8.3\libgcc.a(_floatundisf.o)
 .debug_loc     0x00000125       0x74 c:/program files (x86)/microchip/xc32/v2.30/bin/bin/../../lib/gcc/pic32mx/4.8.3\libgcc.a(floatunsisf.o)
 .debug_loc     0x00000199       0x80 c:/program files (x86)/microchip/xc32/v2.30/bin/bin/../../lib/gcc/pic32mx/4.8.3\libgcc.a(floatunsidf.o)
 .debug_loc     0x00000219       0x2c c:/program files (x86)/microchip/xc32/v2.30/bin/bin/../../lib/gcc/pic32mx/4.8.3/../../../../pic32mx/lib\libpic32.a(default-bootstrap-exception-handler.o)
 .debug_loc     0x00000245       0x20 c:/program files (x86)/microchip/xc32/v2.30/bin/bin/../../lib/gcc/pic32mx/4.8.3/../../../../pic32mx/lib\libm.a(w_atan2f.o)
 .debug_loc     0x00000265       0x2c c:/program files (x86)/microchip/xc32/v2.30/bin/bin/../../lib/gcc/pic32mx/4.8.3/../../../../pic32mx/lib\libm.a(w_sqrtf.o)
 .debug_loc     0x00000291      0x1ad c:/program files (x86)/microchip/xc32/v2.30/bin/bin/../../lib/gcc/pic32mx/4.8.3/../../../../pic32mx/lib\libm.a(support.o)

.debug_macinfo
 *(.debug_macinfo)

.debug_weaknames
 *(.debug_weaknames)

.debug_funcnames
 *(.debug_funcnames)

.debug_typenames
 *(.debug_typenames)

.debug_varnames
 *(.debug_varnames)

.debug_pubtypes
 *(.debug_pubtypes)

.debug_ranges   0x00000000      0x1a8
 *(.debug_ranges)
 .debug_ranges  0x00000000       0x18 output\gcode.o
 .debug_ranges  0x00000018       0x18 output\ethernet_grbl.o
 .debug_ranges  0x00000030       0x18 output\ENC28J60.o
 .debug_ranges  0x00000048       0x10 c:/program files (x86)/microchip/xc32/v2.30/bin/bin/../../lib/gcc/pic32mx/4.8.3/../../../../pic32mx/lib\libmchp_peripheral_32MX470F512L.a(soft_reset_lib.o)
 .debug_ranges  0x00000058       0x18 c:/program files (x86)/microchip/xc32/v2.30/bin/bin/../../lib/gcc/pic32mx/4.8.3/../../../../pic32mx/lib\libmchp_peripheral_32MX470F512L.a(pcache.o)
 .debug_ranges  0x00000070       0x10 c:/program files (x86)/microchip/xc32/v2.30/bin/bin/../../lib/gcc/pic32mx/4.8.3/../../../../pic32mx/lib\libmchp_peripheral_32MX470F512L.a(int_disable_interrupts_lib.o)
 .debug_ranges  0x00000080       0x10 c:/program files (x86)/microchip/xc32/v2.30/bin/bin/../../lib/gcc/pic32mx/4.8.3/../../../../pic32mx/lib\libmchp_peripheral_32MX470F512L.a(power_idle_lib.o)
 .debug_ranges  0x00000090       0x10 c:/program files (x86)/microchip/xc32/v2.30/bin/bin/../../lib/gcc/pic32mx/4.8.3/../../../../pic32mx/lib\libmchp_peripheral_32MX470F512L.a(power_sleep_lib.o)
 .debug_ranges  0x000000a0       0x10 c:/program files (x86)/microchip/xc32/v2.30/bin/bin/../../lib/gcc/pic32mx/4.8.3/../../../../pic32mx/lib\libmchp_peripheral_32MX470F512L.a(nvm_erase_page_lib.o)
 .debug_ranges  0x000000b0       0x10 c:/program files (x86)/microchip/xc32/v2.30/bin/bin/../../lib/gcc/pic32mx/4.8.3/../../../../pic32mx/lib\libmchp_peripheral_32MX470F512L.a(nvm_operation_lib.o)
 .debug_ranges  0x000000c0       0x10 c:/program files (x86)/microchip/xc32/v2.30/bin/bin/../../lib/gcc/pic32mx/4.8.3/../../../../pic32mx/lib\libmchp_peripheral_32MX470F512L.a(nvm_write_word_lib.o)
 .debug_ranges  0x000000d0       0x10 c:/program files (x86)/microchip/xc32/v2.30/bin/bin/../../lib/gcc/pic32mx/4.8.3/../../../../pic32mx/lib\libmchp_peripheral_32MX470F512L.a(int_restore_interrupts_lib.o)
 .debug_ranges  0x000000e0       0x10 c:/program files (x86)/microchip/xc32/v2.30/bin/bin/../../lib/gcc/pic32mx/4.8.3/../../../../pic32mx/lib\libpic32.a(default-bootstrap-exception-handler.o)
 .debug_ranges  0x000000f0       0x10 c:/program files (x86)/microchip/xc32/v2.30/bin/bin/../../lib/gcc/pic32mx/4.8.3/../../../../pic32mx/lib\libpic32.a(default-on-reset.o)
 .debug_ranges  0x00000100       0x10 c:/program files (x86)/microchip/xc32/v2.30/bin/bin/../../lib/gcc/pic32mx/4.8.3/../../../../pic32mx/lib\libpic32.a(default-on-bootstrap.o)
 .debug_ranges  0x00000110       0x10 c:/program files (x86)/microchip/xc32/v2.30/bin/bin/../../lib/gcc/pic32mx/4.8.3/../../../../pic32mx/lib\libpic32.a(defaultinterrupt.o)
 .debug_ranges  0x00000120       0x10 c:/program files (x86)/microchip/xc32/v2.30/bin/bin/../../lib/gcc/pic32mx/4.8.3/../../../../pic32mx/lib\libm.a(w_atan2f.o)
 .debug_ranges  0x00000130       0x10 c:/program files (x86)/microchip/xc32/v2.30/bin/bin/../../lib/gcc/pic32mx/4.8.3/../../../../pic32mx/lib\libm.a(w_sqrtf.o)
 .debug_ranges  0x00000140       0x68 c:/program files (x86)/microchip/xc32/v2.30/bin/bin/../../lib/gcc/pic32mx/4.8.3/../../../../pic32mx/lib\libm.a(support.o)

.gnu.attributes
                0x00000000       0x10
 *(.gnu.attributes)
 .gnu.attributes
                0x00000000       0x10 output\tmr.o
 .gnu.attributes
                0x00000010       0x10 output\mal.o
 .gnu.attributes
                0x00000020       0x10 output\ringBuffer.o
 .gnu.attributes
                0x00000030       0x10 output\task.o
 .gnu.attributes
                0x00000040       0x10 output\sleep.o
 .gnu.attributes
                0x00000050       0x10 output\eeprom.o
 .gnu.attributes
                0x00000060       0x10 output\eep_manager.o
 .gnu.attributes
                0x00000070       0x10 output\exceptions.o
 .gnu.attributes
                0x00000080       0x10 output\isr.o
 .gnu.attributes
                0x00000090       0x10 output\main.o
 .gnu.attributes
                0x000000a0       0x10 output\c_eep_manager.o
 .gnu.attributes
                0x000000b0       0x10 output\app.o
 .gnu.attributes
                0x000000c0       0x10 output\ad.o
 .gnu.attributes
                0x000000d0       0x10 output\gcode.o
 .gnu.attributes
                0x000000e0       0x10 output\limits.o
 .gnu.attributes
                0x000000f0       0x10 output\coolant_control.o
 .gnu.attributes
                0x00000100       0x10 output\motion_control.o
 .gnu.attributes
                0x00000110       0x10 output\nuts_bolts.o
 .gnu.attributes
                0x00000120       0x10 output\planner.o
 .gnu.attributes
                0x00000130       0x10 output\print.o
 .gnu.attributes
                0x00000140       0x10 output\report.o
 .gnu.attributes
                0x00000150       0x10 output\settings.o
 .gnu.attributes
                0x00000160       0x10 output\spindle_control.o
 .gnu.attributes
                0x00000170       0x10 output\stepper.o
 .gnu.attributes
                0x00000180       0x10 output\system.o
 .gnu.attributes
                0x00000190       0x10 output\grbl.o
 .gnu.attributes
                0x000001a0       0x10 output\pwm.o
 .gnu.attributes
                0x000001b0       0x10 output\jog.o
 .gnu.attributes
                0x000001c0       0x10 output\dee.o
 .gnu.attributes
                0x000001d0       0x10 output\dee_page.o
 .gnu.attributes
                0x000001e0       0x10 output\dee_page_helper.o
 .gnu.attributes
                0x000001f0       0x10 output\eep_manager_crc.o
 .gnu.attributes
                0x00000200       0x10 output\system_control.o
 .gnu.attributes
                0x00000210       0x10 output\stepper_enable.o
 .gnu.attributes
                0x00000220       0x10 output\system_exec.o
 .gnu.attributes
                0x00000230       0x10 output\system_alarm.o
 .gnu.attributes
                0x00000240       0x10 output\grbl_eeprom.o
 .gnu.attributes
                0x00000250       0x10 output\bootloader_interface.o
 .gnu.attributes
                0x00000260       0x10 output\grbl_protocol.o
 .gnu.attributes
                0x00000270       0x10 output\stackmeasure.o
 .gnu.attributes
                0x00000280       0x10 output\grbl_toolchange.o
 .gnu.attributes
                0x00000290       0x10 output\grbl_running.o
 .gnu.attributes
                0x000002a0       0x10 output\grbl_probe.o
 .gnu.attributes
                0x000002b0       0x10 output\grbl_bootloader.o
 .gnu.attributes
                0x000002c0       0x10 output\ethernet.o
 .gnu.attributes
                0x000002d0       0x10 output\ethernet_grbl.o
 .gnu.attributes
                0x000002e0       0x10 output\UDP.o
 .gnu.attributes
                0x000002f0       0x10 output\Tick.o
 .gnu.attributes
                0x00000300       0x10 output\Helpers.o
 .gnu.attributes
                0x00000310       0x10 output\ARP.o
 .gnu.attributes
                0x00000320       0x10 output\ENC28J60.o
 .gnu.attributes
                0x00000330       0x10 output\Delay.o
 .gnu.attributes
                0x00000340       0x10 output\IP.o
 .gnu.attributes
                0x00000350       0x10 output\StackTsk.o
 .gnu.attributes
                0x00000360       0x10 output\ICMP.o
 .gnu.attributes
                0x00000370       0x10 output\DHCP.o
 .gnu.attributes
                0x00000380       0x10 output\Announce.o
 .gnu.attributes
                0x00000390       0x10 c:/program files (x86)/microchip/xc32/v2.30/bin/bin/../../lib/gcc/pic32mx/4.8.3/../../../../pic32mx/lib\libmchp_peripheral_32MX470F512L.a(soft_reset_lib.o)
 .gnu.attributes
                0x000003a0       0x10 c:/program files (x86)/microchip/xc32/v2.30/bin/bin/../../lib/gcc/pic32mx/4.8.3/../../../../pic32mx/lib\libmchp_peripheral_32MX470F512L.a(pcache.o)
 .gnu.attributes
                0x000003b0       0x10 c:/program files (x86)/microchip/xc32/v2.30/bin/bin/../../lib/gcc/pic32mx/4.8.3/../../../../pic32mx/lib\libmchp_peripheral_32MX470F512L.a(int_disable_interrupts_lib.o)
 .gnu.attributes
                0x000003c0       0x10 c:/program files (x86)/microchip/xc32/v2.30/bin/bin/../../lib/gcc/pic32mx/4.8.3/../../../../pic32mx/lib\libmchp_peripheral_32MX470F512L.a(power_idle_lib.o)
 .gnu.attributes
                0x000003d0       0x10 c:/program files (x86)/microchip/xc32/v2.30/bin/bin/../../lib/gcc/pic32mx/4.8.3/../../../../pic32mx/lib\libmchp_peripheral_32MX470F512L.a(power_sleep_lib.o)
 .gnu.attributes
                0x000003e0       0x10 c:/program files (x86)/microchip/xc32/v2.30/bin/bin/../../lib/gcc/pic32mx/4.8.3/../../../../pic32mx/lib\libmchp_peripheral_32MX470F512L.a(nvm_erase_page_lib.o)
 .gnu.attributes
                0x000003f0       0x10 c:/program files (x86)/microchip/xc32/v2.30/bin/bin/../../lib/gcc/pic32mx/4.8.3/../../../../pic32mx/lib\libmchp_peripheral_32MX470F512L.a(nvm_operation_lib.o)
 .gnu.attributes
                0x00000400       0x10 c:/program files (x86)/microchip/xc32/v2.30/bin/bin/../../lib/gcc/pic32mx/4.8.3/../../../../pic32mx/lib\libmchp_peripheral_32MX470F512L.a(nvm_write_word_lib.o)
 .gnu.attributes
                0x00000410       0x10 c:/program files (x86)/microchip/xc32/v2.30/bin/bin/../../lib/gcc/pic32mx/4.8.3/../../../../pic32mx/lib\libmchp_peripheral_32MX470F512L.a(int_restore_interrupts_lib.o)
 .gnu.attributes
                0x00000420       0x10 c:/program files (x86)/microchip/xc32/v2.30/bin/bin/../../lib/gcc/pic32mx/4.8.3\libgcc.a(_fixunssfdi.o)
 .gnu.attributes
                0x00000430       0x10 c:/program files (x86)/microchip/xc32/v2.30/bin/bin/../../lib/gcc/pic32mx/4.8.3\libgcc.a(_floatundisf.o)
 .gnu.attributes
                0x00000440       0x10 c:/program files (x86)/microchip/xc32/v2.30/bin/bin/../../lib/gcc/pic32mx/4.8.3\libgcc.a(floatunsisf.o)
 .gnu.attributes
                0x00000450       0x10 c:/program files (x86)/microchip/xc32/v2.30/bin/bin/../../lib/gcc/pic32mx/4.8.3\libgcc.a(floatunsidf.o)
 .gnu.attributes
                0x00000460       0x10 c:/program files (x86)/microchip/xc32/v2.30/bin/bin/../../lib/gcc/pic32mx/4.8.3/../../../../pic32mx/lib\libpic32.a(default-bootstrap-exception-handler.o)
 .gnu.attributes
                0x00000470       0x10 c:/program files (x86)/microchip/xc32/v2.30/bin/bin/../../lib/gcc/pic32mx/4.8.3/../../../../pic32mx/lib\libpic32.a(default-on-reset.o)
 .gnu.attributes
                0x00000480       0x10 c:/program files (x86)/microchip/xc32/v2.30/bin/bin/../../lib/gcc/pic32mx/4.8.3/../../../../pic32mx/lib\libpic32.a(default-on-bootstrap.o)
 .gnu.attributes
                0x00000490       0x10 c:/program files (x86)/microchip/xc32/v2.30/bin/bin/../../lib/gcc/pic32mx/4.8.3/../../../../pic32mx/lib\libpic32.a(defaultinterrupt.o)
 .gnu.attributes
                0x000004a0       0x10 c:/program files (x86)/microchip/xc32/v2.30/bin/bin/../../lib/gcc/pic32mx/4.8.3/../../../../pic32mx/lib\liblega-c.a(strncmp.o)
 .gnu.attributes
                0x000004b0       0x10 c:/program files (x86)/microchip/xc32/v2.30/bin/bin/../../lib/gcc/pic32mx/4.8.3/../../../../pic32mx/lib\liblega-c.a(strncpy.o)
 .gnu.attributes
                0x000004c0       0x10 c:/program files (x86)/microchip/xc32/v2.30/bin/bin/../../lib/gcc/pic32mx/4.8.3/../../../../pic32mx/lib\libm.a(w_atan2f.o)
 .gnu.attributes
                0x000004d0       0x10 c:/program files (x86)/microchip/xc32/v2.30/bin/bin/../../lib/gcc/pic32mx/4.8.3/../../../../pic32mx/lib\libm.a(w_sqrtf.o)
 .gnu.attributes
                0x000004e0       0x10 c:/program files (x86)/microchip/xc32/v2.30/bin/bin/../../lib/gcc/pic32mx/4.8.3/../../../../pic32mx/lib\libm.a(support.o)
 .gnu.attributes
                0x000004f0       0x10 c:/program files (x86)/microchip/xc32/v2.30/bin/bin/../../lib/gcc/pic32mx/4.8.3/../../../../pic32mx/lib\libm.a(s_lib_ver.o)
 .gnu.attributes
                0x00000500       0x10 c:/program files (x86)/microchip/xc32/v2.30/bin/bin/../../lib/gcc/pic32mx/4.8.3/../../../../pic32mx/lib\libpic32.a(errno.o)
                0x00000001                __ICD2RAM = 0x1
                0x00001000                _min_heap_size = 0x1000
LOAD C:\Users\Xeon5430\AppData\Local\Temp\cc0y46GM.o
LOAD C:\Users\Xeon5430\AppData\Local\Temp\ccuxsepe.o
LOAD C:\Users\Xeon5430\AppData\Local\Temp\ccMLxUIM.o
LOAD c:/program files (x86)/microchip/xc32/v2.30/bin/bin/../../lib/gcc/pic32mx/4.8.3/../../../../pic32mx/lib/./proc/32MX470F512L\default_isr_vectors.o
LOAD c:/program files (x86)/microchip/xc32/v2.30/bin/bin/../../lib/gcc/pic32mx/4.8.3/../../../../pic32mx/lib\pic32_software_reset.o
LOAD c:/program files (x86)/microchip/xc32/v2.30/bin/bin/../../lib/gcc/pic32mx/4.8.3\libgcc.a
START GROUP
LOAD c:/program files (x86)/microchip/xc32/v2.30/bin/bin/../../lib/gcc/pic32mx/4.8.3/../../../../pic32mx/lib\libpic32.a
LOAD c:/program files (x86)/microchip/xc32/v2.30/bin/bin/../../lib/gcc/pic32mx/4.8.3/../../../../pic32mx/lib\libdebug.a
LOAD c:/program files (x86)/microchip/xc32/v2.30/bin/bin/../../lib/gcc/pic32mx/4.8.3/../../../../pic32mx/lib\libpic32.a
LOAD c:/program files (x86)/microchip/xc32/v2.30/bin/bin/../../lib/gcc/pic32mx/4.8.3/../../../../pic32mx/lib\liblega-c.a
LOAD c:/program files (x86)/microchip/xc32/v2.30/bin/bin/../../lib/gcc/pic32mx/4.8.3/../../../../pic32mx/lib\libm.a
LOAD c:/program files (x86)/microchip/xc32/v2.30/bin/bin/../../lib/gcc/pic32mx/4.8.3/../../../../pic32mx/lib\libe.a
LOAD c:/program files (x86)/microchip/xc32/v2.30/bin/bin/../../lib/gcc/pic32mx/4.8.3/../../../../pic32mx/lib\libdsp.a
LOAD c:/program files (x86)/microchip/xc32/v2.30/bin/bin/../../lib/gcc/pic32mx/4.8.3\libgcc.a
LOAD c:/program files (x86)/microchip/xc32/v2.30/bin/bin/../../lib/gcc/pic32mx/4.8.3/../../../../pic32mx/lib\libpic32.a
END GROUP
LOAD c:/program files (x86)/microchip/xc32/v2.30/bin/bin/../../lib/gcc/pic32mx/4.8.3\libgcc.a
OUTPUT(.\output\cnc_1_0_0.elf elf32-tradlittlemips)
LOAD stack
LOAD data_init

.reginfo        0x00000000       0x18
 .reginfo       0x00000000       0x18 c:/program files (x86)/microchip/xc32/v2.30/bin/bin/../../lib/gcc/pic32mx/4.8.3/../../../../pic32mx/lib\debug-exception-return.o

.stack          0xa00035e8      0x400
 .stack         0xa00035e8      0x400 stack

.exceptionLog   0x80000200       0xc0
 .exceptionLog  0x80000200       0xc0 output\exceptions.o
                0x80000200                exceptionLog

.bootloader_request_A
                0x80007f00        0x4
 .bootloader_request_A
                0x80007f00        0x4 output\bootloader_interface.o
                0x80007f00                bootloader_request_A

.bootloader_request_B
                0x80007f10        0x4
 .bootloader_request_B
                0x80007f10        0x4 output\bootloader_interface.o
                0x80007f10                bootloader_request_B

.data           0xa0002314      0x218
 .data          0xa0002314      0x118 output\c_eep_manager.o
                0xa0002314                eepManager_ItemTable
 .data          0xa000242c      0x100 c:/program files (x86)/microchip/xc32/v2.30/bin/bin/../../lib/gcc/pic32mx/4.8.3/../../../../pic32mx/lib\libm.a(fpexatan.o)

.data           0xa000252c       0x50
 .data          0xa000252c       0x2c output\main.o
                0xa000252c                softwareIdentification
                0xa0002538                VERSION_ID
 .data          0xa0002558       0x24 c:/program files (x86)/microchip/xc32/v2.30/bin/bin/../../lib/gcc/pic32mx/4.8.3/../../../../pic32mx/lib\libm.a(sincof32.o)
                0xa0002558                _sincof
                0xa0002568                _coscof

.bss            0xa000257c       0x38
 .bss           0xa000257c       0x20 output\tmr.o
 .bss           0xa000259c       0x18 output\ARP.o

.bss            0xa00025b4        0xc
 .bss           0xa00025b4        0xc output\dee.o
                0xa00025b4                GetIndexOfEmptyDataElement_LastFoundHere

.data.math_errhandling_flag
                0xa00025c0        0x4
 .data.math_errhandling_flag
                0xa00025c0        0x4 c:/program files (x86)/microchip/xc32/v2.30/bin/bin/../../lib/gcc/pic32mx/4.8.3/../../../../pic32mx/lib\libm.a(s_lib_ver.o)
                0xa00025c0                math_errhandling

.bss.errno      0xa00025c4        0x4
 .bss.errno     0xa00025c4        0x4 c:/program files (x86)/microchip/xc32/v2.30/bin/bin/../../lib/gcc/pic32mx/4.8.3/../../../../pic32mx/lib\libpic32.a(errno.o)
                0xa00025c4                errno

.bss%z1         0x00000000        0x0
 .bss           0x00000000        0x0 c:/program files (x86)/microchip/xc32/v2.30/bin/bin/../../lib/gcc/pic32mx/4.8.3/../../../../pic32mx/lib\libpic32.a(errno.o)

.data%z2        0x00000000        0x0
 .data          0x00000000        0x0 c:/program files (x86)/microchip/xc32/v2.30/bin/bin/../../lib/gcc/pic32mx/4.8.3/../../../../pic32mx/lib\libpic32.a(errno.o)

.bss%z3         0x00000000        0x0
 .bss           0x00000000        0x0 c:/program files (x86)/microchip/xc32/v2.30/bin/bin/../../lib/gcc/pic32mx/4.8.3/../../../../pic32mx/lib\libm.a(s_lib_ver.o)

.data%z4        0x00000000        0x0
 .data          0x00000000        0x0 c:/program files (x86)/microchip/xc32/v2.30/bin/bin/../../lib/gcc/pic32mx/4.8.3/../../../../pic32mx/lib\libm.a(s_lib_ver.o)

.bss%z5         0x00000000        0x0
 .bss           0x00000000        0x0 c:/program files (x86)/microchip/xc32/v2.30/bin/bin/../../lib/gcc/pic32mx/4.8.3/../../../../pic32mx/lib\libm.a(fpsqrt32.o)

.data%z6        0x00000000        0x0
 .data          0x00000000        0x0 c:/program files (x86)/microchip/xc32/v2.30/bin/bin/../../lib/gcc/pic32mx/4.8.3/../../../../pic32mx/lib\libm.a(fpsqrt32.o)

.bss%z7         0x00000000        0x0
 .bss           0x00000000        0x0 c:/program files (x86)/microchip/xc32/v2.30/bin/bin/../../lib/gcc/pic32mx/4.8.3/../../../../pic32mx/lib\libm.a(fpexsqrt32.o)

.data%z8        0x00000000        0x0
 .data          0x00000000        0x0 c:/program files (x86)/microchip/xc32/v2.30/bin/bin/../../lib/gcc/pic32mx/4.8.3/../../../../pic32mx/lib\libm.a(fpexsqrt32.o)

.bss%z9         0x00000000        0x0
 .bss           0x00000000        0x0 c:/program files (x86)/microchip/xc32/v2.30/bin/bin/../../lib/gcc/pic32mx/4.8.3/../../../../pic32mx/lib\libm.a(fpexatan.o)

.bss%z10        0x00000000        0x0
 .bss           0x00000000        0x0 c:/program files (x86)/microchip/xc32/v2.30/bin/bin/../../lib/gcc/pic32mx/4.8.3/../../../../pic32mx/lib\libm.a(fpatan2.o)

.data%z11       0x00000000        0x0
 .data          0x00000000        0x0 c:/program files (x86)/microchip/xc32/v2.30/bin/bin/../../lib/gcc/pic32mx/4.8.3/../../../../pic32mx/lib\libm.a(fpatan2.o)

.bss%z12        0x00000000        0x0
 .bss           0x00000000        0x0 c:/program files (x86)/microchip/xc32/v2.30/bin/bin/../../lib/gcc/pic32mx/4.8.3/../../../../pic32mx/lib\libm.a(dpcmp.o)

.data%z13       0x00000000        0x0
 .data          0x00000000        0x0 c:/program files (x86)/microchip/xc32/v2.30/bin/bin/../../lib/gcc/pic32mx/4.8.3/../../../../pic32mx/lib\libm.a(dpcmp.o)

.bss%z14        0x00000000        0x0
 .bss           0x00000000        0x0 c:/program files (x86)/microchip/xc32/v2.30/bin/bin/../../lib/gcc/pic32mx/4.8.3/../../../../pic32mx/lib\libm.a(dp32div.o)

.data%z15       0x00000000        0x0
 .data          0x00000000        0x0 c:/program files (x86)/microchip/xc32/v2.30/bin/bin/../../lib/gcc/pic32mx/4.8.3/../../../../pic32mx/lib\libm.a(dp32div.o)

.bss%z16        0x00000000        0x0
 .bss           0x00000000        0x0 c:/program files (x86)/microchip/xc32/v2.30/bin/bin/../../lib/gcc/pic32mx/4.8.3/../../../../pic32mx/lib\libm.a(dpldexp.o)

.data%z17       0x00000000        0x0
 .data          0x00000000        0x0 c:/program files (x86)/microchip/xc32/v2.30/bin/bin/../../lib/gcc/pic32mx/4.8.3/../../../../pic32mx/lib\libm.a(dpldexp.o)

.bss%z18        0x00000000        0x0
 .bss           0x00000000        0x0 c:/program files (x86)/microchip/xc32/v2.30/bin/bin/../../lib/gcc/pic32mx/4.8.3/../../../../pic32mx/lib\libm.a(support.o)

.data%z19       0x00000000        0x0
 .data          0x00000000        0x0 c:/program files (x86)/microchip/xc32/v2.30/bin/bin/../../lib/gcc/pic32mx/4.8.3/../../../../pic32mx/lib\libm.a(support.o)

.bss%z20        0x00000000        0x0
 .bss           0x00000000        0x0 c:/program files (x86)/microchip/xc32/v2.30/bin/bin/../../lib/gcc/pic32mx/4.8.3/../../../../pic32mx/lib\libm.a(w_sqrtf.o)

.data%z21       0x00000000        0x0
 .data          0x00000000        0x0 c:/program files (x86)/microchip/xc32/v2.30/bin/bin/../../lib/gcc/pic32mx/4.8.3/../../../../pic32mx/lib\libm.a(w_sqrtf.o)

.bss%z22        0x00000000        0x0
 .bss           0x00000000        0x0 c:/program files (x86)/microchip/xc32/v2.30/bin/bin/../../lib/gcc/pic32mx/4.8.3/../../../../pic32mx/lib\libm.a(w_atan2f.o)

.data%z23       0x00000000        0x0
 .data          0x00000000        0x0 c:/program files (x86)/microchip/xc32/v2.30/bin/bin/../../lib/gcc/pic32mx/4.8.3/../../../../pic32mx/lib\libm.a(w_atan2f.o)

.bss%z24        0x00000000        0x0
 .bss           0x00000000        0x0 c:/program files (x86)/microchip/xc32/v2.30/bin/bin/../../lib/gcc/pic32mx/4.8.3/../../../../pic32mx/lib\libm.a(sitofp.o)

.data%z25       0x00000000        0x0
 .data          0x00000000        0x0 c:/program files (x86)/microchip/xc32/v2.30/bin/bin/../../lib/gcc/pic32mx/4.8.3/../../../../pic32mx/lib\libm.a(sitofp.o)

.bss%z26        0x00000000        0x0
 .bss           0x00000000        0x0 c:/program files (x86)/microchip/xc32/v2.30/bin/bin/../../lib/gcc/pic32mx/4.8.3/../../../../pic32mx/lib\libm.a(sincof32.o)

.bss%z27        0x00000000        0x0
 .bss           0x00000000        0x0 c:/program files (x86)/microchip/xc32/v2.30/bin/bin/../../lib/gcc/pic32mx/4.8.3/../../../../pic32mx/lib\libm.a(litodp.o)

.data%z28       0x00000000        0x0
 .data          0x00000000        0x0 c:/program files (x86)/microchip/xc32/v2.30/bin/bin/../../lib/gcc/pic32mx/4.8.3/../../../../pic32mx/lib\libm.a(litodp.o)

.bss%z29        0x00000000        0x0
 .bss           0x00000000        0x0 c:/program files (x86)/microchip/xc32/v2.30/bin/bin/../../lib/gcc/pic32mx/4.8.3/../../../../pic32mx/lib\libm.a(fptoul.o)

.data%z30       0x00000000        0x0
 .data          0x00000000        0x0 c:/program files (x86)/microchip/xc32/v2.30/bin/bin/../../lib/gcc/pic32mx/4.8.3/../../../../pic32mx/lib\libm.a(fptoul.o)

.bss%z31        0x00000000        0x0
 .bss           0x00000000        0x0 c:/program files (x86)/microchip/xc32/v2.30/bin/bin/../../lib/gcc/pic32mx/4.8.3/../../../../pic32mx/lib\libm.a(fptoli.o)

.data%z32       0x00000000        0x0
 .data          0x00000000        0x0 c:/program files (x86)/microchip/xc32/v2.30/bin/bin/../../lib/gcc/pic32mx/4.8.3/../../../../pic32mx/lib\libm.a(fptoli.o)

.bss%z33        0x00000000        0x0
 .bss           0x00000000        0x0 c:/program files (x86)/microchip/xc32/v2.30/bin/bin/../../lib/gcc/pic32mx/4.8.3/../../../../pic32mx/lib\libm.a(fptodp.o)

.data%z34       0x00000000        0x0
 .data          0x00000000        0x0 c:/program files (x86)/microchip/xc32/v2.30/bin/bin/../../lib/gcc/pic32mx/4.8.3/../../../../pic32mx/lib\libm.a(fptodp.o)

.bss%z35        0x00000000        0x0
 .bss           0x00000000        0x0 c:/program files (x86)/microchip/xc32/v2.30/bin/bin/../../lib/gcc/pic32mx/4.8.3/../../../../pic32mx/lib\libm.a(fpsin32.o)

.data%z36       0x00000000        0x0
 .data          0x00000000        0x0 c:/program files (x86)/microchip/xc32/v2.30/bin/bin/../../lib/gcc/pic32mx/4.8.3/../../../../pic32mx/lib\libm.a(fpsin32.o)

.bss%z37        0x00000000        0x0
 .bss           0x00000000        0x0 c:/program files (x86)/microchip/xc32/v2.30/bin/bin/../../lib/gcc/pic32mx/4.8.3/../../../../pic32mx/lib\libm.a(fpreduct32.o)

.data%z38       0x00000000        0x0
 .data          0x00000000        0x0 c:/program files (x86)/microchip/xc32/v2.30/bin/bin/../../lib/gcc/pic32mx/4.8.3/../../../../pic32mx/lib\libm.a(fpreduct32.o)

.bss%z39        0x00000000        0x0
 .bss           0x00000000        0x0 c:/program files (x86)/microchip/xc32/v2.30/bin/bin/../../lib/gcc/pic32mx/4.8.3/../../../../pic32mx/lib\libm.a(fpfloo32.o)

.data%z40       0x00000000        0x0
 .data          0x00000000        0x0 c:/program files (x86)/microchip/xc32/v2.30/bin/bin/../../lib/gcc/pic32mx/4.8.3/../../../../pic32mx/lib\libm.a(fpfloo32.o)

.bss%z41        0x00000000        0x0
 .bss           0x00000000        0x0 c:/program files (x86)/microchip/xc32/v2.30/bin/bin/../../lib/gcc/pic32mx/4.8.3/../../../../pic32mx/lib\libm.a(fpcos32.o)

.data%z42       0x00000000        0x0
 .data          0x00000000        0x0 c:/program files (x86)/microchip/xc32/v2.30/bin/bin/../../lib/gcc/pic32mx/4.8.3/../../../../pic32mx/lib\libm.a(fpcos32.o)

.bss%z43        0x00000000        0x0
 .bss           0x00000000        0x0 c:/program files (x86)/microchip/xc32/v2.30/bin/bin/../../lib/gcc/pic32mx/4.8.3/../../../../pic32mx/lib\libm.a(fpcmp.o)

.data%z44       0x00000000        0x0
 .data          0x00000000        0x0 c:/program files (x86)/microchip/xc32/v2.30/bin/bin/../../lib/gcc/pic32mx/4.8.3/../../../../pic32mx/lib\libm.a(fpcmp.o)

.bss%z45        0x00000000        0x0
 .bss           0x00000000        0x0 c:/program files (x86)/microchip/xc32/v2.30/bin/bin/../../lib/gcc/pic32mx/4.8.3/../../../../pic32mx/lib\libm.a(fpceil32.o)

.data%z46       0x00000000        0x0
 .data          0x00000000        0x0 c:/program files (x86)/microchip/xc32/v2.30/bin/bin/../../lib/gcc/pic32mx/4.8.3/../../../../pic32mx/lib\libm.a(fpceil32.o)

.bss%z47        0x00000000        0x0
 .bss           0x00000000        0x0 c:/program files (x86)/microchip/xc32/v2.30/bin/bin/../../lib/gcc/pic32mx/4.8.3/../../../../pic32mx/lib\libm.a(fp32subadd.o)

.data%z48       0x00000000        0x0
 .data          0x00000000        0x0 c:/program files (x86)/microchip/xc32/v2.30/bin/bin/../../lib/gcc/pic32mx/4.8.3/../../../../pic32mx/lib\libm.a(fp32subadd.o)

.bss%z49        0x00000000        0x0
 .bss           0x00000000        0x0 c:/program files (x86)/microchip/xc32/v2.30/bin/bin/../../lib/gcc/pic32mx/4.8.3/../../../../pic32mx/lib\libm.a(fp32mul.o)

.data%z50       0x00000000        0x0
 .data          0x00000000        0x0 c:/program files (x86)/microchip/xc32/v2.30/bin/bin/../../lib/gcc/pic32mx/4.8.3/../../../../pic32mx/lib\libm.a(fp32mul.o)

.bss%z51        0x00000000        0x0
 .bss           0x00000000        0x0 c:/program files (x86)/microchip/xc32/v2.30/bin/bin/../../lib/gcc/pic32mx/4.8.3/../../../../pic32mx/lib\libm.a(fp32div.o)

.data%z52       0x00000000        0x0
 .data          0x00000000        0x0 c:/program files (x86)/microchip/xc32/v2.30/bin/bin/../../lib/gcc/pic32mx/4.8.3/../../../../pic32mx/lib\libm.a(fp32div.o)

.bss%z53        0x00000000        0x0
 .bss           0x00000000        0x0 c:/program files (x86)/microchip/xc32/v2.30/bin/bin/../../lib/gcc/pic32mx/4.8.3/../../../../pic32mx/lib\libm.a(dptoul.o)

.data%z54       0x00000000        0x0
 .data          0x00000000        0x0 c:/program files (x86)/microchip/xc32/v2.30/bin/bin/../../lib/gcc/pic32mx/4.8.3/../../../../pic32mx/lib\libm.a(dptoul.o)

.bss%z55        0x00000000        0x0
 .bss           0x00000000        0x0 c:/program files (x86)/microchip/xc32/v2.30/bin/bin/../../lib/gcc/pic32mx/4.8.3/../../../../pic32mx/lib\libm.a(dptofp.o)

.data%z56       0x00000000        0x0
 .data          0x00000000        0x0 c:/program files (x86)/microchip/xc32/v2.30/bin/bin/../../lib/gcc/pic32mx/4.8.3/../../../../pic32mx/lib\libm.a(dptofp.o)

.bss%z57        0x00000000        0x0
 .bss           0x00000000        0x0 c:/program files (x86)/microchip/xc32/v2.30/bin/bin/../../lib/gcc/pic32mx/4.8.3/../../../../pic32mx/lib\libm.a(dp32subadd.o)

.data%z58       0x00000000        0x0
 .data          0x00000000        0x0 c:/program files (x86)/microchip/xc32/v2.30/bin/bin/../../lib/gcc/pic32mx/4.8.3/../../../../pic32mx/lib\libm.a(dp32subadd.o)

.bss%z59        0x00000000        0x0
 .bss           0x00000000        0x0 c:/program files (x86)/microchip/xc32/v2.30/bin/bin/../../lib/gcc/pic32mx/4.8.3/../../../../pic32mx/lib\libm.a(dp32mul.o)

.data%z60       0x00000000        0x0
 .data          0x00000000        0x0 c:/program files (x86)/microchip/xc32/v2.30/bin/bin/../../lib/gcc/pic32mx/4.8.3/../../../../pic32mx/lib\libm.a(dp32mul.o)

.bss%z61        0x00000000        0x0
 .bss           0x00000000        0x0 c:/program files (x86)/microchip/xc32/v2.30/bin/bin/../../lib/gcc/pic32mx/4.8.3/../../../../pic32mx/lib\liblega-c.a(strncpy.o)

.data%z62       0x00000000        0x0
 .data          0x00000000        0x0 c:/program files (x86)/microchip/xc32/v2.30/bin/bin/../../lib/gcc/pic32mx/4.8.3/../../../../pic32mx/lib\liblega-c.a(strncpy.o)

.bss%z63        0x00000000        0x0
 .bss           0x00000000        0x0 c:/program files (x86)/microchip/xc32/v2.30/bin/bin/../../lib/gcc/pic32mx/4.8.3/../../../../pic32mx/lib\liblega-c.a(strncmp.o)

.data%z64       0x00000000        0x0
 .data          0x00000000        0x0 c:/program files (x86)/microchip/xc32/v2.30/bin/bin/../../lib/gcc/pic32mx/4.8.3/../../../../pic32mx/lib\liblega-c.a(strncmp.o)

.bss%z65        0x00000000        0x0
 .bss           0x00000000        0x0 c:/program files (x86)/microchip/xc32/v2.30/bin/bin/../../lib/gcc/pic32mx/4.8.3/../../../../pic32mx/lib\libpic32.a(defaultinterrupt.o)

.data%z66       0x00000000        0x0
 .data          0x00000000        0x0 c:/program files (x86)/microchip/xc32/v2.30/bin/bin/../../lib/gcc/pic32mx/4.8.3/../../../../pic32mx/lib\libpic32.a(defaultinterrupt.o)

.bss%z67        0x00000000        0x0
 .bss           0x00000000        0x0 c:/program files (x86)/microchip/xc32/v2.30/bin/bin/../../lib/gcc/pic32mx/4.8.3/../../../../pic32mx/lib\libpic32.a(vector41.o)

.data%z68       0x00000000        0x0
 .data          0x00000000        0x0 c:/program files (x86)/microchip/xc32/v2.30/bin/bin/../../lib/gcc/pic32mx/4.8.3/../../../../pic32mx/lib\libpic32.a(vector41.o)

.bss%z69        0x00000000        0x0
 .bss           0x00000000        0x0 c:/program files (x86)/microchip/xc32/v2.30/bin/bin/../../lib/gcc/pic32mx/4.8.3/../../../../pic32mx/lib\libpic32.a(vector40.o)

.data%z70       0x00000000        0x0
 .data          0x00000000        0x0 c:/program files (x86)/microchip/xc32/v2.30/bin/bin/../../lib/gcc/pic32mx/4.8.3/../../../../pic32mx/lib\libpic32.a(vector40.o)

.bss%z71        0x00000000        0x0
 .bss           0x00000000        0x0 c:/program files (x86)/microchip/xc32/v2.30/bin/bin/../../lib/gcc/pic32mx/4.8.3/../../../../pic32mx/lib\libpic32.a(vector39.o)

.data%z72       0x00000000        0x0
 .data          0x00000000        0x0 c:/program files (x86)/microchip/xc32/v2.30/bin/bin/../../lib/gcc/pic32mx/4.8.3/../../../../pic32mx/lib\libpic32.a(vector39.o)

.bss%z73        0x00000000        0x0
 .bss           0x00000000        0x0 c:/program files (x86)/microchip/xc32/v2.30/bin/bin/../../lib/gcc/pic32mx/4.8.3/../../../../pic32mx/lib\libpic32.a(vector38.o)

.data%z74       0x00000000        0x0
 .data          0x00000000        0x0 c:/program files (x86)/microchip/xc32/v2.30/bin/bin/../../lib/gcc/pic32mx/4.8.3/../../../../pic32mx/lib\libpic32.a(vector38.o)

.bss%z75        0x00000000        0x0
 .bss           0x00000000        0x0 c:/program files (x86)/microchip/xc32/v2.30/bin/bin/../../lib/gcc/pic32mx/4.8.3/../../../../pic32mx/lib\libpic32.a(vector37.o)

.data%z76       0x00000000        0x0
 .data          0x00000000        0x0 c:/program files (x86)/microchip/xc32/v2.30/bin/bin/../../lib/gcc/pic32mx/4.8.3/../../../../pic32mx/lib\libpic32.a(vector37.o)

.bss%z77        0x00000000        0x0
 .bss           0x00000000        0x0 c:/program files (x86)/microchip/xc32/v2.30/bin/bin/../../lib/gcc/pic32mx/4.8.3/../../../../pic32mx/lib\libpic32.a(vector34.o)

.data%z78       0x00000000        0x0
 .data          0x00000000        0x0 c:/program files (x86)/microchip/xc32/v2.30/bin/bin/../../lib/gcc/pic32mx/4.8.3/../../../../pic32mx/lib\libpic32.a(vector34.o)

.bss%z79        0x00000000        0x0
 .bss           0x00000000        0x0 c:/program files (x86)/microchip/xc32/v2.30/bin/bin/../../lib/gcc/pic32mx/4.8.3/../../../../pic32mx/lib\libpic32.a(vector32.o)

.data%z80       0x00000000        0x0
 .data          0x00000000        0x0 c:/program files (x86)/microchip/xc32/v2.30/bin/bin/../../lib/gcc/pic32mx/4.8.3/../../../../pic32mx/lib\libpic32.a(vector32.o)

.bss%z81        0x00000000        0x0
 .bss           0x00000000        0x0 c:/program files (x86)/microchip/xc32/v2.30/bin/bin/../../lib/gcc/pic32mx/4.8.3/../../../../pic32mx/lib\libpic32.a(vector30.o)

.data%z82       0x00000000        0x0
 .data          0x00000000        0x0 c:/program files (x86)/microchip/xc32/v2.30/bin/bin/../../lib/gcc/pic32mx/4.8.3/../../../../pic32mx/lib\libpic32.a(vector30.o)

.bss%z83        0x00000000        0x0
 .bss           0x00000000        0x0 c:/program files (x86)/microchip/xc32/v2.30/bin/bin/../../lib/gcc/pic32mx/4.8.3/../../../../pic32mx/lib\libpic32.a(vector28.o)

.data%z84       0x00000000        0x0
 .data          0x00000000        0x0 c:/program files (x86)/microchip/xc32/v2.30/bin/bin/../../lib/gcc/pic32mx/4.8.3/../../../../pic32mx/lib\libpic32.a(vector28.o)

.bss%z85        0x00000000        0x0
 .bss           0x00000000        0x0 c:/program files (x86)/microchip/xc32/v2.30/bin/bin/../../lib/gcc/pic32mx/4.8.3/../../../../pic32mx/lib\libpic32.a(vector27.o)

.data%z86       0x00000000        0x0
 .data          0x00000000        0x0 c:/program files (x86)/microchip/xc32/v2.30/bin/bin/../../lib/gcc/pic32mx/4.8.3/../../../../pic32mx/lib\libpic32.a(vector27.o)

.bss%z87        0x00000000        0x0
 .bss           0x00000000        0x0 c:/program files (x86)/microchip/xc32/v2.30/bin/bin/../../lib/gcc/pic32mx/4.8.3/../../../../pic32mx/lib\libpic32.a(vector26.o)

.data%z88       0x00000000        0x0
 .data          0x00000000        0x0 c:/program files (x86)/microchip/xc32/v2.30/bin/bin/../../lib/gcc/pic32mx/4.8.3/../../../../pic32mx/lib\libpic32.a(vector26.o)

.bss%z89        0x00000000        0x0
 .bss           0x00000000        0x0 c:/program files (x86)/microchip/xc32/v2.30/bin/bin/../../lib/gcc/pic32mx/4.8.3/../../../../pic32mx/lib\libpic32.a(vector25.o)

.data%z90       0x00000000        0x0
 .data          0x00000000        0x0 c:/program files (x86)/microchip/xc32/v2.30/bin/bin/../../lib/gcc/pic32mx/4.8.3/../../../../pic32mx/lib\libpic32.a(vector25.o)

.bss%z91        0x00000000        0x0
 .bss           0x00000000        0x0 c:/program files (x86)/microchip/xc32/v2.30/bin/bin/../../lib/gcc/pic32mx/4.8.3/../../../../pic32mx/lib\libpic32.a(vector24.o)

.data%z92       0x00000000        0x0
 .data          0x00000000        0x0 c:/program files (x86)/microchip/xc32/v2.30/bin/bin/../../lib/gcc/pic32mx/4.8.3/../../../../pic32mx/lib\libpic32.a(vector24.o)

.bss%z93        0x00000000        0x0
 .bss           0x00000000        0x0 c:/program files (x86)/microchip/xc32/v2.30/bin/bin/../../lib/gcc/pic32mx/4.8.3/../../../../pic32mx/lib\libpic32.a(vector23.o)

.data%z94       0x00000000        0x0
 .data          0x00000000        0x0 c:/program files (x86)/microchip/xc32/v2.30/bin/bin/../../lib/gcc/pic32mx/4.8.3/../../../../pic32mx/lib\libpic32.a(vector23.o)

.bss%z95        0x00000000        0x0
 .bss           0x00000000        0x0 c:/program files (x86)/microchip/xc32/v2.30/bin/bin/../../lib/gcc/pic32mx/4.8.3/../../../../pic32mx/lib\libpic32.a(vector22.o)

.data%z96       0x00000000        0x0
 .data          0x00000000        0x0 c:/program files (x86)/microchip/xc32/v2.30/bin/bin/../../lib/gcc/pic32mx/4.8.3/../../../../pic32mx/lib\libpic32.a(vector22.o)

.bss%z97        0x00000000        0x0
 .bss           0x00000000        0x0 c:/program files (x86)/microchip/xc32/v2.30/bin/bin/../../lib/gcc/pic32mx/4.8.3/../../../../pic32mx/lib\libpic32.a(vector21.o)

.data%z98       0x00000000        0x0
 .data          0x00000000        0x0 c:/program files (x86)/microchip/xc32/v2.30/bin/bin/../../lib/gcc/pic32mx/4.8.3/../../../../pic32mx/lib\libpic32.a(vector21.o)

.bss%z99        0x00000000        0x0
 .bss           0x00000000        0x0 c:/program files (x86)/microchip/xc32/v2.30/bin/bin/../../lib/gcc/pic32mx/4.8.3/../../../../pic32mx/lib\libpic32.a(vector19.o)

.data%z100      0x00000000        0x0
 .data          0x00000000        0x0 c:/program files (x86)/microchip/xc32/v2.30/bin/bin/../../lib/gcc/pic32mx/4.8.3/../../../../pic32mx/lib\libpic32.a(vector19.o)

.bss%z101       0x00000000        0x0
 .bss           0x00000000        0x0 c:/program files (x86)/microchip/xc32/v2.30/bin/bin/../../lib/gcc/pic32mx/4.8.3/../../../../pic32mx/lib\libpic32.a(vector18.o)

.data%z102      0x00000000        0x0
 .data          0x00000000        0x0 c:/program files (x86)/microchip/xc32/v2.30/bin/bin/../../lib/gcc/pic32mx/4.8.3/../../../../pic32mx/lib\libpic32.a(vector18.o)

.bss%z103       0x00000000        0x0
 .bss           0x00000000        0x0 c:/program files (x86)/microchip/xc32/v2.30/bin/bin/../../lib/gcc/pic32mx/4.8.3/../../../../pic32mx/lib\libpic32.a(vector17.o)

.data%z104      0x00000000        0x0
 .data          0x00000000        0x0 c:/program files (x86)/microchip/xc32/v2.30/bin/bin/../../lib/gcc/pic32mx/4.8.3/../../../../pic32mx/lib\libpic32.a(vector17.o)

.bss%z105       0x00000000        0x0
 .bss           0x00000000        0x0 c:/program files (x86)/microchip/xc32/v2.30/bin/bin/../../lib/gcc/pic32mx/4.8.3/../../../../pic32mx/lib\libpic32.a(vector14.o)

.data%z106      0x00000000        0x0
 .data          0x00000000        0x0 c:/program files (x86)/microchip/xc32/v2.30/bin/bin/../../lib/gcc/pic32mx/4.8.3/../../../../pic32mx/lib\libpic32.a(vector14.o)

.bss%z107       0x00000000        0x0
 .bss           0x00000000        0x0 c:/program files (x86)/microchip/xc32/v2.30/bin/bin/../../lib/gcc/pic32mx/4.8.3/../../../../pic32mx/lib\libpic32.a(vector13.o)

.data%z108      0x00000000        0x0
 .data          0x00000000        0x0 c:/program files (x86)/microchip/xc32/v2.30/bin/bin/../../lib/gcc/pic32mx/4.8.3/../../../../pic32mx/lib\libpic32.a(vector13.o)

.bss%z109       0x00000000        0x0
 .bss           0x00000000        0x0 c:/program files (x86)/microchip/xc32/v2.30/bin/bin/../../lib/gcc/pic32mx/4.8.3/../../../../pic32mx/lib\libpic32.a(vector11.o)

.data%z110      0x00000000        0x0
 .data          0x00000000        0x0 c:/program files (x86)/microchip/xc32/v2.30/bin/bin/../../lib/gcc/pic32mx/4.8.3/../../../../pic32mx/lib\libpic32.a(vector11.o)

.bss%z111       0x00000000        0x0
 .bss           0x00000000        0x0 c:/program files (x86)/microchip/xc32/v2.30/bin/bin/../../lib/gcc/pic32mx/4.8.3/../../../../pic32mx/lib\libpic32.a(vector10.o)

.data%z112      0x00000000        0x0
 .data          0x00000000        0x0 c:/program files (x86)/microchip/xc32/v2.30/bin/bin/../../lib/gcc/pic32mx/4.8.3/../../../../pic32mx/lib\libpic32.a(vector10.o)

.bss%z113       0x00000000        0x0
 .bss           0x00000000        0x0 c:/program files (x86)/microchip/xc32/v2.30/bin/bin/../../lib/gcc/pic32mx/4.8.3/../../../../pic32mx/lib\libpic32.a(vector9.o)

.data%z114      0x00000000        0x0
 .data          0x00000000        0x0 c:/program files (x86)/microchip/xc32/v2.30/bin/bin/../../lib/gcc/pic32mx/4.8.3/../../../../pic32mx/lib\libpic32.a(vector9.o)

.bss%z115       0x00000000        0x0
 .bss           0x00000000        0x0 c:/program files (x86)/microchip/xc32/v2.30/bin/bin/../../lib/gcc/pic32mx/4.8.3/../../../../pic32mx/lib\libpic32.a(vector7.o)

.data%z116      0x00000000        0x0
 .data          0x00000000        0x0 c:/program files (x86)/microchip/xc32/v2.30/bin/bin/../../lib/gcc/pic32mx/4.8.3/../../../../pic32mx/lib\libpic32.a(vector7.o)

.bss%z117       0x00000000        0x0
 .bss           0x00000000        0x0 c:/program files (x86)/microchip/xc32/v2.30/bin/bin/../../lib/gcc/pic32mx/4.8.3/../../../../pic32mx/lib\libpic32.a(vector6.o)

.data%z118      0x00000000        0x0
 .data          0x00000000        0x0 c:/program files (x86)/microchip/xc32/v2.30/bin/bin/../../lib/gcc/pic32mx/4.8.3/../../../../pic32mx/lib\libpic32.a(vector6.o)

.bss%z119       0x00000000        0x0
 .bss           0x00000000        0x0 c:/program files (x86)/microchip/xc32/v2.30/bin/bin/../../lib/gcc/pic32mx/4.8.3/../../../../pic32mx/lib\libpic32.a(vector5.o)

.data%z120      0x00000000        0x0
 .data          0x00000000        0x0 c:/program files (x86)/microchip/xc32/v2.30/bin/bin/../../lib/gcc/pic32mx/4.8.3/../../../../pic32mx/lib\libpic32.a(vector5.o)

.bss%z121       0x00000000        0x0
 .bss           0x00000000        0x0 c:/program files (x86)/microchip/xc32/v2.30/bin/bin/../../lib/gcc/pic32mx/4.8.3/../../../../pic32mx/lib\libpic32.a(vector3.o)

.data%z122      0x00000000        0x0
 .data          0x00000000        0x0 c:/program files (x86)/microchip/xc32/v2.30/bin/bin/../../lib/gcc/pic32mx/4.8.3/../../../../pic32mx/lib\libpic32.a(vector3.o)

.bss%z123       0x00000000        0x0
 .bss           0x00000000        0x0 c:/program files (x86)/microchip/xc32/v2.30/bin/bin/../../lib/gcc/pic32mx/4.8.3/../../../../pic32mx/lib\libpic32.a(vector2.o)

.data%z124      0x00000000        0x0
 .data          0x00000000        0x0 c:/program files (x86)/microchip/xc32/v2.30/bin/bin/../../lib/gcc/pic32mx/4.8.3/../../../../pic32mx/lib\libpic32.a(vector2.o)

.bss%z125       0x00000000        0x0
 .bss           0x00000000        0x0 c:/program files (x86)/microchip/xc32/v2.30/bin/bin/../../lib/gcc/pic32mx/4.8.3/../../../../pic32mx/lib\libpic32.a(vector1.o)

.data%z126      0x00000000        0x0
 .data          0x00000000        0x0 c:/program files (x86)/microchip/xc32/v2.30/bin/bin/../../lib/gcc/pic32mx/4.8.3/../../../../pic32mx/lib\libpic32.a(vector1.o)

.bss%z127       0x00000000        0x0
 .bss           0x00000000        0x0 c:/program files (x86)/microchip/xc32/v2.30/bin/bin/../../lib/gcc/pic32mx/4.8.3/../../../../pic32mx/lib\libpic32.a(general-exception.o)

.data%z128      0x00000000        0x0
 .data          0x00000000        0x0 c:/program files (x86)/microchip/xc32/v2.30/bin/bin/../../lib/gcc/pic32mx/4.8.3/../../../../pic32mx/lib\libpic32.a(general-exception.o)

.bss%z129       0x00000000        0x0
 .bss           0x00000000        0x0 c:/program files (x86)/microchip/xc32/v2.30/bin/bin/../../lib/gcc/pic32mx/4.8.3/../../../../pic32mx/lib\libpic32.a(pic32_data_init.o)

.data%z130      0x00000000        0x0
 .data          0x00000000        0x0 c:/program files (x86)/microchip/xc32/v2.30/bin/bin/../../lib/gcc/pic32mx/4.8.3/../../../../pic32mx/lib\libpic32.a(pic32_data_init.o)

.bss%z131       0x00000000        0x0
 .bss           0x00000000        0x0 c:/program files (x86)/microchip/xc32/v2.30/bin/bin/../../lib/gcc/pic32mx/4.8.3/../../../../pic32mx/lib\libpic32.a(default-nmi-handler.o)

.data%z132      0x00000000        0x0
 .data          0x00000000        0x0 c:/program files (x86)/microchip/xc32/v2.30/bin/bin/../../lib/gcc/pic32mx/4.8.3/../../../../pic32mx/lib\libpic32.a(default-nmi-handler.o)

.bss%z133       0x00000000        0x0
 .bss           0x00000000        0x0 c:/program files (x86)/microchip/xc32/v2.30/bin/bin/../../lib/gcc/pic32mx/4.8.3/../../../../pic32mx/lib\libpic32.a(default-on-bootstrap.o)

.data%z134      0x00000000        0x0
 .data          0x00000000        0x0 c:/program files (x86)/microchip/xc32/v2.30/bin/bin/../../lib/gcc/pic32mx/4.8.3/../../../../pic32mx/lib\libpic32.a(default-on-bootstrap.o)

.bss%z135       0x00000000        0x0
 .bss           0x00000000        0x0 c:/program files (x86)/microchip/xc32/v2.30/bin/bin/../../lib/gcc/pic32mx/4.8.3/../../../../pic32mx/lib\libpic32.a(default-on-reset.o)

.data%z136      0x00000000        0x0
 .data          0x00000000        0x0 c:/program files (x86)/microchip/xc32/v2.30/bin/bin/../../lib/gcc/pic32mx/4.8.3/../../../../pic32mx/lib\libpic32.a(default-on-reset.o)

.bss%z137       0x00000000        0x0
 .bss           0x00000000        0x0 c:/program files (x86)/microchip/xc32/v2.30/bin/bin/../../lib/gcc/pic32mx/4.8.3/../../../../pic32mx/lib\libpic32.a(default-bootstrap-exception-handler.o)

.data%z138      0x00000000        0x0
 .data          0x00000000        0x0 c:/program files (x86)/microchip/xc32/v2.30/bin/bin/../../lib/gcc/pic32mx/4.8.3/../../../../pic32mx/lib\libpic32.a(default-bootstrap-exception-handler.o)

.bss%z139       0x00000000        0x0
 .bss           0x00000000        0x0 c:/program files (x86)/microchip/xc32/v2.30/bin/bin/../../lib/gcc/pic32mx/4.8.3/../../../../pic32mx/lib\libpic32.a(strlen.o)

.data%z140      0x00000000        0x0
 .data          0x00000000        0x0 c:/program files (x86)/microchip/xc32/v2.30/bin/bin/../../lib/gcc/pic32mx/4.8.3/../../../../pic32mx/lib\libpic32.a(strlen.o)

.bss%z141       0x00000000        0x0
 .bss           0x00000000        0x0 c:/program files (x86)/microchip/xc32/v2.30/bin/bin/../../lib/gcc/pic32mx/4.8.3/../../../../pic32mx/lib\libpic32.a(strcmp.o)

.data%z142      0x00000000        0x0
 .data          0x00000000        0x0 c:/program files (x86)/microchip/xc32/v2.30/bin/bin/../../lib/gcc/pic32mx/4.8.3/../../../../pic32mx/lib\libpic32.a(strcmp.o)

.bss%z143       0x00000000        0x0
 .bss           0x00000000        0x0 c:/program files (x86)/microchip/xc32/v2.30/bin/bin/../../lib/gcc/pic32mx/4.8.3/../../../../pic32mx/lib\libpic32.a(memset.o)

.data%z144      0x00000000        0x0
 .data          0x00000000        0x0 c:/program files (x86)/microchip/xc32/v2.30/bin/bin/../../lib/gcc/pic32mx/4.8.3/../../../../pic32mx/lib\libpic32.a(memset.o)

.bss%z145       0x00000000        0x0
 .bss           0x00000000        0x0 c:/program files (x86)/microchip/xc32/v2.30/bin/bin/../../lib/gcc/pic32mx/4.8.3/../../../../pic32mx/lib\libpic32.a(memcpy.o)

.data%z146      0x00000000        0x0
 .data          0x00000000        0x0 c:/program files (x86)/microchip/xc32/v2.30/bin/bin/../../lib/gcc/pic32mx/4.8.3/../../../../pic32mx/lib\libpic32.a(memcpy.o)

.bss%z147       0x00000000        0x0
 .bss           0x00000000        0x0 c:/program files (x86)/microchip/xc32/v2.30/bin/bin/../../lib/gcc/pic32mx/4.8.3\libgcc.a(floatunsidf.o)

.data%z148      0x00000000        0x0
 .data          0x00000000        0x0 c:/program files (x86)/microchip/xc32/v2.30/bin/bin/../../lib/gcc/pic32mx/4.8.3\libgcc.a(floatunsidf.o)

.bss%z149       0x00000000        0x0
 .bss           0x00000000        0x0 c:/program files (x86)/microchip/xc32/v2.30/bin/bin/../../lib/gcc/pic32mx/4.8.3\libgcc.a(floatunsisf.o)

.data%z150      0x00000000        0x0
 .data          0x00000000        0x0 c:/program files (x86)/microchip/xc32/v2.30/bin/bin/../../lib/gcc/pic32mx/4.8.3\libgcc.a(floatunsisf.o)

.bss%z151       0x00000000        0x0
 .bss           0x00000000        0x0 c:/program files (x86)/microchip/xc32/v2.30/bin/bin/../../lib/gcc/pic32mx/4.8.3\libgcc.a(_floatundisf.o)

.data%z152      0x00000000        0x0
 .data          0x00000000        0x0 c:/program files (x86)/microchip/xc32/v2.30/bin/bin/../../lib/gcc/pic32mx/4.8.3\libgcc.a(_floatundisf.o)

.bss%z153       0x00000000        0x0
 .bss           0x00000000        0x0 c:/program files (x86)/microchip/xc32/v2.30/bin/bin/../../lib/gcc/pic32mx/4.8.3\libgcc.a(_fixunssfdi.o)

.data%z154      0x00000000        0x0
 .data          0x00000000        0x0 c:/program files (x86)/microchip/xc32/v2.30/bin/bin/../../lib/gcc/pic32mx/4.8.3\libgcc.a(_fixunssfdi.o)

.bss%z155       0x00000000        0x0
 .bss           0x00000000        0x0 c:/program files (x86)/microchip/xc32/v2.30/bin/bin/../../lib/gcc/pic32mx/4.8.3/../../../../pic32mx/lib\pic32_software_reset.o

.data%z156      0x00000000        0x0
 .data          0x00000000        0x0 c:/program files (x86)/microchip/xc32/v2.30/bin/bin/../../lib/gcc/pic32mx/4.8.3/../../../../pic32mx/lib\pic32_software_reset.o

.bss%z157       0x00000000        0x0
 .bss           0x00000000        0x0 c:/program files (x86)/microchip/xc32/v2.30/bin/bin/../../lib/gcc/pic32mx/4.8.3/../../../../pic32mx/lib/./proc/32MX470F512L\default_isr_vectors.o

.data%z158      0x00000000        0x0
 .data          0x00000000        0x0 c:/program files (x86)/microchip/xc32/v2.30/bin/bin/../../lib/gcc/pic32mx/4.8.3/../../../../pic32mx/lib/./proc/32MX470F512L\default_isr_vectors.o

.bss%z159       0x00000000        0x0
 .bss           0x00000000        0x0 C:\Users\Xeon5430\AppData\Local\Temp\ccMLxUIM.o

.data%z160      0x00000000        0x0
 .data          0x00000000        0x0 C:\Users\Xeon5430\AppData\Local\Temp\ccMLxUIM.o

.bss%z161       0x00000000        0x0
 .bss           0x00000000        0x0 C:\Users\Xeon5430\AppData\Local\Temp\ccuxsepe.o

.data%z162      0x00000000        0x0
 .data          0x00000000        0x0 C:\Users\Xeon5430\AppData\Local\Temp\ccuxsepe.o

.bss%z163       0x00000000        0x0
 .bss           0x00000000        0x0 C:\Users\Xeon5430\AppData\Local\Temp\cc0y46GM.o

.data%z164      0x00000000        0x0
 .data          0x00000000        0x0 C:\Users\Xeon5430\AppData\Local\Temp\cc0y46GM.o

.bss%z165       0x00000000        0x0
 .bss           0x00000000        0x0 c:/program files (x86)/microchip/xc32/v2.30/bin/bin/../../lib/gcc/pic32mx/4.8.3/../../../../pic32mx/lib\libmchp_peripheral_32MX470F512L.a(int_restore_interrupts_lib.o)

.data%z166      0x00000000        0x0
 .data          0x00000000        0x0 c:/program files (x86)/microchip/xc32/v2.30/bin/bin/../../lib/gcc/pic32mx/4.8.3/../../../../pic32mx/lib\libmchp_peripheral_32MX470F512L.a(int_restore_interrupts_lib.o)

.bss%z167       0x00000000        0x0
 .bss           0x00000000        0x0 c:/program files (x86)/microchip/xc32/v2.30/bin/bin/../../lib/gcc/pic32mx/4.8.3/../../../../pic32mx/lib\libmchp_peripheral_32MX470F512L.a(nvm_write_word_lib.o)

.data%z168      0x00000000        0x0
 .data          0x00000000        0x0 c:/program files (x86)/microchip/xc32/v2.30/bin/bin/../../lib/gcc/pic32mx/4.8.3/../../../../pic32mx/lib\libmchp_peripheral_32MX470F512L.a(nvm_write_word_lib.o)

.bss%z169       0x00000000        0x0
 .bss           0x00000000        0x0 c:/program files (x86)/microchip/xc32/v2.30/bin/bin/../../lib/gcc/pic32mx/4.8.3/../../../../pic32mx/lib\libmchp_peripheral_32MX470F512L.a(nvm_operation_lib.o)

.data%z170      0x00000000        0x0
 .data          0x00000000        0x0 c:/program files (x86)/microchip/xc32/v2.30/bin/bin/../../lib/gcc/pic32mx/4.8.3/../../../../pic32mx/lib\libmchp_peripheral_32MX470F512L.a(nvm_operation_lib.o)

.bss%z171       0x00000000        0x0
 .bss           0x00000000        0x0 c:/program files (x86)/microchip/xc32/v2.30/bin/bin/../../lib/gcc/pic32mx/4.8.3/../../../../pic32mx/lib\libmchp_peripheral_32MX470F512L.a(nvm_erase_page_lib.o)

.data%z172      0x00000000        0x0
 .data          0x00000000        0x0 c:/program files (x86)/microchip/xc32/v2.30/bin/bin/../../lib/gcc/pic32mx/4.8.3/../../../../pic32mx/lib\libmchp_peripheral_32MX470F512L.a(nvm_erase_page_lib.o)

.bss%z173       0x00000000        0x0
 .bss           0x00000000        0x0 c:/program files (x86)/microchip/xc32/v2.30/bin/bin/../../lib/gcc/pic32mx/4.8.3/../../../../pic32mx/lib\libmchp_peripheral_32MX470F512L.a(power_sleep_lib.o)

.data%z174      0x00000000        0x0
 .data          0x00000000        0x0 c:/program files (x86)/microchip/xc32/v2.30/bin/bin/../../lib/gcc/pic32mx/4.8.3/../../../../pic32mx/lib\libmchp_peripheral_32MX470F512L.a(power_sleep_lib.o)

.bss%z175       0x00000000        0x0
 .bss           0x00000000        0x0 c:/program files (x86)/microchip/xc32/v2.30/bin/bin/../../lib/gcc/pic32mx/4.8.3/../../../../pic32mx/lib\libmchp_peripheral_32MX470F512L.a(power_idle_lib.o)

.data%z176      0x00000000        0x0
 .data          0x00000000        0x0 c:/program files (x86)/microchip/xc32/v2.30/bin/bin/../../lib/gcc/pic32mx/4.8.3/../../../../pic32mx/lib\libmchp_peripheral_32MX470F512L.a(power_idle_lib.o)

.bss%z177       0x00000000        0x0
 .bss           0x00000000        0x0 c:/program files (x86)/microchip/xc32/v2.30/bin/bin/../../lib/gcc/pic32mx/4.8.3/../../../../pic32mx/lib\libmchp_peripheral_32MX470F512L.a(int_disable_interrupts_lib.o)

.data%z178      0x00000000        0x0
 .data          0x00000000        0x0 c:/program files (x86)/microchip/xc32/v2.30/bin/bin/../../lib/gcc/pic32mx/4.8.3/../../../../pic32mx/lib\libmchp_peripheral_32MX470F512L.a(int_disable_interrupts_lib.o)

.bss%z179       0x00000000        0x0
 .bss           0x00000000        0x0 c:/program files (x86)/microchip/xc32/v2.30/bin/bin/../../lib/gcc/pic32mx/4.8.3/../../../../pic32mx/lib\libmchp_peripheral_32MX470F512L.a(pcache.o)

.data%z180      0x00000000        0x0
 .data          0x00000000        0x0 c:/program files (x86)/microchip/xc32/v2.30/bin/bin/../../lib/gcc/pic32mx/4.8.3/../../../../pic32mx/lib\libmchp_peripheral_32MX470F512L.a(pcache.o)

.bss%z181       0x00000000        0x0
 .bss           0x00000000        0x0 c:/program files (x86)/microchip/xc32/v2.30/bin/bin/../../lib/gcc/pic32mx/4.8.3/../../../../pic32mx/lib\libmchp_peripheral_32MX470F512L.a(soft_reset_lib.o)

.data%z182      0x00000000        0x0
 .data          0x00000000        0x0 c:/program files (x86)/microchip/xc32/v2.30/bin/bin/../../lib/gcc/pic32mx/4.8.3/../../../../pic32mx/lib\libmchp_peripheral_32MX470F512L.a(soft_reset_lib.o)

.bss%z183       0x00000000        0x0
 .bss           0x00000000        0x0 c:/program files (x86)/microchip/xc32/v2.30/bin/bin/../../lib/gcc/pic32mx/4.8.3/../../../../pic32mx/lib/./proc/32MX470F512L\processor.o

.data%z184      0x00000000        0x0
 .data          0x00000000        0x0 c:/program files (x86)/microchip/xc32/v2.30/bin/bin/../../lib/gcc/pic32mx/4.8.3/../../../../pic32mx/lib/./proc/32MX470F512L\processor.o

.bss%z185       0x00000000        0x0
 .bss           0x00000000        0x0 output\Announce.o

.data%z186      0x00000000        0x0
 .data          0x00000000        0x0 output\Announce.o

.bss%z187       0x00000000        0x0
 .bss           0x00000000        0x0 output\DHCP.o

.data%z188      0x00000000        0x0
 .data          0x00000000        0x0 output\DHCP.o

.bss%z189       0x00000000        0x0
 .bss           0x00000000        0x0 output\ICMP.o

.data%z190      0x00000000        0x0
 .data          0x00000000        0x0 output\ICMP.o

.bss%z191       0x00000000        0x0
 .bss           0x00000000        0x0 output\StackTsk.o

.data%z192      0x00000000        0x0
 .data          0x00000000        0x0 output\StackTsk.o

.bss%z193       0x00000000        0x0
 .bss           0x00000000        0x0 output\IP.o

.data%z194      0x00000000        0x0
 .data          0x00000000        0x0 output\IP.o

.bss%z195       0x00000000        0x0
 .bss           0x00000000        0x0 output\Delay.o

.data%z196      0x00000000        0x0
 .data          0x00000000        0x0 output\Delay.o

.bss%z197       0x00000000        0x0
 .bss           0x00000000        0x0 output\ENC28J60.o

.data%z198      0x00000000        0x0
 .data          0x00000000        0x0 output\ENC28J60.o

.data%z199      0x00000000        0x0
 .data          0x00000000        0x0 output\ARP.o

.bss%z200       0x00000000        0x0
 .bss           0x00000000        0x0 output\Helpers.o

.data%z201      0x00000000        0x0
 .data          0x00000000        0x0 output\Helpers.o

.bss%z202       0x00000000        0x0
 .bss           0x00000000        0x0 output\Tick.o

.data%z203      0x00000000        0x0
 .data          0x00000000        0x0 output\Tick.o

.bss%z204       0x00000000        0x0
 .bss           0x00000000        0x0 output\UDP.o

.data%z205      0x00000000        0x0
 .data          0x00000000        0x0 output\UDP.o

.bss%z206       0x00000000        0x0
 .bss           0x00000000        0x0 output\ethernet_grbl.o

.data%z207      0x00000000        0x0
 .data          0x00000000        0x0 output\ethernet_grbl.o

.bss%z208       0x00000000        0x0
 .bss           0x00000000        0x0 output\ethernet.o

.data%z209      0x00000000        0x0
 .data          0x00000000        0x0 output\ethernet.o

.bss%z210       0x00000000        0x0
 .bss           0x00000000        0x0 output\grbl_bootloader.o

.data%z211      0x00000000        0x0
 .data          0x00000000        0x0 output\grbl_bootloader.o

.bss%z212       0x00000000        0x0
 .bss           0x00000000        0x0 output\grbl_probe.o

.data%z213      0x00000000        0x0
 .data          0x00000000        0x0 output\grbl_probe.o

.bss%z214       0x00000000        0x0
 .bss           0x00000000        0x0 output\grbl_running.o

.data%z215      0x00000000        0x0
 .data          0x00000000        0x0 output\grbl_running.o

.bss%z216       0x00000000        0x0
 .bss           0x00000000        0x0 output\grbl_toolchange.o

.data%z217      0x00000000        0x0
 .data          0x00000000        0x0 output\grbl_toolchange.o

.bss%z218       0x00000000        0x0
 .bss           0x00000000        0x0 output\stackmeasure_helper.o

.data%z219      0x00000000        0x0
 .data          0x00000000        0x0 output\stackmeasure_helper.o

.bss%z220       0x00000000        0x0
 .bss           0x00000000        0x0 output\stackmeasure.o

.data%z221      0x00000000        0x0
 .data          0x00000000        0x0 output\stackmeasure.o

.bss%z222       0x00000000        0x0
 .bss           0x00000000        0x0 output\grbl_protocol.o

.data%z223      0x00000000        0x0
 .data          0x00000000        0x0 output\grbl_protocol.o

.bss%z224       0x00000000        0x0
 .bss           0x00000000        0x0 output\bootloader_interface.o

.data%z225      0x00000000        0x0
 .data          0x00000000        0x0 output\bootloader_interface.o

.bss%z226       0x00000000        0x0
 .bss           0x00000000        0x0 output\grbl_eeprom.o

.data%z227      0x00000000        0x0
 .data          0x00000000        0x0 output\grbl_eeprom.o

.bss%z228       0x00000000        0x0
 .bss           0x00000000        0x0 output\system_alarm.o

.data%z229      0x00000000        0x0
 .data          0x00000000        0x0 output\system_alarm.o

.bss%z230       0x00000000        0x0
 .bss           0x00000000        0x0 output\system_exec.o

.data%z231      0x00000000        0x0
 .data          0x00000000        0x0 output\system_exec.o

.bss%z232       0x00000000        0x0
 .bss           0x00000000        0x0 output\stepper_enable.o

.data%z233      0x00000000        0x0
 .data          0x00000000        0x0 output\stepper_enable.o

.bss%z234       0x00000000        0x0
 .bss           0x00000000        0x0 output\system_control.o

.data%z235      0x00000000        0x0
 .data          0x00000000        0x0 output\system_control.o

.bss%z236       0x00000000        0x0
 .bss           0x00000000        0x0 output\eep_manager_crc.o

.data%z237      0x00000000        0x0
 .data          0x00000000        0x0 output\eep_manager_crc.o

.bss%z238       0x00000000        0x0
 .bss           0x00000000        0x0 output\dee_page_helper.o

.data%z239      0x00000000        0x0
 .data          0x00000000        0x0 output\dee_page_helper.o

.bss%z240       0x00000000        0x0
 .bss           0x00000000        0x0 output\dee_page.o

.data%z241      0x00000000        0x0
 .data          0x00000000        0x0 output\dee_page.o

.data%z242      0x00000000        0x0
 .data          0x00000000        0x0 output\dee.o

.bss%z243       0x00000000        0x0
 .bss           0x00000000        0x0 output\jog.o

.data%z244      0x00000000        0x0
 .data          0x00000000        0x0 output\jog.o

.bss%z245       0x00000000        0x0
 .bss           0x00000000        0x0 output\pwm.o

.data%z246      0x00000000        0x0
 .data          0x00000000        0x0 output\pwm.o

.bss%z247       0x00000000        0x0
 .bss           0x00000000        0x0 output\grbl.o

.data%z248      0x00000000        0x0
 .data          0x00000000        0x0 output\grbl.o

.bss%z249       0x00000000        0x0
 .bss           0x00000000        0x0 output\system.o

.data%z250      0x00000000        0x0
 .data          0x00000000        0x0 output\system.o

.bss%z251       0x00000000        0x0
 .bss           0x00000000        0x0 output\stepper.o

.data%z252      0x00000000        0x0
 .data          0x00000000        0x0 output\stepper.o

.bss%z253       0x00000000        0x0
 .bss           0x00000000        0x0 output\spindle_control.o

.data%z254      0x00000000        0x0
 .data          0x00000000        0x0 output\spindle_control.o

.bss%z255       0x00000000        0x0
 .bss           0x00000000        0x0 output\settings.o

.data%z256      0x00000000        0x0
 .data          0x00000000        0x0 output\settings.o

.bss%z257       0x00000000        0x0
 .bss           0x00000000        0x0 output\report.o

.data%z258      0x00000000        0x0
 .data          0x00000000        0x0 output\report.o

.bss%z259       0x00000000        0x0
 .bss           0x00000000        0x0 output\print.o

.data%z260      0x00000000        0x0
 .data          0x00000000        0x0 output\print.o

.bss%z261       0x00000000        0x0
 .bss           0x00000000        0x0 output\planner.o

.data%z262      0x00000000        0x0
 .data          0x00000000        0x0 output\planner.o

.bss%z263       0x00000000        0x0
 .bss           0x00000000        0x0 output\nuts_bolts.o

.data%z264      0x00000000        0x0
 .data          0x00000000        0x0 output\nuts_bolts.o

.bss%z265       0x00000000        0x0
 .bss           0x00000000        0x0 output\motion_control.o

.data%z266      0x00000000        0x0
 .data          0x00000000        0x0 output\motion_control.o

.bss%z267       0x00000000        0x0
 .bss           0x00000000        0x0 output\coolant_control.o

.data%z268      0x00000000        0x0
 .data          0x00000000        0x0 output\coolant_control.o

.bss%z269       0x00000000        0x0
 .bss           0x00000000        0x0 output\limits.o

.data%z270      0x00000000        0x0
 .data          0x00000000        0x0 output\limits.o

.bss%z271       0x00000000        0x0
 .bss           0x00000000        0x0 output\gcode.o

.data%z272      0x00000000        0x0
 .data          0x00000000        0x0 output\gcode.o

.bss%z273       0x00000000        0x0
 .bss           0x00000000        0x0 output\ad.o

.data%z274      0x00000000        0x0
 .data          0x00000000        0x0 output\ad.o

.bss%z275       0x00000000        0x0
 .bss           0x00000000        0x0 output\app.o

.data%z276      0x00000000        0x0
 .data          0x00000000        0x0 output\app.o

.bss%z277       0x00000000        0x0
 .bss           0x00000000        0x0 output\c_eep_manager.o

.bss%z278       0x00000000        0x0
 .bss           0x00000000        0x0 output\main.o

.bss%z279       0x00000000        0x0
 .bss           0x00000000        0x0 output\isr.o

.data%z280      0x00000000        0x0
 .data          0x00000000        0x0 output\isr.o

.bss%z281       0x00000000        0x0
 .bss           0x00000000        0x0 output\exceptions.o

.data%z282      0x00000000        0x0
 .data          0x00000000        0x0 output\exceptions.o

.bss%z283       0x00000000        0x0
 .bss           0x00000000        0x0 output\eep_manager.o

.data%z284      0x00000000        0x0
 .data          0x00000000        0x0 output\eep_manager.o

.bss%z285       0x00000000        0x0
 .bss           0x00000000        0x0 output\eeprom.o

.data%z286      0x00000000        0x0
 .data          0x00000000        0x0 output\eeprom.o

.bss%z287       0x00000000        0x0
 .bss           0x00000000        0x0 output\sleep.o

.data%z288      0x00000000        0x0
 .data          0x00000000        0x0 output\sleep.o

.bss%z289       0x00000000        0x0
 .bss           0x00000000        0x0 output\task.o

.data%z290      0x00000000        0x0
 .data          0x00000000        0x0 output\task.o

.bss%z291       0x00000000        0x0
 .bss           0x00000000        0x0 output\ringBuffer.o

.data%z292      0x00000000        0x0
 .data          0x00000000        0x0 output\ringBuffer.o

.bss%z293       0x00000000        0x0
 .bss           0x00000000        0x0 output\mal.o

.data%z294      0x00000000        0x0
 .data          0x00000000        0x0 output\mal.o

.data%z295      0x00000000        0x0
 .data          0x00000000        0x0 output\tmr.o

.bss%z296       0x00000000        0x0
 .bss           0x00000000        0x0 c:/program files (x86)/microchip/xc32/v2.30/bin/bin/../../lib/gcc/pic32mx/4.8.3/../../../../pic32mx/lib\debug-exception-return.o

.data%z297      0x00000000        0x0
 .data          0x00000000        0x0 c:/program files (x86)/microchip/xc32/v2.30/bin/bin/../../lib/gcc/pic32mx/4.8.3/../../../../pic32mx/lib\debug-exception-return.o

_07808a205e999526
                0x9d030000     0x9000
 _07808a205e999526
                0x9d030000     0x9000 output\dee_page.o
                0x9d030000                dee_page

_070107205e999525
                0x9d008140       0x20
 _070107205e999525
                0x9d008140       0x20 output\main.o
                0x9d008140                VERSION_ID_FIX

_070105a05e999525
                0x9d008100        0xc
 _070105a05e999525
                0x9d008100        0xc output\main.o
                0x9d008100                VERSION_DATE

_070106605e999525
                0x9d008120        0xc
 _070106605e999525
                0x9d008120        0xc output\main.o
                0x9d008120                VERSION_TIME

.text           0x9d008160     0x59b4
 .text          0x9d008160     0x330c output\gcode.o
                0x9d008160                gc_init
                0x9d008298                gc_soft_init
                0x9d0082f4                gc_sync_position
                0x9d008334                gc_main
                0x9d008558                gc_execute_line
                0x9d00b424                gcode_probe_update_pos
 .text          0x9d00b46c     0x26a8 output\ENC28J60.o
                0x9d00b46c                init_enc28j60
                0x9d00b48c                do_enc28j60
                0x9d00b4c0                isr_enc28j60_1ms
                0x9d00b4e8                MACInit
                0x9d00b7d4                ENC28J60_CalculateBRG
                0x9d00b88c                MACIsLinked
                0x9d00b8d4                MACIsTxReady
                0x9d00b924                MACDiscardRx
                0x9d00b9c0                MACGetFreeRxSize
                0x9d00bb30                MACGetHeader
                0x9d00bd14                MACPutHeader
                0x9d00be08                MACFlush
                0x9d00c11c                MACSetReadPtrInRx
                0x9d00c1b0                MACSetWritePtr
                0x9d00c248                MACSetReadPtr
                0x9d00c2e0                MACCalcRxChecksum
                0x9d00c3f4                CalcIPBufferChecksum
                0x9d00c598                MACMemCopyAsync
                0x9d00ca34                MACIsMemCopyDone
                0x9d00ca84                MACGet
                0x9d00cb38                MACGetArray
                0x9d00cdc8                MACPut
                0x9d00ce8c                MACPutArray
                0x9d00d3ec                ReadPHYReg
                0x9d00d820                WritePHYReg
                0x9d00d944                MACPowerDown
                0x9d00d9e4                MACPowerUp
                0x9d00da58                SetCLKOUT
                0x9d00dab4                GetCLKOUT

.text           0x9d00db14     0x428c
 .text          0x9d00db14     0x239c output\stepper.o
                0x9d00db14                init_stepper
                0x9d00db4c                do_stepper
                0x9d00db6c                st_wake_up
                0x9d00dbec                st_go_idle
                0x9d00dc78                TIMER1_COMPA_vect
                0x9d00e3d4                TIMER0_OVF_vect
                0x9d00e458                st_generate_step_dir_invert_masks
                0x9d00e544                st_reset
                0x9d00e6c0                st_update_plan_block_parameters
                0x9d00e7a4                st_prep_buffer
                0x9d00fe40                st_get_realtime_rate
                0x9d00fe8c                st_isRunning
 .text          0x9d00feb0     0x1ef0 output\report.o
                0x9d00feb0                report_util_setting_prefix
                0x9d010144                report_status_message
                0x9d0101c0                report_alarm_message
                0x9d010218                report_feedback_message
                0x9d010430                report_init_message
                0x9d010468                report_grbl_help
                0x9d010838                report_grbl_settings
                0x9d010d34                report_probe_parameters
                0x9d010dc0                report_ngc_parameters
                0x9d010f48                report_gcode_modes
                0x9d011264                report_build_info
                0x9d01132c                report_echo_line_received
                0x9d01137c                report_stack_usage
                0x9d0113fc                report_mac_address
                0x9d0114d8                report_realtime_status

.text           0x9d011da0     0x2fc0
 .text          0x9d011da0     0x1958 output\system.o
                0x9d011da0                system_init
                0x9d011e9c                do_system
                0x9d0120e4                isr_system_1ms
                0x9d012104                system_check_safety_door_ajar
                0x9d01213c                system_flag_wco_change
                0x9d012168                system_convert_axis_steps_to_mpos
                0x9d0121f8                system_convert_array_steps_to_mpos
                0x9d012280                system_check_travel_limits
                0x9d01235c                system_set_exec_motion_override_flag
                0x9d0123d8                system_set_exec_accessory_override_flag
                0x9d012454                system_clear_exec_motion_overrides
                0x9d0124b4                system_clear_exec_accessory_overrides
                0x9d012514                system_set_requestSuspendTime
                0x9d012558                system_get_requestSuspendTime
 .text          0x9d0136f8     0x1668 output\dee.o
                0x9d0136f8                init_dee
                0x9d013a40                deinit_dee
                0x9d013a60                do_dee
                0x9d013ab4                isr_dee_1ms
                0x9d013adc                dee_write_eeprom
                0x9d013b54                dee_read_eeprom
                0x9d013c1c                GetIndexOfEmptyDataElement
                0x9d013d98                ErasePage
                0x9d013ee4                MassErasePage
                0x9d013fcc                DataEEWrite
                0x9d014490                DataEERead
                0x9d014900                PackEE
                0x9d014c64                Dee_CloseCurrentPage

.text           0x9d014d60     0x29c0
 .text          0x9d014d60     0x1550 output\eep_manager.o
                0x9d014d60                init_eep_manager
                0x9d014dfc                deinit_eep_manager
                0x9d014e1c                do_eep_manager
                0x9d014fbc                isr_eep_manager_1ms
                0x9d014fe4                eep_manager_ReadAll
                0x9d0151a8                eep_manager_WriteAll_Trigger
                0x9d015210                eep_manager_WriteItem_Trigger
                0x9d015270                eep_manager_WriteAllDefault
                0x9d0152a0                eep_manager_IsBusy
                0x9d015324                eepManagerValid
                0x9d015418                eepManagerEmpty
                0x9d0155d0                eepManagerUpdate
                0x9d015684                eepManagerReadVar
                0x9d015950                eepManagerReadVarBackup
                0x9d015be0                eepManagerWriteVar_Asynch
                0x9d016094                eepManagerFindAddr
                0x9d016170                eepManagerConfigPersistentValue
 .text          0x9d0162b0     0x1470 output\grbl_protocol.o
                0x9d0162b0                init_protocol_main_loop
                0x9d016304                do_protocol_main_loop
                0x9d01665c                isr_protocol_main_loop_1ms
                0x9d01667c                protocol_set_serialCharReceived
                0x9d0166a4                protocol_get_serialCharReceived
                0x9d0166c8                protocol_clear_serialCharReceived
                0x9d0166ec                protocol_set_requestSynchMotion
                0x9d016714                protocol_get_requestSynchMotion
                0x9d016738                protocol_clear_requestSynchMotion
                0x9d01675c                protocol_set_requestDwell
                0x9d016788                protocol_update_requestDwell
                0x9d0167f0                protocol_get_requestDwell
                0x9d01765c                getChar_grbl_protocol
                0x9d0176bc                putChar_grbl_protocol

.text           0x9d017720     0x2380
 .text          0x9d017720     0x1308 output\planner.o
                0x9d017720                plan_next_block_index
                0x9d017be8                plan_reset
                0x9d017c30                plan_reset_buffer
                0x9d017c84                plan_discard_current_block
                0x9d017cf0                plan_get_system_motion_block
                0x9d017d40                plan_get_current_block
                0x9d017dac                plan_get_exec_block_exit_speed_sqr
                0x9d017e34                plan_check_full_buffer
                0x9d017e74                plan_compute_profile_nominal_speed
                0x9d018084                plan_update_velocity_profile_parameters
                0x9d018158                plan_buffer_line
                0x9d01889c                plan_sync_position
                0x9d018918                plan_get_block_buffer_available
                0x9d018984                plan_get_block_buffer_count
                0x9d0189e8                plan_cycle_reinitialize
 .text          0x9d018a28     0x1078 output\UDP.o
                0x9d018a28                UDPInit
                0x9d018a98                UDPOpenEx
                0x9d018c80                UDPTask
                0x9d018fcc                UDPIsOpened
                0x9d019020                UDPClose
                0x9d0190c4                UDPSetTxBuffer
                0x9d019110                UDPSetRxBuffer
                0x9d019160                UDPIsPutReady
                0x9d0191ec                UDPPut
                0x9d019278                UDPPutArray
                0x9d019320                UDPPutString
                0x9d019374                UDPFlush
                0x9d019534                UDPIsGetReady
                0x9d0195c4                UDPGet
                0x9d019648                UDPGetArray
                0x9d019708                UDPDiscard
                0x9d019768                UDPProcess

.text           0x9d019aa0     0x1efc
 .text          0x9d019aa0      0xf80 output\settings.o
                0x9d019aa0                settings_store_build_info
                0x9d019af8                settings_write_coord_data
                0x9d019bb0                write_global_settings
                0x9d019c0c                settings_restore
                0x9d019f58                settings_read_build_info
                0x9d019fac                settings_read_coord_data
                0x9d01a0a0                read_global_settings
                0x9d01a114                settings_store_global_setting
                0x9d01a908                settings_init
                0x9d01a960                get_step_pin_mask
                0x9d01a9c0                get_direction_pin_mask
 .text          0x9d01aa20      0xf7c output\isr.o
                0x9d01aa20                Timer1Handler
                0x9d01ab74                Timer2Handler
                0x9d01acc8                Timer3Handler
                0x9d01ae1c                Timer4Handler
                0x9d01af70                Timer5Handler
                0x9d01aff4                __SPI2Interrupt
                0x9d01b064                __EINT3Interrupt
                0x9d01b0d4                DmaHandler0
                0x9d01b144                DmaHandler1
                0x9d01b1b4                DmaHandler2
                0x9d01b224                DmaHandler3
                0x9d01b294                ChangeNotification
                0x9d01b460                IntUart1Handler
                0x9d01b55c                IntUart2Handler
                0x9d01b648                IntUSB1Handler
                0x9d01b6e0                CoreTimerHandler
                0x9d01b764                init_isr
                0x9d01b970                deinit_isr

.text           0x9d01b99c     0x1d04
 .text          0x9d01b99c      0xf10 output\Helpers.o
                0x9d01b99c                LFSRSeedRand
                0x9d01ba20                LFSRRand
                0x9d01ba98                GenerateRandomDWORD
                0x9d01bad8                StringToIPAddress
                0x9d01be30                uitoa
                0x9d01bf58                ultoa_mla
                0x9d01c07c                hexatob
                0x9d01c170                btohexa_high
                0x9d01c1d4                btohexa_low
                0x9d01c238                stricmppgm2ram
                0x9d01c3a4                swaps
                0x9d01c3f0                swapl
                0x9d01c4d8                CalcIPChecksum
                0x9d01c5ac                strupr
                0x9d01c648                FormatNetBIOSName
                0x9d01c708                strnchr
                0x9d01c7ac                strncpy_m
 .text          0x9d01c8ac      0xdf4 output\motion_control.o
                0x9d01c8ac                do_motion_control
                0x9d01ca6c                isArcGeneratingRunning
                0x9d01caac                isMc_homing_cycleRunning
                0x9d01cae8                mc_line
                0x9d01cb60                mc_arc
                0x9d01d518                mc_dwell
                0x9d01d5b0                mc_homing_cycle
                0x9d01d5e8                mc_stop

.text           0x9d01d6a0      0xda0
 .text          0x9d01d6a0      0xda0 output\limits.o
                0x9d01d6a0                limits_init
                0x9d01d6e4                do_limits
                0x9d01e188                isr_limits_1ms
                0x9d01e1b0                LIMIT_INT_vect
                0x9d01e1e4                limits_disable
                0x9d01e20c                limits_enable
                0x9d01e260                limits_get_state
                0x9d01e2b8                isLimits_go_homeRunning
                0x9d01e2f8                limits_go_home
                0x9d01e330                limits_EXEC_CYCLE_STOP_event
                0x9d01e370                limits_EXEC_SAFETY_DOOR_event
                0x9d01e3bc                limits_soft_check

.text           0x9d007490      0xba8
 .text          0x9d007490      0xba8 output\task.o
                0x9d007490                init_task
                0x9d0074f4                deinit_task
                0x9d007558                do_task
                0x9d0077c0                isr_task_1ms
                0x9d0077f0                clearTaskItem
                0x9d007934                addTask
                0x9d007a14                addTriggerTask
                0x9d007a5c                addSingleShootTimedTask
                0x9d007ad4                addSingleShootTask
                0x9d007b38                findFreeTaskList
                0x9d007bc8                removeTask
                0x9d007c58                suspendTask
                0x9d007c9c                resumeTask
                0x9d007ce4                scheduleTask
                0x9d007d48                changeActivationCycleTask
                0x9d007d94                triggerTask
                0x9d007e20                taskHelperActivator
                0x9d007fec                setTaskName

.text           0x9d01e440     0x13c0
 .text          0x9d01e440      0xa88 output\print.o
                0x9d01e440                printString
                0x9d01e4a4                printPgmString
                0x9d01e508                print_uint8_base10
                0x9d01e650                print_uint8_base2_ndigit
                0x9d01e798                print_uint32_base10
                0x9d01e8a8                print_uint32_base16
                0x9d01e974                print_uint16_base16
                0x9d01ea44                print_uint8_base16
                0x9d01eb14                printInteger
                0x9d01eb84                printFloat
                0x9d01edc8                printFloat_CoordValue
                0x9d01ee48                printFloat_RateValue
 .text          0x9d01eec8      0x938 output\nuts_bolts.o
                0x9d01eec8                do_nuts_bolts
                0x9d01ef6c                isr_nuts_bolts_1ms
                0x9d01ef94                read_float
                0x9d01f284                hypot_f
                0x9d01f2fc                convert_delta_vector_to_unit_vector
                0x9d01f464                limit_value_by_axis_maximum
                0x9d01f598                trunc_my
                0x9d01f5fc                round_my
                0x9d01f654                lround_my
                0x9d01f6a0                setDelayRunning
                0x9d01f6d4                isDelayRunning
                0x9d01f710                isequal_position_vector

.text           0x9d01f800     0x11cc
 .text          0x9d01f800      0x90c output\dee_page.o
                0x9d01f800                init_dee_page
                0x9d01f844                do_dee_page
                0x9d01f874                GetEraseCounter
                0x9d01f8c8                dee_page_update_debug_status
                0x9d01f954                dee_page_mass_erase_page
                0x9d01fa00                dee_page_erase_page
                0x9d01fb00                dee_page_read
                0x9d01fb5c                dee_page_read_status
                0x9d01fbb8                dee_page_read_address
                0x9d01fc18                dee_page_read_data
                0x9d01fc74                dee_page_read_crc
                0x9d01fcd4                dee_page_write_status
                0x9d01fd3c                dee_page_write_address
                0x9d01fdbc                dee_page_write_data
                0x9d01fe38                dee_page_write_crc
                0x9d01feb4                dee_page_read_element
                0x9d01ffa0                dee_page_write_element
 .text          0x9d02010c      0x8c0 output\pwm.o
                0x9d02010c                init_pwm
                0x9d020368                do_pwm
                0x9d020388                setPwmFreq
                0x9d020660                setPwmDuty
                0x9d020760                getPwmDuty
                0x9d0207b0                setPWMRaw

.text           0x9d0209cc      0xed0
 .text          0x9d0209cc      0x884 output\tmr.o
                0x9d0209cc                init_tmr
                0x9d020aac                deinit_tmr
                0x9d020b34                do_tmr
                0x9d020b54                delayms
                0x9d020bd4                initTimer
                0x9d020c28                addTimer
                0x9d020cf0                removeTimer
                0x9d020db8                readTimer
                0x9d020e38                writeTimer
                0x9d020eb4                setTimer
                0x9d020eec                getTimer
                0x9d020f44                isr_tmr4
                0x9d020f64                isr_tmr3
                0x9d020f84                isr_tmr2
                0x9d020fc0                isr_tmr1
                0x9d021178                getGlobalTime
                0x9d0211e4                getGlobalTimeUs
 .text          0x9d021250      0x64c output\ARP.o
                0x9d021250                ARPSendPkt
                0x9d0213fc                ARPInit
                0x9d021488                ARPProcess
                0x9d02164c                ARPResolve
                0x9d021730                ARPIsResolved
                0x9d021810                SwapARPPacket

.dinit          0x9d02189c      0x640
 .dinit         0x9d02189c      0x640 data_init

.text           0x9d021edc      0xc04
 .text          0x9d021edc      0x60c output\ringBuffer.o
                0x9d021edc                ringBuffer_initBuffer
                0x9d021fac                ringBuffer_getFillness
                0x9d022064                ringBuffer_getEmptyness
                0x9d02211c                ringBuffer_addItem
                0x9d0221cc                ringBuffer_getItem
                0x9d0222b8                ringBuffer_readItem
                0x9d0223c8                ringBuffer_addBuffer
                0x9d02245c                ringBuffer_getBuffer
 .text          0x9d0224e8      0x5f8 output\dee_page_helper.o
                0x9d0224e8                GetUnexpiredPage
                0x9d02256c                GetActiveCurrentPage
                0x9d022614                GetActiveCurrentPageCount
                0x9d022698                GetNextPage
                0x9d022720                GetPreviousPage
                0x9d0227a0                GetPageStatus
                0x9d0228b4                SetPageStatus

.text           0x9d022ae0      0xab4
 .text          0x9d022ae0      0x5b0 output\sleep.o
                0x9d022ae0                init_sleep
                0x9d022b28                deinit_sleep
                0x9d022b48                do_sleep
                0x9d022c5c                isr_sleep_1ms
                0x9d022c84                sleepSetRequestRunApp
                0x9d022ce8                sleepClearRequestRunApp
                0x9d022d34                sleepGetRequestRunApp
                0x9d022d70                sleepSetRequestRunDriver
                0x9d022dc8                sleepClearRequestRunDriver
                0x9d022e14                sleepGetRequestRunDriver
                0x9d022e50                sleepGetMainLoopRun
                0x9d022e80                sleepExecuteSleep
                0x9d022eb0                idle_Request
                0x9d022ee0                sleep_Request
                0x9d022f40                executeSleep
 .text          0x9d023090      0x504 output\grbl.o
                0x9d023090                init_grbl
                0x9d023258                do_grbl
                0x9d023300                isr_grbl_1ms
                0x9d023388                isr_grbl_tmr_stepper_delay
                0x9d0233c8                set_grbl_tmr0_trigger
                0x9d023418                set_grbl_tmr0_trigger_Step_Pulse_Delay
                0x9d023468                isr_grbl_tmr_stepper
                0x9d023498                set_grbl_tmr1_period
                0x9d0234f8                set_grbl_tmr1_enabled
                0x9d02352c                set_grbl_tmr1_disabled
                0x9d02355c                isr_grbl_cn

.text           0x9d023594      0x980
 .text          0x9d023594      0x4c4 output\spindle_control.o
                0x9d023594                spindle_init
                0x9d023600                do_spindle
                0x9d023620                spindle_get_state
                0x9d0236cc                spindle_set_state
 .text          0x9d023a58      0x4bc output\grbl_probe.o
                0x9d023a58                probe_init
                0x9d023a90                do_probe
                0x9d023b80                isr_probe_1ms
                0x9d023ba8                probe_configure_invert_mask
                0x9d023c18                probe_get_state
                0x9d023c50                probe_state_monitor
                0x9d023cc8                isProbing_cycleRunning
                0x9d023d08                mc_probe_cycle

.text.dp32mul   0x9d023f14      0x4b8
 .text.dp32mul  0x9d023f14      0x4b8 c:/program files (x86)/microchip/xc32/v2.30/bin/bin/../../lib/gcc/pic32mx/4.8.3/../../../../pic32mx/lib\libm.a(dp32div.o)
                0x9d023f14                __divdf3
                0x9d023f14                dpdiv

.text           0x9d0243cc      0x480
 .text          0x9d0243cc      0x480 output\ethernet.o
                0x9d0243cc                init_ethernet
                0x9d024414                do_ethernet
                0x9d024454                isr_ethernet_1ms
                0x9d02448c                ethernet_set_mac_address
                0x9d024558                hexStringToChar

.text.dreml     0x9d02484c      0x470
 .text.dreml    0x9d02484c      0x470 c:/program files (x86)/microchip/xc32/v2.30/bin/bin/../../lib/gcc/pic32mx/4.8.3/../../../../pic32mx/lib\libm.a(support.o)
                0x9d02484c                dreml

.text           0x9d024cbc      0x434
 .text          0x9d024cbc      0x434 output\ethernet_grbl.o
                0x9d024cbc                init_serial_grbl
                0x9d024d3c                do_serial_grbl
                0x9d024f54                isr_serial_grbl_1ms
                0x9d024f74                isCharInBuffer_grbl
                0x9d024fd0                isCharOutBuffer_grbl
                0x9d02502c                getChar_grbl
                0x9d02508c                putChar_grbl

.text.dp32subadd
                0x9d0250f0      0x430
 .text.dp32subadd
                0x9d0250f0      0x430 c:/program files (x86)/microchip/xc32/v2.30/bin/bin/../../lib/gcc/pic32mx/4.8.3/../../../../pic32mx/lib\libm.a(dp32subadd.o)
                0x9d0250f0                __subdf3
                0x9d0250f0                dpsub
                0x9d0250f8                dpadd
                0x9d0250f8                __adddf3

.text           0x9d025520      0x3f0
 .text          0x9d025520      0x3f0 output\Announce.o
                0x9d025520                AnnounceIP
                0x9d02569c                DiscoveryTask

.rodata         0x9d025910      0x3d8
 .rodata        0x9d025910      0x3d8 output\report.o

.text           0x9d025ce8      0x720
 .text          0x9d025ce8      0x3ac output\eep_manager_crc.o
                0x9d025ce8                calculate_eep_manager_crc
                0x9d025d8c                calculate_eep_manager_xor
                0x9d025e18                calculate_eep_manager_sum
                0x9d025ea4                calculate_eep_manager_crc32
                0x9d025f9c                calculate_eep_manager_crc32_special
 .text          0x9d026094      0x374 output\eeprom.o
                0x9d026094                write_eeprom
                0x9d026160                read_eeprom
                0x9d0261d4                write_eeprom_float
                0x9d02625c                read_eeprom_float
                0x9d0262f0                write_eeprom_word
                0x9d026378                read_eeprom_word

.text.libm      0x9d026408      0x350
 .text.libm     0x9d026408      0x350 c:/program files (x86)/microchip/xc32/v2.30/bin/bin/../../lib/gcc/pic32mx/4.8.3/../../../../pic32mx/lib\libm.a(fpexatan.o)
                0x9d026408                fpexatan

.text           0x9d026758      0x68c
 .text          0x9d026758      0x348 output\IP.o
                0x9d026758                IPGetHeader
                0x9d026898                IPPutHeader
                0x9d0269c4                IPSetRxBuffer
 .text          0x9d026aa0      0x344 output\grbl_eeprom.o
                0x9d026aa0                init_grbl_eeprom
                0x9d026b14                do_grbl_eeprom
                0x9d026ca4                isr_grbl_eeprom_1ms
                0x9d026ccc                grbl_eeprom_trigger
                0x9d026cf4                grbl_eeprom_trigger_items
                0x9d026d1c                grbl_eeprom_trigger_settings
                0x9d026d44                grbl_NotifyUserFailedRead
                0x9d026db4                grbl_reset_eep_messages

.text           0x9d026de4      0x664
 .text          0x9d026de4      0x334 output\Tick.o
                0x9d026de4                TickInit
                0x9d026ea8                TickGet
                0x9d026f1c                TickGetDiv256
                0x9d026f90                TickGetDiv64K
                0x9d027004                TickConvertToMilliseconds
                0x9d02702c                isr_ethernet_tick_1ms
 .text          0x9d027118      0x330 output\stepper_enable.o
                0x9d027118                init_stepper_enable
                0x9d027160                do_stepper_enable
                0x9d0272bc                exceptions_user_callout_grbl
                0x9d0272ec                isr_stepper_enable_1ms
                0x9d027314                stepper_enable_emergency_stop
                0x9d02734c                stepper_enable_emergency_stop_cleared
                0x9d0273e0                stepper_enable_enable
                0x9d02741c                stepper_enable_disable

.text.dp32mul   0x9d027448      0x32c
 .text.dp32mul  0x9d027448      0x32c c:/program files (x86)/microchip/xc32/v2.30/bin/bin/../../lib/gcc/pic32mx/4.8.3/../../../../pic32mx/lib\libm.a(dp32mul.o)
                0x9d027448                __muldf3
                0x9d027448                dpmul

.text           0x9d027774      0x5d8
 .text          0x9d027774      0x310 output\main.o
                0x9d027774                main
                0x9d0279bc                isr_main_1ms
                0x9d027a54                isr_main_100us
 .text          0x9d027a84      0x2c8 output\exceptions.o
                0x9d027a84                _general_exception_handler
                0x9d027cd8                do_exception_examples
                0x9d027cf8                exceptions_clearException
                0x9d027d1c                exceptions_getException

.text           0x9d027d4c      0x568
 .text          0x9d027d4c      0x2b8 output\grbl_toolchange.o
                0x9d027d4c                init_grbl_toolchange
                0x9d027d80                do_grbl_toolchange
                0x9d027f30                isr_grbl_toolchange_1ms
                0x9d027f58                setToolChangeRunning
                0x9d027fb0                updateToolChangeRunning
                0x9d027fd4                isToolChangeRunning
 .text          0x9d028004      0x2b0 output\StackTsk.o
                0x9d028004                StackInit
                0x9d028070                StackTask
                0x9d028244                StackApplications

.text.fpsubadd  0x9d0282b4      0x278
 .text.fpsubadd
                0x9d0282b4      0x278 c:/program files (x86)/microchip/xc32/v2.30/bin/bin/../../lib/gcc/pic32mx/4.8.3/../../../../pic32mx/lib\libm.a(fp32subadd.o)
                0x9d0282b4                fpsub
                0x9d0282b4                __subsf3
                0x9d0282bc                __addsf3
                0x9d0282bc                fpadd

.text.libm      0x9d02852c      0x248
 .text.libm     0x9d02852c      0x248 c:/program files (x86)/microchip/xc32/v2.30/bin/bin/../../lib/gcc/pic32mx/4.8.3/../../../../pic32mx/lib\libm.a(fpatan2.o)
                0x9d02852c                __mchp_atan2f
                0x9d02852c                fpatan2

.text           0x9d028774      0x230
 .text          0x9d028774      0x230 output\system_control.o
                0x9d028774                init_system_control
                0x9d028794                do_system_control
                0x9d0287c4                isr_system_control_1ms
                0x9d0287ec                CONTROL_INT_vect
                0x9d028814                system_control_get_state

.text.fp32div   0x9d0289a4      0x230
 .text.fp32div  0x9d0289a4      0x230 c:/program files (x86)/microchip/xc32/v2.30/bin/bin/../../lib/gcc/pic32mx/4.8.3/../../../../pic32mx/lib\libm.a(fp32div.o)
                0x9d0289a4                fpdiv
                0x9d0289a4                __divsf3

.text           0x9d028bd4      0x3f8
 .text          0x9d028bd4      0x20c output\mal.o
                0x9d028bd4                mal_reset
                0x9d028bec                mal_reset_reason
 .text          0x9d028de0      0x1ec output\ad.o
                0x9d028de0                init_ad
                0x9d028eb0                do_ad
                0x9d028f2c                isr_ad_1ms
                0x9d028f78                getAd

.text.atan2f    0x9d028fcc      0x1e0
 .text.atan2f   0x9d028fcc      0x1e0 c:/program files (x86)/microchip/xc32/v2.30/bin/bin/../../lib/gcc/pic32mx/4.8.3/../../../../pic32mx/lib\libm.a(w_atan2f.o)
                0x9d028fcc                atan2f

.text.fp32mul   0x9d0291ac      0x1bc
 .text.fp32mul  0x9d0291ac      0x1bc c:/program files (x86)/microchip/xc32/v2.30/bin/bin/../../lib/gcc/pic32mx/4.8.3/../../../../pic32mx/lib\libm.a(fp32mul.o)
                0x9d0291ac                fpmul
                0x9d0291ac                __mulsf3

.text.libm      0x9d029368      0x1ac
 .text.libm     0x9d029368      0x1ac c:/program files (x86)/microchip/xc32/v2.30/bin/bin/../../lib/gcc/pic32mx/4.8.3/../../../../pic32mx/lib\libm.a(fpsqrt32.o)
                0x9d029368                fpsqrt
                0x9d029368                __mchp_sqrtf

.text           0x9d029514      0x304
 .text          0x9d029514      0x188 output\grbl_running.o
                0x9d029514                init_grbl_running
                0x9d029534                do_grbl_running
                0x9d029654                isr_grbl_running_1ms
 .text          0x9d02969c      0x17c output\coolant_control.o
                0x9d02969c                coolant_init
                0x9d0296d4                coolant_get_state
                0x9d02972c                coolant_stop
                0x9d029754                coolant_set_state
                0x9d0297d8                coolant_sync

.text           0x9d029818      0x174
 .text          0x9d029818      0x174 output\system_exec.o
                0x9d029818                system_set_exec_state_flag
                0x9d029894                system_clear_exec_state_flag
                0x9d029920                system_get_exec_state_flag

.text.libm      0x9d02998c      0x16c
 .text.libm     0x9d02998c      0x16c c:/program files (x86)/microchip/xc32/v2.30/bin/bin/../../lib/gcc/pic32mx/4.8.3/../../../../pic32mx/lib\libm.a(dpldexp.o)
                0x9d02998c                ldexp
                0x9d02998c                dpldexp
                0x9d02998c                __mchp_ldexp

.rodata         0x9d029af8      0x168
 .rodata        0x9d029af8      0x168 output\c_eep_manager.o
                0x9d029af8                default_eep_settings_version
                0x9d029afc                default_eep_settings
                0x9d029b5c                default_eep_build_info
                0x9d029bac                default_eep_coord_data
                0x9d029c24                default_sys_position
                0x9d029c30                default_coord_system_eep
                0x9d029c3c                default_coord_offset_eep
                0x9d029c48                default_grbl_running_running_minutes
                0x9d029c4c                default_grbl_running_running_hours
                0x9d029c50                default_grbl_running_startup_cnt
                0x9d029c54                default_grbl_running_spindle_running_minutes
                0x9d029c58                default_SerializedMACAddress

.text           0x9d029c60      0x2d0
 .text          0x9d029c60      0x168 c:/program files (x86)/microchip/xc32/v2.30/bin/bin/../../lib/gcc/pic32mx/4.8.3/../../../../pic32mx/lib\libpic32.a(memcpy.o)
                0x9d029c60                memcpy
 .text          0x9d029dc8      0x168 c:/program files (x86)/microchip/xc32/v2.30/bin/bin/../../lib/gcc/pic32mx/4.8.3/../../../../pic32mx/lib\libpic32.a(strlen.o)
                0x9d029dc8                strlen

.text           0x9d029f30      0x2c8
 .text          0x9d029f30      0x164 output\stackmeasure.o
                0x9d029f30                init_stackmeasure
                0x9d029f98                do_stackmeasure
                0x9d02a02c                getStackFillnessMax
                0x9d02a05c                getStackSize
 .text          0x9d02a094      0x164 output\grbl_bootloader.o
                0x9d02a094                init_grbl_bootloader
                0x9d02a0c8                do_grbl_bootloader
                0x9d02a1a8                isr_grbl_bootloader_1ms
                0x9d02a1d0                grbl_bootloader_trigger

.text           0x9d02a1f8      0x2b4
 .text          0x9d02a1f8      0x160 output\app.o
                0x9d02a1f8                init_app
                0x9d02a238                do_app
                0x9d02a268                appSingleShoot1
                0x9d02a288                isr_app_1ms
                0x9d02a2a8                isr_app_100us
                0x9d02a2c8                isr_app_custom
                0x9d02a2e8                backToSleep
                0x9d02a310                eepManager_NotifyUserFailedRead
 .text          0x9d02a358      0x154 output\ICMP.o
                0x9d02a358                ICMPProcess

.text           0x9d02a4ac      0x138
 .text          0x9d02a4ac      0x138 output\system_alarm.o
                0x9d02a4ac                system_set_exec_alarm
                0x9d02a518                system_get_exec_alarm
                0x9d02a584                system_clear_exec_alarm

.text.dpcmp     0x9d02a5e4      0x12c
 .text.dpcmp    0x9d02a5e4      0x12c c:/program files (x86)/microchip/xc32/v2.30/bin/bin/../../lib/gcc/pic32mx/4.8.3/../../../../pic32mx/lib\libm.a(dpcmp.o)
                0x9d02a5e4                __gtdf2
                0x9d02a5e4                __ltdf2
                0x9d02a5e4                dpcmp
                0x9d02a5e4                __ledf2
                0x9d02a5e4                __nedf2
                0x9d02a5e4                __gedf2
                0x9d02a5e4                __eqdf2

.text.logbl     0x9d02a710      0x124
 .text.logbl    0x9d02a710      0x124 c:/program files (x86)/microchip/xc32/v2.30/bin/bin/../../lib/gcc/pic32mx/4.8.3/../../../../pic32mx/lib\libm.a(support.o)
                0x9d02a710                logbl

.text           0x9d02a834      0x120
 .text          0x9d02a834      0x120 c:/program files (x86)/microchip/xc32/v2.30/bin/bin/../../lib/gcc/pic32mx/4.8.3/../../../../pic32mx/lib\libpic32.a(strcmp.o)
                0x9d02a834                strcmp

.text.libm      0x9d02a954      0x234
 .text.libm     0x9d02a954      0x11c c:/program files (x86)/microchip/xc32/v2.30/bin/bin/../../lib/gcc/pic32mx/4.8.3/../../../../pic32mx/lib\libm.a(fpsin32.o)
                0x9d02a954                sinf
                0x9d02a954                fpsin
 .text.libm     0x9d02aa70      0x118 c:/program files (x86)/microchip/xc32/v2.30/bin/bin/../../lib/gcc/pic32mx/4.8.3/../../../../pic32mx/lib\libm.a(fpcos32.o)
                0x9d02aa70                cosf
                0x9d02aa70                fpcos

.text._NVMOperation
                0x9d02ab88      0x114
 .text._NVMOperation
                0x9d02ab88      0x114 c:/program files (x86)/microchip/xc32/v2.30/bin/bin/../../lib/gcc/pic32mx/4.8.3/../../../../pic32mx/lib\libmchp_peripheral_32MX470F512L.a(nvm_operation_lib.o)
                0x9d02ab88                _NVMOperation

.text.PowerSaveIdle
                0x9d02ac9c      0x110
 .text.PowerSaveIdle
                0x9d02ac9c      0x110 c:/program files (x86)/microchip/xc32/v2.30/bin/bin/../../lib/gcc/pic32mx/4.8.3/../../../../pic32mx/lib\libmchp_peripheral_32MX470F512L.a(power_idle_lib.o)
                0x9d02ac9c                PowerSaveIdle

.text.PowerSaveSleep
                0x9d02adac      0x110
 .text.PowerSaveSleep
                0x9d02adac      0x110 c:/program files (x86)/microchip/xc32/v2.30/bin/bin/../../lib/gcc/pic32mx/4.8.3/../../../../pic32mx/lib\libmchp_peripheral_32MX470F512L.a(power_sleep_lib.o)
                0x9d02adac                PowerSaveSleep

.text.libm      0x9d02aebc      0x10c
 .text.libm     0x9d02aebc      0x10c c:/program files (x86)/microchip/xc32/v2.30/bin/bin/../../lib/gcc/pic32mx/4.8.3/../../../../pic32mx/lib\libm.a(fpreduct32.o)
                0x9d02aebc                fpreduct

.rodata         0x9d02afc8      0x100
 .rodata        0x9d02afc8      0x100 output\eep_manager_crc.o
                0x9d02afc8                crcTableEepManager

.text.strncpy   0x9d02b0c8      0x100
 .text.strncpy  0x9d02b0c8      0x100 c:/program files (x86)/microchip/xc32/v2.30/bin/bin/../../lib/gcc/pic32mx/4.8.3/../../../../pic32mx/lib\liblega-c.a(strncpy.o)
                0x9d02b0c8                strncpy

.text.dptofp    0x9d02b1c8      0x100
 .text.dptofp   0x9d02b1c8      0x100 c:/program files (x86)/microchip/xc32/v2.30/bin/bin/../../lib/gcc/pic32mx/4.8.3/../../../../pic32mx/lib\libm.a(dptofp.o)
                0x9d02b1c8                __truncdfsf2
                0x9d02b1c8                dptofp

.text.libm.fpexsqrt
                0x9d02b2c8       0xfc
 .text.libm.fpexsqrt
                0x9d02b2c8       0xfc c:/program files (x86)/microchip/xc32/v2.30/bin/bin/../../lib/gcc/pic32mx/4.8.3/../../../../pic32mx/lib\libm.a(fpexsqrt32.o)
                0x9d02b2c8                fpexsqrt

.text           0x9d02b3c4       0xf0
 .text          0x9d02b3c4       0xf0 output\jog.o
                0x9d02b3c4                jog_execute

.text.strncmp   0x9d02b4b4       0xe0
 .text.strncmp  0x9d02b4b4       0xe0 c:/program files (x86)/microchip/xc32/v2.30/bin/bin/../../lib/gcc/pic32mx/4.8.3/../../../../pic32mx/lib\liblega-c.a(strncmp.o)
                0x9d02b4b4                strncmp

.text.general_exception
                0x9d02b594       0xdc
 .text.general_exception
                0x9d02b594       0xdc c:/program files (x86)/microchip/xc32/v2.30/bin/bin/../../lib/gcc/pic32mx/4.8.3/../../../../pic32mx/lib\libpic32.a(general-exception.o)
                0x9d02b594                _general_exception_context

.text           0x9d02b670       0xd4
 .text          0x9d02b670       0xd4 output\Delay.o
                0x9d02b670                DelayMs
                0x9d02b6ec                Delay10us

.text.libm      0x9d008038       0xb4
 .text.libm     0x9d008038       0xb4 c:/program files (x86)/microchip/xc32/v2.30/bin/bin/../../lib/gcc/pic32mx/4.8.3/../../../../pic32mx/lib\libm.a(fpfloo32.o)
                0x9d008038                floorf
                0x9d008038                fpfloor

.text.libm      0x9d02b744       0xb0
 .text.libm     0x9d02b744       0xb0 c:/program files (x86)/microchip/xc32/v2.30/bin/bin/../../lib/gcc/pic32mx/4.8.3/../../../../pic32mx/lib\libm.a(fpceil32.o)
                0x9d02b744                ceilf
                0x9d02b744                fpceil

.text.fptodp    0x9d02b7f4       0xac
 .text.fptodp   0x9d02b7f4       0xac c:/program files (x86)/microchip/xc32/v2.30/bin/bin/../../lib/gcc/pic32mx/4.8.3/../../../../pic32mx/lib\libm.a(fptodp.o)
                0x9d02b7f4                fptodp
                0x9d02b7f4                __extendsfdf2

.text           0x9d02b8a0      0x14c
 .text          0x9d02b8a0       0xa8 c:/program files (x86)/microchip/xc32/v2.30/bin/bin/../../lib/gcc/pic32mx/4.8.3/../../../../pic32mx/lib\libpic32.a(memset.o)
                0x9d02b8a0                memset
 .text          0x9d02b948       0xa4 c:/program files (x86)/microchip/xc32/v2.30/bin/bin/../../lib/gcc/pic32mx/4.8.3\libgcc.a(_fixunssfdi.o)
                0x9d02b948                __fixunssfdi

.text.fpcmp     0x9d02b9ec       0x9c
 .text.fpcmp    0x9d02b9ec       0x9c c:/program files (x86)/microchip/xc32/v2.30/bin/bin/../../lib/gcc/pic32mx/4.8.3/../../../../pic32mx/lib\libm.a(fpcmp.o)
                0x9d02b9ec                __nesf2
                0x9d02b9ec                __gtsf2
                0x9d02b9ec                __eqsf2
                0x9d02b9ec                __ltsf2
                0x9d02b9ec                fpcmp
                0x9d02b9ec                __gesf2
                0x9d02b9ec                __lesf2

.text           0x9d02ba88       0x90
 .text          0x9d02ba88       0x90 c:/program files (x86)/microchip/xc32/v2.30/bin/bin/../../lib/gcc/pic32mx/4.8.3\libgcc.a(_floatundisf.o)
                0x9d02ba88                __floatundisf

.text.dptoul    0x9d02bb18       0x8c
 .text.dptoul   0x9d02bb18       0x8c c:/program files (x86)/microchip/xc32/v2.30/bin/bin/../../lib/gcc/pic32mx/4.8.3/../../../../pic32mx/lib\libm.a(dptoul.o)
                0x9d02bb18                dptoul
                0x9d02bb18                __fixunsdfsi

.text           0x9d02bba4       0x84
 .text          0x9d02bba4       0x84 c:/program files (x86)/microchip/xc32/v2.30/bin/bin/../../lib/gcc/pic32mx/4.8.3/../../../../pic32mx/lib\libpic32.a(pic32_data_init.o)
                0x9d02bba4                __pic32_data_init

.text.fptoli    0x9d02bc28       0x80
 .text.fptoli   0x9d02bc28       0x80 c:/program files (x86)/microchip/xc32/v2.30/bin/bin/../../lib/gcc/pic32mx/4.8.3/../../../../pic32mx/lib\libm.a(fptoli.o)
                0x9d02bc28                fptoli
                0x9d02bc28                fptosi
                0x9d02bc28                __fixsfsi

.text.SoftReset
                0x9d02bca8       0x7c
 .text.SoftReset
                0x9d02bca8       0x7c c:/program files (x86)/microchip/xc32/v2.30/bin/bin/../../lib/gcc/pic32mx/4.8.3/../../../../pic32mx/lib\libmchp_peripheral_32MX470F512L.a(soft_reset_lib.o)
                0x9d02bca8                SoftReset

.text.fptoul    0x9d02bd24       0x7c
 .text.fptoul   0x9d02bd24       0x7c c:/program files (x86)/microchip/xc32/v2.30/bin/bin/../../lib/gcc/pic32mx/4.8.3/../../../../pic32mx/lib\libm.a(fptoul.o)
                0x9d02bd24                __fixunssfsi
                0x9d02bd24                fptoul
                0x9d02bd24                fptoui

.text.litodp    0x9d02bda0       0x78
 .text.litodp   0x9d02bda0       0x78 c:/program files (x86)/microchip/xc32/v2.30/bin/bin/../../lib/gcc/pic32mx/4.8.3/../../../../pic32mx/lib\libm.a(litodp.o)
                0x9d02bda0                litodp
                0x9d02bda0                __floatsidf

.text           0x9d02be18       0x74
 .text          0x9d02be18       0x74 output\bootloader_interface.o
                0x9d02be18                bootloader_interface_clearRequest
                0x9d02be4c                bootloader_interface_setRequest

.text           0x9d02be90       0x70
 .text          0x9d02be90       0x70 output\stackmeasure_helper.o
                0x9d02be90                fill_stack
                0x9d02bebc                stack_usage

.text.sqrtf     0x9d02bf00       0x68
 .text.sqrtf    0x9d02bf00       0x68 c:/program files (x86)/microchip/xc32/v2.30/bin/bin/../../lib/gcc/pic32mx/4.8.3/../../../../pic32mx/lib\libm.a(w_sqrtf.o)
                0x9d02bf00                sqrtf

.text.sitofp    0x9d02bf68       0x60
 .text.sitofp   0x9d02bf68       0x60 c:/program files (x86)/microchip/xc32/v2.30/bin/bin/../../lib/gcc/pic32mx/4.8.3/../../../../pic32mx/lib\libm.a(sitofp.o)
                0x9d02bf68                __floatsisf
                0x9d02bf68                litofp
                0x9d02bf68                sitofp

.text.copysign  0x9d02bfc8       0x60
 .text.copysign
                0x9d02bfc8       0x60 c:/program files (x86)/microchip/xc32/v2.30/bin/bin/../../lib/gcc/pic32mx/4.8.3/../../../../pic32mx/lib\libm.a(support.o)
                0x9d02bfc8                copysign

.text.copysignf
                0x9d02c028       0x60
 .text.copysignf
                0x9d02c028       0x60 c:/program files (x86)/microchip/xc32/v2.30/bin/bin/../../lib/gcc/pic32mx/4.8.3/../../../../pic32mx/lib\libm.a(support.o)
                0x9d02c028                copysignf

.text.main_entry
                0x9d02c088       0x54
 .text.main_entry
                0x9d02c088       0x54 C:\Users\Xeon5430\AppData\Local\Temp\cc0y46GM.o
                0x9d02c0bc                __crt0_exit

.text           0x9d02c0dc       0x4c
 .text          0x9d02c0dc       0x4c c:/program files (x86)/microchip/xc32/v2.30/bin/bin/../../lib/gcc/pic32mx/4.8.3\libgcc.a(floatunsisf.o)
                0x9d02c0dc                __floatunsisf

.text._bootstrap_exception_handler
                0x9d02c128       0x48
 .text._bootstrap_exception_handler
                0x9d02c128       0x48 c:/program files (x86)/microchip/xc32/v2.30/bin/bin/../../lib/gcc/pic32mx/4.8.3/../../../../pic32mx/lib\libpic32.a(default-bootstrap-exception-handler.o)
                0x9d02c128                _bootstrap_exception_handler

.vector_default
                0x9d02c170       0x48
 .vector_default
                0x9d02c170       0x48 c:/program files (x86)/microchip/xc32/v2.30/bin/bin/../../lib/gcc/pic32mx/4.8.3/../../../../pic32mx/lib\libpic32.a(defaultinterrupt.o)
                0x9d02c170                _DefaultInterrupt

.text           0x9d02c1b8       0x88
 .text          0x9d02c1b8       0x44 c:/program files (x86)/microchip/xc32/v2.30/bin/bin/../../lib/gcc/pic32mx/4.8.3/../../../../pic32mx/lib\pic32_software_reset.o
                0x9d02c1b8                __pic32_software_reset
 .text          0x9d02c1fc       0x44 c:/program files (x86)/microchip/xc32/v2.30/bin/bin/../../lib/gcc/pic32mx/4.8.3\libgcc.a(floatunsidf.o)
                0x9d02c1fc                __floatunsidf

.rodata         0x9d02c240       0x34
 .rodata        0x9d02c240       0x34 output\settings.o

.text.NVMWriteWord
                0x9d02c274       0x34
 .text.NVMWriteWord
                0x9d02c274       0x34 c:/program files (x86)/microchip/xc32/v2.30/bin/bin/../../lib/gcc/pic32mx/4.8.3/../../../../pic32mx/lib\libmchp_peripheral_32MX470F512L.a(nvm_write_word_lib.o)
                0x9d02c274                NVMWriteWord

.text.copysignl
                0x9d02c2a8       0x34
 .text.copysignl
                0x9d02c2a8       0x34 c:/program files (x86)/microchip/xc32/v2.30/bin/bin/../../lib/gcc/pic32mx/4.8.3/../../../../pic32mx/lib\libm.a(support.o)
                0x9d02c2a8                copysignl

.text.logb      0x9d02c2dc       0x34
 .text.logb     0x9d02c2dc       0x34 c:/program files (x86)/microchip/xc32/v2.30/bin/bin/../../lib/gcc/pic32mx/4.8.3/../../../../pic32mx/lib\libm.a(support.o)
                0x9d02c2dc                logb

.text.logbf     0x9d02c310       0x34
 .text.logbf    0x9d02c310       0x34 c:/program files (x86)/microchip/xc32/v2.30/bin/bin/../../lib/gcc/pic32mx/4.8.3/../../../../pic32mx/lib\libm.a(support.o)
                0x9d02c310                logbf

.text.finite    0x9d02c344       0x34
 .text.finite   0x9d02c344       0x34 c:/program files (x86)/microchip/xc32/v2.30/bin/bin/../../lib/gcc/pic32mx/4.8.3/../../../../pic32mx/lib\libm.a(support.o)
                0x9d02c344                finite

.text.finitef   0x9d02c378       0x34
 .text.finitef  0x9d02c378       0x34 c:/program files (x86)/microchip/xc32/v2.30/bin/bin/../../lib/gcc/pic32mx/4.8.3/../../../../pic32mx/lib\libm.a(support.o)
                0x9d02c378                finitef

.text.NVMErasePage
                0x9d02c3ac       0x2c
 .text.NVMErasePage
                0x9d02c3ac       0x2c c:/program files (x86)/microchip/xc32/v2.30/bin/bin/../../lib/gcc/pic32mx/4.8.3/../../../../pic32mx/lib\libmchp_peripheral_32MX470F512L.a(nvm_erase_page_lib.o)
                0x9d02c3ac                NVMErasePage

.rodata         0x9d02c3d8       0x50
 .rodata        0x9d02c3d8       0x28 output\pwm.o
 .rodata        0x9d02c400       0x28 c:/program files (x86)/microchip/xc32/v2.30/bin/bin/../../lib/gcc/pic32mx/4.8.3/../../../../pic32mx/lib\libm.a(w_atan2f.o)

.text.drem      0x9d02c428       0x28
 .text.drem     0x9d02c428       0x28 c:/program files (x86)/microchip/xc32/v2.30/bin/bin/../../lib/gcc/pic32mx/4.8.3/../../../../pic32mx/lib\libm.a(support.o)
                0x9d02c428                drem

.text.dremf     0x9d02c450       0x28
 .text.dremf    0x9d02c450       0x28 c:/program files (x86)/microchip/xc32/v2.30/bin/bin/../../lib/gcc/pic32mx/4.8.3/../../../../pic32mx/lib\libm.a(support.o)
                0x9d02c450                dremf

.rodata         0x9d02c478       0x24
 .rodata        0x9d02c478       0x24 output\motion_control.o

.rodata         0x9d02c4a0       0x3c
 .rodata        0x9d02c4a0       0x20 c:/program files (x86)/microchip/xc32/v2.30/bin/bin/../../lib/gcc/pic32mx/4.8.3/../../../../pic32mx/lib\libm.a(support.o)
 .rodata        0x9d02c4c0       0x1c output\gcode.o

.rodata         0x9d02c4dc       0x38
 .rodata        0x9d02c4dc       0x1c output\nuts_bolts.o
 .rodata        0x9d02c4f8       0x1c output\grbl_protocol.o

.rodata         0x9d02c514       0x1c
 .rodata        0x9d02c514       0x1c output\Announce.o

.text.INTRestoreInterrupts
                0x9d02c530       0x1c
 .text.INTRestoreInterrupts
                0x9d02c530       0x1c c:/program files (x86)/microchip/xc32/v2.30/bin/bin/../../lib/gcc/pic32mx/4.8.3/../../../../pic32mx/lib\libmchp_peripheral_32MX470F512L.a(int_restore_interrupts_lib.o)
                0x9d02c530                INTRestoreInterrupts

.text.finitel   0x9d02c54c       0x1c
 .text.finitel  0x9d02c54c       0x1c c:/program files (x86)/microchip/xc32/v2.30/bin/bin/../../lib/gcc/pic32mx/4.8.3/../../../../pic32mx/lib\libm.a(support.o)
                0x9d02c54c                finitel

.rodata         0x9d02c568       0x18
 .rodata        0x9d02c568       0x18 output\planner.o

.text.CheKseg0CacheOff
                0x9d02c580       0x18
 .text.CheKseg0CacheOff
                0x9d02c580       0x18 c:/program files (x86)/microchip/xc32/v2.30/bin/bin/../../lib/gcc/pic32mx/4.8.3/../../../../pic32mx/lib\libmchp_peripheral_32MX470F512L.a(pcache.o)
                0x9d02c580                CheKseg0CacheOff

.text.CheKseg0CacheOn
                0x9d02c598       0x18
 .text.CheKseg0CacheOn
                0x9d02c598       0x18 c:/program files (x86)/microchip/xc32/v2.30/bin/bin/../../lib/gcc/pic32mx/4.8.3/../../../../pic32mx/lib\libmchp_peripheral_32MX470F512L.a(pcache.o)
                0x9d02c598                CheKseg0CacheOn

.text           0x9d02c5b0       0x18
 .text          0x9d02c5b0       0x18 c:/program files (x86)/microchip/xc32/v2.30/bin/bin/../../lib/gcc/pic32mx/4.8.3/../../../../pic32mx/lib\libpic32.a(default-nmi-handler.o)
                0x9d02c5b0                _nmi_handler

.rodata         0x9d00810c       0x14
 .rodata        0x9d00810c       0x14 output\limits.o

.rodata         0x9d00812c       0x10
 .rodata        0x9d00812c       0x10 output\sleep.o

.rodata         0x9d0080ec       0x10
 .rodata        0x9d0080ec       0x10 output\app.o

.rodata         0x9d02c5c8       0x20
 .rodata        0x9d02c5c8       0x10 output\print.o
 .rodata        0x9d02c5d8       0x10 output\stepper.o

.rodata         0x9d02c5e8       0x1c
 .rodata        0x9d02c5e8       0x10 c:/program files (x86)/microchip/xc32/v2.30/bin/bin/../../lib/gcc/pic32mx/4.8.3\libgcc.a(_fixunssfdi.o)
 .rodata        0x9d02c5f8        0xc output\spindle_control.o

.rodata         0x9d02c604        0xc
 .rodata        0x9d02c604        0xc output\ethernet.o

.text.INTDisableInterrupts
                0x9d02c610        0x8
 .text.INTDisableInterrupts
                0x9d02c610        0x8 c:/program files (x86)/microchip/xc32/v2.30/bin/bin/../../lib/gcc/pic32mx/4.8.3/../../../../pic32mx/lib\libmchp_peripheral_32MX470F512L.a(int_disable_interrupts_lib.o)
                0x9d02c610                INTDisableInterrupts

.rodata         0x9d02c618       0x10
 .rodata        0x9d02c618        0x8 c:/program files (x86)/microchip/xc32/v2.30/bin/bin/../../lib/gcc/pic32mx/4.8.3\libgcc.a(_floatundisf.o)
 .rodata        0x9d02c620        0x8 c:/program files (x86)/microchip/xc32/v2.30/bin/bin/../../lib/gcc/pic32mx/4.8.3\libgcc.a(floatunsidf.o)

.text._on_reset
                0x9d02c628        0x8
 .text._on_reset
                0x9d02c628        0x8 c:/program files (x86)/microchip/xc32/v2.30/bin/bin/../../lib/gcc/pic32mx/4.8.3/../../../../pic32mx/lib\libpic32.a(default-on-reset.o)
                0x9d02c628                _on_reset

.text._on_bootstrap
                0x9d02c630        0x8
 .text._on_bootstrap
                0x9d02c630        0x8 c:/program files (x86)/microchip/xc32/v2.30/bin/bin/../../lib/gcc/pic32mx/4.8.3/../../../../pic32mx/lib\libpic32.a(default-on-bootstrap.o)
                0x9d02c630                _on_bootstrap

.text%z298      0x00000000        0x0
 .text          0x00000000        0x0 c:/program files (x86)/microchip/xc32/v2.30/bin/bin/../../lib/gcc/pic32mx/4.8.3/../../../../pic32mx/lib\libpic32.a(errno.o)

.text%z299      0x00000000        0x0
 .text          0x00000000        0x0 c:/program files (x86)/microchip/xc32/v2.30/bin/bin/../../lib/gcc/pic32mx/4.8.3/../../../../pic32mx/lib\libm.a(s_lib_ver.o)

.text%z300      0x00000000        0x0
 .text          0x00000000        0x0 c:/program files (x86)/microchip/xc32/v2.30/bin/bin/../../lib/gcc/pic32mx/4.8.3/../../../../pic32mx/lib\libm.a(fpsqrt32.o)

.text%z301      0x00000000        0x0
 .text          0x00000000        0x0 c:/program files (x86)/microchip/xc32/v2.30/bin/bin/../../lib/gcc/pic32mx/4.8.3/../../../../pic32mx/lib\libm.a(fpexsqrt32.o)

.text.fpexatan%z302
                0x00000000        0x0
 .text.fpexatan
                0x00000000        0x0 c:/program files (x86)/microchip/xc32/v2.30/bin/bin/../../lib/gcc/pic32mx/4.8.3/../../../../pic32mx/lib\libm.a(fpexatan.o)

.text%z303      0x00000000        0x0
 .text          0x00000000        0x0 c:/program files (x86)/microchip/xc32/v2.30/bin/bin/../../lib/gcc/pic32mx/4.8.3/../../../../pic32mx/lib\libm.a(fpexatan.o)

.text%z304      0x00000000        0x0
 .text          0x00000000        0x0 c:/program files (x86)/microchip/xc32/v2.30/bin/bin/../../lib/gcc/pic32mx/4.8.3/../../../../pic32mx/lib\libm.a(fpatan2.o)

.text%z305      0x00000000        0x0
 .text          0x00000000        0x0 c:/program files (x86)/microchip/xc32/v2.30/bin/bin/../../lib/gcc/pic32mx/4.8.3/../../../../pic32mx/lib\libm.a(dpcmp.o)

.text%z306      0x00000000        0x0
 .text          0x00000000        0x0 c:/program files (x86)/microchip/xc32/v2.30/bin/bin/../../lib/gcc/pic32mx/4.8.3/../../../../pic32mx/lib\libm.a(dp32div.o)

.text%z307      0x00000000        0x0
 .text          0x00000000        0x0 c:/program files (x86)/microchip/xc32/v2.30/bin/bin/../../lib/gcc/pic32mx/4.8.3/../../../../pic32mx/lib\libm.a(dpldexp.o)

.text%z308      0x00000000        0x0
 .text          0x00000000        0x0 c:/program files (x86)/microchip/xc32/v2.30/bin/bin/../../lib/gcc/pic32mx/4.8.3/../../../../pic32mx/lib\libm.a(support.o)

.text%z309      0x00000000        0x0
 .text          0x00000000        0x0 c:/program files (x86)/microchip/xc32/v2.30/bin/bin/../../lib/gcc/pic32mx/4.8.3/../../../../pic32mx/lib\libm.a(w_sqrtf.o)

.text%z310      0x00000000        0x0
 .text          0x00000000        0x0 c:/program files (x86)/microchip/xc32/v2.30/bin/bin/../../lib/gcc/pic32mx/4.8.3/../../../../pic32mx/lib\libm.a(w_atan2f.o)

.text%z311      0x00000000        0x0
 .text          0x00000000        0x0 c:/program files (x86)/microchip/xc32/v2.30/bin/bin/../../lib/gcc/pic32mx/4.8.3/../../../../pic32mx/lib\libm.a(sitofp.o)

.text%z312      0x00000000        0x0
 .text          0x00000000        0x0 c:/program files (x86)/microchip/xc32/v2.30/bin/bin/../../lib/gcc/pic32mx/4.8.3/../../../../pic32mx/lib\libm.a(sincof32.o)

.text%z313      0x00000000        0x0
 .text          0x00000000        0x0 c:/program files (x86)/microchip/xc32/v2.30/bin/bin/../../lib/gcc/pic32mx/4.8.3/../../../../pic32mx/lib\libm.a(litodp.o)

.text%z314      0x00000000        0x0
 .text          0x00000000        0x0 c:/program files (x86)/microchip/xc32/v2.30/bin/bin/../../lib/gcc/pic32mx/4.8.3/../../../../pic32mx/lib\libm.a(fptoul.o)

.text%z315      0x00000000        0x0
 .text          0x00000000        0x0 c:/program files (x86)/microchip/xc32/v2.30/bin/bin/../../lib/gcc/pic32mx/4.8.3/../../../../pic32mx/lib\libm.a(fptoli.o)

.text%z316      0x00000000        0x0
 .text          0x00000000        0x0 c:/program files (x86)/microchip/xc32/v2.30/bin/bin/../../lib/gcc/pic32mx/4.8.3/../../../../pic32mx/lib\libm.a(fptodp.o)

.text%z317      0x00000000        0x0
 .text          0x00000000        0x0 c:/program files (x86)/microchip/xc32/v2.30/bin/bin/../../lib/gcc/pic32mx/4.8.3/../../../../pic32mx/lib\libm.a(fpsin32.o)

.text%z318      0x00000000        0x0
 .text          0x00000000        0x0 c:/program files (x86)/microchip/xc32/v2.30/bin/bin/../../lib/gcc/pic32mx/4.8.3/../../../../pic32mx/lib\libm.a(fpreduct32.o)

.text%z319      0x00000000        0x0
 .text          0x00000000        0x0 c:/program files (x86)/microchip/xc32/v2.30/bin/bin/../../lib/gcc/pic32mx/4.8.3/../../../../pic32mx/lib\libm.a(fpfloo32.o)

.text%z320      0x00000000        0x0
 .text          0x00000000        0x0 c:/program files (x86)/microchip/xc32/v2.30/bin/bin/../../lib/gcc/pic32mx/4.8.3/../../../../pic32mx/lib\libm.a(fpcos32.o)

.text%z321      0x00000000        0x0
 .text          0x00000000        0x0 c:/program files (x86)/microchip/xc32/v2.30/bin/bin/../../lib/gcc/pic32mx/4.8.3/../../../../pic32mx/lib\libm.a(fpcmp.o)

.text%z322      0x00000000        0x0
 .text          0x00000000        0x0 c:/program files (x86)/microchip/xc32/v2.30/bin/bin/../../lib/gcc/pic32mx/4.8.3/../../../../pic32mx/lib\libm.a(fpceil32.o)

.text%z323      0x00000000        0x0
 .text          0x00000000        0x0 c:/program files (x86)/microchip/xc32/v2.30/bin/bin/../../lib/gcc/pic32mx/4.8.3/../../../../pic32mx/lib\libm.a(fp32subadd.o)

.text%z324      0x00000000        0x0
 .text          0x00000000        0x0 c:/program files (x86)/microchip/xc32/v2.30/bin/bin/../../lib/gcc/pic32mx/4.8.3/../../../../pic32mx/lib\libm.a(fp32mul.o)

.text%z325      0x00000000        0x0
 .text          0x00000000        0x0 c:/program files (x86)/microchip/xc32/v2.30/bin/bin/../../lib/gcc/pic32mx/4.8.3/../../../../pic32mx/lib\libm.a(fp32div.o)

.text%z326      0x00000000        0x0
 .text          0x00000000        0x0 c:/program files (x86)/microchip/xc32/v2.30/bin/bin/../../lib/gcc/pic32mx/4.8.3/../../../../pic32mx/lib\libm.a(dptoul.o)

.text%z327      0x00000000        0x0
 .text          0x00000000        0x0 c:/program files (x86)/microchip/xc32/v2.30/bin/bin/../../lib/gcc/pic32mx/4.8.3/../../../../pic32mx/lib\libm.a(dptofp.o)

.text%z328      0x00000000        0x0
 .text          0x00000000        0x0 c:/program files (x86)/microchip/xc32/v2.30/bin/bin/../../lib/gcc/pic32mx/4.8.3/../../../../pic32mx/lib\libm.a(dp32subadd.o)

.text%z329      0x00000000        0x0
 .text          0x00000000        0x0 c:/program files (x86)/microchip/xc32/v2.30/bin/bin/../../lib/gcc/pic32mx/4.8.3/../../../../pic32mx/lib\libm.a(dp32mul.o)

.text%z330      0x00000000        0x0
 .text          0x00000000        0x0 c:/program files (x86)/microchip/xc32/v2.30/bin/bin/../../lib/gcc/pic32mx/4.8.3/../../../../pic32mx/lib\liblega-c.a(strncpy.o)

.text%z331      0x00000000        0x0
 .text          0x00000000        0x0 c:/program files (x86)/microchip/xc32/v2.30/bin/bin/../../lib/gcc/pic32mx/4.8.3/../../../../pic32mx/lib\liblega-c.a(strncmp.o)

.text%z332      0x00000000        0x0
 .text          0x00000000        0x0 c:/program files (x86)/microchip/xc32/v2.30/bin/bin/../../lib/gcc/pic32mx/4.8.3/../../../../pic32mx/lib\libpic32.a(defaultinterrupt.o)

.text%z333      0x00000000        0x0
 .text          0x00000000        0x0 c:/program files (x86)/microchip/xc32/v2.30/bin/bin/../../lib/gcc/pic32mx/4.8.3/../../../../pic32mx/lib\libpic32.a(vector41.o)

.text%z334      0x00000000        0x0
 .text          0x00000000        0x0 c:/program files (x86)/microchip/xc32/v2.30/bin/bin/../../lib/gcc/pic32mx/4.8.3/../../../../pic32mx/lib\libpic32.a(vector40.o)

.text%z335      0x00000000        0x0
 .text          0x00000000        0x0 c:/program files (x86)/microchip/xc32/v2.30/bin/bin/../../lib/gcc/pic32mx/4.8.3/../../../../pic32mx/lib\libpic32.a(vector39.o)

.text%z336      0x00000000        0x0
 .text          0x00000000        0x0 c:/program files (x86)/microchip/xc32/v2.30/bin/bin/../../lib/gcc/pic32mx/4.8.3/../../../../pic32mx/lib\libpic32.a(vector38.o)

.text%z337      0x00000000        0x0
 .text          0x00000000        0x0 c:/program files (x86)/microchip/xc32/v2.30/bin/bin/../../lib/gcc/pic32mx/4.8.3/../../../../pic32mx/lib\libpic32.a(vector37.o)

.text%z338      0x00000000        0x0
 .text          0x00000000        0x0 c:/program files (x86)/microchip/xc32/v2.30/bin/bin/../../lib/gcc/pic32mx/4.8.3/../../../../pic32mx/lib\libpic32.a(vector34.o)

.text%z339      0x00000000        0x0
 .text          0x00000000        0x0 c:/program files (x86)/microchip/xc32/v2.30/bin/bin/../../lib/gcc/pic32mx/4.8.3/../../../../pic32mx/lib\libpic32.a(vector32.o)

.text%z340      0x00000000        0x0
 .text          0x00000000        0x0 c:/program files (x86)/microchip/xc32/v2.30/bin/bin/../../lib/gcc/pic32mx/4.8.3/../../../../pic32mx/lib\libpic32.a(vector30.o)

.text%z341      0x00000000        0x0
 .text          0x00000000        0x0 c:/program files (x86)/microchip/xc32/v2.30/bin/bin/../../lib/gcc/pic32mx/4.8.3/../../../../pic32mx/lib\libpic32.a(vector28.o)

.text%z342      0x00000000        0x0
 .text          0x00000000        0x0 c:/program files (x86)/microchip/xc32/v2.30/bin/bin/../../lib/gcc/pic32mx/4.8.3/../../../../pic32mx/lib\libpic32.a(vector27.o)

.text%z343      0x00000000        0x0
 .text          0x00000000        0x0 c:/program files (x86)/microchip/xc32/v2.30/bin/bin/../../lib/gcc/pic32mx/4.8.3/../../../../pic32mx/lib\libpic32.a(vector26.o)

.text%z344      0x00000000        0x0
 .text          0x00000000        0x0 c:/program files (x86)/microchip/xc32/v2.30/bin/bin/../../lib/gcc/pic32mx/4.8.3/../../../../pic32mx/lib\libpic32.a(vector25.o)

.text%z345      0x00000000        0x0
 .text          0x00000000        0x0 c:/program files (x86)/microchip/xc32/v2.30/bin/bin/../../lib/gcc/pic32mx/4.8.3/../../../../pic32mx/lib\libpic32.a(vector24.o)

.text%z346      0x00000000        0x0
 .text          0x00000000        0x0 c:/program files (x86)/microchip/xc32/v2.30/bin/bin/../../lib/gcc/pic32mx/4.8.3/../../../../pic32mx/lib\libpic32.a(vector23.o)

.text%z347      0x00000000        0x0
 .text          0x00000000        0x0 c:/program files (x86)/microchip/xc32/v2.30/bin/bin/../../lib/gcc/pic32mx/4.8.3/../../../../pic32mx/lib\libpic32.a(vector22.o)

.text%z348      0x00000000        0x0
 .text          0x00000000        0x0 c:/program files (x86)/microchip/xc32/v2.30/bin/bin/../../lib/gcc/pic32mx/4.8.3/../../../../pic32mx/lib\libpic32.a(vector21.o)

.text%z349      0x00000000        0x0
 .text          0x00000000        0x0 c:/program files (x86)/microchip/xc32/v2.30/bin/bin/../../lib/gcc/pic32mx/4.8.3/../../../../pic32mx/lib\libpic32.a(vector19.o)

.text%z350      0x00000000        0x0
 .text          0x00000000        0x0 c:/program files (x86)/microchip/xc32/v2.30/bin/bin/../../lib/gcc/pic32mx/4.8.3/../../../../pic32mx/lib\libpic32.a(vector18.o)

.text%z351      0x00000000        0x0
 .text          0x00000000        0x0 c:/program files (x86)/microchip/xc32/v2.30/bin/bin/../../lib/gcc/pic32mx/4.8.3/../../../../pic32mx/lib\libpic32.a(vector17.o)

.text%z352      0x00000000        0x0
 .text          0x00000000        0x0 c:/program files (x86)/microchip/xc32/v2.30/bin/bin/../../lib/gcc/pic32mx/4.8.3/../../../../pic32mx/lib\libpic32.a(vector14.o)

.text%z353      0x00000000        0x0
 .text          0x00000000        0x0 c:/program files (x86)/microchip/xc32/v2.30/bin/bin/../../lib/gcc/pic32mx/4.8.3/../../../../pic32mx/lib\libpic32.a(vector13.o)

.text%z354      0x00000000        0x0
 .text          0x00000000        0x0 c:/program files (x86)/microchip/xc32/v2.30/bin/bin/../../lib/gcc/pic32mx/4.8.3/../../../../pic32mx/lib\libpic32.a(vector11.o)

.text%z355      0x00000000        0x0
 .text          0x00000000        0x0 c:/program files (x86)/microchip/xc32/v2.30/bin/bin/../../lib/gcc/pic32mx/4.8.3/../../../../pic32mx/lib\libpic32.a(vector10.o)

.text%z356      0x00000000        0x0
 .text          0x00000000        0x0 c:/program files (x86)/microchip/xc32/v2.30/bin/bin/../../lib/gcc/pic32mx/4.8.3/../../../../pic32mx/lib\libpic32.a(vector9.o)

.text%z357      0x00000000        0x0
 .text          0x00000000        0x0 c:/program files (x86)/microchip/xc32/v2.30/bin/bin/../../lib/gcc/pic32mx/4.8.3/../../../../pic32mx/lib\libpic32.a(vector7.o)

.text%z358      0x00000000        0x0
 .text          0x00000000        0x0 c:/program files (x86)/microchip/xc32/v2.30/bin/bin/../../lib/gcc/pic32mx/4.8.3/../../../../pic32mx/lib\libpic32.a(vector6.o)

.text%z359      0x00000000        0x0
 .text          0x00000000        0x0 c:/program files (x86)/microchip/xc32/v2.30/bin/bin/../../lib/gcc/pic32mx/4.8.3/../../../../pic32mx/lib\libpic32.a(vector5.o)

.text%z360      0x00000000        0x0
 .text          0x00000000        0x0 c:/program files (x86)/microchip/xc32/v2.30/bin/bin/../../lib/gcc/pic32mx/4.8.3/../../../../pic32mx/lib\libpic32.a(vector3.o)

.text%z361      0x00000000        0x0
 .text          0x00000000        0x0 c:/program files (x86)/microchip/xc32/v2.30/bin/bin/../../lib/gcc/pic32mx/4.8.3/../../../../pic32mx/lib\libpic32.a(vector2.o)

.text%z362      0x00000000        0x0
 .text          0x00000000        0x0 c:/program files (x86)/microchip/xc32/v2.30/bin/bin/../../lib/gcc/pic32mx/4.8.3/../../../../pic32mx/lib\libpic32.a(vector1.o)

.text%z363      0x00000000        0x0
 .text          0x00000000        0x0 c:/program files (x86)/microchip/xc32/v2.30/bin/bin/../../lib/gcc/pic32mx/4.8.3/../../../../pic32mx/lib\libpic32.a(general-exception.o)

.text%z364      0x00000000        0x0
 .text          0x00000000        0x0 c:/program files (x86)/microchip/xc32/v2.30/bin/bin/../../lib/gcc/pic32mx/4.8.3/../../../../pic32mx/lib\libpic32.a(default-on-bootstrap.o)

.text%z365      0x00000000        0x0
 .text          0x00000000        0x0 c:/program files (x86)/microchip/xc32/v2.30/bin/bin/../../lib/gcc/pic32mx/4.8.3/../../../../pic32mx/lib\libpic32.a(default-on-reset.o)

.text%z366      0x00000000        0x0
 .text          0x00000000        0x0 c:/program files (x86)/microchip/xc32/v2.30/bin/bin/../../lib/gcc/pic32mx/4.8.3/../../../../pic32mx/lib\libpic32.a(default-bootstrap-exception-handler.o)

.text%z367      0x00000000        0x0
 .text          0x00000000        0x0 c:/program files (x86)/microchip/xc32/v2.30/bin/bin/../../lib/gcc/pic32mx/4.8.3/../../../../pic32mx/lib/./proc/32MX470F512L\default_isr_vectors.o

.text%z368      0x00000000        0x0
 .text          0x00000000        0x0 C:\Users\Xeon5430\AppData\Local\Temp\ccMLxUIM.o

.text%z369      0x00000000        0x0
 .text          0x00000000        0x0 C:\Users\Xeon5430\AppData\Local\Temp\ccuxsepe.o

.text%z370      0x00000000        0x0
 .text          0x00000000        0x0 C:\Users\Xeon5430\AppData\Local\Temp\cc0y46GM.o

.text%z371      0x00000000        0x0
 .text          0x00000000        0x0 c:/program files (x86)/microchip/xc32/v2.30/bin/bin/../../lib/gcc/pic32mx/4.8.3/../../../../pic32mx/lib\libmchp_peripheral_32MX470F512L.a(int_restore_interrupts_lib.o)

.text%z372      0x00000000        0x0
 .text          0x00000000        0x0 c:/program files (x86)/microchip/xc32/v2.30/bin/bin/../../lib/gcc/pic32mx/4.8.3/../../../../pic32mx/lib\libmchp_peripheral_32MX470F512L.a(nvm_write_word_lib.o)

.text%z373      0x00000000        0x0
 .text          0x00000000        0x0 c:/program files (x86)/microchip/xc32/v2.30/bin/bin/../../lib/gcc/pic32mx/4.8.3/../../../../pic32mx/lib\libmchp_peripheral_32MX470F512L.a(nvm_operation_lib.o)

.text%z374      0x00000000        0x0
 .text          0x00000000        0x0 c:/program files (x86)/microchip/xc32/v2.30/bin/bin/../../lib/gcc/pic32mx/4.8.3/../../../../pic32mx/lib\libmchp_peripheral_32MX470F512L.a(nvm_erase_page_lib.o)

.text%z375      0x00000000        0x0
 .text          0x00000000        0x0 c:/program files (x86)/microchip/xc32/v2.30/bin/bin/../../lib/gcc/pic32mx/4.8.3/../../../../pic32mx/lib\libmchp_peripheral_32MX470F512L.a(power_sleep_lib.o)

.text%z376      0x00000000        0x0
 .text          0x00000000        0x0 c:/program files (x86)/microchip/xc32/v2.30/bin/bin/../../lib/gcc/pic32mx/4.8.3/../../../../pic32mx/lib\libmchp_peripheral_32MX470F512L.a(power_idle_lib.o)

.text%z377      0x00000000        0x0
 .text          0x00000000        0x0 c:/program files (x86)/microchip/xc32/v2.30/bin/bin/../../lib/gcc/pic32mx/4.8.3/../../../../pic32mx/lib\libmchp_peripheral_32MX470F512L.a(int_disable_interrupts_lib.o)

.text%z378      0x00000000        0x0
 .text          0x00000000        0x0 c:/program files (x86)/microchip/xc32/v2.30/bin/bin/../../lib/gcc/pic32mx/4.8.3/../../../../pic32mx/lib\libmchp_peripheral_32MX470F512L.a(pcache.o)

.text%z379      0x00000000        0x0
 .text          0x00000000        0x0 c:/program files (x86)/microchip/xc32/v2.30/bin/bin/../../lib/gcc/pic32mx/4.8.3/../../../../pic32mx/lib\libmchp_peripheral_32MX470F512L.a(soft_reset_lib.o)

.text%z380      0x00000000        0x0
 .text          0x00000000        0x0 c:/program files (x86)/microchip/xc32/v2.30/bin/bin/../../lib/gcc/pic32mx/4.8.3/../../../../pic32mx/lib/./proc/32MX470F512L\processor.o

.text%z381      0x00000000        0x0
 .text          0x00000000        0x0 output\DHCP.o

.text%z382      0x00000000        0x0
 .text          0x00000000        0x0 output\c_eep_manager.o

.text%z383      0x00000000        0x0
 .text          0x00000000        0x0 c:/program files (x86)/microchip/xc32/v2.30/bin/bin/../../lib/gcc/pic32mx/4.8.3/../../../../pic32mx/lib\debug-exception-return.o
