Archive member included because of file (symbol)

c:/program files (x86)/microchip/xc32/v2.30/bin/bin/../../lib/gcc/pic32mx/4.8.3\libgcc.a(_fixunssfdi.o)
                              output\stepper.o (__fixunssfdi)
c:/program files (x86)/microchip/xc32/v2.30/bin/bin/../../lib/gcc/pic32mx/4.8.3\libgcc.a(_floatundisf.o)
                              output\stepper.o (__floatundisf)
c:/program files (x86)/microchip/xc32/v2.30/bin/bin/../../lib/gcc/pic32mx/4.8.3\libgcc.a(floatunsisf.o)
                              output\grbl_limits.o (__floatunsisf)
c:/program files (x86)/microchip/xc32/v2.30/bin/bin/../../lib/gcc/pic32mx/4.8.3\libgcc.a(floatunsidf.o)
                              c:/program files (x86)/microchip/xc32/v2.30/bin/bin/../../lib/gcc/pic32mx/4.8.3\libgcc.a(_fixunssfdi.o) (__floatunsidf)
c:/program files (x86)/microchip/xc32/v2.30/bin/bin/../../lib/gcc/pic32mx/4.8.3/../../../../pic32mx/lib\libpic32.a(memcmp.o)
                              output\grbl_eeprom.o (memcmp)
c:/program files (x86)/microchip/xc32/v2.30/bin/bin/../../lib/gcc/pic32mx/4.8.3/../../../../pic32mx/lib\libpic32.a(memcpy.o)
                              output\eep_manager.o (memcpy)
c:/program files (x86)/microchip/xc32/v2.30/bin/bin/../../lib/gcc/pic32mx/4.8.3/../../../../pic32mx/lib\libpic32.a(memset.o)
                              output\ringBuffer.o (memset)
c:/program files (x86)/microchip/xc32/v2.30/bin/bin/../../lib/gcc/pic32mx/4.8.3/../../../../pic32mx/lib\libpic32.a(strcmp.o)
                              output\grbl_protocol.o (strcmp)
c:/program files (x86)/microchip/xc32/v2.30/bin/bin/../../lib/gcc/pic32mx/4.8.3/../../../../pic32mx/lib\libpic32.a(strlen.o)
                              output\Helpers.o (strlen)
c:/program files (x86)/microchip/xc32/v2.30/bin/bin/../../lib/gcc/pic32mx/4.8.3/../../../../pic32mx/lib\libpic32.a(default-bootstrap-exception-handler.o)
                              C:\Users\kyrk\AppData\Local\Temp\ccW9mKTz.o (_bootstrap_exception_handler)
c:/program files (x86)/microchip/xc32/v2.30/bin/bin/../../lib/gcc/pic32mx/4.8.3/../../../../pic32mx/lib\libpic32.a(default-on-reset.o)
                              C:\Users\kyrk\AppData\Local\Temp\ccW9mKTz.o (_on_reset)
c:/program files (x86)/microchip/xc32/v2.30/bin/bin/../../lib/gcc/pic32mx/4.8.3/../../../../pic32mx/lib\libpic32.a(default-on-bootstrap.o)
                              C:\Users\kyrk\AppData\Local\Temp\ccW9mKTz.o (_on_bootstrap)
c:/program files (x86)/microchip/xc32/v2.30/bin/bin/../../lib/gcc/pic32mx/4.8.3/../../../../pic32mx/lib\libpic32.a(default-nmi-handler.o)
                              C:\Users\kyrk\AppData\Local\Temp\ccW9mKTz.o (_nmi_handler)
c:/program files (x86)/microchip/xc32/v2.30/bin/bin/../../lib/gcc/pic32mx/4.8.3/../../../../pic32mx/lib\libpic32.a(pic32_data_init.o)
                              C:\Users\kyrk\AppData\Local\Temp\ccW9mKTz.o (__pic32_data_init)
c:/program files (x86)/microchip/xc32/v2.30/bin/bin/../../lib/gcc/pic32mx/4.8.3/../../../../pic32mx/lib\libpic32.a(pic32_init_cache.o)
                              C:\Users\kyrk\AppData\Local\Temp\ccW9mKTz.o (__pic32_init_cache)
c:/program files (x86)/microchip/xc32/v2.30/bin/bin/../../lib/gcc/pic32mx/4.8.3/../../../../pic32mx/lib\libpic32.a(pic32_init_tlb_ebi_sqi.o)
                              C:\Users\kyrk\AppData\Local\Temp\ccW9mKTz.o (__pic32_tlb_init_ebi_sqi)
c:/program files (x86)/microchip/xc32/v2.30/bin/bin/../../lib/gcc/pic32mx/4.8.3/../../../../pic32mx/lib\libpic32.a(general-exception.o)
                              C:\Users\kyrk\AppData\Local\Temp\ccW9mKTz.o (_general_exception_context)
c:/program files (x86)/microchip/xc32/v2.30/bin/bin/../../lib/gcc/pic32mx/4.8.3/../../../../pic32mx/lib\libpic32.a(cache-err-exception.o)
                              C:\Users\kyrk\AppData\Local\Temp\ccW9mKTz.o (_cache_err_exception_context)
c:/program files (x86)/microchip/xc32/v2.30/bin/bin/../../lib/gcc/pic32mx/4.8.3/../../../../pic32mx/lib\libpic32.a(simple-tlb-refill-exception.o)
                              C:\Users\kyrk\AppData\Local\Temp\ccW9mKTz.o (_simple_tlb_refill_exception_context)
c:/program files (x86)/microchip/xc32/v2.30/bin/bin/../../lib/gcc/pic32mx/4.8.3/../../../../pic32mx/lib\libpic32.a(defaultinterrupt.o)
                              C:\Users\kyrk\AppData\Local\Temp\ccYFepqr.o (_DefaultInterrupt)
c:/program files (x86)/microchip/xc32/v2.30/bin/bin/../../lib/gcc/pic32mx/4.8.3/../../../../pic32mx/lib\libpic32.a(default-cache-err-exception-handler.o)
                              c:/program files (x86)/microchip/xc32/v2.30/bin/bin/../../lib/gcc/pic32mx/4.8.3/../../../../pic32mx/lib\libpic32.a(cache-err-exception.o) (_cache_err_exception_handler)
c:/program files (x86)/microchip/xc32/v2.30/bin/bin/../../lib/gcc/pic32mx/4.8.3/../../../../pic32mx/lib\libpic32.a(default-simple-tlb-refill-exception-handler.o)
                              c:/program files (x86)/microchip/xc32/v2.30/bin/bin/../../lib/gcc/pic32mx/4.8.3/../../../../pic32mx/lib\libpic32.a(simple-tlb-refill-exception.o) (_simple_tlb_refill_exception_handler)
c:/program files (x86)/microchip/xc32/v2.30/bin/bin/../../lib/gcc/pic32mx/4.8.3/../../../../pic32mx/lib\liblega-c.a(strncmp.o)
                              output\grbl_protocol.o (strncmp)
c:/program files (x86)/microchip/xc32/v2.30/bin/bin/../../lib/gcc/pic32mx/4.8.3/../../../../pic32mx/lib\liblega-c.a(strncpy.o)
                              output\Helpers.o (strncpy)
c:/program files (x86)/microchip/xc32/v2.30/bin/bin/../../lib/gcc/pic32mx/4.8.3/../../../../pic32mx/lib\libm.a(dp32mul.o)
                              c:/program files (x86)/microchip/xc32/v2.30/bin/bin/../../lib/gcc/pic32mx/4.8.3\libgcc.a(_fixunssfdi.o) (dpmul)
c:/program files (x86)/microchip/xc32/v2.30/bin/bin/../../lib/gcc/pic32mx/4.8.3/../../../../pic32mx/lib\libm.a(dp32subadd.o)
                              c:/program files (x86)/microchip/xc32/v2.30/bin/bin/../../lib/gcc/pic32mx/4.8.3\libgcc.a(_fixunssfdi.o) (dpsub)
c:/program files (x86)/microchip/xc32/v2.30/bin/bin/../../lib/gcc/pic32mx/4.8.3/../../../../pic32mx/lib\libm.a(dptofp.o)
                              c:/program files (x86)/microchip/xc32/v2.30/bin/bin/../../lib/gcc/pic32mx/4.8.3\libgcc.a(_floatundisf.o) (dptofp)
c:/program files (x86)/microchip/xc32/v2.30/bin/bin/../../lib/gcc/pic32mx/4.8.3/../../../../pic32mx/lib\libm.a(dptoul.o)
                              c:/program files (x86)/microchip/xc32/v2.30/bin/bin/../../lib/gcc/pic32mx/4.8.3\libgcc.a(_fixunssfdi.o) (dptoul)
c:/program files (x86)/microchip/xc32/v2.30/bin/bin/../../lib/gcc/pic32mx/4.8.3/../../../../pic32mx/lib\libm.a(fp32div.o)
                              output\gcode.o (fpdiv)
c:/program files (x86)/microchip/xc32/v2.30/bin/bin/../../lib/gcc/pic32mx/4.8.3/../../../../pic32mx/lib\libm.a(fp32mul.o)
                              output\gcode.o (fpmul)
c:/program files (x86)/microchip/xc32/v2.30/bin/bin/../../lib/gcc/pic32mx/4.8.3/../../../../pic32mx/lib\libm.a(fp32subadd.o)
                              output\gcode.o (fpsub)
c:/program files (x86)/microchip/xc32/v2.30/bin/bin/../../lib/gcc/pic32mx/4.8.3/../../../../pic32mx/lib\libm.a(fpceil32.o)
                              output\nuts_bolts.o (ceilf)
c:/program files (x86)/microchip/xc32/v2.30/bin/bin/../../lib/gcc/pic32mx/4.8.3/../../../../pic32mx/lib\libm.a(fpcmp.o)
                              output\gcode.o (fpcmp)
c:/program files (x86)/microchip/xc32/v2.30/bin/bin/../../lib/gcc/pic32mx/4.8.3/../../../../pic32mx/lib\libm.a(fpcos32.o)
                              output\motion_control.o (cosf)
c:/program files (x86)/microchip/xc32/v2.30/bin/bin/../../lib/gcc/pic32mx/4.8.3/../../../../pic32mx/lib\libm.a(fpfloo32.o)
                              output\motion_control.o (floorf)
c:/program files (x86)/microchip/xc32/v2.30/bin/bin/../../lib/gcc/pic32mx/4.8.3/../../../../pic32mx/lib\libm.a(fpreduct32.o)
                              c:/program files (x86)/microchip/xc32/v2.30/bin/bin/../../lib/gcc/pic32mx/4.8.3/../../../../pic32mx/lib\libm.a(fpcos32.o) (fpreduct)
c:/program files (x86)/microchip/xc32/v2.30/bin/bin/../../lib/gcc/pic32mx/4.8.3/../../../../pic32mx/lib\libm.a(fpsin32.o)
                              output\motion_control.o (sinf)
c:/program files (x86)/microchip/xc32/v2.30/bin/bin/../../lib/gcc/pic32mx/4.8.3/../../../../pic32mx/lib\libm.a(fptodp.o)
                              c:/program files (x86)/microchip/xc32/v2.30/bin/bin/../../lib/gcc/pic32mx/4.8.3\libgcc.a(_fixunssfdi.o) (fptodp)
c:/program files (x86)/microchip/xc32/v2.30/bin/bin/../../lib/gcc/pic32mx/4.8.3/../../../../pic32mx/lib\libm.a(fptoli.o)
                              output\gcode.o (fptosi)
c:/program files (x86)/microchip/xc32/v2.30/bin/bin/../../lib/gcc/pic32mx/4.8.3/../../../../pic32mx/lib\libm.a(fptoul.o)
                              output\gcode.o (fptoui)
c:/program files (x86)/microchip/xc32/v2.30/bin/bin/../../lib/gcc/pic32mx/4.8.3/../../../../pic32mx/lib\libm.a(litodp.o)
                              c:/program files (x86)/microchip/xc32/v2.30/bin/bin/../../lib/gcc/pic32mx/4.8.3\libgcc.a(floatunsidf.o) (litodp)
c:/program files (x86)/microchip/xc32/v2.30/bin/bin/../../lib/gcc/pic32mx/4.8.3/../../../../pic32mx/lib\libm.a(sincof32.o)
                              c:/program files (x86)/microchip/xc32/v2.30/bin/bin/../../lib/gcc/pic32mx/4.8.3/../../../../pic32mx/lib\libm.a(fpcos32.o) (_sincof)
c:/program files (x86)/microchip/xc32/v2.30/bin/bin/../../lib/gcc/pic32mx/4.8.3/../../../../pic32mx/lib\libm.a(sitofp.o)
                              output\gcode.o (sitofp)
c:/program files (x86)/microchip/xc32/v2.30/bin/bin/../../lib/gcc/pic32mx/4.8.3/../../../../pic32mx/lib\libm.a(w_atan2f.o)
                              output\motion_control.o (atan2f)
c:/program files (x86)/microchip/xc32/v2.30/bin/bin/../../lib/gcc/pic32mx/4.8.3/../../../../pic32mx/lib\libm.a(w_sqrtf.o)
                              output\gcode.o (sqrtf)
c:/program files (x86)/microchip/xc32/v2.30/bin/bin/../../lib/gcc/pic32mx/4.8.3/../../../../pic32mx/lib\libm.a(support.o)
                              c:/program files (x86)/microchip/xc32/v2.30/bin/bin/../../lib/gcc/pic32mx/4.8.3/../../../../pic32mx/lib\libm.a(w_atan2f.o) (copysignl)
c:/program files (x86)/microchip/xc32/v2.30/bin/bin/../../lib/gcc/pic32mx/4.8.3/../../../../pic32mx/lib\libm.a(dpldexp.o)
                              c:/program files (x86)/microchip/xc32/v2.30/bin/bin/../../lib/gcc/pic32mx/4.8.3/../../../../pic32mx/lib\libm.a(support.o) (ldexp)
c:/program files (x86)/microchip/xc32/v2.30/bin/bin/../../lib/gcc/pic32mx/4.8.3/../../../../pic32mx/lib\libm.a(dp32div.o)
                              c:/program files (x86)/microchip/xc32/v2.30/bin/bin/../../lib/gcc/pic32mx/4.8.3/../../../../pic32mx/lib\libm.a(support.o) (dpdiv)
c:/program files (x86)/microchip/xc32/v2.30/bin/bin/../../lib/gcc/pic32mx/4.8.3/../../../../pic32mx/lib\libm.a(dpcmp.o)
                              c:/program files (x86)/microchip/xc32/v2.30/bin/bin/../../lib/gcc/pic32mx/4.8.3/../../../../pic32mx/lib\libm.a(w_atan2f.o) (dpcmp)
c:/program files (x86)/microchip/xc32/v2.30/bin/bin/../../lib/gcc/pic32mx/4.8.3/../../../../pic32mx/lib\libm.a(fpatan2.o)
                              c:/program files (x86)/microchip/xc32/v2.30/bin/bin/../../lib/gcc/pic32mx/4.8.3/../../../../pic32mx/lib\libm.a(w_atan2f.o) (__mchp_atan2f)
c:/program files (x86)/microchip/xc32/v2.30/bin/bin/../../lib/gcc/pic32mx/4.8.3/../../../../pic32mx/lib\libm.a(fpexatan.o)
                              c:/program files (x86)/microchip/xc32/v2.30/bin/bin/../../lib/gcc/pic32mx/4.8.3/../../../../pic32mx/lib\libm.a(fpatan2.o) (fpexatan)
c:/program files (x86)/microchip/xc32/v2.30/bin/bin/../../lib/gcc/pic32mx/4.8.3/../../../../pic32mx/lib\libm.a(fpexsqrt32.o)
                              c:/program files (x86)/microchip/xc32/v2.30/bin/bin/../../lib/gcc/pic32mx/4.8.3/../../../../pic32mx/lib\libm.a(fpexatan.o) (fpexsqrt)
c:/program files (x86)/microchip/xc32/v2.30/bin/bin/../../lib/gcc/pic32mx/4.8.3/../../../../pic32mx/lib\libm.a(fpsqrt32.o)
                              c:/program files (x86)/microchip/xc32/v2.30/bin/bin/../../lib/gcc/pic32mx/4.8.3/../../../../pic32mx/lib\libm.a(w_sqrtf.o) (__mchp_sqrtf)
c:/program files (x86)/microchip/xc32/v2.30/bin/bin/../../lib/gcc/pic32mx/4.8.3/../../../../pic32mx/lib\libm.a(s_lib_ver.o)
                              c:/program files (x86)/microchip/xc32/v2.30/bin/bin/../../lib/gcc/pic32mx/4.8.3/../../../../pic32mx/lib\libm.a(w_sqrtf.o) (math_errhandling)
c:/program files (x86)/microchip/xc32/v2.30/bin/bin/../../lib/gcc/pic32mx/4.8.3/../../../../pic32mx/lib\libpic32.a(errno.o)
                              c:/program files (x86)/microchip/xc32/v2.30/bin/bin/../../lib/gcc/pic32mx/4.8.3/../../../../pic32mx/lib\libm.a(w_sqrtf.o) (errno)

Allocating common symbols
Common symbol       size              file

is_clockwise_arc_buffer
                    0x1               output\motion_control.o
r_axis0             0x4               output\motion_control.o
r_axis1             0x4               output\motion_control.o
pwm_duty            0x40              output\pwm.o
eth_rx              0x200             output\ethernet_grbl_multi.o
tempResult          0x4               output\exceptions.o
usb_delay_timer     0x4               output\usb.o
gUSBDeviceCDCInstance
                    0x40              output\usb_device_cdc.o
theta_per_segment   0x4               output\motion_control.o
cos_Ti              0x4               output\motion_control.o
coord_offset_eep    0xc               output\gcode.o
adResults           0x2               output\ad.o
UDPRxCount          0x2               output\UDP.o
check_is_delay      0x4               output\grbl_eeprom.o
center_axis1        0x4               output\motion_control.o
appData             0x30              output\usb_app.o
dummyPORT5          0x4               output\grbl.o
dummyPORT4          0x4               output\grbl.o
dummyPORT2          0x4               output\grbl.o
dummyPORT3          0x4               output\grbl.o
dummyPORT1          0x4               output\grbl.o
axis_linear_buffer  0x1               output\motion_control.o
gc_state            0x44              output\gcode.o
cycle_mask_buffer   0x1               output\motion_control.o
dummyPORT6          0x4               output\grbl.o
dummyPORT7          0x4               output\grbl.o
gcodePositionSave   0x4               output\grbl_eeprom.o
segments_buffer     0x2               output\motion_control.o
st                  0x28              output\stepper.o
gUSBDeviceCDCIRP    0x6c              output\usb_device_cdc.o
gDrvUSBEndpoints    0x60              output\drv_usbhs.o
UDPTxCount          0x2               output\UDP.o
cycle_mask_asynch   0x1               output\grbl_limits.o
center_axis0        0x4               output\motion_control.o
_return_addr        0x4               output\exceptions.o
cos_T               0x4               output\motion_control.o
limits_set_state_filtered_currentState
                    0x1               output\grbl_limits.o
sin_T               0x4               output\motion_control.o
target_buffer       0xc               output\motion_control.o
axislock            0x1               output\grbl_limits.o
dataEEFlags         0x4               output\dee.o
eep_settings        0x60              output\settings.o
sysObj              0xc               output\system_init.o
limit_state         0x1               output\grbl_limits.o
gDrvUSBObj          0xbc              output\drv_usbhs.o
i_buffer            0x2               output\motion_control.o
eep_settings_backup
                    0x60              output\settings.o
axis_1_buffer       0x1               output\motion_control.o
r_axisi             0x4               output\motion_control.o
settings            0x60              output\settings.o
activeUDPSocket     0x1               output\UDP.o
grbl_toolchange_failsafe_timeout
                    0x4               output\grbl_toolchange.o
myRingBuffer_grbl_protocol_rx
                    0x18              output\grbl_protocol.o
block_buffer_planned
                    0x1               output\planner.o
read_dee_page_size  0x4               output\dee_page.o
dee_debug_page_status
                    0xc               output\dee_page.o
pl                  0x1c              output\planner.o
UDPSocketInfo       0xe0              output\UDP.o
myRingBuffer_eth_tx
                    0x18              output\ethernet_grbl_multi.o
myRingBuffer_hid_rx
                    0x18              output\usb_grbl_multi.o
eep_manager_write_all_trigger
                    0x3c              output\eep_manager.o
hid_tx              0x200             output\usb_grbl_multi.o
bsdServerSocket     0x1               output\ethernet_grbl_multi.o
eth_tx              0x200             output\ethernet_grbl_multi.o
ClientSock          0x1               output\ethernet_grbl_multi.o
myRingBuffer_hid_tx
                    0x18              output\usb_grbl_multi.o
taskLists           0x480             output\task.o
st_block_buffer     0x1cc             output\stepper.o
eeprom_write_buffer
                    0x400             output\eeprom.o
dummyLAT4           0x4               output\grbl.o
dummyLAT5           0x4               output\grbl.o
dummyLAT6           0x4               output\grbl.o
dummyLAT7           0x4               output\grbl.o
next_buffer_head    0x1               output\planner.o
linear_per_segment  0x4               output\motion_control.o
position_buffer     0xc               output\motion_control.o
sin_Ti              0x4               output\motion_control.o
block_buffer_head   0x1               output\planner.o
dummyTRIS3          0x4               output\grbl.o
dummyTRIS4          0x4               output\grbl.o
dummyTRIS7          0x4               output\grbl.o
dummyTRIS2          0x4               output\grbl.o
dummyTRIS1          0x4               output\grbl.o
dummyTRIS6          0x4               output\grbl.o
dummyTRIS5          0x4               output\grbl.o
addr                0x10              output\ethernet_grbl_multi.o
sys                 0x14              output\system.o
gc_block            0x40              output\gcode.o
target              0xc               output\grbl_limits.o
coord_system_eep    0xc               output\gcode.o
sys_probe_position  0xc               output\system.o
n_active_axis       0x1               output\grbl_limits.o
remoteNode          0xa               output\StackTsk.o
step_pin            0x3               output\grbl_limits.o
axis_0_buffer       0x1               output\motion_control.o
eep_coord_teached   0xa               output\settings.o
_excep_code         0x4               output\exceptions.o
protocol_dwellTime  0x4               output\grbl_protocol.o
read_dee_page       0x4               output\dee_page.o
AppConfig           0x33              output\ethernet.o
block_buffer        0xd00             output\planner.o
ReceivedDataBuffer_grbl_ethernet_multi
                    0x40              output\ethernet_grbl_multi.o
loopCntHistory      0xf0              output\main.o
max_travel          0x4               output\grbl_limits.o
radius_buffer       0x4               output\motion_control.o
gUSBDeviceCdcCommonDataObj
                    0x2               output\usb_device_cdc.o
hid_rx              0x200             output\usb_grbl_multi.o
segment_buffer      0x120             output\stepper.o
tempB               0x4               output\exceptions.o
tempA               0x4               output\exceptions.o
approach            0x1               output\grbl_limits.o
plan_data           0xc               output\grbl_limits.o
line_buffer         0x50              output\grbl_protocol.o
ToSendDataBuffer_grbl_ethernet_multi
                    0x40              output\ethernet_grbl_multi.o
homing_rate         0x4               output\grbl_limits.o
system_suspendTime  0x4               output\system.o
eep_coord_data      0x78              output\settings.o
grbl_protocol_rx    0x80              output\grbl_protocol.o
dummyLAT3           0x4               output\grbl.o
dummyLAT2           0x4               output\grbl.o
dummyLAT1           0x4               output\grbl.o
grbl_system_logger  0x180             output\system.o
read_dee_page_startaddress
                    0x4               output\dee_page.o
eep_settings_version
                    0x1               output\settings.o
prep                0x38              output\stepper.o
addRemote           0x10              output\ethernet_grbl_multi.o
grbl_bootloader_timer
                    0x4               output\grbl_bootloader.o
_excep_addr         0x4               output\exceptions.o
n_cycle             0x1               output\grbl_limits.o
offset_buffer       0xc               output\motion_control.o
block_buffer_tail   0x1               output\planner.o
myRingBuffer_eth_rx
                    0x18              output\ethernet_grbl_multi.o
eep_manager_debug_address
                    0x3c              output\eep_manager.o
pl_data_buffer      0xc               output\motion_control.o
limit_filter_state  0x4               output\grbl_limits.o
sys_position        0xc               output\system.o

Microchip PIC32 Memory-Usage Report

kseg0 Program-Memory Usage
section                    address  length [bytes]      (dec)  Description
-------                 ----------  -------------------------  -----------
.simple_tlb_refill_excp 0x9d001000           0x10          16   
.text                   0x9d001010           0xe8         232  App's exec code 
.rodata                 0x9d0010f8            0x8           8  Read-only const 
.cache_err_excpt        0x9d001100           0x10          16   
.text                   0x9d001110           0x70         112  App's exec code 
.app_excpt              0x9d001180           0x10          16  General-Exception 
.text                   0x9d001190           0x70         112  App's exec code 
.vectors                0x9d001200          0x170         368   
.text                   0x9d001370         0x4508       17672  App's exec code 
.text                   0x9d005878         0x2678        9848  App's exec code 
.text                   0x9d007ef0          0x20c         524  App's exec code 
_073e7ba063fb76ec       0x9d008100            0xc          12   
.rodata                 0x9d00810c           0x14          20  Read-only const 
_073e7c6063fb76ec       0x9d008120            0xc          12   
.rodata                 0x9d00812c           0x14          20  Read-only const 
_073e7d2063fb76ec       0x9d008140            0xc          12   
.rodata                 0x9d00814c           0x14          20  Read-only const 
_073e7de063fb76ec       0x9d008160           0x18          24   
.rodata                 0x9d008178            0x8           8  Read-only const 
_0873366063fb76ec       0x9d008180            0xc          12   
.text                   0x9d00818c         0x55a0       21920  App's exec code 
.text                   0x9d00d72c         0x464c       17996  App's exec code 
.text                   0x9d011d78         0x3864       14436  App's exec code 
.text                   0x9d0155dc         0x2d1c       11548  App's exec code 
.text                   0x9d0182f8         0x2120        8480  App's exec code 
.text                   0x9d01a418         0x1ba8        7080  App's exec code 
.text                   0x9d01bfc0          0xb64        2916  App's exec code 
.dinit                  0x9d01cb24          0xad0        2768   
.text                   0x9d01d5f4         0x14b4        5300  App's exec code 
.text                   0x9d01eaa8          0xa20        2592  App's exec code 
.rodata                 0x9d01f4c8          0x9ac        2476  Read-only const 
.text                   0x9d01fe74         0x11b4        4532  App's exec code 
.text                   0x9d021028          0xe90        3728  App's exec code 
.text                   0x9d021eb8          0xd30        3376  App's exec code 
.text                   0x9d022be8          0xcc8        3272  App's exec code 
.text                   0x9d0238b0          0xc5c        3164  App's exec code 
.text                   0x9d02450c          0xa20        2592  App's exec code 
.text.dp32mul           0x9d024f2c          0x4b8        1208   
.text                   0x9d0253e4          0x4b0        1200  App's exec code 
.text.dreml             0x9d025894          0x470        1136   
.text                   0x9d025d04          0x440        1088  App's exec code 
.text.dp32subadd        0x9d026144          0x430        1072   
.text                   0x9d026574          0x7d8        2008  App's exec code 
.text                   0x9d026d4c          0x6cc        1740  App's exec code 
.text.libm              0x9d027418          0x350         848   
.text.dp32mul           0x9d027768          0x32c         812   
.text                   0x9d027a94          0x600        1536  App's exec code 
.text                   0x9d028094          0x5d0        1488  App's exec code 
.text                   0x9d028664          0x580        1408  App's exec code 
.text                   0x9d028be4          0x294         660  App's exec code 
.text.fpsubadd          0x9d028e78          0x278         632   
.text.libm              0x9d0290f0          0x248         584   
.text.fp32div           0x9d029338          0x230         560   
.text                   0x9d029568          0x218         536  App's exec code 
.text                   0x9d029780          0x400        1024  App's exec code 
.text.atan2f            0x9d029b80          0x1e0         480   
.rodata                 0x9d029d60          0x1d4         468  Read-only const 
.text                   0x9d029f34          0x1c4         452  App's exec code 
.text.fp32mul           0x9d02a0f8          0x1bc         444   
.text.libm              0x9d02a2b4          0x1ac         428   
.text                   0x9d02a460          0x328         808  App's exec code 
.text                   0x9d02a788          0x2ec         748  App's exec code 
.text                   0x9d02aa74          0x2dc         732  App's exec code 
.text.libm              0x9d02ad50          0x16c         364   
.text                   0x9d02aebc          0x2d0         720  App's exec code 
.text                   0x9d02b18c          0x2a4         676  App's exec code 
.text                   0x9d02b430          0x130         304  App's exec code 
.rodata                 0x9d02b560          0x12c         300  Read-only const 
.text.dpcmp             0x9d02b68c          0x12c         300   
.text.logbl             0x9d02b7b8          0x124         292   
.text                   0x9d02b8dc          0x120         288  App's exec code 
.text.libm              0x9d02b9fc          0x234         564   
.text.libm              0x9d02bc30          0x10c         268   
.rodata                 0x9d02bd3c          0x100         256  Read-only const 
.text.strncpy           0x9d02be3c          0x100         256   
.text.dptofp            0x9d02bf3c          0x100         256   
.text.libm.fpexsqrt     0x9d02c03c           0xfc         252   
.text                   0x9d02c138           0xf4         244  App's exec code 
.text                   0x9d02c22c           0xe0         224  App's exec code 
.text.strncmp           0x9d02c30c           0xe0         224   
.text.general_exception 0x9d02c3ec           0xdc         220   
.text._cache_err_except 0x9d02c4c8           0xd8         216   
.text.simple_tlb_refill 0x9d02c5a0           0xd8         216   
.tlb.__pic32_tlb_init_e 0x9d02c678           0xbc         188   
.text                   0x9d02c734           0xb8         184  App's exec code 
.text.libm              0x9d02c7ec           0xb4         180   
.text                   0x9d02c8a0           0xb0         176  App's exec code 
.text.libm              0x9d02c950           0xb0         176   
.text.fptodp            0x9d02ca00           0xac         172   
.text                   0x9d02caac          0x14c         332  App's exec code 
.text.fpcmp             0x9d02cbf8           0x9c         156   
.text                   0x9d02cc94          0x130         304  App's exec code 
.text                   0x9d02cdc4          0x124         292  App's exec code 
.text.dptoul            0x9d02cee8           0x8c         140   
.text                   0x9d02cf74          0x10c         268  App's exec code 
.text                   0x9d02d080           0x84         132  App's exec code 
.text.fptoli            0x9d02d104           0x80         128   
.text                   0x9d02d184           0x7c         124  App's exec code 
.text.fptoul            0x9d02d200           0x7c         124   
.text.litodp            0x9d02d27c           0x78         120   
.text                   0x9d02d2f4           0x6c         108  App's exec code 
.text.sqrtf             0x9d02d360           0x68         104   
.text.sitofp            0x9d02d3c8           0x60          96   
.text.copysign          0x9d02d428           0x60          96   
.text.copysignf         0x9d02d488           0x60          96   
.text.main_entry        0x9d02d4e8           0x54          84   
.text                   0x9d02d53c           0x4c          76  App's exec code 
.text._bootstrap_except 0x9d02d588           0x48          72   
.text._cache_err_except 0x9d02d5d0           0x48          72   
.text._simple_tlb_refil 0x9d02d618           0x48          72   
.text                   0x9d02d660           0x88         136  App's exec code 
.rodata                 0x9d02d6e8           0x3c          60  Read-only const 
.text                   0x9d02d724           0x3c          60  App's exec code 
.rodata                 0x9d02d760           0x38          56  Read-only const 
.text.copysignl         0x9d02d798           0x34          52   
.text.logb              0x9d02d7cc           0x34          52   
.text.logbf             0x9d02d800           0x34          52   
.text.finite            0x9d02d834           0x34          52   
.text.finitef           0x9d02d868           0x34          52   
.text                   0x9d02d89c           0x30          48  App's exec code 
.rodata                 0x9d02d8cc           0x58          88  Read-only const 
.rodata                 0x9d02d924           0x28          40  Read-only const 
.rodata                 0x9d02d950           0x28          40  Read-only const 
.text.drem              0x9d02d978           0x28          40   
.text.dremf             0x9d02d9a0           0x28          40   
.rodata                 0x9d02d9c8           0x40          64  Read-only const 
.rodata                 0x9d02da08           0x3c          60  Read-only const 
.text.finitel           0x9d02da44           0x1c          28   
.rodata                 0x9d02da60           0x30          48  Read-only const 
.text                   0x9d02da90           0x18          24  App's exec code 
.rodata                 0x9d02daa8           0x10          16  Read-only const 
.bev_handler            0x9d02dab8           0x10          16   
.rodata                 0x9d02dac8           0x1c          28  Read-only const 
.rodata                 0x9d02dae4            0xc          12  Read-only const 
.rodata                 0x9d02daf0            0x8           8  Read-only const 
.text._on_reset         0x9d02daf8            0x8           8   
.text._on_bootstrap     0x9d02db00            0x8           8   
_0869f6c063fb76ee       0x9d030000        0x24000      147456   
      Total kseg0_program_mem used  :     0x50b00      330496  15.8% of 0x1ff000

kseg1 Boot-Memory Usage
section                    address  length [bytes]      (dec)  Description
-------                 ----------  -------------------------  -----------
.reset                  0x9d000000          0x1a4         420  Reset handler 
.exceptionLog.exception 0x9d000200           0xc0         192   
         Total kseg1_boot_mem used  :       0x264         612  53.1% of 0x480
        --------------------------------------------------------------------------
         Total Program Memory used  :     0x50d64      331108  15.8% of 0x1ff480
        --------------------------------------------------------------------------


kseg0 Data-Memory Usage
section                    address  length [bytes]      (dec)  Description
-------                 ----------  -------------------------  -----------
.sdata                  0x80000000           0x74         116  Small init data 
.sbss                   0x80000074          0x3a0         928  Small uninit data 
.bss                    0x80000414         0x2bdc       11228  Uninitialized data 
.data                   0x80003400          0x12c         300  Initialized data 
.bss                    0x8000352c          0x128         296  Uninitialized data 
.data                   0x80003654          0x100         256  Initialized data 
.bss                    0x80003754          0x17c         380  Uninitialized data 
.data                   0x800038d0           0x74         116  Initialized data 
.bss                    0x80003944           0x40          64  Uninitialized data 
.data                   0x80003984           0x18          24  Initialized data 
.bss                    0x8000399c           0x24          36  Uninitialized data 
.data.math_errhandling_ 0x800039c0            0x4           4   
.bss.errno              0x800039c4            0x4           4   
.COHERENTBSS$           0x80002ff0          0x400        1024   
.COHERENTPERSIST$       0x800033f0            0x4           4   
         Total kseg0_data_mem used  :      0x39bc       14780  2.8% of 0x7f000
        --------------------------------------------------------------------------
            Total Data Memory used  :      0x39bc       14780  2.8% of 0x7f000
        --------------------------------------------------------------------------


Dynamic Data-Memory Reservation
section                    address  length [bytes]      (dec)  Description
-------                 ----------  -------------------------  -----------
heap                    0x800039d0         0x1000        4096  Reserved for heap 
stack                   0x800049e8        0x7a610      501264  Reserved for stack 

        --------------------------------------------------------------------------

Discarded input sections

 .reginfo       0x00000000       0x18 output\tmr.o
 .reginfo       0x00000000       0x18 output\ringBuffer.o
 .reginfo       0x00000000       0x18 output\task.o
 .reginfo       0x00000000       0x18 output\eeprom.o
 .reginfo       0x00000000       0x18 output\eep_manager.o
 .reginfo       0x00000000       0x18 output\main.o
 .reginfo       0x00000000       0x18 output\c_eep_manager.o
 .reginfo       0x00000000       0x18 output\app.o
 .reginfo       0x00000000       0x18 output\ad.o
 .reginfo       0x00000000       0x18 output\gcode.o
 .reginfo       0x00000000       0x18 output\grbl_limits.o
 .reginfo       0x00000000       0x18 output\coolant_control.o
 .reginfo       0x00000000       0x18 output\motion_control.o
 .reginfo       0x00000000       0x18 output\nuts_bolts.o
 .reginfo       0x00000000       0x18 output\planner.o
 .reginfo       0x00000000       0x18 output\print.o
 .reginfo       0x00000000       0x18 output\report.o
 .reginfo       0x00000000       0x18 output\settings.o
 .reginfo       0x00000000       0x18 output\spindle_control.o
 .reginfo       0x00000000       0x18 output\stepper.o
 .reginfo       0x00000000       0x18 output\system.o
 .reginfo       0x00000000       0x18 output\grbl.o
 .reginfo       0x00000000       0x18 output\pwm.o
 .reginfo       0x00000000       0x18 output\jog.o
 .reginfo       0x00000000       0x18 output\dee.o
 .reginfo       0x00000000       0x18 output\dee_page.o
 .reginfo       0x00000000       0x18 output\dee_page_helper.o
 .reginfo       0x00000000       0x18 output\eep_manager_crc.o
 .reginfo       0x00000000       0x18 output\system_control.o
 .reginfo       0x00000000       0x18 output\stepper_enable.o
 .reginfo       0x00000000       0x18 output\system_exec.o
 .reginfo       0x00000000       0x18 output\system_alarm.o
 .reginfo       0x00000000       0x18 output\grbl_eeprom.o
 .reginfo       0x00000000       0x18 output\bootloader_interface.o
 .reginfo       0x00000000       0x18 output\grbl_toolchange.o
 .reginfo       0x00000000       0x18 output\grbl_protocol.o
 .reginfo       0x00000000       0x18 output\grbl_running.o
 .reginfo       0x00000000       0x18 output\grbl_bootloader.o
 .reginfo       0x00000000       0x18 output\grbl_probe.o
 .reginfo       0x00000000       0x18 output\ethernet.o
 .reginfo       0x00000000       0x18 output\ENC28J60.o
 .reginfo       0x00000000       0x18 output\DHCP.o
 .reginfo       0x00000000       0x18 output\Delay.o
 .reginfo       0x00000000       0x18 output\ARP.o
 .reginfo       0x00000000       0x18 output\Announce.o
 .reginfo       0x00000000       0x18 output\Helpers.o
 .reginfo       0x00000000       0x18 output\ICMP.o
 .reginfo       0x00000000       0x18 output\IP.o
 .reginfo       0x00000000       0x18 output\StackTsk.o
 .reginfo       0x00000000       0x18 output\UDP.o
 .reginfo       0x00000000       0x18 output\ethernet_grbl_multi.o
 .reginfo       0x00000000       0x18 output\grbl_multi.o
 .reginfo       0x00000000       0x18 output\Reboot.o
 .reginfo       0x00000000       0x18 output\TCP.o
 .reginfo       0x00000000       0x18 output\BerkeleyAPI.o
 .reginfo       0x00000000       0x18 output\mal.o
 .reginfo       0x00000000       0x18 output\isr.o
 .reginfo       0x00000000       0x18 output\exceptions.o
 .reginfo       0x00000000       0x18 output\usb_device_cdc_acm.o
 .reginfo       0x00000000       0x18 output\usb_device_cdc.o
 .reginfo       0x00000000       0x18 output\usb_device.o
 .reginfo       0x00000000       0x18 output\usb_app.o
 .reginfo       0x00000000       0x18 output\usb.o
 .reginfo       0x00000000       0x18 output\system_tasks.o
 .reginfo       0x00000000       0x18 output\sys_int_pic32.o
 .reginfo       0x00000000       0x18 output\system_init.o
 .reginfo       0x00000000       0x18 output\peripheral.o
 .reginfo       0x00000000       0x18 output\drv_usbhs_device.o
 .reginfo       0x00000000       0x18 output\drv_usbhs.o
 .reginfo       0x00000000       0x18 output\bsp_sys_init.o
 .reginfo       0x00000000       0x18 output\stackmeasure.o
 .reginfo       0x00000000       0x18 output\stackmeasure_helper.o
 .reginfo       0x00000000       0x18 output\noinitram.o
 .reginfo       0x00000000       0x18 output\usb_grbl_multi.o
 .reginfo       0x00000000       0x18 c:/program files (x86)/microchip/xc32/v2.30/bin/bin/../../lib/gcc/pic32mx/4.8.3/../../../../pic32mx/lib/./proc/32MZ2048ECG144\vector_offset_init.o
 .reginfo       0x00000000       0x18 C:\Users\kyrk\AppData\Local\Temp\ccW9mKTz.o
 .reginfo       0x00000000       0x18 C:\Users\kyrk\AppData\Local\Temp\ccnEG0Qt.o
 .reginfo       0x00000000       0x18 C:\Users\kyrk\AppData\Local\Temp\ccYFepqr.o
 .discard       0x00000000        0x4 C:\Users\kyrk\AppData\Local\Temp\ccYFepqr.o
 .reginfo       0x00000000       0x18 c:/program files (x86)/microchip/xc32/v2.30/bin/bin/../../lib/gcc/pic32mx/4.8.3/../../../../pic32mx/lib/./proc/32MZ2048ECG144\default_isr_vectors.o
 .discard       0x00000000        0x4 c:/program files (x86)/microchip/xc32/v2.30/bin/bin/../../lib/gcc/pic32mx/4.8.3/../../../../pic32mx/lib/./proc/32MZ2048ECG144\default_isr_vectors.o
 .reginfo       0x00000000       0x18 c:/program files (x86)/microchip/xc32/v2.30/bin/bin/../../lib/gcc/pic32mx/4.8.3/../../../../pic32mx/lib\pic32_software_reset.o
 .reginfo       0x00000000       0x18 c:/program files (x86)/microchip/xc32/v2.30/bin/bin/../../lib/gcc/pic32mx/4.8.3\libgcc.a(_fixunssfdi.o)
 .reginfo       0x00000000       0x18 c:/program files (x86)/microchip/xc32/v2.30/bin/bin/../../lib/gcc/pic32mx/4.8.3\libgcc.a(_floatundisf.o)
 .reginfo       0x00000000       0x18 c:/program files (x86)/microchip/xc32/v2.30/bin/bin/../../lib/gcc/pic32mx/4.8.3\libgcc.a(floatunsisf.o)
 .reginfo       0x00000000       0x18 c:/program files (x86)/microchip/xc32/v2.30/bin/bin/../../lib/gcc/pic32mx/4.8.3\libgcc.a(floatunsidf.o)
 .reginfo       0x00000000       0x18 c:/program files (x86)/microchip/xc32/v2.30/bin/bin/../../lib/gcc/pic32mx/4.8.3/../../../../pic32mx/lib\libpic32.a(memcmp.o)
 .reginfo       0x00000000       0x18 c:/program files (x86)/microchip/xc32/v2.30/bin/bin/../../lib/gcc/pic32mx/4.8.3/../../../../pic32mx/lib\libpic32.a(memcpy.o)
 .reginfo       0x00000000       0x18 c:/program files (x86)/microchip/xc32/v2.30/bin/bin/../../lib/gcc/pic32mx/4.8.3/../../../../pic32mx/lib\libpic32.a(memset.o)
 .reginfo       0x00000000       0x18 c:/program files (x86)/microchip/xc32/v2.30/bin/bin/../../lib/gcc/pic32mx/4.8.3/../../../../pic32mx/lib\libpic32.a(strcmp.o)
 .reginfo       0x00000000       0x18 c:/program files (x86)/microchip/xc32/v2.30/bin/bin/../../lib/gcc/pic32mx/4.8.3/../../../../pic32mx/lib\libpic32.a(strlen.o)
 .reginfo       0x00000000       0x18 c:/program files (x86)/microchip/xc32/v2.30/bin/bin/../../lib/gcc/pic32mx/4.8.3/../../../../pic32mx/lib\libpic32.a(default-bootstrap-exception-handler.o)
 .reginfo       0x00000000       0x18 c:/program files (x86)/microchip/xc32/v2.30/bin/bin/../../lib/gcc/pic32mx/4.8.3/../../../../pic32mx/lib\libpic32.a(default-on-reset.o)
 .reginfo       0x00000000       0x18 c:/program files (x86)/microchip/xc32/v2.30/bin/bin/../../lib/gcc/pic32mx/4.8.3/../../../../pic32mx/lib\libpic32.a(default-on-bootstrap.o)
 .reginfo       0x00000000       0x18 c:/program files (x86)/microchip/xc32/v2.30/bin/bin/../../lib/gcc/pic32mx/4.8.3/../../../../pic32mx/lib\libpic32.a(default-nmi-handler.o)
 .reginfo       0x00000000       0x18 c:/program files (x86)/microchip/xc32/v2.30/bin/bin/../../lib/gcc/pic32mx/4.8.3/../../../../pic32mx/lib\libpic32.a(pic32_data_init.o)
 .reginfo       0x00000000       0x18 c:/program files (x86)/microchip/xc32/v2.30/bin/bin/../../lib/gcc/pic32mx/4.8.3/../../../../pic32mx/lib\libpic32.a(pic32_init_cache.o)
 .reginfo       0x00000000       0x18 c:/program files (x86)/microchip/xc32/v2.30/bin/bin/../../lib/gcc/pic32mx/4.8.3/../../../../pic32mx/lib\libpic32.a(pic32_init_tlb_ebi_sqi.o)
 .reginfo       0x00000000       0x18 c:/program files (x86)/microchip/xc32/v2.30/bin/bin/../../lib/gcc/pic32mx/4.8.3/../../../../pic32mx/lib\libpic32.a(general-exception.o)
 .reginfo       0x00000000       0x18 c:/program files (x86)/microchip/xc32/v2.30/bin/bin/../../lib/gcc/pic32mx/4.8.3/../../../../pic32mx/lib\libpic32.a(cache-err-exception.o)
 .reginfo       0x00000000       0x18 c:/program files (x86)/microchip/xc32/v2.30/bin/bin/../../lib/gcc/pic32mx/4.8.3/../../../../pic32mx/lib\libpic32.a(simple-tlb-refill-exception.o)
 .reginfo       0x00000000       0x18 c:/program files (x86)/microchip/xc32/v2.30/bin/bin/../../lib/gcc/pic32mx/4.8.3/../../../../pic32mx/lib\libpic32.a(defaultinterrupt.o)
 .reginfo       0x00000000       0x18 c:/program files (x86)/microchip/xc32/v2.30/bin/bin/../../lib/gcc/pic32mx/4.8.3/../../../../pic32mx/lib\libpic32.a(default-cache-err-exception-handler.o)
 .reginfo       0x00000000       0x18 c:/program files (x86)/microchip/xc32/v2.30/bin/bin/../../lib/gcc/pic32mx/4.8.3/../../../../pic32mx/lib\libpic32.a(default-simple-tlb-refill-exception-handler.o)
 .reginfo       0x00000000       0x18 c:/program files (x86)/microchip/xc32/v2.30/bin/bin/../../lib/gcc/pic32mx/4.8.3/../../../../pic32mx/lib\liblega-c.a(strncmp.o)
 .reginfo       0x00000000       0x18 c:/program files (x86)/microchip/xc32/v2.30/bin/bin/../../lib/gcc/pic32mx/4.8.3/../../../../pic32mx/lib\liblega-c.a(strncpy.o)
 .reginfo       0x00000000       0x18 c:/program files (x86)/microchip/xc32/v2.30/bin/bin/../../lib/gcc/pic32mx/4.8.3/../../../../pic32mx/lib\libm.a(dp32mul.o)
 .reginfo       0x00000000       0x18 c:/program files (x86)/microchip/xc32/v2.30/bin/bin/../../lib/gcc/pic32mx/4.8.3/../../../../pic32mx/lib\libm.a(dp32subadd.o)
 .reginfo       0x00000000       0x18 c:/program files (x86)/microchip/xc32/v2.30/bin/bin/../../lib/gcc/pic32mx/4.8.3/../../../../pic32mx/lib\libm.a(dptofp.o)
 .reginfo       0x00000000       0x18 c:/program files (x86)/microchip/xc32/v2.30/bin/bin/../../lib/gcc/pic32mx/4.8.3/../../../../pic32mx/lib\libm.a(dptoul.o)
 .reginfo       0x00000000       0x18 c:/program files (x86)/microchip/xc32/v2.30/bin/bin/../../lib/gcc/pic32mx/4.8.3/../../../../pic32mx/lib\libm.a(fp32div.o)
 .reginfo       0x00000000       0x18 c:/program files (x86)/microchip/xc32/v2.30/bin/bin/../../lib/gcc/pic32mx/4.8.3/../../../../pic32mx/lib\libm.a(fp32mul.o)
 .reginfo       0x00000000       0x18 c:/program files (x86)/microchip/xc32/v2.30/bin/bin/../../lib/gcc/pic32mx/4.8.3/../../../../pic32mx/lib\libm.a(fp32subadd.o)
 .reginfo       0x00000000       0x18 c:/program files (x86)/microchip/xc32/v2.30/bin/bin/../../lib/gcc/pic32mx/4.8.3/../../../../pic32mx/lib\libm.a(fpceil32.o)
 .reginfo       0x00000000       0x18 c:/program files (x86)/microchip/xc32/v2.30/bin/bin/../../lib/gcc/pic32mx/4.8.3/../../../../pic32mx/lib\libm.a(fpcmp.o)
 .reginfo       0x00000000       0x18 c:/program files (x86)/microchip/xc32/v2.30/bin/bin/../../lib/gcc/pic32mx/4.8.3/../../../../pic32mx/lib\libm.a(fpcos32.o)
 .reginfo       0x00000000       0x18 c:/program files (x86)/microchip/xc32/v2.30/bin/bin/../../lib/gcc/pic32mx/4.8.3/../../../../pic32mx/lib\libm.a(fpfloo32.o)
 .reginfo       0x00000000       0x18 c:/program files (x86)/microchip/xc32/v2.30/bin/bin/../../lib/gcc/pic32mx/4.8.3/../../../../pic32mx/lib\libm.a(fpreduct32.o)
 .reginfo       0x00000000       0x18 c:/program files (x86)/microchip/xc32/v2.30/bin/bin/../../lib/gcc/pic32mx/4.8.3/../../../../pic32mx/lib\libm.a(fpsin32.o)
 .reginfo       0x00000000       0x18 c:/program files (x86)/microchip/xc32/v2.30/bin/bin/../../lib/gcc/pic32mx/4.8.3/../../../../pic32mx/lib\libm.a(fptodp.o)
 .reginfo       0x00000000       0x18 c:/program files (x86)/microchip/xc32/v2.30/bin/bin/../../lib/gcc/pic32mx/4.8.3/../../../../pic32mx/lib\libm.a(fptoli.o)
 .reginfo       0x00000000       0x18 c:/program files (x86)/microchip/xc32/v2.30/bin/bin/../../lib/gcc/pic32mx/4.8.3/../../../../pic32mx/lib\libm.a(fptoul.o)
 .reginfo       0x00000000       0x18 c:/program files (x86)/microchip/xc32/v2.30/bin/bin/../../lib/gcc/pic32mx/4.8.3/../../../../pic32mx/lib\libm.a(litodp.o)
 .reginfo       0x00000000       0x18 c:/program files (x86)/microchip/xc32/v2.30/bin/bin/../../lib/gcc/pic32mx/4.8.3/../../../../pic32mx/lib\libm.a(sincof32.o)
 .reginfo       0x00000000       0x18 c:/program files (x86)/microchip/xc32/v2.30/bin/bin/../../lib/gcc/pic32mx/4.8.3/../../../../pic32mx/lib\libm.a(sitofp.o)
 .reginfo       0x00000000       0x18 c:/program files (x86)/microchip/xc32/v2.30/bin/bin/../../lib/gcc/pic32mx/4.8.3/../../../../pic32mx/lib\libm.a(w_atan2f.o)
 .reginfo       0x00000000       0x18 c:/program files (x86)/microchip/xc32/v2.30/bin/bin/../../lib/gcc/pic32mx/4.8.3/../../../../pic32mx/lib\libm.a(w_sqrtf.o)
 .reginfo       0x00000000       0x18 c:/program files (x86)/microchip/xc32/v2.30/bin/bin/../../lib/gcc/pic32mx/4.8.3/../../../../pic32mx/lib\libm.a(support.o)
 .reginfo       0x00000000       0x18 c:/program files (x86)/microchip/xc32/v2.30/bin/bin/../../lib/gcc/pic32mx/4.8.3/../../../../pic32mx/lib\libm.a(dpldexp.o)
 .reginfo       0x00000000       0x18 c:/program files (x86)/microchip/xc32/v2.30/bin/bin/../../lib/gcc/pic32mx/4.8.3/../../../../pic32mx/lib\libm.a(dp32div.o)
 .reginfo       0x00000000       0x18 c:/program files (x86)/microchip/xc32/v2.30/bin/bin/../../lib/gcc/pic32mx/4.8.3/../../../../pic32mx/lib\libm.a(dpcmp.o)
 .reginfo       0x00000000       0x18 c:/program files (x86)/microchip/xc32/v2.30/bin/bin/../../lib/gcc/pic32mx/4.8.3/../../../../pic32mx/lib\libm.a(fpatan2.o)
 .reginfo       0x00000000       0x18 c:/program files (x86)/microchip/xc32/v2.30/bin/bin/../../lib/gcc/pic32mx/4.8.3/../../../../pic32mx/lib\libm.a(fpexatan.o)
 .reginfo       0x00000000       0x18 c:/program files (x86)/microchip/xc32/v2.30/bin/bin/../../lib/gcc/pic32mx/4.8.3/../../../../pic32mx/lib\libm.a(fpexsqrt32.o)
 .reginfo       0x00000000       0x18 c:/program files (x86)/microchip/xc32/v2.30/bin/bin/../../lib/gcc/pic32mx/4.8.3/../../../../pic32mx/lib\libm.a(fpsqrt32.o)
 .reginfo       0x00000000       0x18 c:/program files (x86)/microchip/xc32/v2.30/bin/bin/../../lib/gcc/pic32mx/4.8.3/../../../../pic32mx/lib\libm.a(s_lib_ver.o)
 .reginfo       0x00000000       0x18 c:/program files (x86)/microchip/xc32/v2.30/bin/bin/../../lib/gcc/pic32mx/4.8.3/../../../../pic32mx/lib\libpic32.a(errno.o)

Memory Configuration

Name             Origin             Length             Attributes
kseg0_program_mem 0x9d001000         0x001ff000         xr
kseg1_boot_mem   0x9d000000         0x00000480
kseg1_boot_mem_4B0 0x9d0004b0         0x00000b50
kseg0_data_mem   0x80000000         0x0007f000         w !x
kseg0_shared_mem 0x8007f000         0x00000100         w !x
sfrs             0xbf800000         0x00100000
kseg2_ebi_data_mem 0xc0000000         0x04000000
kseg2_sqi_data_mem 0xd0000000         0x04000000
kseg3_ebi_data_mem 0xe0000000         0x04000000
kseg3_sqi_data_mem 0xf0000000         0x04000000
*default*        0x00000000         0xffffffff

Linker script and memory map

LOAD c:/program files (x86)/microchip/xc32/v2.30/bin/bin/../../lib/gcc/pic32mx/4.8.3/../../../../pic32mx/lib\debug-exception-return.o
LOAD output\tmr.o
LOAD output\ringBuffer.o
LOAD output\task.o
LOAD output\eeprom.o
LOAD output\eep_manager.o
LOAD output\main.o
LOAD output\c_eep_manager.o
LOAD output\app.o
LOAD output\ad.o
LOAD output\gcode.o
LOAD output\grbl_limits.o
LOAD output\coolant_control.o
LOAD output\motion_control.o
LOAD output\nuts_bolts.o
LOAD output\planner.o
LOAD output\print.o
LOAD output\report.o
LOAD output\settings.o
LOAD output\spindle_control.o
LOAD output\stepper.o
LOAD output\system.o
LOAD output\grbl.o
LOAD output\pwm.o
LOAD output\jog.o
LOAD output\dee.o
LOAD output\dee_page.o
LOAD output\dee_page_helper.o
LOAD output\eep_manager_crc.o
LOAD output\system_control.o
LOAD output\stepper_enable.o
LOAD output\system_exec.o
LOAD output\system_alarm.o
LOAD output\grbl_eeprom.o
LOAD output\bootloader_interface.o
LOAD output\grbl_toolchange.o
LOAD output\grbl_protocol.o
LOAD output\grbl_running.o
LOAD output\grbl_bootloader.o
LOAD output\grbl_probe.o
LOAD output\ethernet.o
LOAD output\ENC28J60.o
LOAD output\DHCP.o
LOAD output\Delay.o
LOAD output\ARP.o
LOAD output\Announce.o
LOAD output\Helpers.o
LOAD output\ICMP.o
LOAD output\IP.o
LOAD output\StackTsk.o
LOAD output\UDP.o
LOAD output\ethernet_grbl_multi.o
LOAD output\grbl_multi.o
LOAD output\Reboot.o
LOAD output\TCP.o
LOAD output\BerkeleyAPI.o
LOAD output\mal.o
LOAD output\isr.o
LOAD output\exceptions.o
LOAD output\usb_device_cdc_acm.o
LOAD output\usb_device_cdc.o
LOAD output\usb_device.o
LOAD output\usb_app.o
LOAD output\usb.o
LOAD output\system_tasks.o
LOAD output\sys_int_pic32.o
LOAD output\system_init.o
LOAD output\peripheral.o
LOAD output\drv_usbhs_device.o
LOAD output\drv_usbhs.o
LOAD output\bsp_sys_init.o
LOAD output\stackmeasure.o
LOAD output\stackmeasure_helper.o
LOAD output\noinitram.o
LOAD output\usb_grbl_multi.o
                0x00000400                PROVIDE (_min_stack_size, 0x400)
START GROUP
LOAD c:/program files (x86)/microchip/xc32/v2.30/bin/bin/../../lib/gcc/pic32mx/4.8.3/../../../../pic32mx/lib/./proc/32MZ2048ECG144\vector_offset_init.o
END GROUP
                0x00000001                PROVIDE (_vector_spacing, 0x1)
                0x9d001000                PROVIDE (_ebase_address, 0x9d001000)
                0x9d000000                _RESET_ADDR = 0x9d000000
                0x9d001000                _SIMPLE_TLB_REFILL_EXCPT_ADDR = (_ebase_address + 0x0)
                0x9d001100                _CACHE_ERR_EXCPT_ADDR = (_ebase_address + 0x100)
                0x9d001180                _GEN_EXCPT_ADDR = (_ebase_address + 0x180)

.reset          0x9d000000      0x1a4
 *(.reset)
 .reset         0x9d000000       0x18 C:\Users\kyrk\AppData\Local\Temp\ccW9mKTz.o
                0x9d000000                _reset
 *(.reset.startup)
 .reset.startup
                0x9d000018      0x18c C:\Users\kyrk\AppData\Local\Temp\ccW9mKTz.o
                0x9d000018                _startup

.cache_init     0x9d0004b0      0x218
 *(.cache_init)
 *(.cache_init.*)
 .cache_init.cache
                0x9d0004b0       0xc0 c:/program files (x86)/microchip/xc32/v2.30/bin/bin/../../lib/gcc/pic32mx/4.8.3/../../../../pic32mx/lib\libpic32.a(pic32_init_cache.o)
 .cache_init.pic32_size_cache
                0x9d000570       0x58 c:/program files (x86)/microchip/xc32/v2.30/bin/bin/../../lib/gcc/pic32mx/4.8.3/../../../../pic32mx/lib\libpic32.a(pic32_init_cache.o)
                0x9d000570                __pic32_size_cache
 .cache_init.pic32_init_cache
                0x9d0005c8      0x100 c:/program files (x86)/microchip/xc32/v2.30/bin/bin/../../lib/gcc/pic32mx/4.8.3/../../../../pic32mx/lib\libpic32.a(pic32_init_cache.o)
                0x9d0005c8                __pic32_init_cache

.simple_tlb_refill_excpt
                0x9d001000       0x10
 *(.simple_tlb_refill_vector)
 .simple_tlb_refill_vector
                0x9d001000       0x10 C:\Users\kyrk\AppData\Local\Temp\ccW9mKTz.o

.cache_err_excpt
                0x9d001100       0x10
 *(.cache_err_vector)
 .cache_err_vector
                0x9d001100       0x10 C:\Users\kyrk\AppData\Local\Temp\ccW9mKTz.o

.app_excpt      0x9d001180       0x10
 *(.gen_handler)
 .gen_handler   0x9d001180       0x10 C:\Users\kyrk\AppData\Local\Temp\ccW9mKTz.o

.vectors        0x9d001200      0x170
                0x9d001200                . = ALIGN (0x4)
                0x00000200                __vector_offset_0 = DEFINED (__vector_dispatch_0)?(. - _ebase_address):__vector_offset_default
 *(.vector_0)
 .vector_0      0x9d001200        0x8 output\isr.o
                0x9d001200                __vector_dispatch_0
                0x9d001208                . = ALIGN (0x4)
                0x00000328                __vector_offset_1 = DEFINED (__vector_dispatch_1)?(. - _ebase_address):__vector_offset_default
 *(.vector_1)
                0x9d001208                . = ALIGN (0x4)
                0x00000328                __vector_offset_2 = DEFINED (__vector_dispatch_2)?(. - _ebase_address):__vector_offset_default
 *(.vector_2)
                0x9d001208                . = ALIGN (0x4)
                0x00000328                __vector_offset_3 = DEFINED (__vector_dispatch_3)?(. - _ebase_address):__vector_offset_default
 *(.vector_3)
                0x9d001208                . = ALIGN (0x4)
                0x00000208                __vector_offset_4 = DEFINED (__vector_dispatch_4)?(. - _ebase_address):__vector_offset_default
 *(.vector_4)
 .vector_4      0x9d001208        0x8 output\isr.o
                0x9d001208                __vector_dispatch_4
                0x9d001210                . = ALIGN (0x4)
                0x00000328                __vector_offset_5 = DEFINED (__vector_dispatch_5)?(. - _ebase_address):__vector_offset_default
 *(.vector_5)
                0x9d001210                . = ALIGN (0x4)
                0x00000328                __vector_offset_6 = DEFINED (__vector_dispatch_6)?(. - _ebase_address):__vector_offset_default
 *(.vector_6)
                0x9d001210                . = ALIGN (0x4)
                0x00000210                __vector_offset_7 = DEFINED (__vector_dispatch_7)?(. - _ebase_address):__vector_offset_default
 *(.vector_7)
 .vector_7      0x9d001210        0x8 output\isr.o
                0x9d001210                __vector_dispatch_7
                0x9d001218                . = ALIGN (0x4)
                0x00000328                __vector_offset_8 = DEFINED (__vector_dispatch_8)?(. - _ebase_address):__vector_offset_default
 *(.vector_8)
                0x9d001218                . = ALIGN (0x4)
                0x00000218                __vector_offset_9 = DEFINED (__vector_dispatch_9)?(. - _ebase_address):__vector_offset_default
 *(.vector_9)
 .vector_9      0x9d001218        0x8 output\isr.o
                0x9d001218                __vector_dispatch_9
                0x9d001220                . = ALIGN (0x4)
                0x00000328                __vector_offset_10 = DEFINED (__vector_dispatch_10)?(. - _ebase_address):__vector_offset_default
 *(.vector_10)
                0x9d001220                . = ALIGN (0x4)
                0x00000328                __vector_offset_11 = DEFINED (__vector_dispatch_11)?(. - _ebase_address):__vector_offset_default
 *(.vector_11)
                0x9d001220                . = ALIGN (0x4)
                0x00000220                __vector_offset_12 = DEFINED (__vector_dispatch_12)?(. - _ebase_address):__vector_offset_default
 *(.vector_12)
 .vector_12     0x9d001220        0x8 output\isr.o
                0x9d001220                __vector_dispatch_12
                0x9d001228                . = ALIGN (0x4)
                0x00000328                __vector_offset_13 = DEFINED (__vector_dispatch_13)?(. - _ebase_address):__vector_offset_default
 *(.vector_13)
                0x9d001228                . = ALIGN (0x4)
                0x00000228                __vector_offset_14 = DEFINED (__vector_dispatch_14)?(. - _ebase_address):__vector_offset_default
 *(.vector_14)
 .vector_14     0x9d001228        0x8 output\isr.o
                0x9d001228                __vector_dispatch_14
                0x9d001230                . = ALIGN (0x4)
                0x00000328                __vector_offset_15 = DEFINED (__vector_dispatch_15)?(. - _ebase_address):__vector_offset_default
 *(.vector_15)
                0x9d001230                . = ALIGN (0x4)
                0x00000328                __vector_offset_16 = DEFINED (__vector_dispatch_16)?(. - _ebase_address):__vector_offset_default
 *(.vector_16)
                0x9d001230                . = ALIGN (0x4)
                0x00000230                __vector_offset_17 = DEFINED (__vector_dispatch_17)?(. - _ebase_address):__vector_offset_default
 *(.vector_17)
 .vector_17     0x9d001230        0x8 output\isr.o
                0x9d001230                __vector_dispatch_17
                0x9d001238                . = ALIGN (0x4)
                0x00000238                __vector_offset_18 = DEFINED (__vector_dispatch_18)?(. - _ebase_address):__vector_offset_default
 *(.vector_18)
 .vector_18     0x9d001238        0x8 output\isr.o
                0x9d001238                __vector_dispatch_18
                0x9d001240                . = ALIGN (0x4)
                0x00000240                __vector_offset_19 = DEFINED (__vector_dispatch_19)?(. - _ebase_address):__vector_offset_default
 *(.vector_19)
 .vector_19     0x9d001240        0x8 output\isr.o
                0x9d001240                __vector_dispatch_19
                0x9d001248                . = ALIGN (0x4)
                0x00000328                __vector_offset_20 = DEFINED (__vector_dispatch_20)?(. - _ebase_address):__vector_offset_default
 *(.vector_20)
                0x9d001248                . = ALIGN (0x4)
                0x00000328                __vector_offset_21 = DEFINED (__vector_dispatch_21)?(. - _ebase_address):__vector_offset_default
 *(.vector_21)
                0x9d001248                . = ALIGN (0x4)
                0x00000248                __vector_offset_22 = DEFINED (__vector_dispatch_22)?(. - _ebase_address):__vector_offset_default
 *(.vector_22)
 .vector_22     0x9d001248        0x8 output\isr.o
                0x9d001248                __vector_dispatch_22
                0x9d001250                . = ALIGN (0x4)
                0x00000328                __vector_offset_23 = DEFINED (__vector_dispatch_23)?(. - _ebase_address):__vector_offset_default
 *(.vector_23)
                0x9d001250                . = ALIGN (0x4)
                0x00000328                __vector_offset_24 = DEFINED (__vector_dispatch_24)?(. - _ebase_address):__vector_offset_default
 *(.vector_24)
                0x9d001250                . = ALIGN (0x4)
                0x00000328                __vector_offset_25 = DEFINED (__vector_dispatch_25)?(. - _ebase_address):__vector_offset_default
 *(.vector_25)
                0x9d001250                . = ALIGN (0x4)
                0x00000328                __vector_offset_26 = DEFINED (__vector_dispatch_26)?(. - _ebase_address):__vector_offset_default
 *(.vector_26)
                0x9d001250                . = ALIGN (0x4)
                0x00000328                __vector_offset_27 = DEFINED (__vector_dispatch_27)?(. - _ebase_address):__vector_offset_default
 *(.vector_27)
                0x9d001250                . = ALIGN (0x4)
                0x00000328                __vector_offset_28 = DEFINED (__vector_dispatch_28)?(. - _ebase_address):__vector_offset_default
 *(.vector_28)
                0x9d001250                . = ALIGN (0x4)
                0x00000328                __vector_offset_29 = DEFINED (__vector_dispatch_29)?(. - _ebase_address):__vector_offset_default
 *(.vector_29)
                0x9d001250                . = ALIGN (0x4)
                0x00000328                __vector_offset_30 = DEFINED (__vector_dispatch_30)?(. - _ebase_address):__vector_offset_default
 *(.vector_30)
                0x9d001250                . = ALIGN (0x4)
                0x00000328                __vector_offset_31 = DEFINED (__vector_dispatch_31)?(. - _ebase_address):__vector_offset_default
 *(.vector_31)
                0x9d001250                . = ALIGN (0x4)
                0x00000328                __vector_offset_32 = DEFINED (__vector_dispatch_32)?(. - _ebase_address):__vector_offset_default
 *(.vector_32)
                0x9d001250                . = ALIGN (0x4)
                0x00000328                __vector_offset_33 = DEFINED (__vector_dispatch_33)?(. - _ebase_address):__vector_offset_default
 *(.vector_33)
                0x9d001250                . = ALIGN (0x4)
                0x00000328                __vector_offset_34 = DEFINED (__vector_dispatch_34)?(. - _ebase_address):__vector_offset_default
 *(.vector_34)
                0x9d001250                . = ALIGN (0x4)
                0x00000328                __vector_offset_35 = DEFINED (__vector_dispatch_35)?(. - _ebase_address):__vector_offset_default
 *(.vector_35)
                0x9d001250                . = ALIGN (0x4)
                0x00000328                __vector_offset_36 = DEFINED (__vector_dispatch_36)?(. - _ebase_address):__vector_offset_default
 *(.vector_36)
                0x9d001250                . = ALIGN (0x4)
                0x00000328                __vector_offset_37 = DEFINED (__vector_dispatch_37)?(. - _ebase_address):__vector_offset_default
 *(.vector_37)
                0x9d001250                . = ALIGN (0x4)
                0x00000328                __vector_offset_38 = DEFINED (__vector_dispatch_38)?(. - _ebase_address):__vector_offset_default
 *(.vector_38)
                0x9d001250                . = ALIGN (0x4)
                0x00000328                __vector_offset_39 = DEFINED (__vector_dispatch_39)?(. - _ebase_address):__vector_offset_default
 *(.vector_39)
                0x9d001250                . = ALIGN (0x4)
                0x00000328                __vector_offset_40 = DEFINED (__vector_dispatch_40)?(. - _ebase_address):__vector_offset_default
 *(.vector_40)
                0x9d001250                . = ALIGN (0x4)
                0x00000328                __vector_offset_41 = DEFINED (__vector_dispatch_41)?(. - _ebase_address):__vector_offset_default
 *(.vector_41)
                0x9d001250                . = ALIGN (0x4)
                0x00000328                __vector_offset_42 = DEFINED (__vector_dispatch_42)?(. - _ebase_address):__vector_offset_default
 *(.vector_42)
                0x9d001250                . = ALIGN (0x4)
                0x00000328                __vector_offset_43 = DEFINED (__vector_dispatch_43)?(. - _ebase_address):__vector_offset_default
 *(.vector_43)
                0x9d001250                . = ALIGN (0x4)
                0x00000328                __vector_offset_44 = DEFINED (__vector_dispatch_44)?(. - _ebase_address):__vector_offset_default
 *(.vector_44)
                0x9d001250                . = ALIGN (0x4)
                0x00000328                __vector_offset_45 = DEFINED (__vector_dispatch_45)?(. - _ebase_address):__vector_offset_default
 *(.vector_45)
                0x9d001250                . = ALIGN (0x4)
                0x00000328                __vector_offset_46 = DEFINED (__vector_dispatch_46)?(. - _ebase_address):__vector_offset_default
 *(.vector_46)
                0x9d001250                . = ALIGN (0x4)
                0x00000328                __vector_offset_47 = DEFINED (__vector_dispatch_47)?(. - _ebase_address):__vector_offset_default
 *(.vector_47)
                0x9d001250                . = ALIGN (0x4)
                0x00000328                __vector_offset_48 = DEFINED (__vector_dispatch_48)?(. - _ebase_address):__vector_offset_default
 *(.vector_48)
                0x9d001250                . = ALIGN (0x4)
                0x00000328                __vector_offset_49 = DEFINED (__vector_dispatch_49)?(. - _ebase_address):__vector_offset_default
 *(.vector_49)
                0x9d001250                . = ALIGN (0x4)
                0x00000328                __vector_offset_50 = DEFINED (__vector_dispatch_50)?(. - _ebase_address):__vector_offset_default
 *(.vector_50)
                0x9d001250                . = ALIGN (0x4)
                0x00000328                __vector_offset_51 = DEFINED (__vector_dispatch_51)?(. - _ebase_address):__vector_offset_default
 *(.vector_51)
                0x9d001250                . = ALIGN (0x4)
                0x00000328                __vector_offset_52 = DEFINED (__vector_dispatch_52)?(. - _ebase_address):__vector_offset_default
 *(.vector_52)
                0x9d001250                . = ALIGN (0x4)
                0x00000328                __vector_offset_53 = DEFINED (__vector_dispatch_53)?(. - _ebase_address):__vector_offset_default
 *(.vector_53)
                0x9d001250                . = ALIGN (0x4)
                0x00000328                __vector_offset_54 = DEFINED (__vector_dispatch_54)?(. - _ebase_address):__vector_offset_default
 *(.vector_54)
                0x9d001250                . = ALIGN (0x4)
                0x00000328                __vector_offset_55 = DEFINED (__vector_dispatch_55)?(. - _ebase_address):__vector_offset_default
 *(.vector_55)
                0x9d001250                . = ALIGN (0x4)
                0x00000328                __vector_offset_56 = DEFINED (__vector_dispatch_56)?(. - _ebase_address):__vector_offset_default
 *(.vector_56)
                0x9d001250                . = ALIGN (0x4)
                0x00000328                __vector_offset_57 = DEFINED (__vector_dispatch_57)?(. - _ebase_address):__vector_offset_default
 *(.vector_57)
                0x9d001250                . = ALIGN (0x4)
                0x00000328                __vector_offset_58 = DEFINED (__vector_dispatch_58)?(. - _ebase_address):__vector_offset_default
 *(.vector_58)
                0x9d001250                . = ALIGN (0x4)
                0x00000328                __vector_offset_59 = DEFINED (__vector_dispatch_59)?(. - _ebase_address):__vector_offset_default
 *(.vector_59)
                0x9d001250                . = ALIGN (0x4)
                0x00000328                __vector_offset_60 = DEFINED (__vector_dispatch_60)?(. - _ebase_address):__vector_offset_default
 *(.vector_60)
                0x9d001250                . = ALIGN (0x4)
                0x00000328                __vector_offset_61 = DEFINED (__vector_dispatch_61)?(. - _ebase_address):__vector_offset_default
 *(.vector_61)
                0x9d001250                . = ALIGN (0x4)
                0x00000328                __vector_offset_62 = DEFINED (__vector_dispatch_62)?(. - _ebase_address):__vector_offset_default
 *(.vector_62)
                0x9d001250                . = ALIGN (0x4)
                0x00000328                __vector_offset_63 = DEFINED (__vector_dispatch_63)?(. - _ebase_address):__vector_offset_default
 *(.vector_63)
                0x9d001250                . = ALIGN (0x4)
                0x00000328                __vector_offset_64 = DEFINED (__vector_dispatch_64)?(. - _ebase_address):__vector_offset_default
 *(.vector_64)
                0x9d001250                . = ALIGN (0x4)
                0x00000328                __vector_offset_65 = DEFINED (__vector_dispatch_65)?(. - _ebase_address):__vector_offset_default
 *(.vector_65)
                0x9d001250                . = ALIGN (0x4)
                0x00000328                __vector_offset_66 = DEFINED (__vector_dispatch_66)?(. - _ebase_address):__vector_offset_default
 *(.vector_66)
                0x9d001250                . = ALIGN (0x4)
                0x00000328                __vector_offset_67 = DEFINED (__vector_dispatch_67)?(. - _ebase_address):__vector_offset_default
 *(.vector_67)
                0x9d001250                . = ALIGN (0x4)
                0x00000328                __vector_offset_68 = DEFINED (__vector_dispatch_68)?(. - _ebase_address):__vector_offset_default
 *(.vector_68)
                0x9d001250                . = ALIGN (0x4)
                0x00000328                __vector_offset_69 = DEFINED (__vector_dispatch_69)?(. - _ebase_address):__vector_offset_default
 *(.vector_69)
                0x9d001250                . = ALIGN (0x4)
                0x00000328                __vector_offset_70 = DEFINED (__vector_dispatch_70)?(. - _ebase_address):__vector_offset_default
 *(.vector_70)
                0x9d001250                . = ALIGN (0x4)
                0x00000328                __vector_offset_71 = DEFINED (__vector_dispatch_71)?(. - _ebase_address):__vector_offset_default
 *(.vector_71)
                0x9d001250                . = ALIGN (0x4)
                0x00000328                __vector_offset_72 = DEFINED (__vector_dispatch_72)?(. - _ebase_address):__vector_offset_default
 *(.vector_72)
                0x9d001250                . = ALIGN (0x4)
                0x00000328                __vector_offset_73 = DEFINED (__vector_dispatch_73)?(. - _ebase_address):__vector_offset_default
 *(.vector_73)
                0x9d001250                . = ALIGN (0x4)
                0x00000328                __vector_offset_74 = DEFINED (__vector_dispatch_74)?(. - _ebase_address):__vector_offset_default
 *(.vector_74)
                0x9d001250                . = ALIGN (0x4)
                0x00000328                __vector_offset_75 = DEFINED (__vector_dispatch_75)?(. - _ebase_address):__vector_offset_default
 *(.vector_75)
                0x9d001250                . = ALIGN (0x4)
                0x00000328                __vector_offset_76 = DEFINED (__vector_dispatch_76)?(. - _ebase_address):__vector_offset_default
 *(.vector_76)
                0x9d001250                . = ALIGN (0x4)
                0x00000328                __vector_offset_77 = DEFINED (__vector_dispatch_77)?(. - _ebase_address):__vector_offset_default
 *(.vector_77)
                0x9d001250                . = ALIGN (0x4)
                0x00000328                __vector_offset_78 = DEFINED (__vector_dispatch_78)?(. - _ebase_address):__vector_offset_default
 *(.vector_78)
                0x9d001250                . = ALIGN (0x4)
                0x00000328                __vector_offset_79 = DEFINED (__vector_dispatch_79)?(. - _ebase_address):__vector_offset_default
 *(.vector_79)
                0x9d001250                . = ALIGN (0x4)
                0x00000328                __vector_offset_80 = DEFINED (__vector_dispatch_80)?(. - _ebase_address):__vector_offset_default
 *(.vector_80)
                0x9d001250                . = ALIGN (0x4)
                0x00000328                __vector_offset_81 = DEFINED (__vector_dispatch_81)?(. - _ebase_address):__vector_offset_default
 *(.vector_81)
                0x9d001250                . = ALIGN (0x4)
                0x00000328                __vector_offset_82 = DEFINED (__vector_dispatch_82)?(. - _ebase_address):__vector_offset_default
 *(.vector_82)
                0x9d001250                . = ALIGN (0x4)
                0x00000328                __vector_offset_83 = DEFINED (__vector_dispatch_83)?(. - _ebase_address):__vector_offset_default
 *(.vector_83)
                0x9d001250                . = ALIGN (0x4)
                0x00000328                __vector_offset_84 = DEFINED (__vector_dispatch_84)?(. - _ebase_address):__vector_offset_default
 *(.vector_84)
                0x9d001250                . = ALIGN (0x4)
                0x00000328                __vector_offset_85 = DEFINED (__vector_dispatch_85)?(. - _ebase_address):__vector_offset_default
 *(.vector_85)
                0x9d001250                . = ALIGN (0x4)
                0x00000328                __vector_offset_86 = DEFINED (__vector_dispatch_86)?(. - _ebase_address):__vector_offset_default
 *(.vector_86)
                0x9d001250                . = ALIGN (0x4)
                0x00000328                __vector_offset_87 = DEFINED (__vector_dispatch_87)?(. - _ebase_address):__vector_offset_default
 *(.vector_87)
                0x9d001250                . = ALIGN (0x4)
                0x00000328                __vector_offset_88 = DEFINED (__vector_dispatch_88)?(. - _ebase_address):__vector_offset_default
 *(.vector_88)
                0x9d001250                . = ALIGN (0x4)
                0x00000328                __vector_offset_89 = DEFINED (__vector_dispatch_89)?(. - _ebase_address):__vector_offset_default
 *(.vector_89)
                0x9d001250                . = ALIGN (0x4)
                0x00000328                __vector_offset_90 = DEFINED (__vector_dispatch_90)?(. - _ebase_address):__vector_offset_default
 *(.vector_90)
                0x9d001250                . = ALIGN (0x4)
                0x00000328                __vector_offset_91 = DEFINED (__vector_dispatch_91)?(. - _ebase_address):__vector_offset_default
 *(.vector_91)
                0x9d001250                . = ALIGN (0x4)
                0x00000328                __vector_offset_92 = DEFINED (__vector_dispatch_92)?(. - _ebase_address):__vector_offset_default
 *(.vector_92)
                0x9d001250                . = ALIGN (0x4)
                0x00000328                __vector_offset_93 = DEFINED (__vector_dispatch_93)?(. - _ebase_address):__vector_offset_default
 *(.vector_93)
                0x9d001250                . = ALIGN (0x4)
                0x00000328                __vector_offset_94 = DEFINED (__vector_dispatch_94)?(. - _ebase_address):__vector_offset_default
 *(.vector_94)
                0x9d001250                . = ALIGN (0x4)
                0x00000328                __vector_offset_95 = DEFINED (__vector_dispatch_95)?(. - _ebase_address):__vector_offset_default
 *(.vector_95)
                0x9d001250                . = ALIGN (0x4)
                0x00000328                __vector_offset_96 = DEFINED (__vector_dispatch_96)?(. - _ebase_address):__vector_offset_default
 *(.vector_96)
                0x9d001250                . = ALIGN (0x4)
                0x00000328                __vector_offset_97 = DEFINED (__vector_dispatch_97)?(. - _ebase_address):__vector_offset_default
 *(.vector_97)
                0x9d001250                . = ALIGN (0x4)
                0x00000328                __vector_offset_98 = DEFINED (__vector_dispatch_98)?(. - _ebase_address):__vector_offset_default
 *(.vector_98)
                0x9d001250                . = ALIGN (0x4)
                0x00000328                __vector_offset_99 = DEFINED (__vector_dispatch_99)?(. - _ebase_address):__vector_offset_default
 *(.vector_99)
                0x9d001250                . = ALIGN (0x4)
                0x00000328                __vector_offset_100 = DEFINED (__vector_dispatch_100)?(. - _ebase_address):__vector_offset_default
 *(.vector_100)
                0x9d001250                . = ALIGN (0x4)
                0x00000328                __vector_offset_101 = DEFINED (__vector_dispatch_101)?(. - _ebase_address):__vector_offset_default
 *(.vector_101)
                0x9d001250                . = ALIGN (0x4)
                0x00000328                __vector_offset_102 = DEFINED (__vector_dispatch_102)?(. - _ebase_address):__vector_offset_default
 *(.vector_102)
                0x9d001250                . = ALIGN (0x4)
                0x00000328                __vector_offset_103 = DEFINED (__vector_dispatch_103)?(. - _ebase_address):__vector_offset_default
 *(.vector_103)
                0x9d001250                . = ALIGN (0x4)
                0x00000328                __vector_offset_104 = DEFINED (__vector_dispatch_104)?(. - _ebase_address):__vector_offset_default
 *(.vector_104)
                0x9d001250                . = ALIGN (0x4)
                0x00000328                __vector_offset_105 = DEFINED (__vector_dispatch_105)?(. - _ebase_address):__vector_offset_default
 *(.vector_105)
                0x9d001250                . = ALIGN (0x4)
                0x00000328                __vector_offset_106 = DEFINED (__vector_dispatch_106)?(. - _ebase_address):__vector_offset_default
 *(.vector_106)
                0x9d001250                . = ALIGN (0x4)
                0x00000328                __vector_offset_107 = DEFINED (__vector_dispatch_107)?(. - _ebase_address):__vector_offset_default
 *(.vector_107)
                0x9d001250                . = ALIGN (0x4)
                0x00000328                __vector_offset_108 = DEFINED (__vector_dispatch_108)?(. - _ebase_address):__vector_offset_default
 *(.vector_108)
                0x9d001250                . = ALIGN (0x4)
                0x00000328                __vector_offset_109 = DEFINED (__vector_dispatch_109)?(. - _ebase_address):__vector_offset_default
 *(.vector_109)
                0x9d001250                . = ALIGN (0x4)
                0x00000328                __vector_offset_110 = DEFINED (__vector_dispatch_110)?(. - _ebase_address):__vector_offset_default
 *(.vector_110)
                0x9d001250                . = ALIGN (0x4)
                0x00000328                __vector_offset_111 = DEFINED (__vector_dispatch_111)?(. - _ebase_address):__vector_offset_default
 *(.vector_111)
                0x9d001250                . = ALIGN (0x4)
                0x00000250                __vector_offset_112 = DEFINED (__vector_dispatch_112)?(. - _ebase_address):__vector_offset_default
 *(.vector_112)
 .vector_112    0x9d001250        0x8 output\isr.o
                0x9d001250                __vector_dispatch_112
                0x9d001258                . = ALIGN (0x4)
                0x00000258                __vector_offset_113 = DEFINED (__vector_dispatch_113)?(. - _ebase_address):__vector_offset_default
 *(.vector_113)
 .vector_113    0x9d001258        0x8 output\isr.o
                0x9d001258                __vector_dispatch_113
                0x9d001260                . = ALIGN (0x4)
                0x00000260                __vector_offset_114 = DEFINED (__vector_dispatch_114)?(. - _ebase_address):__vector_offset_default
 *(.vector_114)
 .vector_114    0x9d001260        0x8 output\isr.o
                0x9d001260                __vector_dispatch_114
                0x9d001268                . = ALIGN (0x4)
                0x00000328                __vector_offset_115 = DEFINED (__vector_dispatch_115)?(. - _ebase_address):__vector_offset_default
 *(.vector_115)
                0x9d001268                . = ALIGN (0x4)
                0x00000328                __vector_offset_116 = DEFINED (__vector_dispatch_116)?(. - _ebase_address):__vector_offset_default
 *(.vector_116)
                0x9d001268                . = ALIGN (0x4)
                0x00000328                __vector_offset_117 = DEFINED (__vector_dispatch_117)?(. - _ebase_address):__vector_offset_default
 *(.vector_117)
                0x9d001268                . = ALIGN (0x4)
                0x00000268                __vector_offset_118 = DEFINED (__vector_dispatch_118)?(. - _ebase_address):__vector_offset_default
 *(.vector_118)
 .vector_118    0x9d001268        0x8 output\isr.o
                0x9d001268                __vector_dispatch_118
                0x9d001270                . = ALIGN (0x4)
                0x00000270                __vector_offset_119 = DEFINED (__vector_dispatch_119)?(. - _ebase_address):__vector_offset_default
 *(.vector_119)
 .vector_119    0x9d001270        0x8 output\isr.o
                0x9d001270                __vector_dispatch_119
                0x9d001278                . = ALIGN (0x4)
                0x00000278                __vector_offset_120 = DEFINED (__vector_dispatch_120)?(. - _ebase_address):__vector_offset_default
 *(.vector_120)
 .vector_120    0x9d001278        0x8 output\isr.o
                0x9d001278                __vector_dispatch_120
                0x9d001280                . = ALIGN (0x4)
                0x00000280                __vector_offset_121 = DEFINED (__vector_dispatch_121)?(. - _ebase_address):__vector_offset_default
 *(.vector_121)
 .vector_121    0x9d001280        0x8 output\isr.o
                0x9d001280                __vector_dispatch_121
                0x9d001288                . = ALIGN (0x4)
                0x00000288                __vector_offset_122 = DEFINED (__vector_dispatch_122)?(. - _ebase_address):__vector_offset_default
 *(.vector_122)
 .vector_122    0x9d001288        0x8 output\isr.o
                0x9d001288                __vector_dispatch_122
                0x9d001290                . = ALIGN (0x4)
                0x00000290                __vector_offset_123 = DEFINED (__vector_dispatch_123)?(. - _ebase_address):__vector_offset_default
 *(.vector_123)
 .vector_123    0x9d001290        0x8 output\isr.o
                0x9d001290                __vector_dispatch_123
                0x9d001298                . = ALIGN (0x4)
                0x00000298                __vector_offset_124 = DEFINED (__vector_dispatch_124)?(. - _ebase_address):__vector_offset_default
 *(.vector_124)
 .vector_124    0x9d001298        0x8 output\isr.o
                0x9d001298                __vector_dispatch_124
                0x9d0012a0                . = ALIGN (0x4)
                0x000002a0                __vector_offset_125 = DEFINED (__vector_dispatch_125)?(. - _ebase_address):__vector_offset_default
 *(.vector_125)
 .vector_125    0x9d0012a0        0x8 output\isr.o
                0x9d0012a0                __vector_dispatch_125
                0x9d0012a8                . = ALIGN (0x4)
                0x000002a8                __vector_offset_126 = DEFINED (__vector_dispatch_126)?(. - _ebase_address):__vector_offset_default
 *(.vector_126)
 .vector_126    0x9d0012a8        0x8 output\isr.o
                0x9d0012a8                __vector_dispatch_126
                0x9d0012b0                . = ALIGN (0x4)
                0x000002b0                __vector_offset_127 = DEFINED (__vector_dispatch_127)?(. - _ebase_address):__vector_offset_default
 *(.vector_127)
 .vector_127    0x9d0012b0        0x8 output\isr.o
                0x9d0012b0                __vector_dispatch_127
                0x9d0012b8                . = ALIGN (0x4)
                0x00000328                __vector_offset_128 = DEFINED (__vector_dispatch_128)?(. - _ebase_address):__vector_offset_default
 *(.vector_128)
                0x9d0012b8                . = ALIGN (0x4)
                0x00000328                __vector_offset_129 = DEFINED (__vector_dispatch_129)?(. - _ebase_address):__vector_offset_default
 *(.vector_129)
                0x9d0012b8                . = ALIGN (0x4)
                0x00000328                __vector_offset_130 = DEFINED (__vector_dispatch_130)?(. - _ebase_address):__vector_offset_default
 *(.vector_130)
                0x9d0012b8                . = ALIGN (0x4)
                0x00000328                __vector_offset_131 = DEFINED (__vector_dispatch_131)?(. - _ebase_address):__vector_offset_default
 *(.vector_131)
                0x9d0012b8                . = ALIGN (0x4)
                0x000002b8                __vector_offset_132 = DEFINED (__vector_dispatch_132)?(. - _ebase_address):__vector_offset_default
 *(.vector_132)
 .vector_132    0x9d0012b8        0x8 output\isr.o
                0x9d0012b8                __vector_dispatch_132
                0x9d0012c0                . = ALIGN (0x4)
                0x000002c0                __vector_offset_133 = DEFINED (__vector_dispatch_133)?(. - _ebase_address):__vector_offset_default
 *(.vector_133)
 .vector_133    0x9d0012c0        0x8 output\isr.o
                0x9d0012c0                __vector_dispatch_133
                0x9d0012c8                . = ALIGN (0x4)
                0x000002c8                __vector_offset_134 = DEFINED (__vector_dispatch_134)?(. - _ebase_address):__vector_offset_default
 *(.vector_134)
 .vector_134    0x9d0012c8        0x8 output\isr.o
                0x9d0012c8                __vector_dispatch_134
                0x9d0012d0                . = ALIGN (0x4)
                0x000002d0                __vector_offset_135 = DEFINED (__vector_dispatch_135)?(. - _ebase_address):__vector_offset_default
 *(.vector_135)
 .vector_135    0x9d0012d0        0x8 output\isr.o
                0x9d0012d0                __vector_dispatch_135
                0x9d0012d8                . = ALIGN (0x4)
                0x000002d8                __vector_offset_136 = DEFINED (__vector_dispatch_136)?(. - _ebase_address):__vector_offset_default
 *(.vector_136)
 .vector_136    0x9d0012d8        0x8 output\isr.o
                0x9d0012d8                __vector_dispatch_136
                0x9d0012e0                . = ALIGN (0x4)
                0x00000328                __vector_offset_137 = DEFINED (__vector_dispatch_137)?(. - _ebase_address):__vector_offset_default
 *(.vector_137)
                0x9d0012e0                . = ALIGN (0x4)
                0x00000328                __vector_offset_138 = DEFINED (__vector_dispatch_138)?(. - _ebase_address):__vector_offset_default
 *(.vector_138)
                0x9d0012e0                . = ALIGN (0x4)
                0x00000328                __vector_offset_139 = DEFINED (__vector_dispatch_139)?(. - _ebase_address):__vector_offset_default
 *(.vector_139)
                0x9d0012e0                . = ALIGN (0x4)
                0x00000328                __vector_offset_140 = DEFINED (__vector_dispatch_140)?(. - _ebase_address):__vector_offset_default
 *(.vector_140)
                0x9d0012e0                . = ALIGN (0x4)
                0x00000328                __vector_offset_141 = DEFINED (__vector_dispatch_141)?(. - _ebase_address):__vector_offset_default
 *(.vector_141)
                0x9d0012e0                . = ALIGN (0x4)
                0x000002e0                __vector_offset_142 = DEFINED (__vector_dispatch_142)?(. - _ebase_address):__vector_offset_default
 *(.vector_142)
 .vector_142    0x9d0012e0        0x8 output\isr.o
                0x9d0012e0                __vector_dispatch_142
                0x9d0012e8                . = ALIGN (0x4)
                0x000002e8                __vector_offset_143 = DEFINED (__vector_dispatch_143)?(. - _ebase_address):__vector_offset_default
 *(.vector_143)
 .vector_143    0x9d0012e8        0x8 output\isr.o
                0x9d0012e8                __vector_dispatch_143
                0x9d0012f0                . = ALIGN (0x4)
                0x000002f0                __vector_offset_144 = DEFINED (__vector_dispatch_144)?(. - _ebase_address):__vector_offset_default
 *(.vector_144)
 .vector_144    0x9d0012f0        0x8 output\isr.o
                0x9d0012f0                __vector_dispatch_144
                0x9d0012f8                . = ALIGN (0x4)
                0x000002f8                __vector_offset_145 = DEFINED (__vector_dispatch_145)?(. - _ebase_address):__vector_offset_default
 *(.vector_145)
 .vector_145    0x9d0012f8        0x8 output\isr.o
                0x9d0012f8                __vector_dispatch_145
                0x9d001300                . = ALIGN (0x4)
                0x00000300                __vector_offset_146 = DEFINED (__vector_dispatch_146)?(. - _ebase_address):__vector_offset_default
 *(.vector_146)
 .vector_146    0x9d001300        0x8 output\isr.o
                0x9d001300                __vector_dispatch_146
                0x9d001308                . = ALIGN (0x4)
                0x00000308                __vector_offset_147 = DEFINED (__vector_dispatch_147)?(. - _ebase_address):__vector_offset_default
 *(.vector_147)
 .vector_147    0x9d001308        0x8 output\isr.o
                0x9d001308                __vector_dispatch_147
                0x9d001310                . = ALIGN (0x4)
                0x00000328                __vector_offset_148 = DEFINED (__vector_dispatch_148)?(. - _ebase_address):__vector_offset_default
 *(.vector_148)
                0x9d001310                . = ALIGN (0x4)
                0x00000328                __vector_offset_149 = DEFINED (__vector_dispatch_149)?(. - _ebase_address):__vector_offset_default
 *(.vector_149)
                0x9d001310                . = ALIGN (0x4)
                0x00000328                __vector_offset_150 = DEFINED (__vector_dispatch_150)?(. - _ebase_address):__vector_offset_default
 *(.vector_150)
                0x9d001310                . = ALIGN (0x4)
                0x00000328                __vector_offset_151 = DEFINED (__vector_dispatch_151)?(. - _ebase_address):__vector_offset_default
 *(.vector_151)
                0x9d001310                . = ALIGN (0x4)
                0x00000328                __vector_offset_152 = DEFINED (__vector_dispatch_152)?(. - _ebase_address):__vector_offset_default
 *(.vector_152)
                0x9d001310                . = ALIGN (0x4)
                0x00000328                __vector_offset_153 = DEFINED (__vector_dispatch_153)?(. - _ebase_address):__vector_offset_default
 *(.vector_153)
                0x9d001310                . = ALIGN (0x4)
                0x00000328                __vector_offset_154 = DEFINED (__vector_dispatch_154)?(. - _ebase_address):__vector_offset_default
 *(.vector_154)
                0x9d001310                . = ALIGN (0x4)
                0x00000328                __vector_offset_155 = DEFINED (__vector_dispatch_155)?(. - _ebase_address):__vector_offset_default
 *(.vector_155)
                0x9d001310                . = ALIGN (0x4)
                0x00000328                __vector_offset_156 = DEFINED (__vector_dispatch_156)?(. - _ebase_address):__vector_offset_default
 *(.vector_156)
                0x9d001310                . = ALIGN (0x4)
                0x00000328                __vector_offset_157 = DEFINED (__vector_dispatch_157)?(. - _ebase_address):__vector_offset_default
 *(.vector_157)
                0x9d001310                . = ALIGN (0x4)
                0x00000328                __vector_offset_158 = DEFINED (__vector_dispatch_158)?(. - _ebase_address):__vector_offset_default
 *(.vector_158)
                0x9d001310                . = ALIGN (0x4)
                0x00000328                __vector_offset_159 = DEFINED (__vector_dispatch_159)?(. - _ebase_address):__vector_offset_default
 *(.vector_159)
                0x9d001310                . = ALIGN (0x4)
                0x00000328                __vector_offset_160 = DEFINED (__vector_dispatch_160)?(. - _ebase_address):__vector_offset_default
 *(.vector_160)
                0x9d001310                . = ALIGN (0x4)
                0x00000328                __vector_offset_161 = DEFINED (__vector_dispatch_161)?(. - _ebase_address):__vector_offset_default
 *(.vector_161)
                0x9d001310                . = ALIGN (0x4)
                0x00000328                __vector_offset_162 = DEFINED (__vector_dispatch_162)?(. - _ebase_address):__vector_offset_default
 *(.vector_162)
                0x9d001310                . = ALIGN (0x4)
                0x00000310                __vector_offset_163 = DEFINED (__vector_dispatch_163)?(. - _ebase_address):__vector_offset_default
 *(.vector_163)
 .vector_163    0x9d001310        0x8 output\isr.o
                0x9d001310                __vector_dispatch_163
                0x9d001318                . = ALIGN (0x4)
                0x00000318                __vector_offset_164 = DEFINED (__vector_dispatch_164)?(. - _ebase_address):__vector_offset_default
 *(.vector_164)
 .vector_164    0x9d001318        0x8 output\isr.o
                0x9d001318                __vector_dispatch_164
                0x9d001320                . = ALIGN (0x4)
                0x00000320                __vector_offset_165 = DEFINED (__vector_dispatch_165)?(. - _ebase_address):__vector_offset_default
 *(.vector_165)
 .vector_165    0x9d001320        0x8 output\isr.o
                0x9d001320                __vector_dispatch_165
                0x9d001328                . = ALIGN (0x4)
                0x00000328                __vector_offset_166 = DEFINED (__vector_dispatch_166)?(. - _ebase_address):__vector_offset_default
 *(.vector_166)
                0x9d001328                . = ALIGN (0x4)
                0x00000328                __vector_offset_167 = DEFINED (__vector_dispatch_167)?(. - _ebase_address):__vector_offset_default
 *(.vector_167)
                0x9d001328                . = ALIGN (0x4)
                0x00000328                __vector_offset_168 = DEFINED (__vector_dispatch_168)?(. - _ebase_address):__vector_offset_default
 *(.vector_168)
                0x9d001328                . = ALIGN (0x4)
                0x00000328                __vector_offset_169 = DEFINED (__vector_dispatch_169)?(. - _ebase_address):__vector_offset_default
 *(.vector_169)
                0x9d001328                . = ALIGN (0x4)
                0x00000328                __vector_offset_170 = DEFINED (__vector_dispatch_170)?(. - _ebase_address):__vector_offset_default
 *(.vector_170)
                0x9d001328                . = ALIGN (0x4)
                0x00000328                __vector_offset_171 = DEFINED (__vector_dispatch_171)?(. - _ebase_address):__vector_offset_default
 *(.vector_171)
                0x9d001328                . = ALIGN (0x4)
                0x00000328                __vector_offset_172 = DEFINED (__vector_dispatch_172)?(. - _ebase_address):__vector_offset_default
 *(.vector_172)
                0x9d001328                . = ALIGN (0x4)
                0x00000328                __vector_offset_173 = DEFINED (__vector_dispatch_173)?(. - _ebase_address):__vector_offset_default
 *(.vector_173)
                0x9d001328                . = ALIGN (0x4)
                0x00000328                __vector_offset_174 = DEFINED (__vector_dispatch_174)?(. - _ebase_address):__vector_offset_default
 *(.vector_174)
                0x9d001328                . = ALIGN (0x4)
                0x00000328                __vector_offset_175 = DEFINED (__vector_dispatch_175)?(. - _ebase_address):__vector_offset_default
 *(.vector_175)
                0x9d001328                . = ALIGN (0x4)
                0x00000328                __vector_offset_176 = DEFINED (__vector_dispatch_176)?(. - _ebase_address):__vector_offset_default
 *(.vector_176)
                0x9d001328                . = ALIGN (0x4)
                0x00000328                __vector_offset_177 = DEFINED (__vector_dispatch_177)?(. - _ebase_address):__vector_offset_default
 *(.vector_177)
                0x9d001328                . = ALIGN (0x4)
                0x00000328                __vector_offset_178 = DEFINED (__vector_dispatch_178)?(. - _ebase_address):__vector_offset_default
 *(.vector_178)
                0x9d001328                . = ALIGN (0x4)
                0x00000328                __vector_offset_179 = DEFINED (__vector_dispatch_179)?(. - _ebase_address):__vector_offset_default
 *(.vector_179)
                0x9d001328                . = ALIGN (0x4)
                0x00000328                __vector_offset_180 = DEFINED (__vector_dispatch_180)?(. - _ebase_address):__vector_offset_default
 *(.vector_180)
                0x9d001328                . = ALIGN (0x4)
                0x00000328                __vector_offset_181 = DEFINED (__vector_dispatch_181)?(. - _ebase_address):__vector_offset_default
 *(.vector_181)
                0x9d001328                . = ALIGN (0x4)
                0x00000328                __vector_offset_182 = DEFINED (__vector_dispatch_182)?(. - _ebase_address):__vector_offset_default
 *(.vector_182)
                0x9d001328                . = ALIGN (0x4)
                0x00000328                __vector_offset_183 = DEFINED (__vector_dispatch_183)?(. - _ebase_address):__vector_offset_default
 *(.vector_183)
                0x9d001328                . = ALIGN (0x4)
                0x00000328                __vector_offset_184 = DEFINED (__vector_dispatch_184)?(. - _ebase_address):__vector_offset_default
 *(.vector_184)
                0x9d001328                . = ALIGN (0x4)
                0x00000328                __vector_offset_185 = DEFINED (__vector_dispatch_185)?(. - _ebase_address):__vector_offset_default
 *(.vector_185)
                0x9d001328                . = ALIGN (0x4)
                0x00000328                __vector_offset_186 = DEFINED (__vector_dispatch_186)?(. - _ebase_address):__vector_offset_default
 *(.vector_186)
                0x9d001328                . = ALIGN (0x4)
                0x00000328                __vector_offset_187 = DEFINED (__vector_dispatch_187)?(. - _ebase_address):__vector_offset_default
 *(.vector_187)
                0x9d001328                . = ALIGN (0x4)
                0x00000328                __vector_offset_188 = DEFINED (__vector_dispatch_188)?(. - _ebase_address):__vector_offset_default
 *(.vector_188)
                0x9d001328                . = ALIGN (0x4)
                0x00000328                __vector_offset_189 = DEFINED (__vector_dispatch_189)?(. - _ebase_address):__vector_offset_default
 *(.vector_189)
                0x9d001328                . = ALIGN (0x4)
                0x00000328                __vector_offset_190 = DEFINED (__vector_dispatch_190)?(. - _ebase_address):__vector_offset_default
 *(.vector_190)
                0x9d001328                . = ALIGN (0x4)
                0x00000328                __vector_offset_191 = DEFINED (__vector_dispatch_191)?(. - _ebase_address):__vector_offset_default
 *(.vector_191)
                0x9d001328                . = ALIGN (0x4)
                0x00000328                __vector_offset_192 = DEFINED (__vector_dispatch_192)?(. - _ebase_address):__vector_offset_default
 *(.vector_192)
                0x9d001328                . = ALIGN (0x4)
                0x00000328                __vector_offset_193 = DEFINED (__vector_dispatch_193)?(. - _ebase_address):__vector_offset_default
 *(.vector_193)
                0x9d001328                . = ALIGN (0x4)
                0x00000328                __vector_offset_194 = DEFINED (__vector_dispatch_194)?(. - _ebase_address):__vector_offset_default
 *(.vector_194)
                0x9d001328                . = ALIGN (0x4)
                0x00000328                __vector_offset_195 = DEFINED (__vector_dispatch_195)?(. - _ebase_address):__vector_offset_default
 *(.vector_195)
                0x9d001328                . = ALIGN (0x4)
                0x00000328                __vector_offset_196 = DEFINED (__vector_dispatch_196)?(. - _ebase_address):__vector_offset_default
 *(.vector_196)
                0x9d001328                . = ALIGN (0x4)
                0x00000328                __vector_offset_197 = DEFINED (__vector_dispatch_197)?(. - _ebase_address):__vector_offset_default
 *(.vector_197)
                0x9d001328                . = ALIGN (0x4)
                0x00000328                __vector_offset_198 = DEFINED (__vector_dispatch_198)?(. - _ebase_address):__vector_offset_default
 *(.vector_198)
                0x9d001328                . = ALIGN (0x4)
                0x00000328                __vector_offset_199 = DEFINED (__vector_dispatch_199)?(. - _ebase_address):__vector_offset_default
 *(.vector_199)
                0x9d001328                . = ALIGN (0x4)
                0x00000328                __vector_offset_200 = DEFINED (__vector_dispatch_200)?(. - _ebase_address):__vector_offset_default
 *(.vector_200)
                0x9d001328                . = ALIGN (0x4)
                0x00000328                __vector_offset_201 = DEFINED (__vector_dispatch_201)?(. - _ebase_address):__vector_offset_default
 *(.vector_201)
                0x9d001328                . = ALIGN (0x4)
                0x00000328                __vector_offset_202 = DEFINED (__vector_dispatch_202)?(. - _ebase_address):__vector_offset_default
 *(.vector_202)
                0x9d001328                . = ALIGN (0x4)
                0x00000328                __vector_offset_203 = DEFINED (__vector_dispatch_203)?(. - _ebase_address):__vector_offset_default
 *(.vector_203)
                0x9d001328                . = ALIGN (0x4)
                0x00000328                __vector_offset_204 = DEFINED (__vector_dispatch_204)?(. - _ebase_address):__vector_offset_default
 *(.vector_204)
                0x9d001328                . = ALIGN (0x4)
                0x00000328                __vector_offset_205 = DEFINED (__vector_dispatch_205)?(. - _ebase_address):__vector_offset_default
 *(.vector_205)
                0x9d001328                . = ALIGN (0x4)
                0x00000328                __vector_offset_206 = DEFINED (__vector_dispatch_206)?(. - _ebase_address):__vector_offset_default
 *(.vector_206)
                0x9d001328                . = ALIGN (0x4)
                0x00000328                __vector_offset_207 = DEFINED (__vector_dispatch_207)?(. - _ebase_address):__vector_offset_default
 *(.vector_207)
                0x9d001328                . = ALIGN (0x4)
                0x00000328                __vector_offset_208 = DEFINED (__vector_dispatch_208)?(. - _ebase_address):__vector_offset_default
 *(.vector_208)
                0x9d001328                . = ALIGN (0x4)
                0x00000328                __vector_offset_209 = DEFINED (__vector_dispatch_209)?(. - _ebase_address):__vector_offset_default
 *(.vector_209)
                0x9d001328                . = ALIGN (0x4)
                0x00000328                __vector_offset_210 = DEFINED (__vector_dispatch_210)?(. - _ebase_address):__vector_offset_default
 *(.vector_210)
                0x9d001328                . = ALIGN (0x4)
                0x00000328                __vector_offset_211 = DEFINED (__vector_dispatch_211)?(. - _ebase_address):__vector_offset_default
 *(.vector_211)
                0x9d001328                . = ALIGN (0x4)
                0x00000328                __vector_offset_212 = DEFINED (__vector_dispatch_212)?(. - _ebase_address):__vector_offset_default
 *(.vector_212)
                0x9d001328                . = ALIGN (0x4)
                0x00000328                __vector_offset_213 = DEFINED (__vector_dispatch_213)?(. - _ebase_address):__vector_offset_default
 *(.vector_213)
                0x9d001328                . = ALIGN (0x4)
                0x00000328                __vector_offset_214 = DEFINED (__vector_dispatch_214)?(. - _ebase_address):__vector_offset_default
 *(.vector_214)
                0x9d001328                . = ALIGN (0x4)
                0x00000328                __vector_offset_215 = DEFINED (__vector_dispatch_215)?(. - _ebase_address):__vector_offset_default
 *(.vector_215)
                0x9d001328                . = ALIGN (0x4)
                0x00000328                __vector_offset_216 = DEFINED (__vector_dispatch_216)?(. - _ebase_address):__vector_offset_default
 *(.vector_216)
                0x9d001328                . = ALIGN (0x4)
                0x00000328                __vector_offset_217 = DEFINED (__vector_dispatch_217)?(. - _ebase_address):__vector_offset_default
 *(.vector_217)
                0x9d001328                . = ALIGN (0x4)
                0x00000328                __vector_offset_218 = DEFINED (__vector_dispatch_218)?(. - _ebase_address):__vector_offset_default
 *(.vector_218)
                0x9d001328                . = ALIGN (0x4)
                0x00000328                __vector_offset_219 = DEFINED (__vector_dispatch_219)?(. - _ebase_address):__vector_offset_default
 *(.vector_219)
                0x9d001328                . = ALIGN (0x4)
                0x00000328                __vector_offset_220 = DEFINED (__vector_dispatch_220)?(. - _ebase_address):__vector_offset_default
 *(.vector_220)
                0x9d001328                . = ALIGN (0x4)
                0x00000328                __vector_offset_221 = DEFINED (__vector_dispatch_221)?(. - _ebase_address):__vector_offset_default
 *(.vector_221)
                0x9d001328                . = ALIGN (0x4)
                0x00000328                __vector_offset_222 = DEFINED (__vector_dispatch_222)?(. - _ebase_address):__vector_offset_default
 *(.vector_222)
                0x9d001328                . = ALIGN (0x4)
                0x00000328                __vector_offset_223 = DEFINED (__vector_dispatch_223)?(. - _ebase_address):__vector_offset_default
 *(.vector_223)
                0x9d001328                . = ALIGN (0x4)
                0x00000328                __vector_offset_224 = DEFINED (__vector_dispatch_224)?(. - _ebase_address):__vector_offset_default
 *(.vector_224)
                0x9d001328                . = ALIGN (0x4)
                0x00000328                __vector_offset_225 = DEFINED (__vector_dispatch_225)?(. - _ebase_address):__vector_offset_default
 *(.vector_225)
                0x9d001328                . = ALIGN (0x4)
                0x00000328                __vector_offset_226 = DEFINED (__vector_dispatch_226)?(. - _ebase_address):__vector_offset_default
 *(.vector_226)
                0x9d001328                . = ALIGN (0x4)
                0x00000328                __vector_offset_227 = DEFINED (__vector_dispatch_227)?(. - _ebase_address):__vector_offset_default
 *(.vector_227)
                0x9d001328                . = ALIGN (0x4)
                0x00000328                __vector_offset_228 = DEFINED (__vector_dispatch_228)?(. - _ebase_address):__vector_offset_default
 *(.vector_228)
                0x9d001328                . = ALIGN (0x4)
                0x00000328                __vector_offset_229 = DEFINED (__vector_dispatch_229)?(. - _ebase_address):__vector_offset_default
 *(.vector_229)
                0x9d001328                . = ALIGN (0x4)
                0x00000328                __vector_offset_230 = DEFINED (__vector_dispatch_230)?(. - _ebase_address):__vector_offset_default
 *(.vector_230)
                0x9d001328                . = ALIGN (0x4)
                0x00000328                __vector_offset_231 = DEFINED (__vector_dispatch_231)?(. - _ebase_address):__vector_offset_default
 *(.vector_231)
                0x9d001328                . = ALIGN (0x4)
                0x00000328                __vector_offset_232 = DEFINED (__vector_dispatch_232)?(. - _ebase_address):__vector_offset_default
 *(.vector_232)
                0x9d001328                . = ALIGN (0x4)
                0x00000328                __vector_offset_233 = DEFINED (__vector_dispatch_233)?(. - _ebase_address):__vector_offset_default
 *(.vector_233)
                0x9d001328                . = ALIGN (0x4)
                0x00000328                __vector_offset_234 = DEFINED (__vector_dispatch_234)?(. - _ebase_address):__vector_offset_default
 *(.vector_234)
                0x9d001328                . = ALIGN (0x4)
                0x00000328                __vector_offset_235 = DEFINED (__vector_dispatch_235)?(. - _ebase_address):__vector_offset_default
 *(.vector_235)
                0x9d001328                . = ALIGN (0x4)
                0x00000328                __vector_offset_236 = DEFINED (__vector_dispatch_236)?(. - _ebase_address):__vector_offset_default
 *(.vector_236)
                0x9d001328                . = ALIGN (0x4)
                0x00000328                __vector_offset_237 = DEFINED (__vector_dispatch_237)?(. - _ebase_address):__vector_offset_default
 *(.vector_237)
                0x9d001328                . = ALIGN (0x4)
                0x00000328                __vector_offset_238 = DEFINED (__vector_dispatch_238)?(. - _ebase_address):__vector_offset_default
 *(.vector_238)
                0x9d001328                . = ALIGN (0x4)
                0x00000328                __vector_offset_239 = DEFINED (__vector_dispatch_239)?(. - _ebase_address):__vector_offset_default
 *(.vector_239)
                0x9d001328                . = ALIGN (0x4)
                0x00000328                __vector_offset_240 = DEFINED (__vector_dispatch_240)?(. - _ebase_address):__vector_offset_default
 *(.vector_240)
                0x9d001328                . = ALIGN (0x4)
                0x00000328                __vector_offset_241 = DEFINED (__vector_dispatch_241)?(. - _ebase_address):__vector_offset_default
 *(.vector_241)
                0x9d001328                . = ALIGN (0x4)
                0x00000328                __vector_offset_242 = DEFINED (__vector_dispatch_242)?(. - _ebase_address):__vector_offset_default
 *(.vector_242)
                0x9d001328                . = ALIGN (0x4)
                0x00000328                __vector_offset_243 = DEFINED (__vector_dispatch_243)?(. - _ebase_address):__vector_offset_default
 *(.vector_243)
                0x9d001328                . = ALIGN (0x4)
                0x00000328                __vector_offset_244 = DEFINED (__vector_dispatch_244)?(. - _ebase_address):__vector_offset_default
 *(.vector_244)
                0x9d001328                . = ALIGN (0x4)
                0x00000328                __vector_offset_245 = DEFINED (__vector_dispatch_245)?(. - _ebase_address):__vector_offset_default
 *(.vector_245)
                0x9d001328                . = ALIGN (0x4)
                0x00000328                __vector_offset_246 = DEFINED (__vector_dispatch_246)?(. - _ebase_address):__vector_offset_default
 *(.vector_246)
                0x9d001328                . = ALIGN (0x4)
                0x00000328                __vector_offset_247 = DEFINED (__vector_dispatch_247)?(. - _ebase_address):__vector_offset_default
 *(.vector_247)
                0x9d001328                . = ALIGN (0x4)
                0x00000328                __vector_offset_248 = DEFINED (__vector_dispatch_248)?(. - _ebase_address):__vector_offset_default
 *(.vector_248)
                0x9d001328                . = ALIGN (0x4)
                0x00000328                __vector_offset_249 = DEFINED (__vector_dispatch_249)?(. - _ebase_address):__vector_offset_default
 *(.vector_249)
                0x9d001328                . = ALIGN (0x4)
                0x00000328                __vector_offset_250 = DEFINED (__vector_dispatch_250)?(. - _ebase_address):__vector_offset_default
 *(.vector_250)
                0x9d001328                . = ALIGN (0x4)
                0x00000328                __vector_offset_251 = DEFINED (__vector_dispatch_251)?(. - _ebase_address):__vector_offset_default
 *(.vector_251)
                0x9d001328                . = ALIGN (0x4)
                0x00000328                __vector_offset_252 = DEFINED (__vector_dispatch_252)?(. - _ebase_address):__vector_offset_default
 *(.vector_252)
                0x9d001328                . = ALIGN (0x4)
                0x00000328                __vector_offset_253 = DEFINED (__vector_dispatch_253)?(. - _ebase_address):__vector_offset_default
 *(.vector_253)
                0x9d001328                . = ALIGN (0x4)
                0x00000328                __vector_offset_254 = DEFINED (__vector_dispatch_254)?(. - _ebase_address):__vector_offset_default
 *(.vector_254)
                0x9d001328                . = ALIGN (0x4)
                0x00000328                __vector_offset_255 = DEFINED (__vector_dispatch_255)?(. - _ebase_address):__vector_offset_default
 *(.vector_255)
                0x9d001328                . = ALIGN (0x4)
                0x00000328                __vector_offset_default = (. - _ebase_address)
 *(.vector_default)
 .vector_default
                0x9d001328       0x48 c:/program files (x86)/microchip/xc32/v2.30/bin/bin/../../lib/gcc/pic32mx/4.8.3/../../../../pic32mx/lib\libpic32.a(defaultinterrupt.o)
                0x9d001328                _DefaultInterrupt

.text           0x9d001370        0x0
 *(.stub .gnu.linkonce.t.*)
 *(.text.*personality*)
 *(.mips16.fn.*)
 *(.mips16.call.*)
 *(.gnu.warning)
                0x9d001370                . = ALIGN (0x4)

.init           0x9d001370        0x0
 *crti.o(.init)
 *crtbegin.o(.init)
 *(EXCLUDE_FILE(*crtn.o *crtend?.o *crtend.o) .init)
 *crtend.o(.init)
 *crtn.o(.init)
                0x9d001370                . = ALIGN (0x4)

.fini           0x9d001370        0x0
 *(.fini)
                0x9d001370                . = ALIGN (0x4)

.preinit_array  0x9d001370        0x0
                0x9d001370                PROVIDE (__preinit_array_start, .)
 *(.preinit_array)
                0x9d001370                PROVIDE (__preinit_array_end, .)
                0x9d001370                . = ALIGN (0x4)

.init_array     0x9d001370        0x0
                0x9d001370                PROVIDE (__init_array_start, .)
 *(SORT(.init_array.*))
 *(.init_array)
                0x9d001370                PROVIDE (__init_array_end, .)
                0x9d001370                . = ALIGN (0x4)

.fini_array     0x9d001370        0x0
                0x9d001370                PROVIDE (__fini_array_start, .)
 *(SORT(.fini_array.*))
 *(.fini_array)
                0x9d001370                PROVIDE (__fini_array_end, .)
                0x9d001370                . = ALIGN (0x4)

.ctors          0x9d001370        0x0
 *crtbegin.o(.ctors)
 *crtbegin?.o(.ctors)
 *(EXCLUDE_FILE(*crtend?.o *crtend.o) .ctors)
 *(SORT(.ctors.*))
 *(.ctors)
                0x9d001370                . = ALIGN (0x4)

.dtors          0x9d001370        0x0
 *crtbegin.o(.dtors)
 *crtbegin?.o(.dtors)
 *(EXCLUDE_FILE(*crtend?.o *crtend.o) .dtors)
 *(SORT(.dtors.*))
 *(.dtors)
                0x9d001370                . = ALIGN (0x4)

.rodata         0x9d001370        0x0
 *(.gnu.linkonce.r.*)
 *(.rodata1)
                0x9d001370                . = ALIGN (0x4)

.sdata2         0x9d001370        0x0
 *(.sdata2 .sdata2.* .gnu.linkonce.s2.*)
                0x9d001370                . = ALIGN (0x4)

.sbss2          0x9d001370        0x0
 *(.sbss2 .sbss2.* .gnu.linkonce.sb2.*)
                0x9d001370                . = ALIGN (0x4)

.eh_frame_hdr
 *(.eh_frame_hdr)
                0x9d001370                . = ALIGN (0x4)

.eh_frame
 *(.eh_frame)
                0x9d001370                . = ALIGN (0x4)

.gcc_except_table
 *(.gcc_except_table .gcc_except_table.*)
                0x9d001370                . = ALIGN (0x4)

.jcr            0x80000000        0x0
 *(.jcr)
                0x80000000                . = ALIGN (0x4)

.eh_frame
 *(.eh_frame)
                0x80000000                . = ALIGN (0x4)

.gcc_except_table
 *(.gcc_except_table .gcc_except_table.*)
                0x80000000                . = ALIGN (0x4)

.persist        0x80000000        0x0
                0x80000000                _persist_begin = .
 *(.persist .persist.*)
                0x80000000                . = ALIGN (0x4)
                0x80000000                _persist_end = .

.data           0x80000000        0x0
 *(.gnu.linkonce.d.*)
 *(.data1)
                0x80000000                . = ALIGN (0x4)
                0x80000000                . = .
                0x80007ff0                _gp = (ALIGN (0x10) + 0x7ff0)

.got            0x80000000        0x0
 *(.got.plt)
 *(.got)
                0x80000000                . = ALIGN (0x4)

.sdata          0x80000000       0x74
                0x80000000                _sdata_begin = .
 *(.sdata .sdata.* .gnu.linkonce.s.*)
 .sdata         0x80000000        0x4 output\eep_manager.o
 .sdata         0x80000004        0x8 output\grbl_limits.o
                0x80000004                limits_disabled
                0x80000008                pl_data
 .sdata         0x8000000c        0x8 output\pwm.o
                0x8000000c                maxFreq
                0x80000010                maxDuty
 .sdata         0x80000014        0x4 output\dee.o
                0x80000017                dee_debug_enable
 .sdata         0x80000018        0x8 output\stepper_enable.o
                0x8000001c                stepper_enable_emergency_stop_active
 .sdata         0x80000020        0x3 output\grbl_eeprom.o
                0x80000020                grbl_eeprom_trigger_prev
                0x80000021                backup_eep_error_single_shoot
                0x80000022                master_eep_error_single_shoot
 .sdata         0x80000023        0x1 output\grbl_running.o
 .sdata         0x80000024        0x8 output\ethernet.o
                0x80000024                SerializedMACAddress
 .sdata         0x8000002c        0x4 output\Helpers.o
 SIST$          0x80000030        0x2 output\UDP.o
 *fill*         0x80000032        0x2 
 .sdata         0x80000034        0x8 output\ethernet_grbl_multi.o
                0x80000034                addrlen
                0x80000038                serverPort
 .sdata         0x8000003c        0x1 output\Reboot.o
 .sdata         0x8000003d        0x2 output\TCP.o
 *fill*         0x8000003f        0x1 
 .sdata         0x80000040        0x8 output\BerkeleyAPI.o
 .sdata         0x80000048        0x8 output\stackmeasure.o
                0x80000048                stackmeasure_to
                0x8000004c                stackmeasure_from
 .sdata         0x80000050       0x24 c:/program files (x86)/microchip/xc32/v2.30/bin/bin/../../lib/gcc/pic32mx/4.8.3/../../../../pic32mx/lib\libpic32.a(pic32_init_cache.o)
                0x80000050                __pic32_icache_size
                0x80000054                __pic32_icache_linesize
                0x80000058                __pic32_icache_ways
                0x8000005c                __pic32_dcache_size
                0x80000060                __pic32_dcache_linesize
                0x80000064                __pic32_dcache_ways
                0x80000068                __pic32_scache_size
                0x8000006c                __pic32_scache_linesize
                0x80000070                __pic32_scache_ways
                0x80000074                . = ALIGN (0x4)
                0x80000074                _sdata_end = .

.lit8
 *(.lit8)

.lit4
 *(.lit4)
                0x80000074                . = ALIGN (0x4)
                0x80000074                _data_end = .
                0x80000074                _bss_begin = .

.sbss           0x80000074      0x3a0
                0x80000074                _sbss_begin = .
 *(.dynsbss)
 *(.sbss .sbss.* .gnu.linkonce.sb.*)
 .sbss          0x80000074       0x14 output\tmr.o
                0x80000080                globalTimeUs
                0x80000084                globalTime
 .sbss          0x80000088        0xc output\task.o
                0x80000088                taskListsPtr
                0x8000008c                doTaskListGuard
                0x8000008d                doTaskList1ms
                0x80000090                tasksTotalTime
 .sbss          0x80000094        0xc output\eeprom.o
                0x80000094                do_eeprom_1ms
                0x80000098                eeprom_write_buffer_read_cnt
                0x8000009c                eeprom_write_buffer_write_cnt
 .sbss          0x800000a0       0x20 output\eep_manager.o
                0x800000b1                do_eep_manager_1ms
                0x800000b4                eep_manager_persistent_eeprom_2
                0x800000b8                eep_manager_persistent_eeprom
                0x800000bc                eep_manager_persistent_config
 .sbss          0x800000c0       0x24 output\main.o
                0x800000cc                loopCntHistoryCnt
                0x800000d0                loopCntHistoryLast
                0x800000d4                tick_count
                0x800000d8                loopCnt
                0x800000dc                loopCntTemp
                0x800000e0                do_loopCnt
 .sbss          0x800000e4        0x8 output\app.o
                0x800000e4                do_app_1ms
                0x800000e8                app_State
 .sbss          0x800000ec        0x2 output\ad.o
                0x800000ed                doAd100ms
 *fill*         0x800000ee        0x2 
 .sbss          0x800000f0        0x8 output\gcode.o
                0x800000f0                grbl_Tool_Length_2
                0x800000f4                grbl_Tool_Length_1
 .sbss          0x800000f8       0x18 output\grbl_limits.o
                0x800000f8                logger_limits_get_state_prev
                0x800000f9                limit_flag_for_homeing_EXEC_CYCLE_STOP
                0x800000fa                limit_delay_home
                0x800000fc                limits_get_state_debug
                0x800000fd                limits_get_state_current
                0x800000fe                limits_get_state_last
                0x80000100                do_limits_polling
                0x80000104                do_limits_1ms
                0x80000108                limit_go_home_state
                0x8000010c                do_limits_go_home
 .sbss          0x80000110        0x8 output\motion_control.o
                0x80000110                mc_homing_state_machine
                0x80000114                do_mc_homing_cycle
                0x80000115                count
                0x80000116                do_ArcGenerating
 .sbss          0x80000118        0x5 output\nuts_bolts.o
                0x80000118                nuts_bolts_delayCnt
                0x80000119                do_nuts_bolts_delay1ms
                0x8000011a                grbl_not_existing_lat
                0x8000011b                grbl_not_existing_port
                0x8000011c                grbl_not_existing_tris
 *fill*         0x8000011d        0x3 
 .sbss          0x80000120       0x34 output\report.o
                0x80000140                buffer_missed_char_logger_cnt
                0x80000144                do_grbl_report_50ms
                0x80000148                grbl_report_eeprom_dump
                0x8000014c                grbl_report_sys_log_1
                0x80000150                grbl_report_sys_log_0
 .sbss          0x80000154       0x10 output\stepper.o
                0x80000160                segment_next_head
                0x80000161                segment_buffer_head
                0x80000162                segment_buffer_tail
 .sbss          0x80000164       0x10 output\system.o
                0x80000165                restore_condition
                0x80000168                restore_spindle_speed
                0x8000016c                sys_rt_exec_accessory_override
                0x8000016d                sys_rt_exec_motion_override
                0x80000170                grbl_system_sm
 .sbss          0x80000174       0x38 output\dee.o
                0x80000188                PackEE_async_state_prev
                0x8000018c                do_dee_1ms
                0x80000190                dee_pack_triggered
                0x80000191                dee_pack_running
                0x80000194                dee_debug_init_dee
                0x80000198                do_dee_debug
                0x8000019c                dee_addr_cache
                0x800001a0                dee_data_cache
                0x800001a4                dee_cache_valid
                0x800001a8                dee_debug_last_return_value
 .sbss          0x800001ac        0xc output\system_control.o
                0x800001ac                system_control_get_state_debug
                0x800001ad                system_control_get_state_last_SAFETY_DOOR
                0x800001ae                system_control_get_state_last_CYCLE_START
                0x800001af                system_control_get_state_last_FEED_HOLD
                0x800001b0                system_control_get_state_last_ABORT
                0x800001b1                system_control_get_state_current_SAFETY_DOOR
                0x800001b2                system_control_get_state_current_CYCLE_START
                0x800001b3                system_control_get_state_current_FEED_HOLD
                0x800001b4                system_control_get_state_current_ABORT
                0x800001b5                do_system_poll_control_pins
                0x800001b6                do_system_control_1ms
                0x800001b7                system_reset_debug
 .sbss          0x800001b8       0x14 output\stepper_enable.o
                0x800001b8                stepper_logger_single_shoot
                0x800001b9                stepper_enable_abort_cnt
                0x800001bc                stepper_enable_emergency_stop_delay_cnt
                0x800001c0                stepper_enable_emergency_stop_delay
                0x800001c4                stepper_enable_delayed_enabling_cnt
                0x800001c8                stepper_enable_delayed_enabling
                0x800001c9                do_stepper_enable_1ms
 .sbss          0x800001cc        0x2 output\system_exec.o
                0x800001cc                sys_rt_exec_state
 .sbss          0x800001ce        0x2 output\system_alarm.o
                0x800001ce                sys_rt_exec_alarm
 .sbss          0x800001d0        0xc output\grbl_eeprom.o
                0x800001d4                grbl_eeprom_trigger_current
                0x800001d5                gc_main_eeprom_trigger
                0x800001d6                grbl_critical_eep_error
                0x800001d7                grbl_backup_eep_error
                0x800001d8                grbl_master_eep_error
                0x800001d9                grbl_eeprom_triggerWriteSettings
                0x800001da                grbl_eeprom_triggerWriteAll
                0x800001db                do_grbl_eeprom_1ms
 .sbss          0x800001dc        0xc output\grbl_toolchange.o
                0x800001dc                do_grbl_toolchange_1ms
                0x800001dd                grbl_toolchange_load_or_load_and_change
                0x800001de                grbl_toolchange_toolNumber
                0x800001e0                grbl_toolchange_isRunning
                0x800001e4                GRBL_Toolchange_SM_State
 .sbss          0x800001e8       0x20 output\grbl_protocol.o
                0x800001ec                missedRxChar_Grbl_Protocol
                0x800001f0                protocol_set_requestDwell_dwellTime
                0x800001f4                protocol_execute_line_status
                0x800001f8                jog_line_number
                0x800001fc                gc_execute_line_number
                0x80000200                gc_execute_line_result
                0x80000201                requestSynchMotion
                0x80000204                lineStateMachine
 .sbss          0x80000208       0x2c output\grbl_running.o
                0x80000214                do_grbl_running_1h
                0x80000215                do_grbl_running_1min
                0x80000216                do_grbl_running_1s
                0x80000218                grbl_running_running_hours_eep_trigger
                0x8000021c                grbl_running_spindle_running_minutes_eep_trigger
                0x80000220                grbl_running_running_minutes_eep_trigger
                0x80000224                grbl_running_spindle_running_minutes
                0x80000228                grbl_running_startup_cnt
                0x8000022c                grbl_running_running_hours
                0x80000230                grbl_running_running_minutes
 .sbss          0x80000234        0x3 output\grbl_bootloader.o
                0x80000235                grbl_bootloader_triggered
                0x80000236                do_grbl_bootloader_1ms
 .sbss          0x80000237        0x6 output\grbl_probe.o
                0x80000237                probe_is_no_error
                0x80000238                do_mc_probe_cycle
                0x80000239                sys_probe_state
                0x8000023a                do_probe_1ms
                0x8000023b                probe_pin_state
                0x8000023c                probe_invert_mask
 *fill*         0x8000023d        0x3 
 .sbss          0x80000240       0x3c output\ENC28J60.o
                0x80000248                enc28j60_Dummy
                0x8000024c                enc28j60_spi_corruption_reinit_state
                0x80000250                enc28j60_spi_corruption2_cnt
                0x80000254                enc28j60_spi_corruption1_cnt
                0x80000258                enc28j60_spi_corruption_reinit
                0x8000025c                ENC28J60_MACON4
                0x8000025d                ENC28J60_MACON3
                0x8000025e                ENC28J60_MACON1
                0x8000025f                ENC28J60_EFLOCON
                0x80000260                ENC28J60_ECOCON
                0x80000261                ENC28J60_MISTAT
                0x80000262                ENC28J60_EBSTCON
                0x80000263                ENC28J60_MICMD
                0x80000264                ENC28J60_ERXFCON
                0x80000265                ENC28J60_ECON1
                0x80000266                ENC28J60_ECON2
                0x80000267                ENC28J60_ESTAT
                0x80000268                ENC28J60_EIR
                0x80000269                ENC28J60_EIE
                0x8000026a                do_enc28j60_100ms
                0x8000026b                do_enc28j60_1ms
 .sbss          0x8000027c        0x8 output\ARP.o
                0x80000280                ARPResolve_null_ptr
 .sbss          0x80000284        0x8 output\Announce.o
 .sbss          0x8000028c        0x4 output\IP.o
 .sbss          0x80000290        0xc output\StackTsk.o
 ENTPERSIST$    0x8000029c        0xc output\UDP.o
                0x8000029c                do_udp_1ms
 .sbss          0x800002a8       0x1c output\ethernet_grbl_multi.o
                0x800002ac                do_serial_grbl_ethernet_multi_100ms
                0x800002b0                do_serial_grbl_ethernet_multi_1ms
                0x800002b4                ToSendDataBuffer_grbl_ethernet_multi_filled
                0x800002b8                missedRxCharEthernet
                0x800002bc                missedTxCharEthernet
                0x800002c0                bsdServerState
 .sbss          0x800002c4        0x4 output\grbl_multi.o
                0x800002c4                grbl_multi_source
 .sbss          0x800002c8        0x4 output\TCP.o
                0x800002c8                do_tcp_1ms
 .sbss          0x800002cc        0x4 output\BerkeleyAPI.o
                0x800002cc                do_berkeleyapi_1ms
 .sbss          0x800002d0       0x10 output\mal.o
                0x800002d0                isrLockCnt
                0x800002d4                gieTemp
                0x800002d8                mal_RCON_temp
                0x800002dc                mal_resetReason_temp
 .sbss          0x800002e0        0x8 output\exceptions.o
                0x800002e0                generateException
                0x800002e4                exceptionCounter
 .sbss          0x800002e8        0x8 output\stackmeasure.o
                0x800002e8                stackmeasure_maxfillness
                0x800002ec                stackmeasure_current_pos
 .sbss          0x800002f0        0x4 output\noinitram.o
                0x800002f0                noinitram_valid_block
 .sbss          0x800002f4        0x8 output\usb_grbl_multi.o
                0x800002f4                missedRxCharHID
                0x800002f8                missedTxCharHID
 *(.scommon)
 .scommon       0x800002fc        0x2 output\ad.o
                0x800002fc                adResults
 *fill*         0x800002fe        0x2 
 .scommon       0x80000300       0x20 output\grbl_limits.o
                0x80000300                cycle_mask_asynch
                0x80000301                limits_set_state_filtered_currentState
                0x80000302                axislock
                0x80000303                limit_state
                0x80000304                n_active_axis
                0x80000308                step_pin
                0x8000030c                max_travel
                0x80000310                approach
                0x80000314                homing_rate
                0x80000318                n_cycle
                0x8000031c                limit_filter_state
 .scommon       0x80000320       0x40 output\motion_control.o
                0x80000320                is_clockwise_arc_buffer
                0x80000324                r_axis0
                0x80000328                r_axis1
                0x8000032c                theta_per_segment
                0x80000330                cos_Ti
                0x80000334                center_axis1
                0x80000338                axis_linear_buffer
                0x80000339                cycle_mask_buffer
                0x8000033a                segments_buffer
                0x8000033c                center_axis0
                0x80000340                cos_T
                0x80000344                sin_T
                0x80000348                i_buffer
                0x8000034a                axis_1_buffer
                0x8000034c                r_axisi
                0x80000350                linear_per_segment
                0x80000354                sin_Ti
                0x80000358                axis_0_buffer
                0x8000035c                radius_buffer
 .scommon       0x80000360        0x4 output\planner.o
                0x80000360                block_buffer_planned
                0x80000361                next_buffer_head
                0x80000362                block_buffer_head
                0x80000363                block_buffer_tail
 .scommon       0x80000364        0x1 output\settings.o
                0x80000364                eep_settings_version
 *fill*         0x80000365        0x3 
 .scommon       0x80000368        0x4 output\system.o
                0x80000368                system_suspendTime
 .scommon       0x8000036c       0x54 output\grbl.o
                0x8000036c                dummyPORT5
                0x80000370                dummyPORT4
                0x80000374                dummyPORT2
                0x80000378                dummyPORT3
                0x8000037c                dummyPORT1
                0x80000380                dummyPORT6
                0x80000384                dummyPORT7
                0x80000388                dummyLAT4
                0x8000038c                dummyLAT5
                0x80000390                dummyLAT6
                0x80000394                dummyLAT7
                0x80000398                dummyTRIS3
                0x8000039c                dummyTRIS4
                0x800003a0                dummyTRIS7
                0x800003a4                dummyTRIS2
                0x800003a8                dummyTRIS1
                0x800003ac                dummyTRIS6
                0x800003b0                dummyTRIS5
                0x800003b4                dummyLAT3
                0x800003b8                dummyLAT2
                0x800003bc                dummyLAT1
 .scommon       0x800003c0        0x4 output\dee.o
                0x800003c0                dataEEFlags
 .scommon       0x800003c4        0xc output\dee_page.o
                0x800003c4                read_dee_page_size
                0x800003c8                read_dee_page
                0x800003cc                read_dee_page_startaddress
 .scommon       0x800003d0        0x8 output\grbl_eeprom.o
                0x800003d0                check_is_delay
                0x800003d4                gcodePositionSave
 .scommon       0x800003d8        0x4 output\grbl_toolchange.o
                0x800003d8                grbl_toolchange_failsafe_timeout
 .scommon       0x800003dc        0x4 output\grbl_protocol.o
                0x800003dc                protocol_dwellTime
 .scommon       0x800003e0        0x4 output\grbl_bootloader.o
                0x800003e0                grbl_bootloader_timer
 .scommon       0x800003e4        0x5 output\UDP.o
                0x800003e4                UDPRxCount
                0x800003e6                UDPTxCount
                0x800003e8                activeUDPSocket
 *fill*         0x800003e9        0x3 
 .scommon       0x800003ec        0x5 output\ethernet_grbl_multi.o
                0x800003ec                bsdServerSocket
                0x800003f0                ClientSock
 *fill*         0x800003f1        0x3 
 .scommon       0x800003f4       0x18 output\exceptions.o
                0x800003f4                tempResult
                0x800003f8                _return_addr
                0x800003fc                _excep_code
                0x80000400                tempB
                0x80000404                tempA
                0x80000408                _excep_addr
 .scommon       0x8000040c        0x2 output\usb_device_cdc.o
                0x8000040c                gUSBDeviceCdcCommonDataObj
 *fill*         0x8000040e        0x2 
 .scommon       0x80000410        0x4 output\usb.o
                0x80000410                usb_delay_timer
                0x80000414                _sbss_end = .
                0x80000414                . = ALIGN (0x4)

.bss            0x80000414     0x2bdc
 *(.dynbss)
 *(COMMON)
 COMMON         0x80000414      0x480 output\task.o
                0x80000414                taskLists
 COMMON         0x80000894      0x400 output\eeprom.o
                0x80000894                eeprom_write_buffer
 COMMON         0x80000c94       0x78 output\eep_manager.o
                0x80000c94                eep_manager_write_all_trigger
                0x80000cd0                eep_manager_debug_address
 COMMON         0x80000d0c       0xf0 output\main.o
                0x80000d0c                loopCntHistory
 COMMON         0x80000dfc       0x9c output\gcode.o
                0x80000dfc                coord_offset_eep
                0x80000e08                gc_state
                0x80000e4c                gc_block
                0x80000e8c                coord_system_eep
 COMMON         0x80000e98       0x18 output\grbl_limits.o
                0x80000e98                target
                0x80000ea4                plan_data
 COMMON         0x80000eb0       0x30 output\motion_control.o
                0x80000eb0                target_buffer
                0x80000ebc                position_buffer
                0x80000ec8                offset_buffer
                0x80000ed4                pl_data_buffer
 COMMON         0x80000ee0      0xd1c output\planner.o
                0x80000ee0                pl
                0x80000efc                block_buffer
 COMMON         0x80001bfc      0x1a4 output\settings.o
                0x80001bfc                eep_settings
                0x80001c5c                eep_settings_backup
                0x80001cbc                settings
                0x80001d1c                eep_coord_teached
                0x80001d28                eep_coord_data
 COMMON         0x80001da0      0x34c output\stepper.o
                0x80001da0                st
                0x80001dc8                st_block_buffer
                0x80001f94                segment_buffer
                0x800020b4                prep
 COMMON         0x800020ec      0x1ac output\system.o
                0x800020ec                sys
                0x80002100                sys_probe_position
                0x8000210c                grbl_system_logger
                0x8000228c                sys_position
 COMMON         0x80002298       0x40 output\pwm.o
                0x80002298                pwm_duty
 COMMON         0x800022d8        0xc output\dee_page.o
                0x800022d8                dee_debug_page_status
 COMMON         0x800022e4       0xe8 output\grbl_protocol.o
                0x800022e4                myRingBuffer_grbl_protocol_rx
                0x800022fc                line_buffer
                0x8000234c                grbl_protocol_rx
 COMMON         0x800023cc       0x33 output\ethernet.o
                0x800023cc                AppConfig
 *fill*         0x800023ff        0x1 
 COMMON         0x80002400        0xa output\StackTsk.o
                0x80002400                remoteNode
 *fill*         0x8000240a        0x2 
 COMMON         0x8000240c       0xe0 output\UDP.o
                0x8000240c                UDPSocketInfo
 COMMON         0x800024ec      0x4d0 output\ethernet_grbl_multi.o
                0x800024ec                eth_rx
                0x800026ec                myRingBuffer_eth_tx
                0x80002704                eth_tx
                0x80002904                addr
                0x80002914                ReceivedDataBuffer_grbl_ethernet_multi
                0x80002954                ToSendDataBuffer_grbl_ethernet_multi
                0x80002994                addRemote
                0x800029a4                myRingBuffer_eth_rx
 COMMON         0x800029bc       0xac output\usb_device_cdc.o
                0x800029bc                gUSBDeviceCDCInstance
                0x800029fc                gUSBDeviceCDCIRP
 COMMON         0x80002a68       0x30 output\usb_app.o
                0x80002a68                appData
 COMMON         0x80002a98        0xc output\system_init.o
                0x80002a98                sysObj
 COMMON         0x80002aa4      0x11c output\drv_usbhs.o
                0x80002aa4                gDrvUSBEndpoints
                0x80002b04                gDrvUSBObj
 COMMON         0x80002bc0      0x430 output\usb_grbl_multi.o
                0x80002bc0                myRingBuffer_hid_rx
                0x80002bd8                hid_tx
                0x80002dd8                myRingBuffer_hid_tx
                0x80002df0                hid_rx
                0x80002ff0                . = ALIGN ((. != 0x0)?0x4:0x1)
                0x80002ff0                . = ALIGN (0x4)
                0x80002ff0                _end = .
                0x80002ff0                _bss_end = .
                0x0007f000                _bmxdudba_address = 0x7f000
                0x0007f000                _bmxdupba_address = 0x7f000

/DISCARD/
 *(.pdr)
 *(.rel.dyn)
 *(.note.GNU-stack)
 *(.note.GNU-stack)
 *(.gnu_debuglink)
 *(.gnu.lto_*)
 *(.discard)
 *(._debug_exception)
 *(.config_*)

.gptab.sdata
 *(.gptab.data)
 *(.gptab.sdata)

.gptab.sbss
 *(.gptab.bss)
 *(.gptab.sbss)

.mdebug.abi32   0x00000000        0x0
 *(.mdebug.abi32)
 .mdebug.abi32  0x00000000        0x0 output\tmr.o
 .mdebug.abi32  0x00000000        0x0 output\ringBuffer.o
 .mdebug.abi32  0x00000000        0x0 output\task.o
 .mdebug.abi32  0x00000000        0x0 output\eeprom.o
 .mdebug.abi32  0x00000000        0x0 output\eep_manager.o
 .mdebug.abi32  0x00000000        0x0 output\main.o
 .mdebug.abi32  0x00000000        0x0 output\c_eep_manager.o
 .mdebug.abi32  0x00000000        0x0 output\app.o
 .mdebug.abi32  0x00000000        0x0 output\ad.o
 .mdebug.abi32  0x00000000        0x0 output\gcode.o
 .mdebug.abi32  0x00000000        0x0 output\grbl_limits.o
 .mdebug.abi32  0x00000000        0x0 output\coolant_control.o
 .mdebug.abi32  0x00000000        0x0 output\motion_control.o
 .mdebug.abi32  0x00000000        0x0 output\nuts_bolts.o
 .mdebug.abi32  0x00000000        0x0 output\planner.o
 .mdebug.abi32  0x00000000        0x0 output\print.o
 .mdebug.abi32  0x00000000        0x0 output\report.o
 .mdebug.abi32  0x00000000        0x0 output\settings.o
 .mdebug.abi32  0x00000000        0x0 output\spindle_control.o
 .mdebug.abi32  0x00000000        0x0 output\stepper.o
 .mdebug.abi32  0x00000000        0x0 output\system.o
 .mdebug.abi32  0x00000000        0x0 output\grbl.o
 .mdebug.abi32  0x00000000        0x0 output\pwm.o
 .mdebug.abi32  0x00000000        0x0 output\jog.o
 .mdebug.abi32  0x00000000        0x0 output\dee.o
 .mdebug.abi32  0x00000000        0x0 output\dee_page.o
 .mdebug.abi32  0x00000000        0x0 output\dee_page_helper.o
 .mdebug.abi32  0x00000000        0x0 output\eep_manager_crc.o
 .mdebug.abi32  0x00000000        0x0 output\system_control.o
 .mdebug.abi32  0x00000000        0x0 output\stepper_enable.o
 .mdebug.abi32  0x00000000        0x0 output\system_exec.o
 .mdebug.abi32  0x00000000        0x0 output\system_alarm.o
 .mdebug.abi32  0x00000000        0x0 output\grbl_eeprom.o
 .mdebug.abi32  0x00000000        0x0 output\bootloader_interface.o
 .mdebug.abi32  0x00000000        0x0 output\grbl_toolchange.o
 .mdebug.abi32  0x00000000        0x0 output\grbl_protocol.o
 .mdebug.abi32  0x00000000        0x0 output\grbl_running.o
 .mdebug.abi32  0x00000000        0x0 output\grbl_bootloader.o
 .mdebug.abi32  0x00000000        0x0 output\grbl_probe.o
 .mdebug.abi32  0x00000000        0x0 output\ethernet.o
 .mdebug.abi32  0x00000000        0x0 output\ENC28J60.o
 .mdebug.abi32  0x00000000        0x0 output\DHCP.o
 .mdebug.abi32  0x00000000        0x0 output\Delay.o
 .mdebug.abi32  0x00000000        0x0 output\ARP.o
 .mdebug.abi32  0x00000000        0x0 output\Announce.o
 .mdebug.abi32  0x00000000        0x0 output\Helpers.o
 .mdebug.abi32  0x00000000        0x0 output\ICMP.o
 .mdebug.abi32  0x00000000        0x0 output\IP.o
 .mdebug.abi32  0x00000000        0x0 output\StackTsk.o
 .mdebug.abi32  0x00000000        0x0 output\UDP.o
 .mdebug.abi32  0x00000000        0x0 output\ethernet_grbl_multi.o
 .mdebug.abi32  0x00000000        0x0 output\grbl_multi.o
 .mdebug.abi32  0x00000000        0x0 output\Reboot.o
 .mdebug.abi32  0x00000000        0x0 output\TCP.o
 .mdebug.abi32  0x00000000        0x0 output\BerkeleyAPI.o
 .mdebug.abi32  0x00000000        0x0 output\mal.o
 .mdebug.abi32  0x00000000        0x0 output\isr.o
 .mdebug.abi32  0x00000000        0x0 output\exceptions.o
 .mdebug.abi32  0x00000000        0x0 output\usb_device_cdc_acm.o
 .mdebug.abi32  0x00000000        0x0 output\usb_device_cdc.o
 .mdebug.abi32  0x00000000        0x0 output\usb_device.o
 .mdebug.abi32  0x00000000        0x0 output\usb_app.o
 .mdebug.abi32  0x00000000        0x0 output\usb.o
 .mdebug.abi32  0x00000000        0x0 output\system_tasks.o
 .mdebug.abi32  0x00000000        0x0 output\sys_int_pic32.o
 .mdebug.abi32  0x00000000        0x0 output\system_init.o
 .mdebug.abi32  0x00000000        0x0 output\peripheral.o
 .mdebug.abi32  0x00000000        0x0 output\drv_usbhs_device.o
 .mdebug.abi32  0x00000000        0x0 output\drv_usbhs.o
 .mdebug.abi32  0x00000000        0x0 output\bsp_sys_init.o
 .mdebug.abi32  0x00000000        0x0 output\stackmeasure.o
 .mdebug.abi32  0x00000000        0x0 output\noinitram.o
 .mdebug.abi32  0x00000000        0x0 output\usb_grbl_multi.o
 .mdebug.abi32  0x00000000        0x0 c:/program files (x86)/microchip/xc32/v2.30/bin/bin/../../lib/gcc/pic32mx/4.8.3\libgcc.a(_fixunssfdi.o)
 .mdebug.abi32  0x00000000        0x0 c:/program files (x86)/microchip/xc32/v2.30/bin/bin/../../lib/gcc/pic32mx/4.8.3\libgcc.a(_floatundisf.o)
 .mdebug.abi32  0x00000000        0x0 c:/program files (x86)/microchip/xc32/v2.30/bin/bin/../../lib/gcc/pic32mx/4.8.3\libgcc.a(floatunsisf.o)
 .mdebug.abi32  0x00000000        0x0 c:/program files (x86)/microchip/xc32/v2.30/bin/bin/../../lib/gcc/pic32mx/4.8.3\libgcc.a(floatunsidf.o)
 .mdebug.abi32  0x00000000        0x0 c:/program files (x86)/microchip/xc32/v2.30/bin/bin/../../lib/gcc/pic32mx/4.8.3/../../../../pic32mx/lib\libpic32.a(default-bootstrap-exception-handler.o)
 .mdebug.abi32  0x00000000        0x0 c:/program files (x86)/microchip/xc32/v2.30/bin/bin/../../lib/gcc/pic32mx/4.8.3/../../../../pic32mx/lib\libpic32.a(default-on-reset.o)
 .mdebug.abi32  0x00000000        0x0 c:/program files (x86)/microchip/xc32/v2.30/bin/bin/../../lib/gcc/pic32mx/4.8.3/../../../../pic32mx/lib\libpic32.a(default-on-bootstrap.o)
 .mdebug.abi32  0x00000000        0x0 c:/program files (x86)/microchip/xc32/v2.30/bin/bin/../../lib/gcc/pic32mx/4.8.3/../../../../pic32mx/lib\libpic32.a(defaultinterrupt.o)
 .mdebug.abi32  0x00000000        0x0 c:/program files (x86)/microchip/xc32/v2.30/bin/bin/../../lib/gcc/pic32mx/4.8.3/../../../../pic32mx/lib\libpic32.a(default-cache-err-exception-handler.o)
 .mdebug.abi32  0x00000000        0x0 c:/program files (x86)/microchip/xc32/v2.30/bin/bin/../../lib/gcc/pic32mx/4.8.3/../../../../pic32mx/lib\libpic32.a(default-simple-tlb-refill-exception-handler.o)
 .mdebug.abi32  0x00000000        0x0 c:/program files (x86)/microchip/xc32/v2.30/bin/bin/../../lib/gcc/pic32mx/4.8.3/../../../../pic32mx/lib\liblega-c.a(strncmp.o)
 .mdebug.abi32  0x00000000        0x0 c:/program files (x86)/microchip/xc32/v2.30/bin/bin/../../lib/gcc/pic32mx/4.8.3/../../../../pic32mx/lib\liblega-c.a(strncpy.o)
 .mdebug.abi32  0x00000000        0x0 c:/program files (x86)/microchip/xc32/v2.30/bin/bin/../../lib/gcc/pic32mx/4.8.3/../../../../pic32mx/lib\libm.a(w_atan2f.o)
 .mdebug.abi32  0x00000000        0x0 c:/program files (x86)/microchip/xc32/v2.30/bin/bin/../../lib/gcc/pic32mx/4.8.3/../../../../pic32mx/lib\libm.a(w_sqrtf.o)
 .mdebug.abi32  0x00000000        0x0 c:/program files (x86)/microchip/xc32/v2.30/bin/bin/../../lib/gcc/pic32mx/4.8.3/../../../../pic32mx/lib\libm.a(support.o)
 .mdebug.abi32  0x00000000        0x0 c:/program files (x86)/microchip/xc32/v2.30/bin/bin/../../lib/gcc/pic32mx/4.8.3/../../../../pic32mx/lib\libm.a(s_lib_ver.o)
 .mdebug.abi32  0x00000000        0x0 c:/program files (x86)/microchip/xc32/v2.30/bin/bin/../../lib/gcc/pic32mx/4.8.3/../../../../pic32mx/lib\libpic32.a(errno.o)

.mdebug.abiN32
 *(.mdebug.abiN32)

.mdebug.abi64
 *(.mdebug.abi64)

.mdebug.abiO64
 *(.mdebug.abiO64)

.mdebug.eabi32
 *(.mdebug.eabi32)

.mdebug.eabi64
 *(.mdebug.eabi64)

.gcc_compiled_long32
 *(.gcc_compiled_long32)

.gcc_compiled_long64
 *(.gcc_compiled_long64)

.stab
 *(.stab)

.stabstr
 *(.stabstr)

.stab.excl
 *(.stab.excl)

.stab.exclstr
 *(.stab.exclstr)

.stab.index
 *(.stab.index)

.stab.indexstr
 *(.stab.indexstr)

.comment        0x00000000      0x13e
 *(.comment)
 .comment       0x00000000       0x3c output\tmr.o
                                 0x3d (size before relaxing)
 .comment       0x00000000       0x3d output\ringBuffer.o
 .comment       0x00000000       0x3d output\task.o
 .comment       0x00000000       0x3d output\eeprom.o
 .comment       0x00000000       0x3d output\eep_manager.o
 .comment       0x00000000       0x3d output\main.o
 .comment       0x00000000       0x3d output\c_eep_manager.o
 .comment       0x00000000       0x3d output\app.o
 .comment       0x00000000       0x3d output\ad.o
 .comment       0x00000000       0x3d output\gcode.o
 .comment       0x00000000       0x3d output\grbl_limits.o
 .comment       0x00000000       0x3d output\coolant_control.o
 .comment       0x00000000       0x3d output\motion_control.o
 .comment       0x00000000       0x3d output\nuts_bolts.o
 .comment       0x00000000       0x3d output\planner.o
 .comment       0x00000000       0x3d output\print.o
 .comment       0x00000000       0x3d output\report.o
 .comment       0x00000000       0x3d output\settings.o
 .comment       0x00000000       0x3d output\spindle_control.o
 .comment       0x00000000       0x3d output\stepper.o
 .comment       0x00000000       0x3d output\system.o
 .comment       0x00000000       0x3d output\grbl.o
 .comment       0x00000000       0x3d output\pwm.o
 .comment       0x00000000       0x3d output\jog.o
 .comment       0x00000000       0x3d output\dee.o
 .comment       0x00000000       0x3d output\dee_page.o
 .comment       0x00000000       0x3d output\dee_page_helper.o
 .comment       0x00000000       0x3d output\eep_manager_crc.o
 .comment       0x00000000       0x3d output\system_control.o
 .comment       0x00000000       0x3d output\stepper_enable.o
 .comment       0x00000000       0x3d output\system_exec.o
 .comment       0x00000000       0x3d output\system_alarm.o
 .comment       0x00000000       0x3d output\grbl_eeprom.o
 .comment       0x00000000       0x3d output\bootloader_interface.o
 .comment       0x00000000       0x3d output\grbl_toolchange.o
 .comment       0x00000000       0x3d output\grbl_protocol.o
 .comment       0x00000000       0x3d output\grbl_running.o
 .comment       0x00000000       0x3d output\grbl_bootloader.o
 .comment       0x00000000       0x3d output\grbl_probe.o
 .comment       0x00000000       0x3d output\ethernet.o
 .comment       0x00000000       0x3d output\ENC28J60.o
 .comment       0x00000000       0x3d output\DHCP.o
 .comment       0x00000000       0x3d output\Delay.o
 .comment       0x00000000       0x3d output\ARP.o
 .comment       0x00000000       0x3d output\Announce.o
 .comment       0x00000000       0x3d output\Helpers.o
 .comment       0x00000000       0x3d output\ICMP.o
 .comment       0x00000000       0x3d output\IP.o
 .comment       0x00000000       0x3d output\StackTsk.o
 .comment       0x00000000       0x3d output\UDP.o
 .comment       0x00000000       0x3d output\ethernet_grbl_multi.o
 .comment       0x00000000       0x3d output\grbl_multi.o
 .comment       0x00000000       0x3d output\Reboot.o
 .comment       0x00000000       0x3d output\TCP.o
 .comment       0x00000000       0x3d output\BerkeleyAPI.o
 .comment       0x00000000       0x3d output\mal.o
 .comment       0x00000000       0x3d output\isr.o
 .comment       0x00000000       0x3d output\exceptions.o
 .comment       0x00000000       0x3d output\usb_device_cdc_acm.o
 .comment       0x00000000       0x3d output\usb_device_cdc.o
 .comment       0x00000000       0x3d output\usb_device.o
 .comment       0x00000000       0x3d output\usb_app.o
 .comment       0x00000000       0x3d output\usb.o
 .comment       0x00000000       0x3d output\system_tasks.o
 .comment       0x00000000       0x3d output\sys_int_pic32.o
 .comment       0x00000000       0x3d output\system_init.o
 .comment       0x00000000       0x3d output\peripheral.o
 .comment       0x00000000       0x3d output\drv_usbhs_device.o
 .comment       0x00000000       0x3d output\drv_usbhs.o
 .comment       0x00000000       0x3d output\bsp_sys_init.o
 .comment       0x00000000       0x3d output\stackmeasure.o
 .comment       0x00000000       0x3d output\noinitram.o
 .comment       0x00000000       0x3d output\usb_grbl_multi.o
 .comment       0x00000000       0x3d c:/program files (x86)/microchip/xc32/v2.30/bin/bin/../../lib/gcc/pic32mx/4.8.3\libgcc.a(_fixunssfdi.o)
 .comment       0x00000000       0x3d c:/program files (x86)/microchip/xc32/v2.30/bin/bin/../../lib/gcc/pic32mx/4.8.3\libgcc.a(_floatundisf.o)
 .comment       0x00000000       0x3d c:/program files (x86)/microchip/xc32/v2.30/bin/bin/../../lib/gcc/pic32mx/4.8.3\libgcc.a(floatunsisf.o)
 .comment       0x00000000       0x3d c:/program files (x86)/microchip/xc32/v2.30/bin/bin/../../lib/gcc/pic32mx/4.8.3\libgcc.a(floatunsidf.o)
 .comment       0x0000003c       0x18 c:/program files (x86)/microchip/xc32/v2.30/bin/bin/../../lib/gcc/pic32mx/4.8.3/../../../../pic32mx/lib\libpic32.a(memcmp.o)
                                 0x19 (size before relaxing)
 .comment       0x00000054       0x18 c:/program files (x86)/microchip/xc32/v2.30/bin/bin/../../lib/gcc/pic32mx/4.8.3/../../../../pic32mx/lib\libpic32.a(memset.o)
                                 0x19 (size before relaxing)
 .comment       0x0000006c       0x19 c:/program files (x86)/microchip/xc32/v2.30/bin/bin/../../lib/gcc/pic32mx/4.8.3/../../../../pic32mx/lib\libpic32.a(strcmp.o)
                                 0x1a (size before relaxing)
 .comment       0x00000085       0x19 c:/program files (x86)/microchip/xc32/v2.30/bin/bin/../../lib/gcc/pic32mx/4.8.3/../../../../pic32mx/lib\libpic32.a(strlen.o)
                                 0x1a (size before relaxing)
 .comment       0x00000000       0x3d c:/program files (x86)/microchip/xc32/v2.30/bin/bin/../../lib/gcc/pic32mx/4.8.3/../../../../pic32mx/lib\libpic32.a(default-bootstrap-exception-handler.o)
 .comment       0x00000000       0x3d c:/program files (x86)/microchip/xc32/v2.30/bin/bin/../../lib/gcc/pic32mx/4.8.3/../../../../pic32mx/lib\libpic32.a(default-on-reset.o)
 .comment       0x00000000       0x3d c:/program files (x86)/microchip/xc32/v2.30/bin/bin/../../lib/gcc/pic32mx/4.8.3/../../../../pic32mx/lib\libpic32.a(default-on-bootstrap.o)
 .comment       0x00000000       0x3d c:/program files (x86)/microchip/xc32/v2.30/bin/bin/../../lib/gcc/pic32mx/4.8.3/../../../../pic32mx/lib\libpic32.a(defaultinterrupt.o)
 .comment       0x00000000       0x3d c:/program files (x86)/microchip/xc32/v2.30/bin/bin/../../lib/gcc/pic32mx/4.8.3/../../../../pic32mx/lib\libpic32.a(default-cache-err-exception-handler.o)
 .comment       0x00000000       0x3d c:/program files (x86)/microchip/xc32/v2.30/bin/bin/../../lib/gcc/pic32mx/4.8.3/../../../../pic32mx/lib\libpic32.a(default-simple-tlb-refill-exception-handler.o)
 .comment       0x0000009e       0x50 c:/program files (x86)/microchip/xc32/v2.30/bin/bin/../../lib/gcc/pic32mx/4.8.3/../../../../pic32mx/lib\liblega-c.a(strncmp.o)
                                 0x8d (size before relaxing)
 .comment       0x000000ee       0x50 c:/program files (x86)/microchip/xc32/v2.30/bin/bin/../../lib/gcc/pic32mx/4.8.3/../../../../pic32mx/lib\liblega-c.a(strncpy.o)
                                 0x8d (size before relaxing)
 .comment       0x00000000       0x3d c:/program files (x86)/microchip/xc32/v2.30/bin/bin/../../lib/gcc/pic32mx/4.8.3/../../../../pic32mx/lib\libm.a(w_atan2f.o)
 .comment       0x00000000       0x3d c:/program files (x86)/microchip/xc32/v2.30/bin/bin/../../lib/gcc/pic32mx/4.8.3/../../../../pic32mx/lib\libm.a(w_sqrtf.o)
 .comment       0x00000000       0x3d c:/program files (x86)/microchip/xc32/v2.30/bin/bin/../../lib/gcc/pic32mx/4.8.3/../../../../pic32mx/lib\libm.a(support.o)
 .comment       0x00000000       0x3d c:/program files (x86)/microchip/xc32/v2.30/bin/bin/../../lib/gcc/pic32mx/4.8.3/../../../../pic32mx/lib\libm.a(s_lib_ver.o)
 .comment       0x00000000       0x3d c:/program files (x86)/microchip/xc32/v2.30/bin/bin/../../lib/gcc/pic32mx/4.8.3/../../../../pic32mx/lib\libpic32.a(errno.o)

.debug
 *.elf(.debug)
 *(.debug)

.line
 *.elf(.line)
 *(.line)

.debug_srcinfo
 *.elf(.debug_srcinfo)
 *(.debug_srcinfo)

.debug_sfnames
 *.elf(.debug_sfnames)
 *(.debug_sfnames)

.debug_aranges  0x00000000      0xb08
 *.elf(.debug_aranges)
 *(.debug_aranges)
 .debug_aranges
                0x00000000       0x20 output\tmr.o
 .debug_aranges
                0x00000020       0x20 output\ringBuffer.o
 .debug_aranges
                0x00000040       0x20 output\task.o
 .debug_aranges
                0x00000060       0x20 output\eeprom.o
 .debug_aranges
                0x00000080       0x20 output\eep_manager.o
 .debug_aranges
                0x000000a0       0x20 output\main.o
 .debug_aranges
                0x000000c0       0x18 output\c_eep_manager.o
 .debug_aranges
                0x000000d8       0x20 output\app.o
 .debug_aranges
                0x000000f8       0x20 output\ad.o
 .debug_aranges
                0x00000118       0x20 output\gcode.o
 .debug_aranges
                0x00000138       0x20 output\grbl_limits.o
 .debug_aranges
                0x00000158       0x20 output\coolant_control.o
 .debug_aranges
                0x00000178       0x20 output\motion_control.o
 .debug_aranges
                0x00000198       0x20 output\nuts_bolts.o
 .debug_aranges
                0x000001b8       0x20 output\planner.o
 .debug_aranges
                0x000001d8       0x20 output\print.o
 .debug_aranges
                0x000001f8       0x20 output\report.o
 .debug_aranges
                0x00000218       0x20 output\settings.o
 .debug_aranges
                0x00000238       0x20 output\spindle_control.o
 .debug_aranges
                0x00000258       0x20 output\stepper.o
 .debug_aranges
                0x00000278       0x20 output\system.o
 .debug_aranges
                0x00000298       0x20 output\grbl.o
 .debug_aranges
                0x000002b8       0x20 output\pwm.o
 .debug_aranges
                0x000002d8       0x20 output\jog.o
 .debug_aranges
                0x000002f8       0x20 output\dee.o
 .debug_aranges
                0x00000318       0x20 output\dee_page.o
 .debug_aranges
                0x00000338       0x20 output\dee_page_helper.o
 .debug_aranges
                0x00000358       0x20 output\eep_manager_crc.o
 .debug_aranges
                0x00000378       0x20 output\system_control.o
 .debug_aranges
                0x00000398       0x20 output\stepper_enable.o
 .debug_aranges
                0x000003b8       0x20 output\system_exec.o
 .debug_aranges
                0x000003d8       0x20 output\system_alarm.o
 .debug_aranges
                0x000003f8       0x20 output\grbl_eeprom.o
 .debug_aranges
                0x00000418       0x20 output\bootloader_interface.o
 .debug_aranges
                0x00000438       0x20 output\grbl_toolchange.o
 .debug_aranges
                0x00000458       0x20 output\grbl_protocol.o
 .debug_aranges
                0x00000478       0x20 output\grbl_running.o
 .debug_aranges
                0x00000498       0x20 output\grbl_bootloader.o
 .debug_aranges
                0x000004b8       0x20 output\grbl_probe.o
 .debug_aranges
                0x000004d8       0x20 output\ethernet.o
 .debug_aranges
                0x000004f8       0x20 output\ENC28J60.o
 .debug_aranges
                0x00000518       0x18 output\DHCP.o
 .debug_aranges
                0x00000530       0x20 output\Delay.o
 .debug_aranges
                0x00000550       0x20 output\ARP.o
 .debug_aranges
                0x00000570       0x20 output\Announce.o
 .debug_aranges
                0x00000590       0x20 output\Helpers.o
 .debug_aranges
                0x000005b0       0x20 output\ICMP.o
 .debug_aranges
                0x000005d0       0x20 output\IP.o
 .debug_aranges
                0x000005f0       0x20 output\StackTsk.o
 .debug_aranges
                0x00000610       0x20 output\UDP.o
 .debug_aranges
                0x00000630       0x20 output\ethernet_grbl_multi.o
 .debug_aranges
                0x00000650       0x20 output\grbl_multi.o
 .debug_aranges
                0x00000670       0x20 output\Reboot.o
 .debug_aranges
                0x00000690       0x20 output\TCP.o
 .debug_aranges
                0x000006b0       0x20 output\BerkeleyAPI.o
 .debug_aranges
                0x000006d0       0x20 output\mal.o
 .debug_aranges
                0x000006f0       0x20 output\isr.o
 .debug_aranges
                0x00000710       0x20 output\exceptions.o
 .debug_aranges
                0x00000730       0x20 output\usb_device_cdc_acm.o
 .debug_aranges
                0x00000750       0x20 output\usb_device_cdc.o
 .debug_aranges
                0x00000770       0x20 output\usb_device.o
 .debug_aranges
                0x00000790       0x20 output\usb_app.o
 .debug_aranges
                0x000007b0       0x20 output\usb.o
 .debug_aranges
                0x000007d0       0x20 output\system_tasks.o
 .debug_aranges
                0x000007f0       0x20 output\sys_int_pic32.o
 .debug_aranges
                0x00000810       0x20 output\system_init.o
 .debug_aranges
                0x00000830       0x20 output\peripheral.o
 .debug_aranges
                0x00000850       0x20 output\drv_usbhs_device.o
 .debug_aranges
                0x00000870       0x20 output\drv_usbhs.o
 .debug_aranges
                0x00000890       0x20 output\bsp_sys_init.o
 .debug_aranges
                0x000008b0       0x20 output\stackmeasure.o
 .debug_aranges
                0x000008d0       0x20 output\noinitram.o
 .debug_aranges
                0x000008f0       0x20 output\usb_grbl_multi.o
 .debug_aranges
                0x00000910       0x20 c:/program files (x86)/microchip/xc32/v2.30/bin/bin/../../lib/gcc/pic32mx/4.8.3\libgcc.a(_fixunssfdi.o)
 .debug_aranges
                0x00000930       0x20 c:/program files (x86)/microchip/xc32/v2.30/bin/bin/../../lib/gcc/pic32mx/4.8.3\libgcc.a(_floatundisf.o)
 .debug_aranges
                0x00000950       0x20 c:/program files (x86)/microchip/xc32/v2.30/bin/bin/../../lib/gcc/pic32mx/4.8.3\libgcc.a(floatunsisf.o)
 .debug_aranges
                0x00000970       0x20 c:/program files (x86)/microchip/xc32/v2.30/bin/bin/../../lib/gcc/pic32mx/4.8.3\libgcc.a(floatunsidf.o)
 .debug_aranges
                0x00000990       0x20 c:/program files (x86)/microchip/xc32/v2.30/bin/bin/../../lib/gcc/pic32mx/4.8.3/../../../../pic32mx/lib\libpic32.a(default-bootstrap-exception-handler.o)
 .debug_aranges
                0x000009b0       0x20 c:/program files (x86)/microchip/xc32/v2.30/bin/bin/../../lib/gcc/pic32mx/4.8.3/../../../../pic32mx/lib\libpic32.a(default-on-reset.o)
 .debug_aranges
                0x000009d0       0x20 c:/program files (x86)/microchip/xc32/v2.30/bin/bin/../../lib/gcc/pic32mx/4.8.3/../../../../pic32mx/lib\libpic32.a(default-on-bootstrap.o)
 .debug_aranges
                0x000009f0       0x20 c:/program files (x86)/microchip/xc32/v2.30/bin/bin/../../lib/gcc/pic32mx/4.8.3/../../../../pic32mx/lib\libpic32.a(defaultinterrupt.o)
 .debug_aranges
                0x00000a10       0x20 c:/program files (x86)/microchip/xc32/v2.30/bin/bin/../../lib/gcc/pic32mx/4.8.3/../../../../pic32mx/lib\libpic32.a(default-cache-err-exception-handler.o)
 .debug_aranges
                0x00000a30       0x20 c:/program files (x86)/microchip/xc32/v2.30/bin/bin/../../lib/gcc/pic32mx/4.8.3/../../../../pic32mx/lib\libpic32.a(default-simple-tlb-refill-exception-handler.o)
 .debug_aranges
                0x00000a50       0x20 c:/program files (x86)/microchip/xc32/v2.30/bin/bin/../../lib/gcc/pic32mx/4.8.3/../../../../pic32mx/lib\libm.a(w_atan2f.o)
 .debug_aranges
                0x00000a70       0x20 c:/program files (x86)/microchip/xc32/v2.30/bin/bin/../../lib/gcc/pic32mx/4.8.3/../../../../pic32mx/lib\libm.a(w_sqrtf.o)
 .debug_aranges
                0x00000a90       0x78 c:/program files (x86)/microchip/xc32/v2.30/bin/bin/../../lib/gcc/pic32mx/4.8.3/../../../../pic32mx/lib\libm.a(support.o)

.debug_pubnames
 *.elf(.debug_pubnames)
 *(.debug_pubnames)

.debug_info     0x00000000    0x7d113
 *.elf(.debug_info .gnu.linkonce.wi.*)
 *(.debug_info .gnu.linkonce.wi.*)
 .debug_info    0x00000000      0x73a output\tmr.o
 .debug_info    0x0000073a      0x617 output\ringBuffer.o
 .debug_info    0x00000d51      0x990 output\task.o
 .debug_info    0x000016e1      0x656 output\eeprom.o
 .debug_info    0x00001d37     0x1392 output\eep_manager.o
 .debug_info    0x000030c9      0xcda output\main.o
 .debug_info    0x00003da3      0xb36 output\c_eep_manager.o
 .debug_info    0x000048d9      0x32f output\app.o
 .debug_info    0x00004c08      0x409 output\ad.o
 .debug_info    0x00005011     0x18a7 output\gcode.o
 .debug_info    0x000068b8     0x1b91 output\grbl_limits.o
 .debug_info    0x00008449      0x3e5 output\coolant_control.o
 .debug_info    0x0000882e     0x13e0 output\motion_control.o
 .debug_info    0x00009c0e      0x97a output\nuts_bolts.o
 .debug_info    0x0000a588     0x1257 output\planner.o
 .debug_info    0x0000b7df      0x9ac output\print.o
 .debug_info    0x0000c18b     0x4789 output\report.o
 .debug_info    0x00010914      0x982 output\settings.o
 .debug_info    0x00011296      0xbb4 output\spindle_control.o
 .debug_info    0x00011e4a     0x1834 output\stepper.o
 .debug_info    0x0001367e     0x29a9 output\system.o
 .debug_info    0x00016027     0x16ea output\grbl.o
 .debug_info    0x00017711      0xb96 output\pwm.o
 .debug_info    0x000182a7      0xa6d output\jog.o
 .debug_info    0x00018d14     0x1923 output\dee.o
 .debug_info    0x0001a637     0x1018 output\dee_page.o
 .debug_info    0x0001b64f      0x75a output\dee_page_helper.o
 .debug_info    0x0001bda9      0x685 output\eep_manager_crc.o
 .debug_info    0x0001c42e      0xa94 output\system_control.o
 .debug_info    0x0001cec2      0x92a output\stepper_enable.o
 .debug_info    0x0001d7ec      0x28b output\system_exec.o
 .debug_info    0x0001da77      0x266 output\system_alarm.o
 .debug_info    0x0001dcdd     0x150c output\grbl_eeprom.o
 .debug_info    0x0001f1e9      0x29c output\bootloader_interface.o
 .debug_info    0x0001f485      0x885 output\grbl_toolchange.o
 .debug_info    0x0001fd0a     0x1e3e output\grbl_protocol.o
 .debug_info    0x00021b48      0x711 output\grbl_running.o
 .debug_info    0x00022259      0x61f output\grbl_bootloader.o
 .debug_info    0x00022878      0xe81 output\grbl_probe.o
 .debug_info    0x000236f9      0xe07 output\ethernet.o
 .debug_info    0x00024500     0x4881 output\ENC28J60.o
 .debug_info    0x00028d81      0x137 output\DHCP.o
 .debug_info    0x00028eb8      0x21e output\Delay.o
 .debug_info    0x000290d6      0xd7f output\ARP.o
 .debug_info    0x00029e55      0xed6 output\Announce.o
 .debug_info    0x0002ad2b      0xe3b output\Helpers.o
 .debug_info    0x0002bb66      0x956 output\ICMP.o
 .debug_info    0x0002c4bc      0xcea output\IP.o
 .debug_info    0x0002d1a6      0xceb output\StackTsk.o
 .debug_info    0x0002de91     0x180f output\UDP.o
 .debug_info    0x0002f6a0      0xefa output\ethernet_grbl_multi.o
 .debug_info    0x0003059a      0x445 output\grbl_multi.o
 .debug_info    0x000309df      0xbf1 output\Reboot.o
 .debug_info    0x000315d0     0x320c output\TCP.o
 .debug_info    0x000347dc     0x1a40 output\BerkeleyAPI.o
 .debug_info    0x0003621c      0xb92 output\mal.o
 .debug_info    0x00036dae     0x210c output\isr.o
 .debug_info    0x00038eba      0x52f output\exceptions.o
 .debug_info    0x000393e9     0x1f0d output\usb_device_cdc_acm.o
 .debug_info    0x0003b2f6     0x59db output\usb_device_cdc.o
 .debug_info    0x00040cd1     0x6d31 output\usb_device.o
 .debug_info    0x00047a02     0x42fc output\usb_app.o
 .debug_info    0x0004bcfe     0x1827 output\usb.o
 .debug_info    0x0004d525      0xff9 output\system_tasks.o
 .debug_info    0x0004e51e     0x2ac7 output\sys_int_pic32.o
 .debug_info    0x00050fe5     0x6906 output\system_init.o
 .debug_info    0x000578eb    0x13362 output\peripheral.o
 .debug_info    0x0006ac4d     0x9fe7 output\drv_usbhs_device.o
 .debug_info    0x00074c34     0x4e45 output\drv_usbhs.o
 .debug_info    0x00079a79     0x16b2 output\bsp_sys_init.o
 .debug_info    0x0007b12b      0x222 output\stackmeasure.o
 .debug_info    0x0007b34d      0x7a8 output\noinitram.o
 .debug_info    0x0007baf5      0x611 output\usb_grbl_multi.o
 .debug_info    0x0007c106      0x280 c:/program files (x86)/microchip/xc32/v2.30/bin/bin/../../lib/gcc/pic32mx/4.8.3\libgcc.a(_fixunssfdi.o)
 .debug_info    0x0007c386      0x253 c:/program files (x86)/microchip/xc32/v2.30/bin/bin/../../lib/gcc/pic32mx/4.8.3\libgcc.a(_floatundisf.o)
 .debug_info    0x0007c5d9      0x129 c:/program files (x86)/microchip/xc32/v2.30/bin/bin/../../lib/gcc/pic32mx/4.8.3\libgcc.a(floatunsisf.o)
 .debug_info    0x0007c702      0x137 c:/program files (x86)/microchip/xc32/v2.30/bin/bin/../../lib/gcc/pic32mx/4.8.3\libgcc.a(floatunsidf.o)
 .debug_info    0x0007c839       0xf4 c:/program files (x86)/microchip/xc32/v2.30/bin/bin/../../lib/gcc/pic32mx/4.8.3/../../../../pic32mx/lib\libpic32.a(default-bootstrap-exception-handler.o)
 .debug_info    0x0007c92d       0xcd c:/program files (x86)/microchip/xc32/v2.30/bin/bin/../../lib/gcc/pic32mx/4.8.3/../../../../pic32mx/lib\libpic32.a(default-on-reset.o)
 .debug_info    0x0007c9fa       0xd5 c:/program files (x86)/microchip/xc32/v2.30/bin/bin/../../lib/gcc/pic32mx/4.8.3/../../../../pic32mx/lib\libpic32.a(default-on-bootstrap.o)
 .debug_info    0x0007cacf       0xe7 c:/program files (x86)/microchip/xc32/v2.30/bin/bin/../../lib/gcc/pic32mx/4.8.3/../../../../pic32mx/lib\libpic32.a(defaultinterrupt.o)
 .debug_info    0x0007cbb6       0xf4 c:/program files (x86)/microchip/xc32/v2.30/bin/bin/../../lib/gcc/pic32mx/4.8.3/../../../../pic32mx/lib\libpic32.a(default-cache-err-exception-handler.o)
 .debug_info    0x0007ccaa      0x104 c:/program files (x86)/microchip/xc32/v2.30/bin/bin/../../lib/gcc/pic32mx/4.8.3/../../../../pic32mx/lib\libpic32.a(default-simple-tlb-refill-exception-handler.o)
 .debug_info    0x0007cdae       0xce c:/program files (x86)/microchip/xc32/v2.30/bin/bin/../../lib/gcc/pic32mx/4.8.3/../../../../pic32mx/lib\libm.a(w_atan2f.o)
 .debug_info    0x0007ce7c       0xbe c:/program files (x86)/microchip/xc32/v2.30/bin/bin/../../lib/gcc/pic32mx/4.8.3/../../../../pic32mx/lib\libm.a(w_sqrtf.o)
 .debug_info    0x0007cf3a      0x1d9 c:/program files (x86)/microchip/xc32/v2.30/bin/bin/../../lib/gcc/pic32mx/4.8.3/../../../../pic32mx/lib\libm.a(support.o)

.debug_abbrev   0x00000000     0x9836
 *.elf(.debug_abbrev)
 *(.debug_abbrev)
 .debug_abbrev  0x00000000      0x199 output\tmr.o
 .debug_abbrev  0x00000199      0x120 output\ringBuffer.o
 .debug_abbrev  0x000002b9      0x229 output\task.o
 .debug_abbrev  0x000004e2      0x196 output\eeprom.o
 .debug_abbrev  0x00000678      0x29a output\eep_manager.o
 .debug_abbrev  0x00000912      0x124 output\main.o
 .debug_abbrev  0x00000a36       0xa0 output\c_eep_manager.o
 .debug_abbrev  0x00000ad6       0xf0 output\app.o
 .debug_abbrev  0x00000bc6      0x128 output\ad.o
 .debug_abbrev  0x00000cee      0x274 output\gcode.o
 .debug_abbrev  0x00000f62      0x391 output\grbl_limits.o
 .debug_abbrev  0x000012f3      0x111 output\coolant_control.o
 .debug_abbrev  0x00001404      0x31a output\motion_control.o
 .debug_abbrev  0x0000171e      0x196 output\nuts_bolts.o
 .debug_abbrev  0x000018b4      0x381 output\planner.o
 .debug_abbrev  0x00001c35      0x139 output\print.o
 .debug_abbrev  0x00001d6e      0x37d output\report.o
 .debug_abbrev  0x000020eb      0x200 output\settings.o
 .debug_abbrev  0x000022eb      0x1ef output\spindle_control.o
 .debug_abbrev  0x000024da      0x30b output\stepper.o
 .debug_abbrev  0x000027e5      0x385 output\system.o
 .debug_abbrev  0x00002b6a      0x16a output\grbl.o
 .debug_abbrev  0x00002cd4      0x1a0 output\pwm.o
 .debug_abbrev  0x00002e74      0x148 output\jog.o
 .debug_abbrev  0x00002fbc      0x25b output\dee.o
 .debug_abbrev  0x00003217      0x2d7 output\dee_page.o
 .debug_abbrev  0x000034ee      0x1ba output\dee_page_helper.o
 .debug_abbrev  0x000036a8       0xc0 output\eep_manager_crc.o
 .debug_abbrev  0x00003768      0x1d8 output\system_control.o
 .debug_abbrev  0x00003940      0x1da output\stepper_enable.o
 .debug_abbrev  0x00003b1a       0xa9 output\system_exec.o
 .debug_abbrev  0x00003bc3       0xc1 output\system_alarm.o
 .debug_abbrev  0x00003c84      0x260 output\grbl_eeprom.o
 .debug_abbrev  0x00003ee4       0xb0 output\bootloader_interface.o
 .debug_abbrev  0x00003f94      0x195 output\grbl_toolchange.o
 .debug_abbrev  0x00004129      0x37b output\grbl_protocol.o
 .debug_abbrev  0x000044a4      0x10d output\grbl_running.o
 .debug_abbrev  0x000045b1      0x136 output\grbl_bootloader.o
 .debug_abbrev  0x000046e7      0x269 output\grbl_probe.o
 .debug_abbrev  0x00004950      0x1e2 output\ethernet.o
 .debug_abbrev  0x00004b32      0x3de output\ENC28J60.o
 .debug_abbrev  0x00004f10       0x1b output\DHCP.o
 .debug_abbrev  0x00004f2b       0xb6 output\Delay.o
 .debug_abbrev  0x00004fe1      0x295 output\ARP.o
 .debug_abbrev  0x00005276      0x238 output\Announce.o
 .debug_abbrev  0x000054ae      0x1e5 output\Helpers.o
 .debug_abbrev  0x00005693      0x197 output\ICMP.o
 .debug_abbrev  0x0000582a      0x236 output\IP.o
 .debug_abbrev  0x00005a60      0x211 output\StackTsk.o
 .debug_abbrev  0x00005c71      0x35d output\UDP.o
 .debug_abbrev  0x00005fce      0x213 output\ethernet_grbl_multi.o
 .debug_abbrev  0x000061e1      0x10c output\grbl_multi.o
 .debug_abbrev  0x000062ed      0x1bb output\Reboot.o
 .debug_abbrev  0x000064a8      0x3d7 output\TCP.o
 .debug_abbrev  0x0000687f      0x356 output\BerkeleyAPI.o
 .debug_abbrev  0x00006bd5      0x1ae output\mal.o
 .debug_abbrev  0x00006d83      0x130 output\isr.o
 .debug_abbrev  0x00006eb3      0x13f output\exceptions.o
 .debug_abbrev  0x00006ff2      0x1a8 output\usb_device_cdc_acm.o
 .debug_abbrev  0x0000719a      0x44e output\usb_device_cdc.o
 .debug_abbrev  0x000075e8      0x40a output\usb_device.o
 .debug_abbrev  0x000079f2      0x338 output\usb_app.o
 .debug_abbrev  0x00007d2a      0x165 output\usb.o
 .debug_abbrev  0x00007e8f       0xc1 output\system_tasks.o
 .debug_abbrev  0x00007f50      0x1d9 output\sys_int_pic32.o
 .debug_abbrev  0x00008129      0x312 output\system_init.o
 .debug_abbrev  0x0000843b      0x1f0 output\peripheral.o
 .debug_abbrev  0x0000862b      0x4a9 output\drv_usbhs_device.o
 .debug_abbrev  0x00008ad4      0x48c output\drv_usbhs.o
 .debug_abbrev  0x00008f60      0x1d8 output\bsp_sys_init.o
 .debug_abbrev  0x00009138       0xc9 output\stackmeasure.o
 .debug_abbrev  0x00009201      0x17f output\noinitram.o
 .debug_abbrev  0x00009380      0x165 output\usb_grbl_multi.o
 .debug_abbrev  0x000094e5       0x6d c:/program files (x86)/microchip/xc32/v2.30/bin/bin/../../lib/gcc/pic32mx/4.8.3\libgcc.a(_fixunssfdi.o)
 .debug_abbrev  0x00009552       0x64 c:/program files (x86)/microchip/xc32/v2.30/bin/bin/../../lib/gcc/pic32mx/4.8.3\libgcc.a(_floatundisf.o)
 .debug_abbrev  0x000095b6       0x62 c:/program files (x86)/microchip/xc32/v2.30/bin/bin/../../lib/gcc/pic32mx/4.8.3\libgcc.a(floatunsisf.o)
 .debug_abbrev  0x00009618       0x62 c:/program files (x86)/microchip/xc32/v2.30/bin/bin/../../lib/gcc/pic32mx/4.8.3\libgcc.a(floatunsidf.o)
 .debug_abbrev  0x0000967a       0x28 c:/program files (x86)/microchip/xc32/v2.30/bin/bin/../../lib/gcc/pic32mx/4.8.3/../../../../pic32mx/lib\libpic32.a(default-bootstrap-exception-handler.o)
 .debug_abbrev  0x000096a2       0x28 c:/program files (x86)/microchip/xc32/v2.30/bin/bin/../../lib/gcc/pic32mx/4.8.3/../../../../pic32mx/lib\libpic32.a(default-on-reset.o)
 .debug_abbrev  0x000096ca       0x28 c:/program files (x86)/microchip/xc32/v2.30/bin/bin/../../lib/gcc/pic32mx/4.8.3/../../../../pic32mx/lib\libpic32.a(default-on-bootstrap.o)
 .debug_abbrev  0x000096f2       0x28 c:/program files (x86)/microchip/xc32/v2.30/bin/bin/../../lib/gcc/pic32mx/4.8.3/../../../../pic32mx/lib\libpic32.a(defaultinterrupt.o)
 .debug_abbrev  0x0000971a       0x28 c:/program files (x86)/microchip/xc32/v2.30/bin/bin/../../lib/gcc/pic32mx/4.8.3/../../../../pic32mx/lib\libpic32.a(default-cache-err-exception-handler.o)
 .debug_abbrev  0x00009742       0x28 c:/program files (x86)/microchip/xc32/v2.30/bin/bin/../../lib/gcc/pic32mx/4.8.3/../../../../pic32mx/lib\libpic32.a(default-simple-tlb-refill-exception-handler.o)
 .debug_abbrev  0x0000976a       0x37 c:/program files (x86)/microchip/xc32/v2.30/bin/bin/../../lib/gcc/pic32mx/4.8.3/../../../../pic32mx/lib\libm.a(w_atan2f.o)
 .debug_abbrev  0x000097a1       0x28 c:/program files (x86)/microchip/xc32/v2.30/bin/bin/../../lib/gcc/pic32mx/4.8.3/../../../../pic32mx/lib\libm.a(w_sqrtf.o)
 .debug_abbrev  0x000097c9       0x6d c:/program files (x86)/microchip/xc32/v2.30/bin/bin/../../lib/gcc/pic32mx/4.8.3/../../../../pic32mx/lib\libm.a(support.o)

.debug_line     0x00000000     0xed95
 *.elf(.debug_line)
 *(.debug_line)
 .debug_line    0x00000000      0x297 output\tmr.o
 .debug_line    0x00000297      0x133 output\ringBuffer.o
 .debug_line    0x000003ca      0x1fc output\task.o
 .debug_line    0x000005c6      0x150 output\eeprom.o
 .debug_line    0x00000716      0x330 output\eep_manager.o
 .debug_line    0x00000a46      0x3b5 output\main.o
 .debug_line    0x00000dfb      0x265 output\c_eep_manager.o
 .debug_line    0x00001060      0x10a output\app.o
 .debug_line    0x0000116a      0x177 output\ad.o
 .debug_line    0x000012e1      0x659 output\gcode.o
 .debug_line    0x0000193a      0x3db output\grbl_limits.o
 .debug_line    0x00001d15      0x11c output\coolant_control.o
 .debug_line    0x00001e31      0x2f0 output\motion_control.o
 .debug_line    0x00002121      0x25b output\nuts_bolts.o
 .debug_line    0x0000237c      0x362 output\planner.o
 .debug_line    0x000026de      0x1b1 output\print.o
 .debug_line    0x0000288f      0x742 output\report.o
 .debug_line    0x00002fd1      0x2c3 output\settings.o
 .debug_line    0x00003294      0x2b6 output\spindle_control.o
 .debug_line    0x0000354a      0x4c6 output\stepper.o
 .debug_line    0x00003a10      0x4c1 output\system.o
 .debug_line    0x00003ed1      0x3b0 output\grbl.o
 .debug_line    0x00004281      0x1fc output\pwm.o
 .debug_line    0x0000447d      0x1b0 output\jog.o
 .debug_line    0x0000462d      0x40e output\dee.o
 .debug_line    0x00004a3b      0x1a9 output\dee_page.o
 .debug_line    0x00004be4      0x189 output\dee_page_helper.o
 .debug_line    0x00004d6d      0x14c output\eep_manager_crc.o
 .debug_line    0x00004eb9      0x248 output\system_control.o
 .debug_line    0x00005101      0x246 output\stepper_enable.o
 .debug_line    0x00005347      0x130 output\system_exec.o
 .debug_line    0x00005477      0x131 output\system_alarm.o
 .debug_line    0x000055a8      0x477 output\grbl_eeprom.o
 .debug_line    0x00005a1f       0xd0 output\bootloader_interface.o
 .debug_line    0x00005aef      0x194 output\grbl_toolchange.o
 .debug_line    0x00005c83      0x5ee output\grbl_protocol.o
 .debug_line    0x00006271      0x1eb output\grbl_running.o
 .debug_line    0x0000645c      0x1d8 output\grbl_bootloader.o
 .debug_line    0x00006634      0x291 output\grbl_probe.o
 .debug_line    0x000068c5      0x27f output\ethernet.o
 .debug_line    0x00006b44      0x69e output\ENC28J60.o
 .debug_line    0x000071e2       0x1d output\DHCP.o
 .debug_line    0x000071ff       0xdd output\Delay.o
 .debug_line    0x000072dc      0x1bc output\ARP.o
 .debug_line    0x00007498      0x185 output\Announce.o
 .debug_line    0x0000761d      0x2ac output\Helpers.o
 .debug_line    0x000078c9      0x140 output\ICMP.o
 .debug_line    0x00007a09      0x170 output\IP.o
 .debug_line    0x00007b79      0x1e1 output\StackTsk.o
 .debug_line    0x00007d5a      0x2b4 output\UDP.o
 .debug_line    0x0000800e      0x24f output\ethernet_grbl_multi.o
 .debug_line    0x0000825d       0x9c output\grbl_multi.o
 .debug_line    0x000082f9      0x259 output\Reboot.o
 .debug_line    0x00008552      0x8c4 output\TCP.o
 .debug_line    0x00008e16      0x329 output\BerkeleyAPI.o
 .debug_line    0x0000913f      0x1eb output\mal.o
 .debug_line    0x0000932a      0x3a6 output\isr.o
 .debug_line    0x000096d0      0x144 output\exceptions.o
 .debug_line    0x00009814      0x204 output\usb_device_cdc_acm.o
 .debug_line    0x00009a18      0x521 output\usb_device_cdc.o
 .debug_line    0x00009f39      0x624 output\usb_device.o
 .debug_line    0x0000a55d      0x3a2 output\usb_app.o
 .debug_line    0x0000a8ff      0x269 output\usb.o
 .debug_line    0x0000ab68      0x1b4 output\system_tasks.o
 .debug_line    0x0000ad1c      0x26a output\sys_int_pic32.o
 .debug_line    0x0000af86      0x33c output\system_init.o
 .debug_line    0x0000b2c2     0x1849 output\peripheral.o
 .debug_line    0x0000cb0b      0xfd9 output\drv_usbhs_device.o
 .debug_line    0x0000dae4      0x54f output\drv_usbhs.o
 .debug_line    0x0000e033      0x219 output\bsp_sys_init.o
 .debug_line    0x0000e24c       0xde output\stackmeasure.o
 .debug_line    0x0000e32a      0x1ae output\noinitram.o
 .debug_line    0x0000e4d8       0xeb output\usb_grbl_multi.o
 .debug_line    0x0000e5c3       0xa4 c:/program files (x86)/microchip/xc32/v2.30/bin/bin/../../lib/gcc/pic32mx/4.8.3\libgcc.a(_fixunssfdi.o)
 .debug_line    0x0000e667       0xaa c:/program files (x86)/microchip/xc32/v2.30/bin/bin/../../lib/gcc/pic32mx/4.8.3\libgcc.a(_floatundisf.o)
 .debug_line    0x0000e711       0x94 c:/program files (x86)/microchip/xc32/v2.30/bin/bin/../../lib/gcc/pic32mx/4.8.3\libgcc.a(floatunsisf.o)
 .debug_line    0x0000e7a5       0x93 c:/program files (x86)/microchip/xc32/v2.30/bin/bin/../../lib/gcc/pic32mx/4.8.3\libgcc.a(floatunsidf.o)
 .debug_line    0x0000e838       0xa6 c:/program files (x86)/microchip/xc32/v2.30/bin/bin/../../lib/gcc/pic32mx/4.8.3/../../../../pic32mx/lib\libpic32.a(default-bootstrap-exception-handler.o)
 .debug_line    0x0000e8de       0x93 c:/program files (x86)/microchip/xc32/v2.30/bin/bin/../../lib/gcc/pic32mx/4.8.3/../../../../pic32mx/lib\libpic32.a(default-on-reset.o)
 .debug_line    0x0000e971       0x97 c:/program files (x86)/microchip/xc32/v2.30/bin/bin/../../lib/gcc/pic32mx/4.8.3/../../../../pic32mx/lib\libpic32.a(default-on-bootstrap.o)
 .debug_line    0x0000ea08       0xa5 c:/program files (x86)/microchip/xc32/v2.30/bin/bin/../../lib/gcc/pic32mx/4.8.3/../../../../pic32mx/lib\libpic32.a(defaultinterrupt.o)
 .debug_line    0x0000eaad       0xa6 c:/program files (x86)/microchip/xc32/v2.30/bin/bin/../../lib/gcc/pic32mx/4.8.3/../../../../pic32mx/lib\libpic32.a(default-cache-err-exception-handler.o)
 .debug_line    0x0000eb53       0xae c:/program files (x86)/microchip/xc32/v2.30/bin/bin/../../lib/gcc/pic32mx/4.8.3/../../../../pic32mx/lib\libpic32.a(default-simple-tlb-refill-exception-handler.o)
 .debug_line    0x0000ec01       0x88 c:/program files (x86)/microchip/xc32/v2.30/bin/bin/../../lib/gcc/pic32mx/4.8.3/../../../../pic32mx/lib\libm.a(w_atan2f.o)
 .debug_line    0x0000ec89       0x87 c:/program files (x86)/microchip/xc32/v2.30/bin/bin/../../lib/gcc/pic32mx/4.8.3/../../../../pic32mx/lib\libm.a(w_sqrtf.o)
 .debug_line    0x0000ed10       0x85 c:/program files (x86)/microchip/xc32/v2.30/bin/bin/../../lib/gcc/pic32mx/4.8.3/../../../../pic32mx/lib\libm.a(support.o)
 .debug_line    0x0000ed95        0x0 c:/program files (x86)/microchip/xc32/v2.30/bin/bin/../../lib/gcc/pic32mx/4.8.3/../../../../pic32mx/lib\libm.a(s_lib_ver.o)
 .debug_line    0x0000ed95        0x0 c:/program files (x86)/microchip/xc32/v2.30/bin/bin/../../lib/gcc/pic32mx/4.8.3/../../../../pic32mx/lib\libpic32.a(errno.o)

.debug_frame    0x00000000     0x6de0
 *.elf(.debug_frame)
 *(.debug_frame)
 .debug_frame   0x00000000      0x194 output\tmr.o
 .debug_frame   0x00000194       0xec output\ringBuffer.o
 .debug_frame   0x00000280      0x1c0 output\task.o
 .debug_frame   0x00000440      0x134 output\eeprom.o
 .debug_frame   0x00000574      0x1ec output\eep_manager.o
 .debug_frame   0x00000760       0xc4 output\main.o
 .debug_frame   0x00000824       0x8c output\app.o
 .debug_frame   0x000008b0       0x50 output\ad.o
 .debug_frame   0x00000900       0xdc output\gcode.o
 .debug_frame   0x000009dc      0x14c output\grbl_limits.o
 .debug_frame   0x00000b28       0x60 output\coolant_control.o
 .debug_frame   0x00000b88      0x130 output\motion_control.o
 .debug_frame   0x00000cb8      0x188 output\nuts_bolts.o
 .debug_frame   0x00000e40      0x19c output\planner.o
 .debug_frame   0x00000fdc      0x180 output\print.o
 .debug_frame   0x0000115c      0x340 output\report.o
 .debug_frame   0x0000149c       0xe8 output\settings.o
 .debug_frame   0x00001584       0x9c output\spindle_control.o
 .debug_frame   0x00001620      0x150 output\stepper.o
 .debug_frame   0x00001770      0x4bc output\system.o
 .debug_frame   0x00001c2c      0x108 output\grbl.o
 .debug_frame   0x00001d34       0xa0 output\pwm.o
 .debug_frame   0x00001dd4       0x30 output\jog.o
 .debug_frame   0x00001e04      0x23c output\dee.o
 .debug_frame   0x00002040      0x1a0 output\dee_page.o
 .debug_frame   0x000021e0       0xdc output\dee_page_helper.o
 .debug_frame   0x000022bc       0x60 output\eep_manager_crc.o
 .debug_frame   0x0000231c       0xbc output\system_control.o
 .debug_frame   0x000023d8       0xe8 output\stepper_enable.o
 .debug_frame   0x000024c0       0x64 output\system_exec.o
 .debug_frame   0x00002524       0x64 output\system_alarm.o
 .debug_frame   0x00002588      0x120 output\grbl_eeprom.o
 .debug_frame   0x000026a8       0x5c output\bootloader_interface.o
 .debug_frame   0x00002704       0x94 output\grbl_toolchange.o
 .debug_frame   0x00002798      0x10c output\grbl_protocol.o
 .debug_frame   0x000028a4       0x4c output\grbl_running.o
 .debug_frame   0x000028f0       0x68 output\grbl_bootloader.o
 .debug_frame   0x00002958       0xc4 output\grbl_probe.o
 .debug_frame   0x00002a1c       0x80 output\ethernet.o
 .debug_frame   0x00002a9c      0x3d8 output\ENC28J60.o
 .debug_frame   0x00002e74       0x44 output\Delay.o
 .debug_frame   0x00002eb8       0xbc output\ARP.o
 .debug_frame   0x00002f74       0x50 output\Announce.o
 .debug_frame   0x00002fc4      0x160 output\Helpers.o
 .debug_frame   0x00003124       0x30 output\ICMP.o
 .debug_frame   0x00003154       0x8c output\IP.o
 .debug_frame   0x000031e0       0x6c output\StackTsk.o
 .debug_frame   0x0000324c      0x21c output\UDP.o
 .debug_frame   0x00003468      0x114 output\ethernet_grbl_multi.o
 .debug_frame   0x0000357c      0x13c output\grbl_multi.o
 .debug_frame   0x000036b8       0x38 output\Reboot.o
 .debug_frame   0x000036f0      0x454 output\TCP.o
 .debug_frame   0x00003b44      0x264 output\BerkeleyAPI.o
 .debug_frame   0x00003da8       0xe0 output\mal.o
 .debug_frame   0x00003e88      0xa0c output\isr.o
 .debug_frame   0x00004894       0x60 output\exceptions.o
 .debug_frame   0x000048f4       0x2c output\usb_device_cdc_acm.o
 .debug_frame   0x00004920      0x18c output\usb_device_cdc.o
 .debug_frame   0x00004aac      0x43c output\usb_device.o
 .debug_frame   0x00004ee8       0x90 output\usb_app.o
 .debug_frame   0x00004f78       0x90 output\usb.o
 .debug_frame   0x00005008       0x2c output\system_tasks.o
 .debug_frame   0x00005034       0xa0 output\sys_int_pic32.o
 .debug_frame   0x000050d4       0x2c output\system_init.o
 .debug_frame   0x00005100     0x1330 output\peripheral.o
 .debug_frame   0x00006430      0x2d8 output\drv_usbhs_device.o
 .debug_frame   0x00006708      0x10c output\drv_usbhs.o
 .debug_frame   0x00006814       0x50 output\bsp_sys_init.o
 .debug_frame   0x00006864       0x5c output\stackmeasure.o
 .debug_frame   0x000068c0       0xbc output\noinitram.o
 .debug_frame   0x0000697c       0xd8 output\usb_grbl_multi.o
 .debug_frame   0x00006a54       0x30 c:/program files (x86)/microchip/xc32/v2.30/bin/bin/../../lib/gcc/pic32mx/4.8.3\libgcc.a(_fixunssfdi.o)
 .debug_frame   0x00006a84       0x2c c:/program files (x86)/microchip/xc32/v2.30/bin/bin/../../lib/gcc/pic32mx/4.8.3\libgcc.a(_floatundisf.o)
 .debug_frame   0x00006ab0       0x30 c:/program files (x86)/microchip/xc32/v2.30/bin/bin/../../lib/gcc/pic32mx/4.8.3\libgcc.a(floatunsisf.o)
 .debug_frame   0x00006ae0       0x2c c:/program files (x86)/microchip/xc32/v2.30/bin/bin/../../lib/gcc/pic32mx/4.8.3\libgcc.a(floatunsidf.o)
 .debug_frame   0x00006b0c       0x2c c:/program files (x86)/microchip/xc32/v2.30/bin/bin/../../lib/gcc/pic32mx/4.8.3/../../../../pic32mx/lib\libpic32.a(default-bootstrap-exception-handler.o)
 .debug_frame   0x00006b38       0x20 c:/program files (x86)/microchip/xc32/v2.30/bin/bin/../../lib/gcc/pic32mx/4.8.3/../../../../pic32mx/lib\libpic32.a(default-on-reset.o)
 .debug_frame   0x00006b58       0x20 c:/program files (x86)/microchip/xc32/v2.30/bin/bin/../../lib/gcc/pic32mx/4.8.3/../../../../pic32mx/lib\libpic32.a(default-on-bootstrap.o)
 .debug_frame   0x00006b78       0x20 c:/program files (x86)/microchip/xc32/v2.30/bin/bin/../../lib/gcc/pic32mx/4.8.3/../../../../pic32mx/lib\libpic32.a(defaultinterrupt.o)
 .debug_frame   0x00006b98       0x2c c:/program files (x86)/microchip/xc32/v2.30/bin/bin/../../lib/gcc/pic32mx/4.8.3/../../../../pic32mx/lib\libpic32.a(default-cache-err-exception-handler.o)
 .debug_frame   0x00006bc4       0x2c c:/program files (x86)/microchip/xc32/v2.30/bin/bin/../../lib/gcc/pic32mx/4.8.3/../../../../pic32mx/lib\libpic32.a(default-simple-tlb-refill-exception-handler.o)
 .debug_frame   0x00006bf0       0x44 c:/program files (x86)/microchip/xc32/v2.30/bin/bin/../../lib/gcc/pic32mx/4.8.3/../../../../pic32mx/lib\libm.a(w_atan2f.o)
 .debug_frame   0x00006c34       0x30 c:/program files (x86)/microchip/xc32/v2.30/bin/bin/../../lib/gcc/pic32mx/4.8.3/../../../../pic32mx/lib\libm.a(w_sqrtf.o)
 .debug_frame   0x00006c64      0x17c c:/program files (x86)/microchip/xc32/v2.30/bin/bin/../../lib/gcc/pic32mx/4.8.3/../../../../pic32mx/lib\libm.a(support.o)

.debug_str      0x00000000     0x147e
 *.elf(.debug_str)
 *(.debug_str)
 .debug_str     0x00000000        0x7 output\tmr.o
 .debug_str     0x00000007       0x3c output\ringBuffer.o
 .debug_str     0x00000043       0x22 output\task.o
 .debug_str     0x00000065       0x15 output\eeprom.o
 .debug_str     0x0000007a       0x41 output\eep_manager.o
 .debug_str     0x000000bb        0x0 output\main.o
 .debug_str     0x000000bb        0x0 output\c_eep_manager.o
 .debug_str     0x000000bb        0x0 output\app.o
 .debug_str     0x000000bb        0x0 output\ad.o
 .debug_str     0x000000bb       0x3c output\gcode.o
 .debug_str     0x000000f7       0x32 output\grbl_limits.o
 .debug_str     0x00000129        0x0 output\coolant_control.o
 .debug_str     0x00000129       0x66 output\motion_control.o
 .debug_str     0x0000018f        0x7 output\nuts_bolts.o
 .debug_str     0x00000196       0x74 output\planner.o
 .debug_str     0x0000020a        0x0 output\print.o
 .debug_str     0x0000020a       0x68 output\report.o
 .debug_str     0x00000272       0x21 output\settings.o
 .debug_str     0x00000293        0xa output\spindle_control.o
 .debug_str     0x0000029d       0x53 output\stepper.o
 .debug_str     0x000002f0       0x48 output\system.o
 .debug_str     0x00000338        0x0 output\grbl.o
 .debug_str     0x00000338       0x21 output\pwm.o
 .debug_str     0x00000359       0x3b output\jog.o
 .debug_str     0x00000394       0x9a output\dee.o
 .debug_str     0x0000042e       0x23 output\dee_page.o
 .debug_str     0x00000451       0x24 output\dee_page_helper.o
 .debug_str     0x00000475       0x10 output\eep_manager_crc.o
 .debug_str     0x00000485        0x0 output\system_control.o
 .debug_str     0x00000485        0x0 output\stepper_enable.o
 .debug_str     0x00000485        0x0 output\system_exec.o
 .debug_str     0x00000485        0x0 output\system_alarm.o
 .debug_str     0x00000485        0xa output\grbl_eeprom.o
 .debug_str     0x0000048f        0x0 output\bootloader_interface.o
 .debug_str     0x0000048f        0x9 output\grbl_toolchange.o
 .debug_str     0x00000498       0x2f output\grbl_protocol.o
 .debug_str     0x000004c7        0x0 output\grbl_running.o
 .debug_str     0x000004c7        0x0 output\grbl_bootloader.o
 .debug_str     0x000004c7       0x1c output\grbl_probe.o
 .debug_str     0x000004e3        0x0 output\ethernet.o
 .debug_str     0x000004e3       0x6e output\ENC28J60.o
 .debug_str     0x00000551        0x0 output\DHCP.o
 .debug_str     0x00000551        0x0 output\Delay.o
 .debug_str     0x00000551        0xe output\ARP.o
 .debug_str     0x0000055f       0x14 output\Announce.o
 .debug_str     0x00000573        0x0 output\Helpers.o
 .debug_str     0x00000573        0x0 output\ICMP.o
 .debug_str     0x00000573        0x9 output\IP.o
 .debug_str     0x0000057c        0x0 output\StackTsk.o
 .debug_str     0x0000057c       0x48 output\UDP.o
 .debug_str     0x000005c4       0x28 output\ethernet_grbl_multi.o
 .debug_str     0x000005ec        0x0 output\grbl_multi.o
 .debug_str     0x000005ec        0x0 output\Reboot.o
 .debug_str     0x000005ec       0xac output\TCP.o
 .debug_str     0x00000698       0x42 output\BerkeleyAPI.o
 .debug_str     0x000006da       0x2d output\mal.o
 .debug_str     0x00000707        0x5 output\isr.o
 .debug_str     0x0000070c       0x18 output\exceptions.o
 .debug_str     0x00000724        0xe output\usb_device_cdc_acm.o
 .debug_str     0x00000732      0x18b output\usb_device_cdc.o
 .debug_str     0x000008bd      0x29f output\usb_device.o
 .debug_str     0x00000b5c       0xbf output\usb_app.o
 .debug_str     0x00000c1b        0x0 output\usb.o
 .debug_str     0x00000c1b        0xa output\system_tasks.o
 .debug_str     0x00000c25       0x2d output\sys_int_pic32.o
 .debug_str     0x00000c52      0x13e output\system_init.o
 .debug_str     0x00000d90      0x342 output\peripheral.o
 .debug_str     0x000010d2      0x24d output\drv_usbhs_device.o
 .debug_str     0x0000131f      0x12b output\drv_usbhs.o
 .debug_str     0x0000144a       0x15 output\bsp_sys_init.o
 .debug_str     0x0000145f        0x0 output\stackmeasure.o
 .debug_str     0x0000145f       0x18 output\noinitram.o
 .debug_str     0x00001477        0x7 output\usb_grbl_multi.o
 .debug_str     0x0000147e        0x0 c:/program files (x86)/microchip/xc32/v2.30/bin/bin/../../lib/gcc/pic32mx/4.8.3\libgcc.a(_fixunssfdi.o)
 .debug_str     0x0000147e        0x0 c:/program files (x86)/microchip/xc32/v2.30/bin/bin/../../lib/gcc/pic32mx/4.8.3\libgcc.a(_floatundisf.o)
 .debug_str     0x0000147e        0x0 c:/program files (x86)/microchip/xc32/v2.30/bin/bin/../../lib/gcc/pic32mx/4.8.3\libgcc.a(floatunsisf.o)
 .debug_str     0x0000147e        0x0 c:/program files (x86)/microchip/xc32/v2.30/bin/bin/../../lib/gcc/pic32mx/4.8.3\libgcc.a(floatunsidf.o)
 .debug_str     0x0000147e        0x0 c:/program files (x86)/microchip/xc32/v2.30/bin/bin/../../lib/gcc/pic32mx/4.8.3/../../../../pic32mx/lib\libpic32.a(default-bootstrap-exception-handler.o)
 .debug_str     0x0000147e        0x0 c:/program files (x86)/microchip/xc32/v2.30/bin/bin/../../lib/gcc/pic32mx/4.8.3/../../../../pic32mx/lib\libpic32.a(default-on-reset.o)
 .debug_str     0x0000147e        0x0 c:/program files (x86)/microchip/xc32/v2.30/bin/bin/../../lib/gcc/pic32mx/4.8.3/../../../../pic32mx/lib\libpic32.a(default-on-bootstrap.o)
 .debug_str     0x0000147e        0x0 c:/program files (x86)/microchip/xc32/v2.30/bin/bin/../../lib/gcc/pic32mx/4.8.3/../../../../pic32mx/lib\libpic32.a(defaultinterrupt.o)
 .debug_str     0x0000147e        0x0 c:/program files (x86)/microchip/xc32/v2.30/bin/bin/../../lib/gcc/pic32mx/4.8.3/../../../../pic32mx/lib\libpic32.a(default-cache-err-exception-handler.o)
 .debug_str     0x0000147e        0x0 c:/program files (x86)/microchip/xc32/v2.30/bin/bin/../../lib/gcc/pic32mx/4.8.3/../../../../pic32mx/lib\libpic32.a(default-simple-tlb-refill-exception-handler.o)
 .debug_str     0x0000147e        0x0 c:/program files (x86)/microchip/xc32/v2.30/bin/bin/../../lib/gcc/pic32mx/4.8.3/../../../../pic32mx/lib\libm.a(w_atan2f.o)
 .debug_str     0x0000147e        0x0 c:/program files (x86)/microchip/xc32/v2.30/bin/bin/../../lib/gcc/pic32mx/4.8.3/../../../../pic32mx/lib\libm.a(w_sqrtf.o)
 .debug_str     0x0000147e        0x0 c:/program files (x86)/microchip/xc32/v2.30/bin/bin/../../lib/gcc/pic32mx/4.8.3/../../../../pic32mx/lib\libm.a(support.o)
 .debug_str     0x0000147e        0x0 c:/program files (x86)/microchip/xc32/v2.30/bin/bin/../../lib/gcc/pic32mx/4.8.3/../../../../pic32mx/lib\libm.a(s_lib_ver.o)
 .debug_str     0x0000147e        0x0 c:/program files (x86)/microchip/xc32/v2.30/bin/bin/../../lib/gcc/pic32mx/4.8.3/../../../../pic32mx/lib\libpic32.a(errno.o)

.debug_loc      0x00000000    0x19365
 *.elf(.debug_loc)
 *(.debug_loc)
 .debug_loc     0x00000000      0x230 output\tmr.o
 .debug_loc     0x00000230      0x66c output\ringBuffer.o
 .debug_loc     0x0000089c      0x3e0 output\task.o
 .debug_loc     0x00000c7c      0x3c1 output\eeprom.o
 .debug_loc     0x0000103d      0x96e output\eep_manager.o
 .debug_loc     0x000019ab       0x42 output\app.o
 .debug_loc     0x000019ed       0x34 output\ad.o
 .debug_loc     0x00001a21      0xb8e output\gcode.o
 .debug_loc     0x000025af      0x304 output\grbl_limits.o
 .debug_loc     0x000028b3      0x5ad output\motion_control.o
 .debug_loc     0x00002e60      0x7c7 output\nuts_bolts.o
 .debug_loc     0x00003627      0x5f8 output\planner.o
 .debug_loc     0x00003c1f      0x6a5 output\print.o
 .debug_loc     0x000042c4      0x59f output\report.o
 .debug_loc     0x00004863      0x445 output\settings.o
 .debug_loc     0x00004ca8      0x2c6 output\spindle_control.o
 .debug_loc     0x00004f6e      0x5bd output\stepper.o
 .debug_loc     0x0000552b      0x867 output\system.o
 .debug_loc     0x00005d92       0x63 output\grbl.o
 .debug_loc     0x00005df5      0x18c output\pwm.o
 .debug_loc     0x00005f81       0x58 output\jog.o
 .debug_loc     0x00005fd9      0x9cd output\dee.o
 .debug_loc     0x000069a6      0x9cd output\dee_page.o
 .debug_loc     0x00007373      0x4c6 output\dee_page_helper.o
 .debug_loc     0x00007839      0x6ca output\eep_manager_crc.o
 .debug_loc     0x00007f03       0xd7 output\stepper_enable.o
 .debug_loc     0x00007fda       0x61 output\system_exec.o
 .debug_loc     0x0000803b       0x1f output\system_alarm.o
 .debug_loc     0x0000805a      0x156 output\grbl_eeprom.o
 .debug_loc     0x000081b0       0x72 output\grbl_toolchange.o
 .debug_loc     0x00008222      0x3e8 output\grbl_protocol.o
 .debug_loc     0x0000860a       0xff output\grbl_probe.o
 .debug_loc     0x00008709       0x2c output\ethernet.o
 .debug_loc     0x00008735      0xaac output\ENC28J60.o
 .debug_loc     0x000091e1       0x93 output\Delay.o
 .debug_loc     0x00009274      0x116 output\ARP.o
 .debug_loc     0x0000938a       0x3e output\Announce.o
 .debug_loc     0x000093c8      0xa54 output\Helpers.o
 .debug_loc     0x00009e1c       0x4d output\ICMP.o
 .debug_loc     0x00009e69      0x18d output\IP.o
 .debug_loc     0x00009ff6      0x60f output\UDP.o
 .debug_loc     0x0000a605      0x32b output\ethernet_grbl_multi.o
 .debug_loc     0x0000a930       0x4c output\grbl_multi.o
 .debug_loc     0x0000a97c       0x70 output\Reboot.o
 .debug_loc     0x0000a9ec     0x1db2 output\TCP.o
 .debug_loc     0x0000c79e      0xe52 output\BerkeleyAPI.o
 .debug_loc     0x0000d5f0      0x13e output\mal.o
 .debug_loc     0x0000d72e       0xcf output\exceptions.o
 .debug_loc     0x0000d7fd      0x1ff output\usb_device_cdc_acm.o
 .debug_loc     0x0000d9fc      0xda4 output\usb_device_cdc.o
 .debug_loc     0x0000e7a0     0x1a9c output\usb_device.o
 .debug_loc     0x0001023c      0x4b2 output\usb_app.o
 .debug_loc     0x000106ee       0x8d output\sys_int_pic32.o
 .debug_loc     0x0001077b       0x21 output\system_init.o
 .debug_loc     0x0001079c     0x3c90 output\peripheral.o
 .debug_loc     0x0001442c     0x404a output\drv_usbhs_device.o
 .debug_loc     0x00018476      0x69e output\drv_usbhs.o
 .debug_loc     0x00018b14       0x21 output\bsp_sys_init.o
 .debug_loc     0x00018b35       0x2b output\stackmeasure.o
 .debug_loc     0x00018b60      0x298 output\noinitram.o
 .debug_loc     0x00018df8       0xd7 output\usb_grbl_multi.o
 .debug_loc     0x00018ecf       0xe5 c:/program files (x86)/microchip/xc32/v2.30/bin/bin/../../lib/gcc/pic32mx/4.8.3\libgcc.a(_fixunssfdi.o)
 .debug_loc     0x00018fb4       0x40 c:/program files (x86)/microchip/xc32/v2.30/bin/bin/../../lib/gcc/pic32mx/4.8.3\libgcc.a(_floatundisf.o)
 .debug_loc     0x00018ff4       0x74 c:/program files (x86)/microchip/xc32/v2.30/bin/bin/../../lib/gcc/pic32mx/4.8.3\libgcc.a(floatunsisf.o)
 .debug_loc     0x00019068       0x80 c:/program files (x86)/microchip/xc32/v2.30/bin/bin/../../lib/gcc/pic32mx/4.8.3\libgcc.a(floatunsidf.o)
 .debug_loc     0x000190e8       0x2c c:/program files (x86)/microchip/xc32/v2.30/bin/bin/../../lib/gcc/pic32mx/4.8.3/../../../../pic32mx/lib\libpic32.a(default-bootstrap-exception-handler.o)
 .debug_loc     0x00019114       0x2c c:/program files (x86)/microchip/xc32/v2.30/bin/bin/../../lib/gcc/pic32mx/4.8.3/../../../../pic32mx/lib\libpic32.a(default-cache-err-exception-handler.o)
 .debug_loc     0x00019140       0x2c c:/program files (x86)/microchip/xc32/v2.30/bin/bin/../../lib/gcc/pic32mx/4.8.3/../../../../pic32mx/lib\libpic32.a(default-simple-tlb-refill-exception-handler.o)
 .debug_loc     0x0001916c       0x20 c:/program files (x86)/microchip/xc32/v2.30/bin/bin/../../lib/gcc/pic32mx/4.8.3/../../../../pic32mx/lib\libm.a(w_atan2f.o)
 .debug_loc     0x0001918c       0x2c c:/program files (x86)/microchip/xc32/v2.30/bin/bin/../../lib/gcc/pic32mx/4.8.3/../../../../pic32mx/lib\libm.a(w_sqrtf.o)
 .debug_loc     0x000191b8      0x1ad c:/program files (x86)/microchip/xc32/v2.30/bin/bin/../../lib/gcc/pic32mx/4.8.3/../../../../pic32mx/lib\libm.a(support.o)

.debug_macinfo
 *.elf(.debug_macinfo)
 *(.debug_macinfo)

.debug_weaknames
 *.elf(.debug_weaknames)
 *(.debug_weaknames)

.debug_funcnames
 *.elf(.debug_funcnames)
 *(.debug_funcnames)

.debug_typenames
 *.elf(.debug_typenames)
 *(.debug_typenames)

.debug_varnames
 *.elf(.debug_varnames)
 *(.debug_varnames)

.debug_pubtypes
 *.elf(.debug_pubtypes)
 *(.debug_pubtypes)

.debug_ranges   0x00000000     0x11e8
 *.elf(.debug_ranges)
 *(.debug_ranges)
 .debug_ranges  0x00000000       0x70 output\eep_manager.o
 .debug_ranges  0x00000070       0x30 output\gcode.o
 .debug_ranges  0x000000a0       0x60 output\grbl_limits.o
 .debug_ranges  0x00000100       0x48 output\motion_control.o
 .debug_ranges  0x00000148       0x18 output\nuts_bolts.o
 .debug_ranges  0x00000160       0x60 output\planner.o
 .debug_ranges  0x000001c0       0x48 output\report.o
 .debug_ranges  0x00000208       0x60 output\settings.o
 .debug_ranges  0x00000268       0xe0 output\stepper.o
 .debug_ranges  0x00000348       0xf0 output\system.o
 .debug_ranges  0x00000438      0x100 output\dee.o
 .debug_ranges  0x00000538       0x30 output\dee_page.o
 .debug_ranges  0x00000568       0x50 output\dee_page_helper.o
 .debug_ranges  0x000005b8       0x20 output\stepper_enable.o
 .debug_ranges  0x000005d8       0x30 output\grbl_eeprom.o
 .debug_ranges  0x00000608      0x4b0 output\grbl_protocol.o
 .debug_ranges  0x00000ab8       0x18 output\grbl_running.o
 .debug_ranges  0x00000ad0       0x18 output\grbl_bootloader.o
 .debug_ranges  0x00000ae8       0x30 output\grbl_probe.o
 .debug_ranges  0x00000b18       0x90 output\ENC28J60.o
 .debug_ranges  0x00000ba8       0x48 output\UDP.o
 .debug_ranges  0x00000bf0       0x18 output\ethernet_grbl_multi.o
 .debug_ranges  0x00000c08       0x48 output\Reboot.o
 .debug_ranges  0x00000c50      0x128 output\TCP.o
 .debug_ranges  0x00000d78       0x18 output\usb_app.o
 .debug_ranges  0x00000d90       0x18 output\sys_int_pic32.o
 .debug_ranges  0x00000da8       0x78 output\peripheral.o
 .debug_ranges  0x00000e20      0x2c0 output\drv_usbhs_device.o
 .debug_ranges  0x000010e0       0x20 output\drv_usbhs.o
 .debug_ranges  0x00001100       0x10 c:/program files (x86)/microchip/xc32/v2.30/bin/bin/../../lib/gcc/pic32mx/4.8.3/../../../../pic32mx/lib\libpic32.a(default-bootstrap-exception-handler.o)
 .debug_ranges  0x00001110       0x10 c:/program files (x86)/microchip/xc32/v2.30/bin/bin/../../lib/gcc/pic32mx/4.8.3/../../../../pic32mx/lib\libpic32.a(default-on-reset.o)
 .debug_ranges  0x00001120       0x10 c:/program files (x86)/microchip/xc32/v2.30/bin/bin/../../lib/gcc/pic32mx/4.8.3/../../../../pic32mx/lib\libpic32.a(default-on-bootstrap.o)
 .debug_ranges  0x00001130       0x10 c:/program files (x86)/microchip/xc32/v2.30/bin/bin/../../lib/gcc/pic32mx/4.8.3/../../../../pic32mx/lib\libpic32.a(defaultinterrupt.o)
 .debug_ranges  0x00001140       0x10 c:/program files (x86)/microchip/xc32/v2.30/bin/bin/../../lib/gcc/pic32mx/4.8.3/../../../../pic32mx/lib\libpic32.a(default-cache-err-exception-handler.o)
 .debug_ranges  0x00001150       0x10 c:/program files (x86)/microchip/xc32/v2.30/bin/bin/../../lib/gcc/pic32mx/4.8.3/../../../../pic32mx/lib\libpic32.a(default-simple-tlb-refill-exception-handler.o)
 .debug_ranges  0x00001160       0x10 c:/program files (x86)/microchip/xc32/v2.30/bin/bin/../../lib/gcc/pic32mx/4.8.3/../../../../pic32mx/lib\libm.a(w_atan2f.o)
 .debug_ranges  0x00001170       0x10 c:/program files (x86)/microchip/xc32/v2.30/bin/bin/../../lib/gcc/pic32mx/4.8.3/../../../../pic32mx/lib\libm.a(w_sqrtf.o)
 .debug_ranges  0x00001180       0x68 c:/program files (x86)/microchip/xc32/v2.30/bin/bin/../../lib/gcc/pic32mx/4.8.3/../../../../pic32mx/lib\libm.a(support.o)

.gnu.attributes
                0x00000000       0x10
 *(.gnu.attributes)
 .gnu.attributes
                0x00000000       0x10 output\tmr.o
 .gnu.attributes
                0x00000010       0x10 output\ringBuffer.o
 .gnu.attributes
                0x00000020       0x10 output\task.o
 .gnu.attributes
                0x00000030       0x10 output\eeprom.o
 .gnu.attributes
                0x00000040       0x10 output\eep_manager.o
 .gnu.attributes
                0x00000050       0x10 output\main.o
 .gnu.attributes
                0x00000060       0x10 output\c_eep_manager.o
 .gnu.attributes
                0x00000070       0x10 output\app.o
 .gnu.attributes
                0x00000080       0x10 output\ad.o
 .gnu.attributes
                0x00000090       0x10 output\gcode.o
 .gnu.attributes
                0x000000a0       0x10 output\grbl_limits.o
 .gnu.attributes
                0x000000b0       0x10 output\coolant_control.o
 .gnu.attributes
                0x000000c0       0x10 output\motion_control.o
 .gnu.attributes
                0x000000d0       0x10 output\nuts_bolts.o
 .gnu.attributes
                0x000000e0       0x10 output\planner.o
 .gnu.attributes
                0x000000f0       0x10 output\print.o
 .gnu.attributes
                0x00000100       0x10 output\report.o
 .gnu.attributes
                0x00000110       0x10 output\settings.o
 .gnu.attributes
                0x00000120       0x10 output\spindle_control.o
 .gnu.attributes
                0x00000130       0x10 output\stepper.o
 .gnu.attributes
                0x00000140       0x10 output\system.o
 .gnu.attributes
                0x00000150       0x10 output\grbl.o
 .gnu.attributes
                0x00000160       0x10 output\pwm.o
 .gnu.attributes
                0x00000170       0x10 output\jog.o
 .gnu.attributes
                0x00000180       0x10 output\dee.o
 .gnu.attributes
                0x00000190       0x10 output\dee_page.o
 .gnu.attributes
                0x000001a0       0x10 output\dee_page_helper.o
 .gnu.attributes
                0x000001b0       0x10 output\eep_manager_crc.o
 .gnu.attributes
                0x000001c0       0x10 output\system_control.o
 .gnu.attributes
                0x000001d0       0x10 output\stepper_enable.o
 .gnu.attributes
                0x000001e0       0x10 output\system_exec.o
 .gnu.attributes
                0x000001f0       0x10 output\system_alarm.o
 .gnu.attributes
                0x00000200       0x10 output\grbl_eeprom.o
 .gnu.attributes
                0x00000210       0x10 output\bootloader_interface.o
 .gnu.attributes
                0x00000220       0x10 output\grbl_toolchange.o
 .gnu.attributes
                0x00000230       0x10 output\grbl_protocol.o
 .gnu.attributes
                0x00000240       0x10 output\grbl_running.o
 .gnu.attributes
                0x00000250       0x10 output\grbl_bootloader.o
 .gnu.attributes
                0x00000260       0x10 output\grbl_probe.o
 .gnu.attributes
                0x00000270       0x10 output\ethernet.o
 .gnu.attributes
                0x00000280       0x10 output\ENC28J60.o
 .gnu.attributes
                0x00000290       0x10 output\DHCP.o
 .gnu.attributes
                0x000002a0       0x10 output\Delay.o
 .gnu.attributes
                0x000002b0       0x10 output\ARP.o
 .gnu.attributes
                0x000002c0       0x10 output\Announce.o
 .gnu.attributes
                0x000002d0       0x10 output\Helpers.o
 .gnu.attributes
                0x000002e0       0x10 output\ICMP.o
 .gnu.attributes
                0x000002f0       0x10 output\IP.o
 .gnu.attributes
                0x00000300       0x10 output\StackTsk.o
 .gnu.attributes
                0x00000310       0x10 output\UDP.o
 .gnu.attributes
                0x00000320       0x10 output\ethernet_grbl_multi.o
 .gnu.attributes
                0x00000330       0x10 output\grbl_multi.o
 .gnu.attributes
                0x00000340       0x10 output\Reboot.o
 .gnu.attributes
                0x00000350       0x10 output\TCP.o
 .gnu.attributes
                0x00000360       0x10 output\BerkeleyAPI.o
 .gnu.attributes
                0x00000370       0x10 output\mal.o
 .gnu.attributes
                0x00000380       0x10 output\isr.o
 .gnu.attributes
                0x00000390       0x10 output\exceptions.o
 .gnu.attributes
                0x000003a0       0x10 output\usb_device_cdc_acm.o
 .gnu.attributes
                0x000003b0       0x10 output\usb_device_cdc.o
 .gnu.attributes
                0x000003c0       0x10 output\usb_device.o
 .gnu.attributes
                0x000003d0       0x10 output\usb_app.o
 .gnu.attributes
                0x000003e0       0x10 output\usb.o
 .gnu.attributes
                0x000003f0       0x10 output\system_tasks.o
 .gnu.attributes
                0x00000400       0x10 output\sys_int_pic32.o
 .gnu.attributes
                0x00000410       0x10 output\system_init.o
 .gnu.attributes
                0x00000420       0x10 output\peripheral.o
 .gnu.attributes
                0x00000430       0x10 output\drv_usbhs_device.o
 .gnu.attributes
                0x00000440       0x10 output\drv_usbhs.o
 .gnu.attributes
                0x00000450       0x10 output\bsp_sys_init.o
 .gnu.attributes
                0x00000460       0x10 output\stackmeasure.o
 .gnu.attributes
                0x00000470       0x10 output\noinitram.o
 .gnu.attributes
                0x00000480       0x10 output\usb_grbl_multi.o
 .gnu.attributes
                0x00000490       0x10 c:/program files (x86)/microchip/xc32/v2.30/bin/bin/../../lib/gcc/pic32mx/4.8.3\libgcc.a(_fixunssfdi.o)
 .gnu.attributes
                0x000004a0       0x10 c:/program files (x86)/microchip/xc32/v2.30/bin/bin/../../lib/gcc/pic32mx/4.8.3\libgcc.a(_floatundisf.o)
 .gnu.attributes
                0x000004b0       0x10 c:/program files (x86)/microchip/xc32/v2.30/bin/bin/../../lib/gcc/pic32mx/4.8.3\libgcc.a(floatunsisf.o)
 .gnu.attributes
                0x000004c0       0x10 c:/program files (x86)/microchip/xc32/v2.30/bin/bin/../../lib/gcc/pic32mx/4.8.3\libgcc.a(floatunsidf.o)
 .gnu.attributes
                0x000004d0       0x10 c:/program files (x86)/microchip/xc32/v2.30/bin/bin/../../lib/gcc/pic32mx/4.8.3/../../../../pic32mx/lib\libpic32.a(default-bootstrap-exception-handler.o)
 .gnu.attributes
                0x000004e0       0x10 c:/program files (x86)/microchip/xc32/v2.30/bin/bin/../../lib/gcc/pic32mx/4.8.3/../../../../pic32mx/lib\libpic32.a(default-on-reset.o)
 .gnu.attributes
                0x000004f0       0x10 c:/program files (x86)/microchip/xc32/v2.30/bin/bin/../../lib/gcc/pic32mx/4.8.3/../../../../pic32mx/lib\libpic32.a(default-on-bootstrap.o)
 .gnu.attributes
                0x00000500       0x10 c:/program files (x86)/microchip/xc32/v2.30/bin/bin/../../lib/gcc/pic32mx/4.8.3/../../../../pic32mx/lib\libpic32.a(defaultinterrupt.o)
 .gnu.attributes
                0x00000510       0x10 c:/program files (x86)/microchip/xc32/v2.30/bin/bin/../../lib/gcc/pic32mx/4.8.3/../../../../pic32mx/lib\libpic32.a(default-cache-err-exception-handler.o)
 .gnu.attributes
                0x00000520       0x10 c:/program files (x86)/microchip/xc32/v2.30/bin/bin/../../lib/gcc/pic32mx/4.8.3/../../../../pic32mx/lib\libpic32.a(default-simple-tlb-refill-exception-handler.o)
 .gnu.attributes
                0x00000530       0x10 c:/program files (x86)/microchip/xc32/v2.30/bin/bin/../../lib/gcc/pic32mx/4.8.3/../../../../pic32mx/lib\liblega-c.a(strncmp.o)
 .gnu.attributes
                0x00000540       0x10 c:/program files (x86)/microchip/xc32/v2.30/bin/bin/../../lib/gcc/pic32mx/4.8.3/../../../../pic32mx/lib\liblega-c.a(strncpy.o)
 .gnu.attributes
                0x00000550       0x10 c:/program files (x86)/microchip/xc32/v2.30/bin/bin/../../lib/gcc/pic32mx/4.8.3/../../../../pic32mx/lib\libm.a(w_atan2f.o)
 .gnu.attributes
                0x00000560       0x10 c:/program files (x86)/microchip/xc32/v2.30/bin/bin/../../lib/gcc/pic32mx/4.8.3/../../../../pic32mx/lib\libm.a(w_sqrtf.o)
 .gnu.attributes
                0x00000570       0x10 c:/program files (x86)/microchip/xc32/v2.30/bin/bin/../../lib/gcc/pic32mx/4.8.3/../../../../pic32mx/lib\libm.a(support.o)
 .gnu.attributes
                0x00000580       0x10 c:/program files (x86)/microchip/xc32/v2.30/bin/bin/../../lib/gcc/pic32mx/4.8.3/../../../../pic32mx/lib\libm.a(s_lib_ver.o)
 .gnu.attributes
                0x00000590       0x10 c:/program files (x86)/microchip/xc32/v2.30/bin/bin/../../lib/gcc/pic32mx/4.8.3/../../../../pic32mx/lib\libpic32.a(errno.o)
                0x9d000000                PROVIDE (__pic32_init_cache_program_base_addr, 0x9d000000)
                0x80000000                PROVIDE (__pic32_init_cache_data_base_addr, 0x80000000)
                0xd0000000                PROVIDE (__pic32_init_sqi_kseg2_virtual_base_addr, 0xd0000000)
                0x30000000                PROVIDE (__pic32_init_sqi_kseg2_physical_base_addr, 0x30000000)
                0x0000001f                PROVIDE (__pic32_init_sqi_kseg2_entrylo0_bitset, 0x1f)
                0xd0000000                __pic32_tlb_0_entryhi = __pic32_init_sqi_kseg2_virtual_base_addr
                0x00c0001f                __pic32_tlb_0_entrylo0 = ((__pic32_init_sqi_kseg2_physical_base_addr >> 0x6) | __pic32_init_sqi_kseg2_entrylo0_bitset)
                0x00c4001f                __pic32_tlb_0_entrylo1 = (__pic32_tlb_0_entrylo0 | ((__pic32_init_sqi_kseg2_physical_base_addr + 0x1000000) >> 0x6))
                0xd2000000                __pic32_tlb_1_entryhi = (__pic32_init_sqi_kseg2_virtual_base_addr + 0x2000000)
                0x00c8001f                __pic32_tlb_1_entrylo0 = (((__pic32_init_sqi_kseg2_physical_base_addr + 0x2000000) >> 0x6) | __pic32_init_sqi_kseg2_entrylo0_bitset)
                0x00cc001f                __pic32_tlb_1_entrylo1 = (__pic32_tlb_1_entrylo0 | 0x40000)
                0xf0000000                PROVIDE (__pic32_init_sqi_kseg3_virtual_base_addr, 0xf0000000)
                0x30000000                PROVIDE (__pic32_init_sqi_kseg3_physical_base_addr, 0x30000000)
                0x00000017                PROVIDE (__pic32_init_sqi_kseg3_entrylo0_bitset, 0x17)
                0xf0000000                __pic32_tlb_2_entryhi = __pic32_init_sqi_kseg3_virtual_base_addr
                0x00c00017                __pic32_tlb_2_entrylo0 = ((__pic32_init_sqi_kseg3_physical_base_addr >> 0x6) | __pic32_init_sqi_kseg3_entrylo0_bitset)
                0x00c40017                __pic32_tlb_2_entrylo1 = (__pic32_tlb_2_entrylo0 | ((__pic32_init_sqi_kseg3_physical_base_addr + 0x1000000) >> 0x6))
                0xf2000000                __pic32_tlb_3_entryhi = (__pic32_init_sqi_kseg3_virtual_base_addr + 0x2000000)
                0x00c80017                __pic32_tlb_3_entrylo0 = (((__pic32_init_sqi_kseg3_physical_base_addr + 0x2000000) >> 0x6) | __pic32_init_sqi_kseg3_entrylo0_bitset)
                0x00cc0017                __pic32_tlb_3_entrylo1 = (__pic32_tlb_3_entrylo0 | 0x40000)
                0xc0000000                PROVIDE (__pic32_init_ebi_kseg2_virtual_base_addr, 0xc0000000)
                0x20000000                PROVIDE (__pic32_init_ebi_kseg2_physical_base_addr, 0x20000000)
                0x0000001f                PROVIDE (__pic32_init_ebi_kseg2_entrylo0_bitset, 0x1f)
                0xc0000000                __pic32_tlb_4_entryhi = __pic32_init_ebi_kseg2_virtual_base_addr
                0x0080001f                __pic32_tlb_4_entrylo0 = ((__pic32_init_ebi_kseg2_physical_base_addr >> 0x6) | __pic32_init_ebi_kseg2_entrylo0_bitset)
                0x0084001f                __pic32_tlb_4_entrylo1 = (__pic32_tlb_4_entrylo0 | ((__pic32_init_ebi_kseg2_physical_base_addr + 0x1000000) >> 0x6))
                0xc2000000                __pic32_tlb_5_entryhi = (__pic32_init_ebi_kseg2_virtual_base_addr + 0x2000000)
                0x0088001f                __pic32_tlb_5_entrylo0 = (((__pic32_init_ebi_kseg2_physical_base_addr + 0x2000000) >> 0x6) | __pic32_init_ebi_kseg2_entrylo0_bitset)
                0x008c001f                __pic32_tlb_5_entrylo1 = (__pic32_tlb_5_entrylo0 | 0x40000)
                0xe0000000                PROVIDE (__pic32_init_ebi_kseg3_virtual_base_addr, 0xe0000000)
                0x20000000                PROVIDE (__pic32_init_ebi_kseg3_physical_base_addr, 0x20000000)
                0x00000017                PROVIDE (__pic32_init_ebi_kseg3_entrylo0_bitset, 0x17)
                0xe0000000                __pic32_tlb_6_entryhi = __pic32_init_ebi_kseg3_virtual_base_addr
                0x00800017                __pic32_tlb_6_entrylo0 = ((__pic32_init_ebi_kseg3_physical_base_addr >> 0x6) | __pic32_init_ebi_kseg3_entrylo0_bitset)
                0x00840017                __pic32_tlb_6_entrylo1 = (__pic32_tlb_6_entrylo0 | ((__pic32_init_ebi_kseg3_physical_base_addr + 0x1000000) >> 0x6))
                0xe2000000                __pic32_tlb_7_entryhi = (__pic32_init_ebi_kseg3_virtual_base_addr + 0x2000000)
                0x00880017                __pic32_tlb_7_entrylo0 = (((__pic32_init_ebi_kseg3_physical_base_addr + 0x2000000) >> 0x6) | __pic32_init_ebi_kseg3_entrylo0_bitset)
                0x008c0017                __pic32_tlb_7_entrylo1 = (__pic32_tlb_7_entrylo0 | 0x40000)
                0x00000001                __MPLAB_BUILD = 0x1
                0x00001000                _min_heap_size = 0x1000
LOAD C:\Users\kyrk\AppData\Local\Temp\ccW9mKTz.o
LOAD C:\Users\kyrk\AppData\Local\Temp\ccnEG0Qt.o
LOAD C:\Users\kyrk\AppData\Local\Temp\ccYFepqr.o
LOAD c:/program files (x86)/microchip/xc32/v2.30/bin/bin/../../lib/gcc/pic32mx/4.8.3/../../../../pic32mx/lib/./proc/32MZ2048ECG144\default_isr_vectors.o
LOAD c:/program files (x86)/microchip/xc32/v2.30/bin/bin/../../lib/gcc/pic32mx/4.8.3/../../../../pic32mx/lib\pic32_software_reset.o
LOAD c:/program files (x86)/microchip/xc32/v2.30/bin/bin/../../lib/gcc/pic32mx/4.8.3\libgcc.a
START GROUP
LOAD c:/program files (x86)/microchip/xc32/v2.30/bin/bin/../../lib/gcc/pic32mx/4.8.3/../../../../pic32mx/lib\libpic32.a
LOAD c:/program files (x86)/microchip/xc32/v2.30/bin/bin/../../lib/gcc/pic32mx/4.8.3/../../../../pic32mx/lib\libdebug.a
LOAD c:/program files (x86)/microchip/xc32/v2.30/bin/bin/../../lib/gcc/pic32mx/4.8.3/../../../../pic32mx/lib\libpic32.a
LOAD c:/program files (x86)/microchip/xc32/v2.30/bin/bin/../../lib/gcc/pic32mx/4.8.3/../../../../pic32mx/lib\liblega-c.a
LOAD c:/program files (x86)/microchip/xc32/v2.30/bin/bin/../../lib/gcc/pic32mx/4.8.3/../../../../pic32mx/lib\libm.a
LOAD c:/program files (x86)/microchip/xc32/v2.30/bin/bin/../../lib/gcc/pic32mx/4.8.3/../../../../pic32mx/lib\libe.a
LOAD c:/program files (x86)/microchip/xc32/v2.30/bin/bin/../../lib/gcc/pic32mx/4.8.3/../../../../pic32mx/lib\libdspr2.a
LOAD c:/program files (x86)/microchip/xc32/v2.30/bin/bin/../../lib/gcc/pic32mx/4.8.3/../../../../pic32mx/lib\libdsp.a
LOAD c:/program files (x86)/microchip/xc32/v2.30/bin/bin/../../lib/gcc/pic32mx/4.8.3\libgcc.a
LOAD c:/program files (x86)/microchip/xc32/v2.30/bin/bin/../../lib/gcc/pic32mx/4.8.3/../../../../pic32mx/lib\libpic32.a
END GROUP
LOAD c:/program files (x86)/microchip/xc32/v2.30/bin/bin/../../lib/gcc/pic32mx/4.8.3\libgcc.a
OUTPUT(.\output\cnc_1_0_0.elf elf32-tradlittlemips)
LOAD stack
LOAD data_init

.reginfo        0x00000000       0x18
 .reginfo       0x00000000       0x18 c:/program files (x86)/microchip/xc32/v2.30/bin/bin/../../lib/gcc/pic32mx/4.8.3/../../../../pic32mx/lib\debug-exception-return.o

.stack          0x800049e8      0x400
 .stack         0x800049e8      0x400 stack

.exceptionLog.exceptionLog
                0x9d000200       0xc0
 .exceptionLog.exceptionLog
                0x9d000200       0xc0 output\exceptions.o
                0x9d000200                exceptionLog

.__vector_offset_BF81062C_data
                0xbf81062c       0xc0
 .__vector_offset_BF81062C_data
                0xbf81062c       0xc0 c:/program files (x86)/microchip/xc32/v2.30/bin/bin/../../lib/gcc/pic32mx/4.8.3/../../../../pic32mx/lib/./proc/32MZ2048ECG144\vector_offset_init.o

.__vector_offset_BF810540_data
                0xbf810540       0xb4
 .__vector_offset_BF810540_data
                0xbf810540       0xb4 c:/program files (x86)/microchip/xc32/v2.30/bin/bin/../../lib/gcc/pic32mx/4.8.3/../../../../pic32mx/lib/./proc/32MZ2048ECG144\vector_offset_init.o

.__vector_offset_BF8106F4_data
                0xbf8106f4       0xa8
 .__vector_offset_BF8106F4_data
                0xbf8106f4       0xa8 c:/program files (x86)/microchip/xc32/v2.30/bin/bin/../../lib/gcc/pic32mx/4.8.3/../../../../pic32mx/lib/./proc/32MZ2048ECG144\vector_offset_init.o

.__vector_offset_BF8107A4_data
                0xbf8107a4       0x98
 .__vector_offset_BF8107A4_data
                0xbf8107a4       0x98 c:/program files (x86)/microchip/xc32/v2.30/bin/bin/../../lib/gcc/pic32mx/4.8.3/../../../../pic32mx/lib/./proc/32MZ2048ECG144\vector_offset_init.o

.noinitram_2.noinitram_2
                0x8007f3a0       0x80
 .noinitram_2.noinitram_2
                0x8007f3a0       0x80 output\noinitram.o
                0x8007f3a0                noinitram_2

.noinitram_1.noinitram_1
                0x8007f310       0x80
 .noinitram_1.noinitram_1
                0x8007f310       0x80 output\noinitram.o
                0x8007f310                noinitram_1

.__vector_offset_BF8105F8_data
                0xbf8105f8       0x30
 .__vector_offset_BF8105F8_data
                0xbf8105f8       0x30 c:/program files (x86)/microchip/xc32/v2.30/bin/bin/../../lib/gcc/pic32mx/4.8.3/../../../../pic32mx/lib/./proc/32MZ2048ECG144\vector_offset_init.o

.grbl_eeprom_sys_position_3.grbl_eeprom_sys_position_3
                0x8007f420       0x10
 .grbl_eeprom_sys_position_3.grbl_eeprom_sys_position_3
                0x8007f420       0x10 output\grbl_eeprom.o
                0x8007f420                grbl_eeprom_sys_position_3

.grbl_eeprom_sys_position_2.grbl_eeprom_sys_position_2
                0x8007f410       0x10
 .grbl_eeprom_sys_position_2.grbl_eeprom_sys_position_2
                0x8007f410       0x10 output\grbl_eeprom.o
                0x8007f410                grbl_eeprom_sys_position_2

.grbl_eeprom_sys_position_1.grbl_eeprom_sys_position_1
                0x8007f400       0x10
 .grbl_eeprom_sys_position_1.grbl_eeprom_sys_position_1
                0x8007f400       0x10 output\grbl_eeprom.o
                0x8007f400                grbl_eeprom_sys_position_1

.noinitram_crc_2.noinitram_crc_2
                0x8007f390        0x8
 .noinitram_crc_2.noinitram_crc_2
                0x8007f390        0x8 output\noinitram.o
                0x8007f390                noinitram_crc_2

.noinitram_crc_1.noinitram_crc_1
                0x8007f300        0x8
 .noinitram_crc_1.noinitram_crc_1
                0x8007f300        0x8 output\noinitram.o
                0x8007f300                noinitram_crc_1

.bootloader_was_reset_called.bootloader_was_reset_called
                0x8007f020        0x4
 .bootloader_was_reset_called.bootloader_was_reset_called
                0x8007f020        0x4 output\bootloader_interface.o
                0x8007f020                bootloader_was_reset_called

.bootloader_request_B.bootloader_request_B
                0x8007f010        0x4
 .bootloader_request_B.bootloader_request_B
                0x8007f010        0x4 output\bootloader_interface.o
                0x8007f010                bootloader_request_B

.bootloader_request_A.bootloader_request_A
                0x8007f000        0x4
 .bootloader_request_A.bootloader_request_A
                0x8007f000        0x4 output\bootloader_interface.o
                0x8007f000                bootloader_request_A

.COHERENTBSS$   0xa0002ff0      0x400
 .COHERENTBSS$  0xa0002ff0      0x200 output\usb_app.o
                0xa0002ff0                readBuffer
 .bss.writeBuffer.writeBuffer
                0xa00031f0      0x200 output\usb_app.o
                0xa00031f0                writeBuffer

.COHERENTPERSIST$
                0xa00033f0        0x4
 .COHERENTPERSIST$
                0xa00033f0        0x2 output\UDP.o
 .pbss          0xa00033f2        0x2 output\TCP.o

.data           0x80003400      0x12c
 .data          0x80003400      0x12c output\c_eep_manager.o
                0x80003400                eepManager_ItemTable

.bss            0x8000352c      0x128
 .bss           0x8000352c      0x128 output\TCP.o

.data           0x80003654      0x100
 .data          0x80003654      0x100 c:/program files (x86)/microchip/xc32/v2.30/bin/bin/../../lib/gcc/pic32mx/4.8.3/../../../../pic32mx/lib\libm.a(fpexatan.o)

.bss            0x80003754      0x17c
 .bss           0x80003754       0xf0 output\usb_device.o
 .bss           0x80003844       0x8c output\BerkeleyAPI.o

.data           0x800038d0       0x74
 .data          0x800038d0       0x50 output\drv_usbhs_device.o
                0x800038d0                gDrvUSBHSDeviceInterface
 .data          0x80003920       0x24 c:/program files (x86)/microchip/xc32/v2.30/bin/bin/../../lib/gcc/pic32mx/4.8.3/../../../../pic32mx/lib\libm.a(sincof32.o)
                0x80003920                _sincof
                0x80003930                _coscof

.bss            0x80003944       0x40
 .bss           0x80003944       0x20 output\tmr.o
 .bss           0x80003964       0x20 output\report.o
                0x80003964                buffer_missed_char_logger

.data           0x80003984       0x18
 .data          0x80003984       0x18 output\main.o
                0x80003984                VERSION_ID
                0x80003990                softwareIdentification

.bss            0x8000399c       0x24
 .bss           0x8000399c       0x18 output\ARP.o
 .bss           0x800039b4        0xc output\dee.o
                0x800039b4                GetIndexOfEmptyDataElement_LastFoundHere

.data.math_errhandling_flag
                0x800039c0        0x4
 .data.math_errhandling_flag
                0x800039c0        0x4 c:/program files (x86)/microchip/xc32/v2.30/bin/bin/../../lib/gcc/pic32mx/4.8.3/../../../../pic32mx/lib\libm.a(s_lib_ver.o)
                0x800039c0                math_errhandling

.bss.errno      0x800039c4        0x4
 .bss.errno     0x800039c4        0x4 c:/program files (x86)/microchip/xc32/v2.30/bin/bin/../../lib/gcc/pic32mx/4.8.3/../../../../pic32mx/lib\libpic32.a(errno.o)
                0x800039c4                errno

.bss%z1         0x00000000        0x0
 .bss           0x00000000        0x0 c:/program files (x86)/microchip/xc32/v2.30/bin/bin/../../lib/gcc/pic32mx/4.8.3/../../../../pic32mx/lib\libpic32.a(errno.o)

.data%z2        0x00000000        0x0
 .data          0x00000000        0x0 c:/program files (x86)/microchip/xc32/v2.30/bin/bin/../../lib/gcc/pic32mx/4.8.3/../../../../pic32mx/lib\libpic32.a(errno.o)

.bss%z3         0x00000000        0x0
 .bss           0x00000000        0x0 c:/program files (x86)/microchip/xc32/v2.30/bin/bin/../../lib/gcc/pic32mx/4.8.3/../../../../pic32mx/lib\libm.a(s_lib_ver.o)

.data%z4        0x00000000        0x0
 .data          0x00000000        0x0 c:/program files (x86)/microchip/xc32/v2.30/bin/bin/../../lib/gcc/pic32mx/4.8.3/../../../../pic32mx/lib\libm.a(s_lib_ver.o)

.bss%z5         0x00000000        0x0
 .bss           0x00000000        0x0 c:/program files (x86)/microchip/xc32/v2.30/bin/bin/../../lib/gcc/pic32mx/4.8.3/../../../../pic32mx/lib\libm.a(fpsqrt32.o)

.data%z6        0x00000000        0x0
 .data          0x00000000        0x0 c:/program files (x86)/microchip/xc32/v2.30/bin/bin/../../lib/gcc/pic32mx/4.8.3/../../../../pic32mx/lib\libm.a(fpsqrt32.o)

.bss%z7         0x00000000        0x0
 .bss           0x00000000        0x0 c:/program files (x86)/microchip/xc32/v2.30/bin/bin/../../lib/gcc/pic32mx/4.8.3/../../../../pic32mx/lib\libm.a(fpexsqrt32.o)

.data%z8        0x00000000        0x0
 .data          0x00000000        0x0 c:/program files (x86)/microchip/xc32/v2.30/bin/bin/../../lib/gcc/pic32mx/4.8.3/../../../../pic32mx/lib\libm.a(fpexsqrt32.o)

.bss%z9         0x00000000        0x0
 .bss           0x00000000        0x0 c:/program files (x86)/microchip/xc32/v2.30/bin/bin/../../lib/gcc/pic32mx/4.8.3/../../../../pic32mx/lib\libm.a(fpexatan.o)

.bss%z10        0x00000000        0x0
 .bss           0x00000000        0x0 c:/program files (x86)/microchip/xc32/v2.30/bin/bin/../../lib/gcc/pic32mx/4.8.3/../../../../pic32mx/lib\libm.a(fpatan2.o)

.data%z11       0x00000000        0x0
 .data          0x00000000        0x0 c:/program files (x86)/microchip/xc32/v2.30/bin/bin/../../lib/gcc/pic32mx/4.8.3/../../../../pic32mx/lib\libm.a(fpatan2.o)

.bss%z12        0x00000000        0x0
 .bss           0x00000000        0x0 c:/program files (x86)/microchip/xc32/v2.30/bin/bin/../../lib/gcc/pic32mx/4.8.3/../../../../pic32mx/lib\libm.a(dpcmp.o)

.data%z13       0x00000000        0x0
 .data          0x00000000        0x0 c:/program files (x86)/microchip/xc32/v2.30/bin/bin/../../lib/gcc/pic32mx/4.8.3/../../../../pic32mx/lib\libm.a(dpcmp.o)

.bss%z14        0x00000000        0x0
 .bss           0x00000000        0x0 c:/program files (x86)/microchip/xc32/v2.30/bin/bin/../../lib/gcc/pic32mx/4.8.3/../../../../pic32mx/lib\libm.a(dp32div.o)

.data%z15       0x00000000        0x0
 .data          0x00000000        0x0 c:/program files (x86)/microchip/xc32/v2.30/bin/bin/../../lib/gcc/pic32mx/4.8.3/../../../../pic32mx/lib\libm.a(dp32div.o)

.bss%z16        0x00000000        0x0
 .bss           0x00000000        0x0 c:/program files (x86)/microchip/xc32/v2.30/bin/bin/../../lib/gcc/pic32mx/4.8.3/../../../../pic32mx/lib\libm.a(dpldexp.o)

.data%z17       0x00000000        0x0
 .data          0x00000000        0x0 c:/program files (x86)/microchip/xc32/v2.30/bin/bin/../../lib/gcc/pic32mx/4.8.3/../../../../pic32mx/lib\libm.a(dpldexp.o)

.bss%z18        0x00000000        0x0
 .bss           0x00000000        0x0 c:/program files (x86)/microchip/xc32/v2.30/bin/bin/../../lib/gcc/pic32mx/4.8.3/../../../../pic32mx/lib\libm.a(support.o)

.data%z19       0x00000000        0x0
 .data          0x00000000        0x0 c:/program files (x86)/microchip/xc32/v2.30/bin/bin/../../lib/gcc/pic32mx/4.8.3/../../../../pic32mx/lib\libm.a(support.o)

.bss%z20        0x00000000        0x0
 .bss           0x00000000        0x0 c:/program files (x86)/microchip/xc32/v2.30/bin/bin/../../lib/gcc/pic32mx/4.8.3/../../../../pic32mx/lib\libm.a(w_sqrtf.o)

.data%z21       0x00000000        0x0
 .data          0x00000000        0x0 c:/program files (x86)/microchip/xc32/v2.30/bin/bin/../../lib/gcc/pic32mx/4.8.3/../../../../pic32mx/lib\libm.a(w_sqrtf.o)

.bss%z22        0x00000000        0x0
 .bss           0x00000000        0x0 c:/program files (x86)/microchip/xc32/v2.30/bin/bin/../../lib/gcc/pic32mx/4.8.3/../../../../pic32mx/lib\libm.a(w_atan2f.o)

.data%z23       0x00000000        0x0
 .data          0x00000000        0x0 c:/program files (x86)/microchip/xc32/v2.30/bin/bin/../../lib/gcc/pic32mx/4.8.3/../../../../pic32mx/lib\libm.a(w_atan2f.o)

.bss%z24        0x00000000        0x0
 .bss           0x00000000        0x0 c:/program files (x86)/microchip/xc32/v2.30/bin/bin/../../lib/gcc/pic32mx/4.8.3/../../../../pic32mx/lib\libm.a(sitofp.o)

.data%z25       0x00000000        0x0
 .data          0x00000000        0x0 c:/program files (x86)/microchip/xc32/v2.30/bin/bin/../../lib/gcc/pic32mx/4.8.3/../../../../pic32mx/lib\libm.a(sitofp.o)

.bss%z26        0x00000000        0x0
 .bss           0x00000000        0x0 c:/program files (x86)/microchip/xc32/v2.30/bin/bin/../../lib/gcc/pic32mx/4.8.3/../../../../pic32mx/lib\libm.a(sincof32.o)

.bss%z27        0x00000000        0x0
 .bss           0x00000000        0x0 c:/program files (x86)/microchip/xc32/v2.30/bin/bin/../../lib/gcc/pic32mx/4.8.3/../../../../pic32mx/lib\libm.a(litodp.o)

.data%z28       0x00000000        0x0
 .data          0x00000000        0x0 c:/program files (x86)/microchip/xc32/v2.30/bin/bin/../../lib/gcc/pic32mx/4.8.3/../../../../pic32mx/lib\libm.a(litodp.o)

.bss%z29        0x00000000        0x0
 .bss           0x00000000        0x0 c:/program files (x86)/microchip/xc32/v2.30/bin/bin/../../lib/gcc/pic32mx/4.8.3/../../../../pic32mx/lib\libm.a(fptoul.o)

.data%z30       0x00000000        0x0
 .data          0x00000000        0x0 c:/program files (x86)/microchip/xc32/v2.30/bin/bin/../../lib/gcc/pic32mx/4.8.3/../../../../pic32mx/lib\libm.a(fptoul.o)

.bss%z31        0x00000000        0x0
 .bss           0x00000000        0x0 c:/program files (x86)/microchip/xc32/v2.30/bin/bin/../../lib/gcc/pic32mx/4.8.3/../../../../pic32mx/lib\libm.a(fptoli.o)

.data%z32       0x00000000        0x0
 .data          0x00000000        0x0 c:/program files (x86)/microchip/xc32/v2.30/bin/bin/../../lib/gcc/pic32mx/4.8.3/../../../../pic32mx/lib\libm.a(fptoli.o)

.bss%z33        0x00000000        0x0
 .bss           0x00000000        0x0 c:/program files (x86)/microchip/xc32/v2.30/bin/bin/../../lib/gcc/pic32mx/4.8.3/../../../../pic32mx/lib\libm.a(fptodp.o)

.data%z34       0x00000000        0x0
 .data          0x00000000        0x0 c:/program files (x86)/microchip/xc32/v2.30/bin/bin/../../lib/gcc/pic32mx/4.8.3/../../../../pic32mx/lib\libm.a(fptodp.o)

.bss%z35        0x00000000        0x0
 .bss           0x00000000        0x0 c:/program files (x86)/microchip/xc32/v2.30/bin/bin/../../lib/gcc/pic32mx/4.8.3/../../../../pic32mx/lib\libm.a(fpsin32.o)

.data%z36       0x00000000        0x0
 .data          0x00000000        0x0 c:/program files (x86)/microchip/xc32/v2.30/bin/bin/../../lib/gcc/pic32mx/4.8.3/../../../../pic32mx/lib\libm.a(fpsin32.o)

.bss%z37        0x00000000        0x0
 .bss           0x00000000        0x0 c:/program files (x86)/microchip/xc32/v2.30/bin/bin/../../lib/gcc/pic32mx/4.8.3/../../../../pic32mx/lib\libm.a(fpreduct32.o)

.data%z38       0x00000000        0x0
 .data          0x00000000        0x0 c:/program files (x86)/microchip/xc32/v2.30/bin/bin/../../lib/gcc/pic32mx/4.8.3/../../../../pic32mx/lib\libm.a(fpreduct32.o)

.bss%z39        0x00000000        0x0
 .bss           0x00000000        0x0 c:/program files (x86)/microchip/xc32/v2.30/bin/bin/../../lib/gcc/pic32mx/4.8.3/../../../../pic32mx/lib\libm.a(fpfloo32.o)

.data%z40       0x00000000        0x0
 .data          0x00000000        0x0 c:/program files (x86)/microchip/xc32/v2.30/bin/bin/../../lib/gcc/pic32mx/4.8.3/../../../../pic32mx/lib\libm.a(fpfloo32.o)

.bss%z41        0x00000000        0x0
 .bss           0x00000000        0x0 c:/program files (x86)/microchip/xc32/v2.30/bin/bin/../../lib/gcc/pic32mx/4.8.3/../../../../pic32mx/lib\libm.a(fpcos32.o)

.data%z42       0x00000000        0x0
 .data          0x00000000        0x0 c:/program files (x86)/microchip/xc32/v2.30/bin/bin/../../lib/gcc/pic32mx/4.8.3/../../../../pic32mx/lib\libm.a(fpcos32.o)

.bss%z43        0x00000000        0x0
 .bss           0x00000000        0x0 c:/program files (x86)/microchip/xc32/v2.30/bin/bin/../../lib/gcc/pic32mx/4.8.3/../../../../pic32mx/lib\libm.a(fpcmp.o)

.data%z44       0x00000000        0x0
 .data          0x00000000        0x0 c:/program files (x86)/microchip/xc32/v2.30/bin/bin/../../lib/gcc/pic32mx/4.8.3/../../../../pic32mx/lib\libm.a(fpcmp.o)

.bss%z45        0x00000000        0x0
 .bss           0x00000000        0x0 c:/program files (x86)/microchip/xc32/v2.30/bin/bin/../../lib/gcc/pic32mx/4.8.3/../../../../pic32mx/lib\libm.a(fpceil32.o)

.data%z46       0x00000000        0x0
 .data          0x00000000        0x0 c:/program files (x86)/microchip/xc32/v2.30/bin/bin/../../lib/gcc/pic32mx/4.8.3/../../../../pic32mx/lib\libm.a(fpceil32.o)

.bss%z47        0x00000000        0x0
 .bss           0x00000000        0x0 c:/program files (x86)/microchip/xc32/v2.30/bin/bin/../../lib/gcc/pic32mx/4.8.3/../../../../pic32mx/lib\libm.a(fp32subadd.o)

.data%z48       0x00000000        0x0
 .data          0x00000000        0x0 c:/program files (x86)/microchip/xc32/v2.30/bin/bin/../../lib/gcc/pic32mx/4.8.3/../../../../pic32mx/lib\libm.a(fp32subadd.o)

.bss%z49        0x00000000        0x0
 .bss           0x00000000        0x0 c:/program files (x86)/microchip/xc32/v2.30/bin/bin/../../lib/gcc/pic32mx/4.8.3/../../../../pic32mx/lib\libm.a(fp32mul.o)

.data%z50       0x00000000        0x0
 .data          0x00000000        0x0 c:/program files (x86)/microchip/xc32/v2.30/bin/bin/../../lib/gcc/pic32mx/4.8.3/../../../../pic32mx/lib\libm.a(fp32mul.o)

.bss%z51        0x00000000        0x0
 .bss           0x00000000        0x0 c:/program files (x86)/microchip/xc32/v2.30/bin/bin/../../lib/gcc/pic32mx/4.8.3/../../../../pic32mx/lib\libm.a(fp32div.o)

.data%z52       0x00000000        0x0
 .data          0x00000000        0x0 c:/program files (x86)/microchip/xc32/v2.30/bin/bin/../../lib/gcc/pic32mx/4.8.3/../../../../pic32mx/lib\libm.a(fp32div.o)

.bss%z53        0x00000000        0x0
 .bss           0x00000000        0x0 c:/program files (x86)/microchip/xc32/v2.30/bin/bin/../../lib/gcc/pic32mx/4.8.3/../../../../pic32mx/lib\libm.a(dptoul.o)

.data%z54       0x00000000        0x0
 .data          0x00000000        0x0 c:/program files (x86)/microchip/xc32/v2.30/bin/bin/../../lib/gcc/pic32mx/4.8.3/../../../../pic32mx/lib\libm.a(dptoul.o)

.bss%z55        0x00000000        0x0
 .bss           0x00000000        0x0 c:/program files (x86)/microchip/xc32/v2.30/bin/bin/../../lib/gcc/pic32mx/4.8.3/../../../../pic32mx/lib\libm.a(dptofp.o)

.data%z56       0x00000000        0x0
 .data          0x00000000        0x0 c:/program files (x86)/microchip/xc32/v2.30/bin/bin/../../lib/gcc/pic32mx/4.8.3/../../../../pic32mx/lib\libm.a(dptofp.o)

.bss%z57        0x00000000        0x0
 .bss           0x00000000        0x0 c:/program files (x86)/microchip/xc32/v2.30/bin/bin/../../lib/gcc/pic32mx/4.8.3/../../../../pic32mx/lib\libm.a(dp32subadd.o)

.data%z58       0x00000000        0x0
 .data          0x00000000        0x0 c:/program files (x86)/microchip/xc32/v2.30/bin/bin/../../lib/gcc/pic32mx/4.8.3/../../../../pic32mx/lib\libm.a(dp32subadd.o)

.bss%z59        0x00000000        0x0
 .bss           0x00000000        0x0 c:/program files (x86)/microchip/xc32/v2.30/bin/bin/../../lib/gcc/pic32mx/4.8.3/../../../../pic32mx/lib\libm.a(dp32mul.o)

.data%z60       0x00000000        0x0
 .data          0x00000000        0x0 c:/program files (x86)/microchip/xc32/v2.30/bin/bin/../../lib/gcc/pic32mx/4.8.3/../../../../pic32mx/lib\libm.a(dp32mul.o)

.bss%z61        0x00000000        0x0
 .bss           0x00000000        0x0 c:/program files (x86)/microchip/xc32/v2.30/bin/bin/../../lib/gcc/pic32mx/4.8.3/../../../../pic32mx/lib\liblega-c.a(strncpy.o)

.data%z62       0x00000000        0x0
 .data          0x00000000        0x0 c:/program files (x86)/microchip/xc32/v2.30/bin/bin/../../lib/gcc/pic32mx/4.8.3/../../../../pic32mx/lib\liblega-c.a(strncpy.o)

.bss%z63        0x00000000        0x0
 .bss           0x00000000        0x0 c:/program files (x86)/microchip/xc32/v2.30/bin/bin/../../lib/gcc/pic32mx/4.8.3/../../../../pic32mx/lib\liblega-c.a(strncmp.o)

.data%z64       0x00000000        0x0
 .data          0x00000000        0x0 c:/program files (x86)/microchip/xc32/v2.30/bin/bin/../../lib/gcc/pic32mx/4.8.3/../../../../pic32mx/lib\liblega-c.a(strncmp.o)

.bss%z65        0x00000000        0x0
 .bss           0x00000000        0x0 c:/program files (x86)/microchip/xc32/v2.30/bin/bin/../../lib/gcc/pic32mx/4.8.3/../../../../pic32mx/lib\libpic32.a(default-simple-tlb-refill-exception-handler.o)

.data%z66       0x00000000        0x0
 .data          0x00000000        0x0 c:/program files (x86)/microchip/xc32/v2.30/bin/bin/../../lib/gcc/pic32mx/4.8.3/../../../../pic32mx/lib\libpic32.a(default-simple-tlb-refill-exception-handler.o)

.bss%z67        0x00000000        0x0
 .bss           0x00000000        0x0 c:/program files (x86)/microchip/xc32/v2.30/bin/bin/../../lib/gcc/pic32mx/4.8.3/../../../../pic32mx/lib\libpic32.a(default-cache-err-exception-handler.o)

.data%z68       0x00000000        0x0
 .data          0x00000000        0x0 c:/program files (x86)/microchip/xc32/v2.30/bin/bin/../../lib/gcc/pic32mx/4.8.3/../../../../pic32mx/lib\libpic32.a(default-cache-err-exception-handler.o)

.bss%z69        0x00000000        0x0
 .bss           0x00000000        0x0 c:/program files (x86)/microchip/xc32/v2.30/bin/bin/../../lib/gcc/pic32mx/4.8.3/../../../../pic32mx/lib\libpic32.a(defaultinterrupt.o)

.data%z70       0x00000000        0x0
 .data          0x00000000        0x0 c:/program files (x86)/microchip/xc32/v2.30/bin/bin/../../lib/gcc/pic32mx/4.8.3/../../../../pic32mx/lib\libpic32.a(defaultinterrupt.o)

.bss%z71        0x00000000        0x0
 .bss           0x00000000        0x0 c:/program files (x86)/microchip/xc32/v2.30/bin/bin/../../lib/gcc/pic32mx/4.8.3/../../../../pic32mx/lib\libpic32.a(simple-tlb-refill-exception.o)

.data%z72       0x00000000        0x0
 .data          0x00000000        0x0 c:/program files (x86)/microchip/xc32/v2.30/bin/bin/../../lib/gcc/pic32mx/4.8.3/../../../../pic32mx/lib\libpic32.a(simple-tlb-refill-exception.o)

.bss%z73        0x00000000        0x0
 .bss           0x00000000        0x0 c:/program files (x86)/microchip/xc32/v2.30/bin/bin/../../lib/gcc/pic32mx/4.8.3/../../../../pic32mx/lib\libpic32.a(cache-err-exception.o)

.data%z74       0x00000000        0x0
 .data          0x00000000        0x0 c:/program files (x86)/microchip/xc32/v2.30/bin/bin/../../lib/gcc/pic32mx/4.8.3/../../../../pic32mx/lib\libpic32.a(cache-err-exception.o)

.bss%z75        0x00000000        0x0
 .bss           0x00000000        0x0 c:/program files (x86)/microchip/xc32/v2.30/bin/bin/../../lib/gcc/pic32mx/4.8.3/../../../../pic32mx/lib\libpic32.a(general-exception.o)

.data%z76       0x00000000        0x0
 .data          0x00000000        0x0 c:/program files (x86)/microchip/xc32/v2.30/bin/bin/../../lib/gcc/pic32mx/4.8.3/../../../../pic32mx/lib\libpic32.a(general-exception.o)

.bss%z77        0x00000000        0x0
 .bss           0x00000000        0x0 c:/program files (x86)/microchip/xc32/v2.30/bin/bin/../../lib/gcc/pic32mx/4.8.3/../../../../pic32mx/lib\libpic32.a(pic32_init_tlb_ebi_sqi.o)

.data%z78       0x00000000        0x0
 .data          0x00000000        0x0 c:/program files (x86)/microchip/xc32/v2.30/bin/bin/../../lib/gcc/pic32mx/4.8.3/../../../../pic32mx/lib\libpic32.a(pic32_init_tlb_ebi_sqi.o)

.bss%z79        0x00000000        0x0
 .bss           0x00000000        0x0 c:/program files (x86)/microchip/xc32/v2.30/bin/bin/../../lib/gcc/pic32mx/4.8.3/../../../../pic32mx/lib\libpic32.a(pic32_init_cache.o)

.data%z80       0x00000000        0x0
 .data          0x00000000        0x0 c:/program files (x86)/microchip/xc32/v2.30/bin/bin/../../lib/gcc/pic32mx/4.8.3/../../../../pic32mx/lib\libpic32.a(pic32_init_cache.o)

.bss%z81        0x00000000        0x0
 .bss           0x00000000        0x0 c:/program files (x86)/microchip/xc32/v2.30/bin/bin/../../lib/gcc/pic32mx/4.8.3/../../../../pic32mx/lib\libpic32.a(pic32_data_init.o)

.data%z82       0x00000000        0x0
 .data          0x00000000        0x0 c:/program files (x86)/microchip/xc32/v2.30/bin/bin/../../lib/gcc/pic32mx/4.8.3/../../../../pic32mx/lib\libpic32.a(pic32_data_init.o)

.bss%z83        0x00000000        0x0
 .bss           0x00000000        0x0 c:/program files (x86)/microchip/xc32/v2.30/bin/bin/../../lib/gcc/pic32mx/4.8.3/../../../../pic32mx/lib\libpic32.a(default-nmi-handler.o)

.data%z84       0x00000000        0x0
 .data          0x00000000        0x0 c:/program files (x86)/microchip/xc32/v2.30/bin/bin/../../lib/gcc/pic32mx/4.8.3/../../../../pic32mx/lib\libpic32.a(default-nmi-handler.o)

.bss%z85        0x00000000        0x0
 .bss           0x00000000        0x0 c:/program files (x86)/microchip/xc32/v2.30/bin/bin/../../lib/gcc/pic32mx/4.8.3/../../../../pic32mx/lib\libpic32.a(default-on-bootstrap.o)

.data%z86       0x00000000        0x0
 .data          0x00000000        0x0 c:/program files (x86)/microchip/xc32/v2.30/bin/bin/../../lib/gcc/pic32mx/4.8.3/../../../../pic32mx/lib\libpic32.a(default-on-bootstrap.o)

.bss%z87        0x00000000        0x0
 .bss           0x00000000        0x0 c:/program files (x86)/microchip/xc32/v2.30/bin/bin/../../lib/gcc/pic32mx/4.8.3/../../../../pic32mx/lib\libpic32.a(default-on-reset.o)

.data%z88       0x00000000        0x0
 .data          0x00000000        0x0 c:/program files (x86)/microchip/xc32/v2.30/bin/bin/../../lib/gcc/pic32mx/4.8.3/../../../../pic32mx/lib\libpic32.a(default-on-reset.o)

.bss%z89        0x00000000        0x0
 .bss           0x00000000        0x0 c:/program files (x86)/microchip/xc32/v2.30/bin/bin/../../lib/gcc/pic32mx/4.8.3/../../../../pic32mx/lib\libpic32.a(default-bootstrap-exception-handler.o)

.data%z90       0x00000000        0x0
 .data          0x00000000        0x0 c:/program files (x86)/microchip/xc32/v2.30/bin/bin/../../lib/gcc/pic32mx/4.8.3/../../../../pic32mx/lib\libpic32.a(default-bootstrap-exception-handler.o)

.bss%z91        0x00000000        0x0
 .bss           0x00000000        0x0 c:/program files (x86)/microchip/xc32/v2.30/bin/bin/../../lib/gcc/pic32mx/4.8.3/../../../../pic32mx/lib\libpic32.a(strlen.o)

.data%z92       0x00000000        0x0
 .data          0x00000000        0x0 c:/program files (x86)/microchip/xc32/v2.30/bin/bin/../../lib/gcc/pic32mx/4.8.3/../../../../pic32mx/lib\libpic32.a(strlen.o)

.bss%z93        0x00000000        0x0
 .bss           0x00000000        0x0 c:/program files (x86)/microchip/xc32/v2.30/bin/bin/../../lib/gcc/pic32mx/4.8.3/../../../../pic32mx/lib\libpic32.a(strcmp.o)

.data%z94       0x00000000        0x0
 .data          0x00000000        0x0 c:/program files (x86)/microchip/xc32/v2.30/bin/bin/../../lib/gcc/pic32mx/4.8.3/../../../../pic32mx/lib\libpic32.a(strcmp.o)

.bss%z95        0x00000000        0x0
 .bss           0x00000000        0x0 c:/program files (x86)/microchip/xc32/v2.30/bin/bin/../../lib/gcc/pic32mx/4.8.3/../../../../pic32mx/lib\libpic32.a(memset.o)

.data%z96       0x00000000        0x0
 .data          0x00000000        0x0 c:/program files (x86)/microchip/xc32/v2.30/bin/bin/../../lib/gcc/pic32mx/4.8.3/../../../../pic32mx/lib\libpic32.a(memset.o)

.bss%z97        0x00000000        0x0
 .bss           0x00000000        0x0 c:/program files (x86)/microchip/xc32/v2.30/bin/bin/../../lib/gcc/pic32mx/4.8.3/../../../../pic32mx/lib\libpic32.a(memcpy.o)

.data%z98       0x00000000        0x0
 .data          0x00000000        0x0 c:/program files (x86)/microchip/xc32/v2.30/bin/bin/../../lib/gcc/pic32mx/4.8.3/../../../../pic32mx/lib\libpic32.a(memcpy.o)

.bss%z99        0x00000000        0x0
 .bss           0x00000000        0x0 c:/program files (x86)/microchip/xc32/v2.30/bin/bin/../../lib/gcc/pic32mx/4.8.3/../../../../pic32mx/lib\libpic32.a(memcmp.o)

.data%z100      0x00000000        0x0
 .data          0x00000000        0x0 c:/program files (x86)/microchip/xc32/v2.30/bin/bin/../../lib/gcc/pic32mx/4.8.3/../../../../pic32mx/lib\libpic32.a(memcmp.o)

.bss%z101       0x00000000        0x0
 .bss           0x00000000        0x0 c:/program files (x86)/microchip/xc32/v2.30/bin/bin/../../lib/gcc/pic32mx/4.8.3\libgcc.a(floatunsidf.o)

.data%z102      0x00000000        0x0
 .data          0x00000000        0x0 c:/program files (x86)/microchip/xc32/v2.30/bin/bin/../../lib/gcc/pic32mx/4.8.3\libgcc.a(floatunsidf.o)

.bss%z103       0x00000000        0x0
 .bss           0x00000000        0x0 c:/program files (x86)/microchip/xc32/v2.30/bin/bin/../../lib/gcc/pic32mx/4.8.3\libgcc.a(floatunsisf.o)

.data%z104      0x00000000        0x0
 .data          0x00000000        0x0 c:/program files (x86)/microchip/xc32/v2.30/bin/bin/../../lib/gcc/pic32mx/4.8.3\libgcc.a(floatunsisf.o)

.bss%z105       0x00000000        0x0
 .bss           0x00000000        0x0 c:/program files (x86)/microchip/xc32/v2.30/bin/bin/../../lib/gcc/pic32mx/4.8.3\libgcc.a(_floatundisf.o)

.data%z106      0x00000000        0x0
 .data          0x00000000        0x0 c:/program files (x86)/microchip/xc32/v2.30/bin/bin/../../lib/gcc/pic32mx/4.8.3\libgcc.a(_floatundisf.o)

.bss%z107       0x00000000        0x0
 .bss           0x00000000        0x0 c:/program files (x86)/microchip/xc32/v2.30/bin/bin/../../lib/gcc/pic32mx/4.8.3\libgcc.a(_fixunssfdi.o)

.data%z108      0x00000000        0x0
 .data          0x00000000        0x0 c:/program files (x86)/microchip/xc32/v2.30/bin/bin/../../lib/gcc/pic32mx/4.8.3\libgcc.a(_fixunssfdi.o)

.bss%z109       0x00000000        0x0
 .bss           0x00000000        0x0 c:/program files (x86)/microchip/xc32/v2.30/bin/bin/../../lib/gcc/pic32mx/4.8.3/../../../../pic32mx/lib\pic32_software_reset.o

.data%z110      0x00000000        0x0
 .data          0x00000000        0x0 c:/program files (x86)/microchip/xc32/v2.30/bin/bin/../../lib/gcc/pic32mx/4.8.3/../../../../pic32mx/lib\pic32_software_reset.o

.bss%z111       0x00000000        0x0
 .bss           0x00000000        0x0 c:/program files (x86)/microchip/xc32/v2.30/bin/bin/../../lib/gcc/pic32mx/4.8.3/../../../../pic32mx/lib/./proc/32MZ2048ECG144\default_isr_vectors.o

.data%z112      0x00000000        0x0
 .data          0x00000000        0x0 c:/program files (x86)/microchip/xc32/v2.30/bin/bin/../../lib/gcc/pic32mx/4.8.3/../../../../pic32mx/lib/./proc/32MZ2048ECG144\default_isr_vectors.o

.bss%z113       0x00000000        0x0
 .bss           0x00000000        0x0 C:\Users\kyrk\AppData\Local\Temp\ccYFepqr.o

.data%z114      0x00000000        0x0
 .data          0x00000000        0x0 C:\Users\kyrk\AppData\Local\Temp\ccYFepqr.o

.bss%z115       0x00000000        0x0
 .bss           0x00000000        0x0 C:\Users\kyrk\AppData\Local\Temp\ccnEG0Qt.o

.data%z116      0x00000000        0x0
 .data          0x00000000        0x0 C:\Users\kyrk\AppData\Local\Temp\ccnEG0Qt.o

.bss%z117       0x00000000        0x0
 .bss           0x00000000        0x0 C:\Users\kyrk\AppData\Local\Temp\ccW9mKTz.o

.data%z118      0x00000000        0x0
 .data          0x00000000        0x0 C:\Users\kyrk\AppData\Local\Temp\ccW9mKTz.o

.bss%z119       0x00000000        0x0
 .bss           0x00000000        0x0 c:/program files (x86)/microchip/xc32/v2.30/bin/bin/../../lib/gcc/pic32mx/4.8.3/../../../../pic32mx/lib/./proc/32MZ2048ECG144\vector_offset_init.o

.data%z120      0x00000000        0x0
 .data          0x00000000        0x0 c:/program files (x86)/microchip/xc32/v2.30/bin/bin/../../lib/gcc/pic32mx/4.8.3/../../../../pic32mx/lib/./proc/32MZ2048ECG144\vector_offset_init.o

.bss%z121       0x00000000        0x0
 .bss           0x00000000        0x0 output\usb_grbl_multi.o

.data%z122      0x00000000        0x0
 .data          0x00000000        0x0 output\usb_grbl_multi.o

.bss%z123       0x00000000        0x0
 .bss           0x00000000        0x0 output\noinitram.o

.data%z124      0x00000000        0x0
 .data          0x00000000        0x0 output\noinitram.o

.bss%z125       0x00000000        0x0
 .bss           0x00000000        0x0 output\stackmeasure_helper.o

.data%z126      0x00000000        0x0
 .data          0x00000000        0x0 output\stackmeasure_helper.o

.bss%z127       0x00000000        0x0
 .bss           0x00000000        0x0 output\stackmeasure.o

.data%z128      0x00000000        0x0
 .data          0x00000000        0x0 output\stackmeasure.o

.bss%z129       0x00000000        0x0
 .bss           0x00000000        0x0 output\bsp_sys_init.o

.data%z130      0x00000000        0x0
 .data          0x00000000        0x0 output\bsp_sys_init.o

.bss%z131       0x00000000        0x0
 .bss           0x00000000        0x0 output\drv_usbhs.o

.data%z132      0x00000000        0x0
 .data          0x00000000        0x0 output\drv_usbhs.o

.bss%z133       0x00000000        0x0
 .bss           0x00000000        0x0 output\drv_usbhs_device.o

.bss%z134       0x00000000        0x0
 .bss           0x00000000        0x0 output\peripheral.o

.data%z135      0x00000000        0x0
 .data          0x00000000        0x0 output\peripheral.o

.bss%z136       0x00000000        0x0
 .bss           0x00000000        0x0 output\system_init.o

.data%z137      0x00000000        0x0
 .data          0x00000000        0x0 output\system_init.o

.bss%z138       0x00000000        0x0
 .bss           0x00000000        0x0 output\sys_int_pic32.o

.data%z139      0x00000000        0x0
 .data          0x00000000        0x0 output\sys_int_pic32.o

.bss%z140       0x00000000        0x0
 .bss           0x00000000        0x0 output\system_tasks.o

.data%z141      0x00000000        0x0
 .data          0x00000000        0x0 output\system_tasks.o

.bss%z142       0x00000000        0x0
 .bss           0x00000000        0x0 output\usb.o

.data%z143      0x00000000        0x0
 .data          0x00000000        0x0 output\usb.o

.bss%z144       0x00000000        0x0
 .bss           0x00000000        0x0 output\usb_app.o

.data%z145      0x00000000        0x0
 .data          0x00000000        0x0 output\usb_app.o

.data%z146      0x00000000        0x0
 .data          0x00000000        0x0 output\usb_device.o

.bss%z147       0x00000000        0x0
 .bss           0x00000000        0x0 output\usb_device_cdc.o

.data%z148      0x00000000        0x0
 .data          0x00000000        0x0 output\usb_device_cdc.o

.bss%z149       0x00000000        0x0
 .bss           0x00000000        0x0 output\usb_device_cdc_acm.o

.data%z150      0x00000000        0x0
 .data          0x00000000        0x0 output\usb_device_cdc_acm.o

.bss%z151       0x00000000        0x0
 .bss           0x00000000        0x0 output\exceptions.o

.data%z152      0x00000000        0x0
 .data          0x00000000        0x0 output\exceptions.o

.bss%z153       0x00000000        0x0
 .bss           0x00000000        0x0 output\isr.o

.data%z154      0x00000000        0x0
 .data          0x00000000        0x0 output\isr.o

.bss%z155       0x00000000        0x0
 .bss           0x00000000        0x0 output\mal.o

.data%z156      0x00000000        0x0
 .data          0x00000000        0x0 output\mal.o

.data%z157      0x00000000        0x0
 .data          0x00000000        0x0 output\BerkeleyAPI.o

.data%z158      0x00000000        0x0
 .data          0x00000000        0x0 output\TCP.o

.bss%z159       0x00000000        0x0
 .bss           0x00000000        0x0 output\Reboot.o

.data%z160      0x00000000        0x0
 .data          0x00000000        0x0 output\Reboot.o

.bss%z161       0x00000000        0x0
 .bss           0x00000000        0x0 output\grbl_multi.o

.data%z162      0x00000000        0x0
 .data          0x00000000        0x0 output\grbl_multi.o

.bss%z163       0x00000000        0x0
 .bss           0x00000000        0x0 output\ethernet_grbl_multi.o

.data%z164      0x00000000        0x0
 .data          0x00000000        0x0 output\ethernet_grbl_multi.o

.bss%z165       0x00000000        0x0
 .bss           0x00000000        0x0 output\UDP.o

.data%z166      0x00000000        0x0
 .data          0x00000000        0x0 output\UDP.o

.bss%z167       0x00000000        0x0
 .bss           0x00000000        0x0 output\StackTsk.o

.data%z168      0x00000000        0x0
 .data          0x00000000        0x0 output\StackTsk.o

.bss%z169       0x00000000        0x0
 .bss           0x00000000        0x0 output\IP.o

.data%z170      0x00000000        0x0
 .data          0x00000000        0x0 output\IP.o

.bss%z171       0x00000000        0x0
 .bss           0x00000000        0x0 output\ICMP.o

.data%z172      0x00000000        0x0
 .data          0x00000000        0x0 output\ICMP.o

.bss%z173       0x00000000        0x0
 .bss           0x00000000        0x0 output\Helpers.o

.data%z174      0x00000000        0x0
 .data          0x00000000        0x0 output\Helpers.o

.bss%z175       0x00000000        0x0
 .bss           0x00000000        0x0 output\Announce.o

.data%z176      0x00000000        0x0
 .data          0x00000000        0x0 output\Announce.o

.data%z177      0x00000000        0x0
 .data          0x00000000        0x0 output\ARP.o

.bss%z178       0x00000000        0x0
 .bss           0x00000000        0x0 output\Delay.o

.data%z179      0x00000000        0x0
 .data          0x00000000        0x0 output\Delay.o

.bss%z180       0x00000000        0x0
 .bss           0x00000000        0x0 output\DHCP.o

.data%z181      0x00000000        0x0
 .data          0x00000000        0x0 output\DHCP.o

.bss%z182       0x00000000        0x0
 .bss           0x00000000        0x0 output\ENC28J60.o

.data%z183      0x00000000        0x0
 .data          0x00000000        0x0 output\ENC28J60.o

.bss%z184       0x00000000        0x0
 .bss           0x00000000        0x0 output\ethernet.o

.data%z185      0x00000000        0x0
 .data          0x00000000        0x0 output\ethernet.o

.bss%z186       0x00000000        0x0
 .bss           0x00000000        0x0 output\grbl_probe.o

.data%z187      0x00000000        0x0
 .data          0x00000000        0x0 output\grbl_probe.o

.bss%z188       0x00000000        0x0
 .bss           0x00000000        0x0 output\grbl_bootloader.o

.data%z189      0x00000000        0x0
 .data          0x00000000        0x0 output\grbl_bootloader.o

.bss%z190       0x00000000        0x0
 .bss           0x00000000        0x0 output\grbl_running.o

.data%z191      0x00000000        0x0
 .data          0x00000000        0x0 output\grbl_running.o

.bss%z192       0x00000000        0x0
 .bss           0x00000000        0x0 output\grbl_protocol.o

.data%z193      0x00000000        0x0
 .data          0x00000000        0x0 output\grbl_protocol.o

.bss%z194       0x00000000        0x0
 .bss           0x00000000        0x0 output\grbl_toolchange.o

.data%z195      0x00000000        0x0
 .data          0x00000000        0x0 output\grbl_toolchange.o

.bss%z196       0x00000000        0x0
 .bss           0x00000000        0x0 output\bootloader_interface.o

.data%z197      0x00000000        0x0
 .data          0x00000000        0x0 output\bootloader_interface.o

.bss%z198       0x00000000        0x0
 .bss           0x00000000        0x0 output\grbl_eeprom.o

.data%z199      0x00000000        0x0
 .data          0x00000000        0x0 output\grbl_eeprom.o

.bss%z200       0x00000000        0x0
 .bss           0x00000000        0x0 output\system_alarm.o

.data%z201      0x00000000        0x0
 .data          0x00000000        0x0 output\system_alarm.o

.bss%z202       0x00000000        0x0
 .bss           0x00000000        0x0 output\system_exec.o

.data%z203      0x00000000        0x0
 .data          0x00000000        0x0 output\system_exec.o

.bss%z204       0x00000000        0x0
 .bss           0x00000000        0x0 output\stepper_enable.o

.data%z205      0x00000000        0x0
 .data          0x00000000        0x0 output\stepper_enable.o

.bss%z206       0x00000000        0x0
 .bss           0x00000000        0x0 output\system_control.o

.data%z207      0x00000000        0x0
 .data          0x00000000        0x0 output\system_control.o

.bss%z208       0x00000000        0x0
 .bss           0x00000000        0x0 output\eep_manager_crc.o

.data%z209      0x00000000        0x0
 .data          0x00000000        0x0 output\eep_manager_crc.o

.bss%z210       0x00000000        0x0
 .bss           0x00000000        0x0 output\dee_page_helper.o

.data%z211      0x00000000        0x0
 .data          0x00000000        0x0 output\dee_page_helper.o

.bss%z212       0x00000000        0x0
 .bss           0x00000000        0x0 output\dee_page.o

.data%z213      0x00000000        0x0
 .data          0x00000000        0x0 output\dee_page.o

.data%z214      0x00000000        0x0
 .data          0x00000000        0x0 output\dee.o

.bss%z215       0x00000000        0x0
 .bss           0x00000000        0x0 output\jog.o

.data%z216      0x00000000        0x0
 .data          0x00000000        0x0 output\jog.o

.bss%z217       0x00000000        0x0
 .bss           0x00000000        0x0 output\pwm.o

.data%z218      0x00000000        0x0
 .data          0x00000000        0x0 output\pwm.o

.bss%z219       0x00000000        0x0
 .bss           0x00000000        0x0 output\grbl.o

.data%z220      0x00000000        0x0
 .data          0x00000000        0x0 output\grbl.o

.bss%z221       0x00000000        0x0
 .bss           0x00000000        0x0 output\system.o

.data%z222      0x00000000        0x0
 .data          0x00000000        0x0 output\system.o

.bss%z223       0x00000000        0x0
 .bss           0x00000000        0x0 output\stepper.o

.data%z224      0x00000000        0x0
 .data          0x00000000        0x0 output\stepper.o

.bss%z225       0x00000000        0x0
 .bss           0x00000000        0x0 output\spindle_control.o

.data%z226      0x00000000        0x0
 .data          0x00000000        0x0 output\spindle_control.o

.bss%z227       0x00000000        0x0
 .bss           0x00000000        0x0 output\settings.o

.data%z228      0x00000000        0x0
 .data          0x00000000        0x0 output\settings.o

.data%z229      0x00000000        0x0
 .data          0x00000000        0x0 output\report.o

.bss%z230       0x00000000        0x0
 .bss           0x00000000        0x0 output\print.o

.data%z231      0x00000000        0x0
 .data          0x00000000        0x0 output\print.o

.bss%z232       0x00000000        0x0
 .bss           0x00000000        0x0 output\planner.o

.data%z233      0x00000000        0x0
 .data          0x00000000        0x0 output\planner.o

.bss%z234       0x00000000        0x0
 .bss           0x00000000        0x0 output\nuts_bolts.o

.data%z235      0x00000000        0x0
 .data          0x00000000        0x0 output\nuts_bolts.o

.bss%z236       0x00000000        0x0
 .bss           0x00000000        0x0 output\motion_control.o

.data%z237      0x00000000        0x0
 .data          0x00000000        0x0 output\motion_control.o

.bss%z238       0x00000000        0x0
 .bss           0x00000000        0x0 output\coolant_control.o

.data%z239      0x00000000        0x0
 .data          0x00000000        0x0 output\coolant_control.o

.bss%z240       0x00000000        0x0
 .bss           0x00000000        0x0 output\grbl_limits.o

.data%z241      0x00000000        0x0
 .data          0x00000000        0x0 output\grbl_limits.o

.bss%z242       0x00000000        0x0
 .bss           0x00000000        0x0 output\gcode.o

.data%z243      0x00000000        0x0
 .data          0x00000000        0x0 output\gcode.o

.bss%z244       0x00000000        0x0
 .bss           0x00000000        0x0 output\ad.o

.data%z245      0x00000000        0x0
 .data          0x00000000        0x0 output\ad.o

.bss%z246       0x00000000        0x0
 .bss           0x00000000        0x0 output\app.o

.data%z247      0x00000000        0x0
 .data          0x00000000        0x0 output\app.o

.bss%z248       0x00000000        0x0
 .bss           0x00000000        0x0 output\c_eep_manager.o

.bss%z249       0x00000000        0x0
 .bss           0x00000000        0x0 output\main.o

.bss%z250       0x00000000        0x0
 .bss           0x00000000        0x0 output\eep_manager.o

.data%z251      0x00000000        0x0
 .data          0x00000000        0x0 output\eep_manager.o

.bss%z252       0x00000000        0x0
 .bss           0x00000000        0x0 output\eeprom.o

.data%z253      0x00000000        0x0
 .data          0x00000000        0x0 output\eeprom.o

.bss%z254       0x00000000        0x0
 .bss           0x00000000        0x0 output\task.o

.data%z255      0x00000000        0x0
 .data          0x00000000        0x0 output\task.o

.bss%z256       0x00000000        0x0
 .bss           0x00000000        0x0 output\ringBuffer.o

.data%z257      0x00000000        0x0
 .data          0x00000000        0x0 output\ringBuffer.o

.data%z258      0x00000000        0x0
 .data          0x00000000        0x0 output\tmr.o

.bss%z259       0x00000000        0x0
 .bss           0x00000000        0x0 c:/program files (x86)/microchip/xc32/v2.30/bin/bin/../../lib/gcc/pic32mx/4.8.3/../../../../pic32mx/lib\debug-exception-return.o

.data%z260      0x00000000        0x0
 .data          0x00000000        0x0 c:/program files (x86)/microchip/xc32/v2.30/bin/bin/../../lib/gcc/pic32mx/4.8.3/../../../../pic32mx/lib\debug-exception-return.o

_0869f6c063fb76ee
                0x9d030000    0x24000
 _0869f6c063fb76ee
                0x9d030000    0x24000 output\dee_page.o
                0x9d030000                dee_page

_073e7de063fb76ec
                0x9d008160       0x18
 _073e7de063fb76ec
                0x9d008160       0x18 output\main.o
                0x9d008160                VERSION_MAKEFILE_NAME

_0873366063fb76ec
                0x9d008180        0xc
 _0873366063fb76ec
                0x9d008180        0xc output\main.o
                0x9d008180                FILE_CRC

_073e7d2063fb76ec
                0x9d008140        0xc
 _073e7d2063fb76ec
                0x9d008140        0xc output\main.o
                0x9d008140                VERSION_ID_FIX

_073e7c6063fb76ec
                0x9d008120        0xc
 _073e7c6063fb76ec
                0x9d008120        0xc output\main.o
                0x9d008120                VERSION_TIME

_073e7ba063fb76ec
                0x9d008100        0xc
 _073e7ba063fb76ec
                0x9d008100        0xc output\main.o
                0x9d008100                VERSION_DATE

.text           0x9d001370     0x4508
 .text          0x9d001370     0x4508 output\TCP.o
                0x9d001fe4                init_tcp
                0x9d001fec                do_tcp
                0x9d002080                isr_tcp_1ms
                0x9d002090                TCPInit
                0x9d002204                TCPOpen
                0x9d00249c                TCPWasReset
                0x9d002504                TCPIsConnected
                0x9d002540                TCPDisconnect
                0x9d00272c                TCPClose
                0x9d002778                TCPGetRemoteInfo
                0x9d0027dc                TCPFlush
                0x9d002840                TCPIsPutReady
                0x9d0028f4                TCPPut
                0x9d002ae4                TCPPutArray
                0x9d002d58                TCPPutString
                0x9d002da0                TCPGetTxFIFOFull
                0x9d002e08                TCPIsGetReady
                0x9d002e88                TCPDiscard
                0x9d002ee4                TCPGet
                0x9d003050                TCPGetArray
                0x9d00325c                TCPGetRxFIFOFree
                0x9d0032c0                TCPPeekArray
                0x9d003448                TCPPeek
                0x9d003470                TCPFindArrayEx
                0x9d003858                TCPFindEx
                0x9d003890                TCPTick
                0x9d004108                TCPProcess
                0x9d005510                TCPAdjustFIFOSize

.text           0x9d00818c     0x55a0
 .text          0x9d00818c     0x2bc4 output\drv_usbhs_device.o
                0x9d00818c                DRV_USBHS_DEVICE_AddressSet
                0x9d0081b0                DRV_USBHS_DEVICE_CurrentSpeedGet
                0x9d0081b8                DRV_USBHS_DEVICE_RemoteWakeupStart
                0x9d0081c0                DRV_USBHS_DEVICE_RemoteWakeupStop
                0x9d0081c8                DRV_USBHS_DEVICE_Attach
                0x9d008220                DRV_USBHS_DEVICE_Detach
                0x9d008250                DRV_USBHS_DEVICE_SOFNumberGet
                0x9d008258                DRV_USBHS_DEVICE_EndpointIsEnabled
                0x9d008290                DRV_USBHS_DEVICE_EndpointIsStalled
                0x9d0082c8                DRV_USBHS_DEVICE_TestModeEnter
                0x9d008478                DRV_USBHS_DEVICE_EndpointDisable
                0x9d0087a4                DRV_USBHS_DEVICE_EndpointEnable
                0x9d008b78                _DRV_USBHS_DEVICE_Initialize
                0x9d008ba4                _DRV_USBHS_DEVICE_EndpointObjectEnable
                0x9d008bc0                _DRV_USBHS_DEVICE_IRPQueueFlush
                0x9d008c24                DRV_USBHS_DEVICE_IRPCancelAll
                0x9d008e00                DRV_USBHS_DEVICE_EndpointStall
                0x9d009050                DRV_USBHS_DEVICE_EndpointStallClear
                0x9d00926c                DRV_USBHS_DEVICE_IRPCancel
                0x9d009434                _DRV_USBHS_DEVICE_Get_FreeDMAChannel
                0x9d009498                _DRV_USBHS_ProcessIRPFIFO
                0x9d009918                DRV_USBHS_DEVICE_IRPSubmit
                0x9d009f10                _DRV_USBHS_DEVICE_Tasks_ISR
                0x9d00a978                DRV_USBHS_DEVICE_TestModeExit
                0x9d00aa1c                _DRV_USBHS_DEVICE_Tasks_ISR_USBDMA
 .text          0x9d00ad50     0x29dc output\isr.o
                0x9d00ad50                Timer1Handler
                0x9d00af00                Timer2Handler
                0x9d00b0b0                Timer3Handler
                0x9d00b260                Timer4Handler
                0x9d00b410                __SPI2FAULTInterrupt
                0x9d00b490                __SPI2RXInterrupt
                0x9d00b510                __SPI2TXInterrupt
                0x9d00b590                __SPI4FAULTInterrupt
                0x9d00b610                __SPI4RXInterrupt
                0x9d00b690                __SPI4TXInterrupt
                0x9d00b710                __EINT3Interrupt
                0x9d00b790                DmaHandler0
                0x9d00b810                DmaHandler1
                0x9d00b890                DmaHandler2
                0x9d00b910                ChangeNotificationA
                0x9d00bac8                ChangeNotificationB
                0x9d00bc80                ChangeNotificationC
                0x9d00be38                ChangeNotificationD
                0x9d00bff0                ChangeNotificationE
                0x9d00c1a8                ChangeNotificationF
                0x9d00c360                ChangeNotificationG
                0x9d00c518                ChangeNotificationH
                0x9d00c6d0                ChangeNotificationJ
                0x9d00c888                ChangeNotificationK
                0x9d00ca40                IntUart1FAULTHandler
                0x9d00cae8                IntUart1RXHandler
                0x9d00cb90                IntUart1TXHandler
                0x9d00cc20                IntUart2FAULTHandler
                0x9d00ccb4                IntUart2RXHandler
                0x9d00cd48                IntUart2TXHandler
                0x9d00cdc4                IntOC1Handler
                0x9d00ce44                IntOC2Handler
                0x9d00cec4                IntOC3Handler
                0x9d00cf44                IntOC4Handler
                0x9d00cfc4                CoreTimerHandler
                0x9d00d048                _IntHandlerUSBInstance0
                0x9d00d1e8                _IntHandlerUSBInstance0_USBDMA
                0x9d00d388                init_isr

.text           0x9d005878     0x2678
 .text          0x9d005878     0x2678 output\peripheral.o
                0x9d005878                PLIB_INT_ExistsSingleVectorShadowSet
                0x9d005880                PLIB_INT_SingleVectorShadowSetDisable
                0x9d00589c                PLIB_INT_SingleVectorShadowSetEnable
                0x9d0058b8                PLIB_INT_ExistsVectorSelect
                0x9d0058c0                PLIB_INT_MultiVectorSelect
                0x9d0058dc                PLIB_INT_SingleVectorSelect
                0x9d0058f8                PLIB_INT_ExistsProximityTimerEnable
                0x9d005900                PLIB_INT_ProximityTimerEnable
                0x9d005928                PLIB_INT_ProximityTimerDisable
                0x9d005944                PLIB_INT_ExistsProximityTimerControl
                0x9d00594c                PLIB_INT_ProximityTimerSet
                0x9d005960                PLIB_INT_ProximityTimerGet
                0x9d005980                PLIB_INT_ExistsExternalINTEdgeSelect
                0x9d005988                PLIB_INT_ExternalRisingEdgeSelect
                0x9d0059a4                PLIB_INT_ExternalFallingEdgeSelect
                0x9d0059c0                PLIB_INT_ExistsINTCPUPriority
                0x9d0059c8                PLIB_INT_PriorityGet
                0x9d0059e8                PLIB_INT_ExistsINTCPUVector
                0x9d0059f0                PLIB_INT_VectorGet
                0x9d005a10                PLIB_INT_ExistsSourceFlag
                0x9d005a18                PLIB_INT_SourceFlagGet
                0x9d005a4c                PLIB_INT_SourceFlagSet
                0x9d005a7c                PLIB_INT_SourceFlagClear
                0x9d005aac                PLIB_INT_ExistsSourceControl
                0x9d005ab4                PLIB_INT_SourceEnable
                0x9d005ae4                PLIB_INT_SourceDisable
                0x9d005b14                PLIB_INT_SourceIsEnabled
                0x9d005b48                PLIB_INT_ExistsVectorPriority
                0x9d005b50                PLIB_INT_VectorPrioritySet
                0x9d005ba0                PLIB_INT_VectorPriorityGet
                0x9d005be0                PLIB_INT_VectorSubPrioritySet
                0x9d005c2c                PLIB_INT_VectorSubPriorityGet
                0x9d005c68                PLIB_INT_ExistsCPUCurrentPriorityLevel
                0x9d005c70                PLIB_INT_CPUCurrentPriorityLevelGet
                0x9d005ca0                PLIB_INT_ExistsEnableControl
                0x9d005ca8                PLIB_INT_Enable
                0x9d005cd8                PLIB_INT_Disable
                0x9d005d00                PLIB_INT_IsEnabled
                0x9d005d30                PLIB_INT_SetState
                0x9d005d58                PLIB_INT_GetStateAndDisable
                0x9d005d88                PLIB_INT_ExistsShadowRegisterAssign
                0x9d005d90                PLIB_INT_ShadowRegisterAssign
                0x9d005db0                PLIB_INT_ShadowRegisterGet
                0x9d005dd4                PLIB_INT_ExistsVariableOffset
                0x9d005ddc                PLIB_INT_VariableVectorOffsetSet
                0x9d005dfc                PLIB_INT_VariableVectorOffsetGet
                0x9d005e20                PLIB_INT_ExistsSoftwareNMI
                0x9d005e28                PLIB_INT_SoftwareNMITrigger
                0x9d005e30                PLIB_PCACHE_ExistsWaitState
                0x9d005e38                PLIB_PCACHE_WaitStateSet
                0x9d005e5c                PLIB_PCACHE_WaitStateGet
                0x9d005e7c                PLIB_PCACHE_ExistsPrefetchEnable
                0x9d005e84                PLIB_PCACHE_PrefetchEnableSet
                0x9d005eac                PLIB_PCACHE_PrefetchEnableGet
                0x9d005ecc                PLIB_PCACHE_ExistsDataCacheEnable
                0x9d005ed4                PLIB_PCACHE_DataCacheEnableSet
                0x9d005edc                PLIB_PCACHE_DataCacheEnableGet
                0x9d005ee4                PLIB_PCACHE_ExistsFlashSECInt
                0x9d005eec                PLIB_PCACHE_FlashSECIntEnable
                0x9d005f08                PLIB_PCACHE_FlashSECIntDisable
                0x9d005f24                PLIB_PCACHE_ExistsFlashDEDStatus
                0x9d005f2c                PLIB_PCACHE_FlashDEDStatusGet
                0x9d005f4c                PLIB_PCACHE_FlashDEDStatusClear
                0x9d005f68                PLIB_PCACHE_ExistsFlashSECStatus
                0x9d005f70                PLIB_PCACHE_FlashSECStatusGet
                0x9d005f90                PLIB_PCACHE_FlashSECStatusSet
                0x9d005fac                PLIB_PCACHE_FlashSECStatusClear
                0x9d005fc8                PLIB_PCACHE_ExistsFlashSECCount
                0x9d005fd0                PLIB_PCACHE_FlashSECCountSet
                0x9d005ff0                PLIB_PCACHE_FlashSECCountGet
                0x9d006010                PLIB_PCACHE_ExistsInvalidateOnPFMProgram
                0x9d006018                PLIB_PCACHE_InvalidateOnPFMProgramAll
                0x9d006020                PLIB_PCACHE_InvalidateOnPFMProgramUnlocked
                0x9d006028                PLIB_PCACHE_ExistsCacheLine
                0x9d006030                PLIB_PCACHE_CacheLineSelect
                0x9d006038                PLIB_PCACHE_CacheLineDeselect
                0x9d006040                PLIB_PCACHE_CacheLineData
                0x9d006048                PLIB_PCACHE_CacheLineInst
                0x9d006050                PLIB_PCACHE_CacheLineIsInst
                0x9d006058                PLIB_PCACHE_ExistsCacheLineType
                0x9d006060                PLIB_PCACHE_CacheLineLock
                0x9d006068                PLIB_PCACHE_CacheLineUnlock
                0x9d006070                PLIB_PCACHE_CacheLineIsLocked
                0x9d006078                PLIB_PCACHE_ExistsCacheLineLock
                0x9d006080                PLIB_PCACHE_CacheLineValid
                0x9d006088                PLIB_PCACHE_CacheLineInvalid
                0x9d006090                PLIB_PCACHE_CacheLineIsValid
                0x9d006098                PLIB_PCACHE_ExistsCacheLineValid
                0x9d0060a0                PLIB_PCACHE_CacheLineAddrSet
                0x9d0060a8                PLIB_PCACHE_CacheLineAddrGet
                0x9d0060b0                PLIB_PCACHE_ExistsCacheLineAddr
                0x9d0060b8                PLIB_PCACHE_CacheLineFlashTypeBoot
                0x9d0060c0                PLIB_PCACHE_CacheLineFlashTypeInst
                0x9d0060c8                PLIB_PCACHE_CacheLineFlashTypeIsInst
                0x9d0060d0                PLIB_PCACHE_ExistsCacheLineFlashType
                0x9d0060d8                PLIB_PCACHE_CacheLineMaskSet
                0x9d0060e0                PLIB_PCACHE_CacheLineMaskGet
                0x9d0060e8                PLIB_PCACHE_ExistsCacheLineMask
                0x9d0060f0                PLIB_PCACHE_WordRead
                0x9d0060f8                PLIB_PCACHE_WordWrite
                0x9d006100                PLIB_PCACHE_ExistsWord
                0x9d006108                PLIB_PCACHE_LeastRecentlyUsedStateRead
                0x9d006110                PLIB_PCACHE_ExistsLeastRecentlyUsedState
                0x9d006118                PLIB_PCACHE_CacheHitRead
                0x9d006120                PLIB_PCACHE_CacheHitWrite
                0x9d006128                PLIB_PCACHE_ExistsCacheHit
                0x9d006130                PLIB_PCACHE_CacheMissRead
                0x9d006138                PLIB_PCACHE_CacheMissWrite
                0x9d006140                PLIB_PCACHE_ExistsCacheMiss
                0x9d006148                PLIB_PCACHE_PrefetchAbortRead
                0x9d006150                PLIB_PCACHE_PrefetchAbortWrite
                0x9d006158                PLIB_PCACHE_ExistsPrefetchAbort
                0x9d006160                PLIB_PORTS_RemapInput
                0x9d006190                PLIB_PORTS_ExistsRemapInput
                0x9d006198                PLIB_PORTS_RemapOutput
                0x9d0061d4                PLIB_PORTS_ExistsRemapOutput
                0x9d0061dc                PLIB_PORTS_PinModeSelect
                0x9d006244                PLIB_PORTS_ExistsPinMode
                0x9d00624c                PLIB_PORTS_AnPinsModeSelect
                0x9d006254                PLIB_PORTS_ExistsAnPinsMode
                0x9d00625c                PLIB_PORTS_PinGet
                0x9d00629c                PLIB_PORTS_Read
                0x9d0062d0                PLIB_PORTS_ExistsPortsRead
                0x9d0062d8                PLIB_PORTS_PinGetLatched
                0x9d006318                PLIB_PORTS_ReadLatched
                0x9d00634c                PLIB_PORTS_ExistsLatchRead
                0x9d006354                PLIB_PORTS_PinWrite
                0x9d0063c4                PLIB_PORTS_PinSet
                0x9d0063fc                PLIB_PORTS_PinClear
                0x9d006434                PLIB_PORTS_PinToggle
                0x9d00646c                PLIB_PORTS_Write
                0x9d006498                PLIB_PORTS_Set
                0x9d0064cc                PLIB_PORTS_Toggle
                0x9d0064fc                PLIB_PORTS_Clear
                0x9d00652c                PLIB_PORTS_ExistsPortsWrite
                0x9d006534                PLIB_PORTS_PinDirectionInputSet
                0x9d00656c                PLIB_PORTS_PinDirectionOutputSet
                0x9d0065a4                PLIB_PORTS_DirectionInputSet
                0x9d0065d4                PLIB_PORTS_DirectionOutputSet
                0x9d006604                PLIB_PORTS_DirectionGet
                0x9d006638                PLIB_PORTS_ExistsPortsDirection
                0x9d006640                PLIB_PORTS_PinOpenDrainEnable
                0x9d006678                PLIB_PORTS_PinOpenDrainDisable
                0x9d0066b0                PLIB_PORTS_OpenDrainEnable
                0x9d0066e0                PLIB_PORTS_OpenDrainDisable
                0x9d006710                PLIB_PORTS_ExistsPortsOpenDrain
                0x9d006718                PLIB_PORTS_ChangeNoticeEnable
                0x9d006720                PLIB_PORTS_ChangeNoticeDisable
                0x9d006728                PLIB_PORTS_ExistsChangeNotice
                0x9d006730                PLIB_PORTS_PinChangeNoticeEnable
                0x9d006738                PLIB_PORTS_PinChangeNoticeDisable
                0x9d006740                PLIB_PORTS_CnPinsEnable
                0x9d006748                PLIB_PORTS_CnPinsDisable
                0x9d006750                PLIB_PORTS_ExistsPinChangeNotice
                0x9d006758                PLIB_PORTS_ChangeNoticeInIdleEnable
                0x9d006760                PLIB_PORTS_ChangeNoticeInIdleDisable
                0x9d006768                PLIB_PORTS_ExistsChangeNoticeInIdle
                0x9d006770                PLIB_PORTS_ChangeNoticePullUpEnable
                0x9d006778                PLIB_PORTS_ChangeNoticePullUpDisable
                0x9d006780                PLIB_PORTS_CnPinsPullUpEnable
                0x9d006788                PLIB_PORTS_CnPinsPullUpDisable
                0x9d006790                PLIB_PORTS_ExistsChangeNoticePullUp
                0x9d006798                PLIB_PORTS_PinModePerPortSelect
                0x9d006808                PLIB_PORTS_ChannelModeSelect
                0x9d006868                PLIB_PORTS_ExistsPinModePerPort
                0x9d006870                PLIB_PORTS_ChangeNoticePullDownPerPortEnable
                0x9d0068a8                PLIB_PORTS_ChangeNoticePullDownPerPortDisable
                0x9d0068e0                PLIB_PORTS_ChannelChangeNoticePullDownEnable
                0x9d006910                PLIB_PORTS_ChannelChangeNoticePullDownDisable
                0x9d006940                PLIB_PORTS_ExistsChangeNoticePullDownPerPort
                0x9d006948                PLIB_PORTS_ChangeNoticePullUpPerPortEnable
                0x9d006980                PLIB_PORTS_ChangeNoticePullUpPerPortDisable
                0x9d0069b8                PLIB_PORTS_ChannelChangeNoticePullUpEnable
                0x9d0069e8                PLIB_PORTS_ChannelChangeNoticePullUpDisable
                0x9d006a18                PLIB_PORTS_ExistsChangeNoticePullUpPerPort
                0x9d006a20                PLIB_PORTS_PinChangeNoticePerPortEnable
                0x9d006a58                PLIB_PORTS_PinChangeNoticePerPortDisable
                0x9d006a90                PLIB_PORTS_ChannelChangeNoticeEnable
                0x9d006ac0                PLIB_PORTS_ChannelChangeNoticeDisable
                0x9d006af0                PLIB_PORTS_ExistsPinChangeNoticePerPort
                0x9d006af8                PLIB_PORTS_ChangeNoticePerPortTurnOn
                0x9d006b2c                PLIB_PORTS_ChangeNoticePerPortTurnOff
                0x9d006b60                PLIB_PORTS_ExistsChangeNoticePerPortTurnOn
                0x9d006b68                PLIB_PORTS_ChangeNoticeInIdlePerPortEnable
                0x9d006b9c                PLIB_PORTS_ChangeNoticeInIdlePerPortDisable
                0x9d006bd0                PLIB_PORTS_ExistsChangeNoticePerPortInIdle
                0x9d006bd8                PLIB_PORTS_ChangeNoticePerPortHasOccured
                0x9d006c18                PLIB_PORTS_ChangeNoticePerPortHasOccurred
                0x9d006c58                PLIB_PORTS_ExistsChangeNoticePerPortStatus
                0x9d006c60                PLIB_PORTS_ChannelSlewRateSelect
                0x9d006c68                PLIB_PORTS_PinSlewRateGet
                0x9d006c70                PLIB_PORTS_ExistsSlewRateControl
                0x9d006c78                PLIB_PORTS_ChannelChangeNoticeMethodSelect
                0x9d006c80                PLIB_PORTS_ChannelChangeNoticeMethodGet
                0x9d006c88                PLIB_PORTS_ExistsChannelChangeNoticeMethod
                0x9d006c90                PLIB_PORTS_ChannelChangeNoticeEdgeEnable
                0x9d006c98                PLIB_PORTS_ChannelChangeNoticeEdgeDisable
                0x9d006ca0                PLIB_PORTS_PinChangeNoticeEdgeIsEnabled
                0x9d006ca8                PLIB_PORTS_ExistsChangeNoticeEdgeControl
                0x9d006cb0                PLIB_PORTS_PinChangeNoticeEdgeHasOccurred
                0x9d006cb8                PLIB_PORTS_ExistsChangeNoticeEdgeStatus
                0x9d006cc0                PLIB_USBHS_EndpointFIFOLoad
                0x9d006d3c                PLIB_USBHS_EndpointFIFOUnload
                0x9d006df0                PLIB_USBHS_Endpoint0FIFOFlush
                0x9d006e28                PLIB_USBHS_EndpointTxFIFOFlush
                0x9d006e68                PLIB_USBHS_EndpointRxFIFOFlush
                0x9d006eac                PLIB_USBHS_Endpoint0SetupPacketLoad
                0x9d006f2c                PLIB_USBHS_Endpoint0SetupPacketUnload
                0x9d006f5c                PLIB_USBHS_DeviceEPFIFOLoad
                0x9d006f9c                PLIB_USBHS_DeviceEPFIFOUnload
                0x9d00701c                PLIB_USBHS_ExistsEndpointFIFO
                0x9d007024                PLIB_USBHS_SoftResetEnable
                0x9d007040                PLIB_USBHS_SoftResetDisable
                0x9d007058                PLIB_USBHS_ExistsSoftReset
                0x9d007060                PLIB_USBHS_InterruptEnableSet
                0x9d00708c                PLIB_USBHS_TxInterruptFlagsGet
                0x9d0070b0                PLIB_USBHS_RxInterruptFlagsGet
                0x9d0070d4                PLIB_USBHS_GenInterruptFlagsGet
                0x9d0070f8                PLIB_USBHS_TxInterruptEnable
                0x9d00711c                PLIB_USBHS_RxInterruptEnable
                0x9d007140                PLIB_USBHS_TxInterruptDisable
                0x9d007168                PLIB_USBHS_RxInterruptDisable
                0x9d007190                PLIB_USBHS_ExistsInterrupts
                0x9d007198                PLIB_USBHS_HighSpeedEnable
                0x9d0071bc                PLIB_USBHS_HighSpeedDisable
                0x9d0071dc                PLIB_USBHS_HighSpeedIsConnected
                0x9d007200                PLIB_USBHS_FullOrHighSpeedIsConnected
                0x9d007240                PLIB_USBHS_ExistsHighSpeedSupport
                0x9d007248                PLIB_USBHS_DMAErrorGet
                0x9d007290                PLIB_USBHS_DMAInterruptGet
                0x9d0072b4                PLIB_USBHS_DMAOperationEnable
                0x9d00731c                PLIB_USBHS_LoadEPInIndex
                0x9d007334                PLIB_USBHS_GetEP0FIFOAddress
                0x9d00734c                PLIB_USBHS_GetEP0CSRAddress
                0x9d007364                PLIB_USBHS_GetReceiveDataCount
                0x9d007388                PLIB_USBHS_TestModeEnter
                0x9d007458                PLIB_USBHS_TestModeExit
                0x9d0074ec                PLIB_USBHS_ExistsClockResetControl
                0x9d0074f4                PLIB_USBHS_GlobalInterruptEnable
                0x9d0074fc                PLIB_USBHS_GlobalInterruptDisable
                0x9d007504                PLIB_USBHS_ExistsUSBIDControl
                0x9d00750c                PLIB_USBHS_USBIDOverrideEnable
                0x9d007514                PLIB_USBHS_USBIDOverrideDisable
                0x9d00751c                PLIB_USBHS_USBIDOverrideValueSet
                0x9d007524                PLIB_USBHS_PhyIDMonitoringEnable
                0x9d00752c                PLIB_USBHS_PhyIDMonitoringDisable
                0x9d007534                PLIB_USBHS_ResumeEnable
                0x9d007558                PLIB_USBHS_ResumeDisable
                0x9d007578                PLIB_USBHS_SuspendEnable
                0x9d00759c                PLIB_USBHS_SuspendDisable
                0x9d0075bc                PLIB_USBHS_ResetEnable
                0x9d0075e0                PLIB_USBHS_ResetDisable
                0x9d007600                PLIB_USBHS_VBUSLevelGet
                0x9d007624                PLIB_USBHS_HostModeIsEnabled
                0x9d007648                PLIB_USBHS_IsBDevice
                0x9d00766c                PLIB_USBHS_SessionEnable
                0x9d007690                PLIB_USBHS_SessionDisable
                0x9d0076b0                PLIB_USBHS_DeviceAddressSet
                0x9d0076c4                PLIB_USBHS_DeviceAttach
                0x9d007708                PLIB_USBHS_DeviceDetach
                0x9d007728                PLIB_USBHS_ExistsModuleControl
                0x9d007730                PLIB_USBHS_EP0StatusGet
                0x9d007754                PLIB_USBHS_EP0StatusClear
                0x9d00777c                PLIB_USBHS_EP0SentStallClear
                0x9d00779c                PLIB_USBHS_EP0INHandshakeSend
                0x9d0077b8                PLIB_USBHS_EP0INTokenSend
                0x9d0077d4                PLIB_USBHS_EP0OUTHandshakeSend
                0x9d0077f0                PLIB_USBHS_EP0INHandshakeClear
                0x9d007810                PLIB_USBHS_EP0StallEnable
                0x9d00782c                PLIB_USBHS_EP0StallDisable
                0x9d00784c                PLIB_USBHS_EP0SetupEndServiced
                0x9d007870                PLIB_USBHS_EP0RxPktRdyServiced
                0x9d00788c                PLIB_USBHS_EP0RxPktRdyServicedDataEnd
                0x9d0078a8                PLIB_USBHS_EP0TxPktRdyDataEnd
                0x9d0078c4                PLIB_USBHS_EP0TxPktRdy
                0x9d0078e0                PLIB_USBHS_EP0DataEndSet
                0x9d0078fc                PLIB_USBHS_ExistsEP0Status
                0x9d007904                PLIB_USBHS_TxEPStatusGet
                0x9d00792c                PLIB_USBHS_TxEPStatusClear
                0x9d00795c                PLIB_USBHS_ExistsTxEPStatus
                0x9d007964                PLIB_USBHS_RxEPStatusGet
                0x9d00798c                PLIB_USBHS_RxEPStatusClear
                0x9d0079bc                PLIB_USBHS_RxEPINTokenSend
                0x9d0079e8                PLIB_USBHS_ExistsRxEPStatus
                0x9d0079f0                PLIB_USBHS_EndpointRxRequestEnable
                0x9d007a1c                PLIB_USBHS_EndpointRxRequestClear
                0x9d007a48                PLIB_USBHS_HostRxEndpointConfigure
                0x9d007b30                PLIB_USBHS_HostTxEndpointConfigure
                0x9d007c1c                PLIB_USBHS_HostTxEndpointDataToggleClear
                0x9d007c48                PLIB_USBHS_HostRxEndpointDataToggleClear
                0x9d007c74                PLIB_USBHS_DeviceRxEndpointConfigure
                0x9d007d4c                PLIB_USBHS_DeviceTxEndpointConfigure
                0x9d007dec                PLIB_USBHS_DeviceRxEndpointStallEnable
                0x9d007e18                PLIB_USBHS_DeviceTxEndpointStallEnable
                0x9d007e44                PLIB_USBHS_DeviceRxEndpointStallDisable
                0x9d007e80                PLIB_USBHS_DeviceTxEndpointStallDisable
                0x9d007ebc                PLIB_USBHS_DeviceTxEndpointPacketReady
                0x9d007ee8                PLIB_USBHS_ExistsEndpointOperations

.text           0x9d00d72c     0x464c
 .text          0x9d00d72c     0x25b0 output\report.o
                0x9d00d7c8                report_util_setting_prefix
                0x9d00d878                init_grbl_report
                0x9d00d880                isr_grbl_report_1ms
                0x9d00d8ac                grbl_report_dump_eeprom
                0x9d00d8b8                report_status_message
                0x9d00d90c                report_alarm_message
                0x9d00d948                report_feedback_message
                0x9d00db00                report_init_message
                0x9d00db20                report_grbl_help
                0x9d00db40                report_grbl_debug_0
                0x9d00db4c                report_grbl_debug_1
                0x9d00db58                report_grbl_settings
                0x9d00dde4                report_probe_parameters
                0x9d00de38                report_ngc_parameters
                0x9d00df9c                report_gcode_modes
                0x9d00e1d4                report_build_info
                0x9d00e260                report_echo_line_received
                0x9d00e2ac                report_stack_usage
                0x9d00e310                report_mac_address
                0x9d00e390                do_grbl_report
                0x9d00f630                report_realtime_status
                0x9d00fcb0                debug_missed_char_logger
 .text          0x9d00fcdc     0x209c output\ENC28J60.o
                0x9d0100c8                init_enc28j60
                0x9d0100d0                isr_enc28j60_1ms
                0x9d010104                ENC28J60_CalculateBRG
                0x9d010144                MACIsTxReady
                0x9d010170                MACDiscardRx
                0x9d0101e0                MACGetFreeRxSize
                0x9d0102e0                MACSetReadPtrInRx
                0x9d010338                MACSetWritePtr
                0x9d0103a8                MACSetReadPtr
                0x9d010418                MACIsMemCopyDone
                0x9d010444                MACGet
                0x9d0104d0                MACGetArray
                0x9d010678                MACGetHeader
                0x9d01082c                MACFlush
                0x9d010a80                CalcIPBufferChecksum
                0x9d010ba0                MACCalcRxChecksum
                0x9d010c5c                MACPut
                0x9d010d00                MACMemCopyAsync
                0x9d011014                MACPutArray
                0x9d011224                MACPutHeader
                0x9d0112c4                ReadPHYReg
                0x9d011384                MACIsLinked
                0x9d0113ac                WritePHYReg
                0x9d011430                do_enc28j60
                0x9d011940                MACInit
                0x9d011c30                MACPowerDown
                0x9d011c98                MACPowerUp
                0x9d011ce0                SetCLKOUT
                0x9d011d1c                GetCLKOUT
                0x9d011d5c                get_enc28j60_spi_corruption1_cnt
                0x9d011d64                get_enc28j60_spi_corruption2_cnt
                0x9d011d6c                MACIsAvailable

.text           0x9d011d78     0x3864
 .text          0x9d011d78     0x2090 output\gcode.o
                0x9d011d78                gc_init
                0x9d011e34                gc_soft_init
                0x9d011e70                gc_sync_position
                0x9d011e98                gc_main
                0x9d011ea0                gc_check_for_sync_needed
                0x9d011fd0                gc_execute_line
                0x9d013ddc                gcode_probe_update_pos
 .text          0x9d013e08     0x17d4 output\usb_device.o
                0x9d013e08                _USB_DEVICE_Ep0TransmitCompleteCallback
                0x9d013eb8                _USB_DEVICE_Ep0ReceiveCompleteCallback
                0x9d01403c                USB_DEVICE_Initialize
                0x9d014190                USB_DEVICE_Status
                0x9d0141c4                USB_DEVICE_Deinitialize
                0x9d0141f4                USB_DEVICE_Tasks
                0x9d01435c                USB_DEVICE_Open
                0x9d0143a8                USB_DEVICE_Tasks_ISR
                0x9d0143b0                USB_DEVICE_Tasks_ISR_USBDMA
                0x9d0143b8                _USB_DEVICE_DeInitializeAllFunctionDrivers
                0x9d014460                _USB_DEVICE_EventHandler
                0x9d014670                _USB_DEVICE_GetFunctionDriverEntryByInterface
                0x9d0146f4                _USB_DEVICE_ConfigureDevice
                0x9d0147f4                _USB_DEVICE_FindEndpoint
                0x9d014878                _USB_DEVICE_RedirectControlXfrToClient
                0x9d0148c4                _USB_DEVICE_ClientHandleValidate
                0x9d0148ec                USB_DEVICE_IsSuspended
                0x9d014910                USB_DEVICE_StateGet
                0x9d014934                USB_DEVICE_Close
                0x9d014960                USB_DEVICE_ClientStatusGet
                0x9d014988                USB_DEVICE_EventHandlerSet
                0x9d0149e0                USB_DEVICE_ActiveConfigurationGet
                0x9d014a08                USB_DEVICE_ActiveSpeedGet
                0x9d014a34                USB_DEVICE_ControlSend
                0x9d014ab8                USB_DEVICE_ControlReceive
                0x9d014b00                USB_DEVICE_ControlStatus
                0x9d014b7c                _USB_DEVICE_ForwardControlXfrToFunction
                0x9d014c18                _USB_DEVICE_ProcessStandardEndpointRequest
                0x9d014d18                _USB_DEVICE_ProcessStandardDeviceSetRequests
                0x9d014f2c                USB_DEVICE_PowerStateSet
                0x9d014f64                USB_DEVICE_RemoteWakeupStatusGet
                0x9d014f8c                USB_DEVICE_RemoteWakeupStop
                0x9d014fc0                USB_DEVICE_RemoteWakeupStart
                0x9d014ff4                _USB_DEVICE_EndpointMutexCreateFunction
                0x9d015010                _USB_DEVICE_EndpointMutexDeleteFunction
                0x9d015018                _USB_DEVICE_GetStringDescriptorRequestProcess
                0x9d0150e8                _USB_DEVICE_ProcessStandardDeviceGetRequests
                0x9d015340                _USB_DEVICE_ControlTransferHandler
                0x9d015534                _USB_DEVICE_GetStringDescriptorRequestProcessAdvanced

.text           0x9d0155dc     0x2d1c
 .text          0x9d0155dc     0x16c0 output\stepper.o
                0x9d0155dc                init_stepper
                0x9d015630                do_stepper
                0x9d015638                st_wake_up
                0x9d015694                st_go_idle
                0x9d0156f8                TIMER1_COMPA_vect
                0x9d015be8                TIMER0_OVF_vect
                0x9d015c8c                st_generate_step_dir_invert_masks
                0x9d015d44                st_reset
                0x9d015f40                st_update_plan_block_parameters
                0x9d015f8c                st_prep_buffer
                0x9d016c70                st_get_realtime_rate
                0x9d016c94                st_isRunning
 .text          0x9d016c9c     0x165c output\system.o
                0x9d016c9c                isr_system_1ms
                0x9d016ca4                system_check_safety_door_ajar
                0x9d016cc0                system_flag_wco_change
                0x9d016ccc                system_convert_axis_steps_to_mpos
                0x9d016d0c                system_convert_array_steps_to_mpos
                0x9d016d70                system_check_travel_limits
                0x9d016e38                system_set_exec_motion_override_flag
                0x9d016eb4                system_set_exec_accessory_override_flag
                0x9d016f30                system_clear_exec_motion_overrides
                0x9d016fa0                system_clear_exec_accessory_overrides
                0x9d017010                system_set_requestSuspendTime
                0x9d017030                system_get_requestSuspendTime
                0x9d017050                system_log_add_event
                0x9d0170b8                system_log_unlock
                0x9d0170d8                system_log_sm_abort_input
                0x9d0170f8                system_log_internal_stepper_enable
                0x9d017118                system_log_internal_stepper_disable
                0x9d017138                system_log_home
                0x9d017158                system_log_limit_x
                0x9d017178                system_log_limit_y
                0x9d017198                system_log_limit_z
                0x9d0171b8                system_log_home_finished
                0x9d0171d8                system_log_spindle_on
                0x9d0171f8                system_log_spindle_off
                0x9d017218                system_log_probe_start
                0x9d017238                system_log_probe_touch
                0x9d017258                system_log_st_reset
                0x9d017278                system_log_sm_plan_reset
                0x9d017298                system_log_st_go_idle
                0x9d0172b8                system_log_st_wake_up
                0x9d0172d8                system_log_sm_g28
                0x9d0172f8                system_log_st_update_plan_block_parameters
                0x9d017318                system_log_EXEC_MOTION_CANCEL
                0x9d017338                system_log_sm_init_log
                0x9d017358                system_log_sm_idle_log
                0x9d017378                system_log_sm_suspend_log
                0x9d017398                system_log_sm_suspend_delay_log
                0x9d0173b8                system_log_sm_sys_state
                0x9d0173d8                system_set_sys_state
                0x9d017404                system_init
                0x9d0174d0                system_log_sm_sys_suspend
                0x9d0174f0                system_set_sys_suspend
                0x9d01751c                do_system

.text           0x9d0182f8     0x2120
 .text          0x9d0182f8     0x124c output\dee.o
                0x9d0182f8                deinit_dee
                0x9d018314                isr_dee_1ms
                0x9d01833c                GetIndexOfEmptyDataElement
                0x9d018430                ErasePage
                0x9d018508                MassErasePage
                0x9d018598                DataEERead
                0x9d0188b8                dee_read_eeprom
                0x9d018938                dee_is_pack_running
                0x9d018940                Dee_CloseCurrentPage
                0x9d0189e0                DataEEWrite
                0x9d018d5c                dee_write_eeprom
                0x9d018db4                PackEE_async
                0x9d01911c                do_dee
                0x9d019190                PackEE_synch
                0x9d0191bc                init_dee
                0x9d0193f4                _NVMOperation
                0x9d0194ec                NVMWriteWord
                0x9d01951c                NVMErasePage
 .text          0x9d019544      0xed4 output\BerkeleyAPI.o
                0x9d019604                init_berkeleyapi
                0x9d01960c                do_berkeleyapi
                0x9d019634                isr_berkeleyapi_1ms
                0x9d019644                BerkeleySocketInit
                0x9d019670                socket
                0x9d019748                bind
                0x9d01983c                listen
                0x9d0199d4                accept
                0x9d019b58                connect
                0x9d019d28                sendto
                0x9d019f5c                send
                0x9d019f7c                recv
                0x9d01a064                recvfrom
                0x9d01a1f0                gethostname
                0x9d01a298                closesocket

.text           0x9d01a418     0x1ba8
 .text          0x9d01a418      0xe98 output\grbl_protocol.o
                0x9d01a418                init_protocol_main_loop
                0x9d01a450                isr_protocol_main_loop_1ms
                0x9d01a458                protocol_set_requestSynchMotion
                0x9d01a464                protocol_get_requestSynchMotion
                0x9d01a46c                protocol_clear_requestSynchMotion
                0x9d01a474                protocol_set_requestDwell
                0x9d01a47c                protocol_update_requestDwell
                0x9d01a4ac                protocol_get_requestDwell
                0x9d01a4e4                getChar_grbl_protocol
                0x9d01a518                putChar_grbl_protocol
                0x9d01a554                do_protocol_main_loop
 .text          0x9d01b2b0      0xd10 output\eep_manager.o
                0x9d01b2b0                deinit_eep_manager
                0x9d01b2b8                isr_eep_manager_1ms
                0x9d01b2c8                eep_manager_WriteAll_Trigger
                0x9d01b2f0                eep_manager_WriteItem_Trigger
                0x9d01b318                eep_manager_IsBusy
                0x9d01b364                eepManagerFindAddr
                0x9d01b3b8                eepManagerReadVarBackup
                0x9d01b550                eepManagerReadVar
                0x9d01b72c                eepManagerValid
                0x9d01b7a4                eepManagerUpdate
                0x9d01b804                eepManagerWriteVar_Asynch
                0x9d01bb60                do_eep_manager
                0x9d01bc98                eepManagerEmpty
                0x9d01bd90                eep_manager_WriteAllDefault
                0x9d01bdac                eepManagerConfigPersistentValue
                0x9d01be2c                eep_manager_ReadAll
                0x9d01bf50                init_eep_manager

.text           0x9d01bfc0      0xb64
 .text          0x9d01bfc0      0xb64 output\planner.o
                0x9d01c264                plan_next_block_index
                0x9d01c27c                plan_reset_buffer
                0x9d01c2b8                plan_reset
                0x9d01c2f4                plan_discard_current_block
                0x9d01c328                plan_get_system_motion_block
                0x9d01c350                plan_get_current_block
                0x9d01c388                plan_get_exec_block_exit_speed_sqr
                0x9d01c3d4                plan_check_full_buffer
                0x9d01c3e8                plan_compute_profile_nominal_speed
                0x9d01c4c8                plan_update_velocity_profile_parameters
                0x9d01c5c4                plan_buffer_line
                0x9d01ca6c                plan_sync_position
                0x9d01ca98                plan_get_block_buffer_available
                0x9d01cac8                plan_get_block_buffer_count
                0x9d01caf4                plan_cycle_reinitialize

.dinit          0x9d01cb24      0xad0
 .dinit         0x9d01cb24      0xad0 data_init

.text           0x9d01d5f4     0x14b4
 .text          0x9d01d5f4      0xa94 output\usb_device_cdc.o
                0x9d01d5f4                _USB_DEVICE_CDC_GlobalInitialize
                0x9d01d614                _USB_DEVICE_CDC_Initialization
                0x9d01d764                _USB_DEVICE_CDC_SerialStateSendIRPCallback
                0x9d01d804                _USB_DEVICE_CDC_ReadIRPCallback
                0x9d01d8a4                _USB_DEVICE_CDC_WriteIRPCallback
                0x9d01d944                _USB_DEVICE_CDC_ControlTransferHandler
                0x9d01da3c                _USB_DEVICE_CDC_EndpointDisable
                0x9d01da9c                _USB_DEVICE_CDC_Deinitialization
                0x9d01db08                USB_DEVICE_CDC_Read
                0x9d01dcbc                USB_DEVICE_CDC_Write
                0x9d01de90                USB_DEVICE_CDC_EventHandlerSet
                0x9d01dec8                USB_DEVICE_CDC_ReadPacketSizeGet
                0x9d01dee0                USB_DEVICE_CDC_WritePacketSizeGet
                0x9d01def8                USB_DEVICE_CDC_SerialStateNotificationSend
 .text          0x9d01e088      0xa20 output\grbl_limits.o
                0x9d01e088                isr_limits_1ms
                0x9d01e098                LIMIT_INT_vect
                0x9d01e0b0                limits_disable
                0x9d01e0bc                limits_enable
                0x9d01e0e4                limits_get_state_non_filtered
                0x9d01e1b4                limits_init
                0x9d01e230                limits_get_state_filtered
                0x9d01e238                limits_set_state_filtered
                0x9d01e240                isLimits_go_homeRunning
                0x9d01e250                do_limits
                0x9d01e9e4                limits_go_home
                0x9d01e9f4                limits_EXEC_CYCLE_STOP_event
                0x9d01ea1c                limits_EXEC_SAFETY_DOOR_event
                0x9d01ea50                limits_soft_check

.text           0x9d01eaa8      0xa20
 .text          0x9d01eaa8      0xa20 output\UDP.o
                0x9d01eaa8                init_udp
                0x9d01eab0                do_udp
                0x9d01eaf8                isr_udp_1ms
                0x9d01eb08                UDPOpenEx
                0x9d01ec34                UDPTask
                0x9d01ed20                UDPIsOpened
                0x9d01ed48                UDPClose
                0x9d01ed80                UDPInit
                0x9d01edd0                UDPSetTxBuffer
                0x9d01ee00                UDPSetRxBuffer
                0x9d01ee30                UDPIsPutReady
                0x9d01eea0                UDPPut
                0x9d01ef0c                UDPPutArray
                0x9d01efb0                UDPPutString
                0x9d01eff8                UDPFlush
                0x9d01f14c                UDPIsGetReady
                0x9d01f1a4                UDPGet
                0x9d01f200                UDPGetArray
                0x9d01f294                UDPDiscard
                0x9d01f2e0                UDPProcess

.rodata         0x9d01f4c8      0x9ac
 .rodata        0x9d01f4c8      0x9ac output\report.o

.text           0x9d01fe74     0x11b4
 .text          0x9d01fe74      0x96c output\motion_control.o
                0x9d01fe74                isArcGeneratingRunning
                0x9d01fe84                isMc_homing_cycleRunning
                0x9d01fe90                mc_line
                0x9d01fef8                do_motion_control
                0x9d020220                mc_arc
                0x9d020680                mc_dwell_ms
                0x9d0206ec                mc_dwell
                0x9d020708                mc_dwell_s
                0x9d020730                mc_homing_cycle
                0x9d020740                mc_stop
 .text          0x9d0207e0      0x848 output\settings.o
                0x9d0207e0                settings_write_coord_data
                0x9d020848                write_global_settings
                0x9d0208ac                settings_restore
                0x9d020a10                settings_read_coord_data
                0x9d020a64                read_global_settings
                0x9d020ac0                settings_store_global_setting
                0x9d020fa0                settings_init
                0x9d020fe0                get_step_pin_mask
                0x9d021004                get_direction_pin_mask

.text           0x9d021028      0xe90
 .text          0x9d021028      0x7b0 output\Helpers.o
                0x9d021028                LFSRRand
                0x9d021064                LFSRSeedRand
                0x9d0210b0                GenerateRandomDWORD
                0x9d0210cc                StringToIPAddress
                0x9d0212b0                uitoa
                0x9d021340                ultoa_mla
                0x9d0213cc                hexatob
                0x9d02143c                btohexa_high
                0x9d021458                btohexa_low
                0x9d021474                stricmppgm2ram
                0x9d021514                swaps
                0x9d02152c                swapl
                0x9d02156c                CalcIPChecksum
                0x9d0215f0                strupr
                0x9d021638                FormatNetBIOSName
                0x9d0216c4                strnchr
                0x9d021700                strncpy_m
 .text          0x9d0217d8      0x6e0 output\nuts_bolts.o
                0x9d0217d8                do_nuts_bolts
                0x9d02189c                isr_nuts_bolts_1ms
                0x9d0218ac                read_float
                0x9d021a9c                hypot_f
                0x9d021b00                convert_delta_vector_to_unit_vector
                0x9d021be4                limit_value_by_axis_maximum
                0x9d021c94                trunc_my
                0x9d021ce0                round_my
                0x9d021d10                lround_my
                0x9d021d38                setDelayRunning
                0x9d021d40                isDelayRunning
                0x9d021d4c                isequal_position_vector
                0x9d021de4                nuts_bolts_tooth_load_rpm_to_feed

.text           0x9d021eb8      0xd30
 .text          0x9d021eb8      0x6a4 output\grbl_eeprom.o
                0x9d021eb8                isr_grbl_eeprom_1ms
                0x9d021ec8                grbl_eeprom_trigger
                0x9d021ed4                grbl_eeprom_trigger_settings
                0x9d021ee0                grbl_NotifyUserFailedRead
                0x9d021f10                grbl_reset_eep_messages
                0x9d021f20                grbl_eeprom_checkIs
                0x9d022018                do_grbl_eeprom
                0x9d022278                grbl_eeprom_storePositionToNoInit
                0x9d0222e4                grbl_eeprom_restorePositionFromNoInit
                0x9d0223ec                init_grbl_eeprom
                0x9d022474                grbl_eeprom_get_eeprom
                0x9d0224e0                grbl_eeprom_set_eeprom
 .text          0x9d02255c      0x68c output\pwm.o
                0x9d02255c                init_pwm
                0x9d022730                do_pwm
                0x9d022738                setPwmFreq
                0x9d022984                getPwmDuty
                0x9d02299c                setPWMRaw
                0x9d022b3c                setPwmDuty

.text           0x9d022be8      0xcc8
 .text          0x9d022be8      0x684 output\print.o
                0x9d022be8                printString
                0x9d022c2c                printPgmString
                0x9d022c70                print_uint8_base10
                0x9d022d48                print_uint8_base2_ndigit
                0x9d022de4                print_uint32_base10
                0x9d022e90                print_uint32_base16
                0x9d022f00                print_uint16_base16
                0x9d022f70                print_uint8_base16
                0x9d022fe0                printInteger
                0x9d023024                printFloat
                0x9d0231d4                printFloat_CoordValue
                0x9d023220                printFloat_RateValue
 .text          0x9d02326c      0x644 output\task.o
                0x9d02326c                isr_task_1ms
                0x9d02327c                clearTaskItem
                0x9d0232bc                init_task
                0x9d0232f8                deinit_task
                0x9d023334                findFreeTaskList
                0x9d02337c                addTask
                0x9d023434                addTriggerTask
                0x9d023458                addSingleShootTimedTask
                0x9d023498                removeTask
                0x9d0234f4                suspendTask
                0x9d023514                resumeTask
                0x9d023538                scheduleTask
                0x9d02355c                changeActivationCycleTask
                0x9d02357c                triggerTask
                0x9d023610                addSingleShootTask
                0x9d02364c                taskHelperActivator
                0x9d023734                do_task
                0x9d023890                setTaskName

.text           0x9d0238b0      0xc5c
 .text          0x9d0238b0      0x638 output\tmr.o
                0x9d0238b0                init_tmr
                0x9d023940                deinit_tmr
                0x9d023988                do_tmr
                0x9d023990                delayms
                0x9d0239c8                add_timer
                0x9d023a8c                remove_timer
                0x9d023b50                read_timer
                0x9d023bd4                write_timer
                0x9d023c50                init_timer
                0x9d023c88                setTimer
                0x9d023ca0                getTimer
                0x9d023cb8                isr_tmr4
                0x9d023cc0                isr_tmr3
                0x9d023cc8                isr_tmr2
                0x9d023cec                isr_tmr1
                0x9d023e08                getGlobalTime
                0x9d023e78                getGlobalTimeUs
 .text          0x9d023ee8      0x624 output\drv_usbhs.o
                0x9d023ee8                DRV_USBHS_Initialize
                0x9d023fb8                DRV_USBHS_Tasks
                0x9d0241c8                DRV_USBHS_Deinitialize
                0x9d024244                DRV_USBHS_Status
                0x9d02427c                DRV_USBHS_Open
                0x9d0242d0                DRV_USBHS_Close
                0x9d0242f8                DRV_USBHS_Tasks_ISR
                0x9d024380                DRV_USBHS_Tasks_ISR_USBDMA
                0x9d024408                DRV_USBHS_ResumeControl
                0x9d024454                DRV_USBHS_HOST_Resume
                0x9d02449c                DRV_USBHS_HOST_Suspend
                0x9d0244e4                DRV_USBHS_ClientEventCallBackSet

.text           0x9d02450c      0xa20
 .text          0x9d02450c      0x550 output\dee_page.o
                0x9d02450c                GetEraseCounter
                0x9d024528                dee_page_update_debug_status
                0x9d02456c                init_dee_page
                0x9d0245a8                do_dee_page
                0x9d0245c4                dee_page_mass_erase_page
                0x9d024628                dee_page_erase_page
                0x9d0246c4                dee_page_read
                0x9d0246e4                dee_page_read_status
                0x9d024704                dee_page_read_address
                0x9d02472c                dee_page_read_data
                0x9d024750                dee_page_read_crc
                0x9d024774                dee_page_write_status
                0x9d0247a4                dee_page_write_address
                0x9d0247e8                dee_page_write_data
                0x9d024828                dee_page_write_crc
                0x9d024868                dee_page_read_element
                0x9d024908                dee_page_write_element
 .text          0x9d024a5c      0x4d0 output\ethernet_grbl_multi.o
                0x9d024a5c                init_serial_grbl_ethernet_multi
                0x9d024aa0                isr_serial_grbl_ethernet_multi_1ms
                0x9d024ad4                ethernet_grbl_multi_loadbufferRx
                0x9d024bf4                isCharInBuffer_grbl_ethernet_multi
                0x9d024c1c                isCharOutBuffer_grbl_ethernet_multi
                0x9d024c44                ethernet_grbl_multi_loadbufferTx
                0x9d024d6c                do_serial_grbl_ethernet_multi
                0x9d024ea8                getChar_grbl_ethernet_multi
                0x9d024edc                putChar_grbl_ethernet_multi

.text.dp32mul   0x9d024f2c      0x4b8
 .text.dp32mul  0x9d024f2c      0x4b8 c:/program files (x86)/microchip/xc32/v2.30/bin/bin/../../lib/gcc/pic32mx/4.8.3/../../../../pic32mx/lib\libm.a(dp32div.o)
                0x9d024f2c                dpdiv
                0x9d024f2c                __divdf3

.text           0x9d0253e4      0x4b0
 .text          0x9d0253e4      0x4b0 output\usb_app.o
                0x9d0253e4                APP_USBDeviceCDCEventHandler
                0x9d025504                APP_USBDeviceEventHandler
                0x9d0255d4                APP_StateReset
                0x9d025610                APP_Initialize
                0x9d025654                APP_Tasks

.text.dreml     0x9d025894      0x470
 .text.dreml    0x9d025894      0x470 c:/program files (x86)/microchip/xc32/v2.30/bin/bin/../../lib/gcc/pic32mx/4.8.3/../../../../pic32mx/lib\libm.a(support.o)
                0x9d025894                dreml

.text           0x9d025d04      0x440
 .text          0x9d025d04      0x440 output\mal.o
                0x9d025d0c                mal_get_reset_reason
                0x9d025d24                mal_reset
                0x9d025d40                mal_reset_reason
                0x9d025eb4                init_mal
                0x9d025fb4                DmaSuspend
                0x9d025fec                DmaResume
                0x9d026024                hexStringToChar
                0x9d0260bc                hexStringToInt

.text.dp32subadd
                0x9d026144      0x430
 .text.dp32subadd
                0x9d026144      0x430 c:/program files (x86)/microchip/xc32/v2.30/bin/bin/../../lib/gcc/pic32mx/4.8.3/../../../../pic32mx/lib\libm.a(dp32subadd.o)
                0x9d026144                dpsub
                0x9d026144                __subdf3
                0x9d02614c                __adddf3
                0x9d02614c                dpadd

.text           0x9d026574      0x7d8
 .text          0x9d026574      0x3ec output\grbl.o
                0x9d026574                init_grbl
                0x9d026718                do_grbl
                0x9d0267b4                isr_grbl_1ms
                0x9d026830                isr_grbl_tmr_stepper_delay
                0x9d02685c                set_grbl_tmr0_trigger
                0x9d026888                set_grbl_tmr0_trigger_Step_Pulse_Delay
                0x9d0268b4                isr_grbl_tmr_stepper
                0x9d0268d0                set_grbl_tmr1_period
                0x9d026908                set_grbl_tmr1_enabled
                0x9d026924                set_grbl_tmr1_disabled
                0x9d02693c                isr_grbl_cn
 .text          0x9d026960      0x3ec output\ARP.o
                0x9d026960                ARPInit
                0x9d026990                ARPIsResolved
                0x9d026a14                SwapARPPacket
                0x9d026b18                ARPSendPkt
                0x9d026b60                ARPResolve
                0x9d026c04                ARPProcess

.text           0x9d026d4c      0x6cc
 .text          0x9d026d4c      0x378 output\dee_page_helper.o
                0x9d026d4c                GetUnexpiredPage
                0x9d026db4                GetActiveCurrentPage
                0x9d026e4c                GetActiveCurrentPageCount
                0x9d026eb4                GetNextPage
                0x9d026eec                GetPreviousPage
                0x9d026f14                GetPageStatus
                0x9d026f74                SetPageStatus
 .text          0x9d0270c4      0x354 output\stepper_enable.o
                0x9d0270c4                isr_stepper_enable_1ms
                0x9d0270d4                get_stepper_enable_emergency_stop_active
                0x9d0270dc                stepper_enable_emergency_stop
                0x9d0270f8                stepper_enable_enable
                0x9d027150                stepper_enable_emergency_stop_cleared
                0x9d0271ac                stepper_enable_disable
                0x9d0271f0                init_stepper_enable
                0x9d027230                do_stepper_enable
                0x9d0273fc                exceptions_user_callout_grbl

.text.libm      0x9d027418      0x350
 .text.libm     0x9d027418      0x350 c:/program files (x86)/microchip/xc32/v2.30/bin/bin/../../lib/gcc/pic32mx/4.8.3/../../../../pic32mx/lib\libm.a(fpexatan.o)
                0x9d027418                fpexatan

.text.dp32mul   0x9d027768      0x32c
 .text.dp32mul  0x9d027768      0x32c c:/program files (x86)/microchip/xc32/v2.30/bin/bin/../../lib/gcc/pic32mx/4.8.3/../../../../pic32mx/lib\libm.a(dp32mul.o)
                0x9d027768                __muldf3
                0x9d027768                dpmul

.text           0x9d027a94      0x600
 .text          0x9d027a94      0x30c output\ringBuffer.o
                0x9d027a94                ringBuffer_initBuffer
                0x9d027b0c                ringBuffer_getFillness
                0x9d027b40                ringBuffer_getEmptyness
                0x9d027b7c                ringBuffer_addItem
                0x9d027bcc                ringBuffer_getItem
                0x9d027c4c                ringBuffer_readItem
                0x9d027cd8                ringBuffer_addBuffer
                0x9d027d3c                ringBuffer_getBuffer
 .text          0x9d027da0      0x2f4 output\eeprom.o
                0x9d027da0                init_eeprom
                0x9d027da8                isr_eeprom_1ms
                0x9d027db8                deinit_eeprom
                0x9d027dc0                is_eeprom_write_protected
                0x9d027de0                write_eeprom_char
                0x9d027e84                do_eeprom
                0x9d027efc                read_eeprom_char
                0x9d027f30                write_eeprom_float
                0x9d027f88                read_eeprom_float
                0x9d027fe4                write_eeprom_int
                0x9d02803c                read_eeprom_int

.text           0x9d028094      0x5d0
 .text          0x9d028094      0x2f0 output\grbl_probe.o
                0x9d028094                isr_probe_1ms
                0x9d0280a4                probe_configure_invert_mask
                0x9d0280d4                probe_init
                0x9d028108                probe_get_state
                0x9d028120                do_probe
                0x9d028278                probe_state_monitor
                0x9d0282d8                isProbing_cycleRunning
                0x9d0282e8                mc_probe_cycle
 .text          0x9d028384      0x2e0 output\noinitram.o
                0x9d028428                noinitram_IsValid
                0x9d0284d4                noinitram_getByte
                0x9d028548                noinitram_getByteArray
                0x9d0285e8                noinitram_setByte
                0x9d028620                noinitram_setByteArray

.text           0x9d028664      0x580
 .text          0x9d028664      0x2c4 output\spindle_control.o
                0x9d0287b8                do_spindle
                0x9d0287c0                spindle_get_state
                0x9d028810                spindle_set_state
                0x9d0288c8                spindle_init
 .text          0x9d028928      0x2bc output\Announce.o
                0x9d028928                AnnounceIP
                0x9d028a2c                DiscoveryTask

.text           0x9d028be4      0x294
 .text          0x9d028be4      0x294 output\system_control.o
                0x9d028be4                init_system_control
                0x9d028c04                isr_system_control_1ms
                0x9d028c14                CONTROL_INT_vect
                0x9d028c24                system_control_get_state_ABORT
                0x9d028c60                do_system_control
                0x9d028e30                system_control_get_state_FEED_HOLD
                0x9d028e48                system_control_get_state_CYCLE_START
                0x9d028e60                system_control_get_state_SAFETY_DOOR

.text.fpsubadd  0x9d028e78      0x278
 .text.fpsubadd
                0x9d028e78      0x278 c:/program files (x86)/microchip/xc32/v2.30/bin/bin/../../lib/gcc/pic32mx/4.8.3/../../../../pic32mx/lib\libm.a(fp32subadd.o)
                0x9d028e78                __subsf3
                0x9d028e78                fpsub
                0x9d028e80                __addsf3
                0x9d028e80                fpadd

.text.libm      0x9d0290f0      0x248
 .text.libm     0x9d0290f0      0x248 c:/program files (x86)/microchip/xc32/v2.30/bin/bin/../../lib/gcc/pic32mx/4.8.3/../../../../pic32mx/lib\libm.a(fpatan2.o)
                0x9d0290f0                __mchp_atan2f
                0x9d0290f0                fpatan2

.text.fp32div   0x9d029338      0x230
 .text.fp32div  0x9d029338      0x230 c:/program files (x86)/microchip/xc32/v2.30/bin/bin/../../lib/gcc/pic32mx/4.8.3/../../../../pic32mx/lib\libm.a(fp32div.o)
                0x9d029338                fpdiv
                0x9d029338                __divsf3

.text           0x9d029568      0x218
 .text          0x9d029568      0x218 output\main.o
                0x9d029598                main
                0x9d0296dc                isr_main_1ms
                0x9d029764                isr_main_100us

.text           0x9d007ef0      0x20c
 .text          0x9d007ef0      0x20c output\IP.o
                0x9d007f34                IPGetHeader
                0x9d008010                IPPutHeader
                0x9d0080d8                IPSetRxBuffer

.text           0x9d029780      0x400
 .text          0x9d029780      0x204 output\ethernet.o
                0x9d029780                init_ethernet
                0x9d029898                do_ethernet
                0x9d0298dc                isr_ethernet_1ms
                0x9d029910                ethernet_set_mac_address
 .text          0x9d029984      0x1fc output\StackTsk.o
                0x9d029984                StackInit
                0x9d0299e8                StackTask
                0x9d029b34                StackApplications

.text.atan2f    0x9d029b80      0x1e0
 .text.atan2f   0x9d029b80      0x1e0 c:/program files (x86)/microchip/xc32/v2.30/bin/bin/../../lib/gcc/pic32mx/4.8.3/../../../../pic32mx/lib\libm.a(w_atan2f.o)
                0x9d029b80                atan2f

.rodata         0x9d029d60      0x1d4
 .rodata        0x9d029d60      0x1d4 output\system_init.o
                0x9d029d60                usbDevInitData
                0x9d029d94                usbMasterDescriptor
                0x9d029dc0                stringDescriptors
                0x9d029dcc                sd002
                0x9d029dfc                sd001
                0x9d029e30                sd000
                0x9d029e34                fullSpeedConfigDescSet
                0x9d029e38                fullSpeedConfigurationDescriptor
                0x9d029e7c                highSpeedConfigDescSet
                0x9d029e80                highSpeedConfigurationDescriptor
                0x9d029ec4                deviceQualifierDescriptor1
                0x9d029ed0                deviceDescriptor
                0x9d029ee4                funcRegistrationTable
                0x9d029ef8                cdcInit0
                0x9d029f04                drvUSBInit

.text           0x9d029f34      0x1c4
 .text          0x9d029f34      0x1c4 output\Reboot.o
                0x9d029f34                RebootTask

.text.fp32mul   0x9d02a0f8      0x1bc
 .text.fp32mul  0x9d02a0f8      0x1bc c:/program files (x86)/microchip/xc32/v2.30/bin/bin/../../lib/gcc/pic32mx/4.8.3/../../../../pic32mx/lib\libm.a(fp32mul.o)
                0x9d02a0f8                __mulsf3
                0x9d02a0f8                fpmul

.text.libm      0x9d02a2b4      0x1ac
 .text.libm     0x9d02a2b4      0x1ac c:/program files (x86)/microchip/xc32/v2.30/bin/bin/../../lib/gcc/pic32mx/4.8.3/../../../../pic32mx/lib\libm.a(fpsqrt32.o)
                0x9d02a2b4                __mchp_sqrtf
                0x9d02a2b4                fpsqrt

.text           0x9d02a460      0x328
 .text          0x9d02a460      0x198 output\grbl_toolchange.o
                0x9d02a460                init_grbl_toolchange
                0x9d02a47c                do_grbl_toolchange
                0x9d02a5b0                isr_grbl_toolchange_1ms
                0x9d02a5c0                setToolChangeRunning
                0x9d02a5e8                updateToolChangeRunning
                0x9d02a5f0                isToolChangeRunning
 .text          0x9d02a5f8      0x190 output\eep_manager_crc.o
                0x9d02a5f8                calculate_eep_manager_crc
                0x9d02a640                calculate_eep_manager_xor
                0x9d02a67c                calculate_eep_manager_sum
                0x9d02a6bc                calculate_eep_manager_crc32
                0x9d02a72c                calculate_eep_manager_crc32_special

.text           0x9d02a788      0x2ec
 .text          0x9d02a788      0x17c output\grbl_running.o
                0x9d02a788                init_grbl_running
                0x9d02a790                do_grbl_running
                0x9d02a8d8                isr_grbl_running_1ms
 .text          0x9d02a904      0x170 output\system_exec.o
                0x9d02a904                system_set_exec_state_flag
                0x9d02a980                system_clear_exec_state_flag
                0x9d02aa00                system_get_exec_state_flag

.text           0x9d02aa74      0x2dc
 .text          0x9d02aa74      0x170 output\usb_device_cdc_acm.o
                0x9d02aa74                _USB_DEVICE_CDC_ACMSetUpPacketHandler
 .text          0x9d02abe4      0x16c output\exceptions.o
                0x9d02abe4                _general_exception_handler
                0x9d02ad38                do_exception_examples
                0x9d02ad40                exceptions_clearException
                0x9d02ad48                exceptions_getException

.text.libm      0x9d02ad50      0x16c
 .text.libm     0x9d02ad50      0x16c c:/program files (x86)/microchip/xc32/v2.30/bin/bin/../../lib/gcc/pic32mx/4.8.3/../../../../pic32mx/lib\libm.a(dpldexp.o)
                0x9d02ad50                __mchp_ldexp
                0x9d02ad50                ldexp
                0x9d02ad50                dpldexp

.text           0x9d02aebc      0x2d0
 .text          0x9d02aebc      0x168 c:/program files (x86)/microchip/xc32/v2.30/bin/bin/../../lib/gcc/pic32mx/4.8.3/../../../../pic32mx/lib\libpic32.a(memcpy.o)
                0x9d02aebc                memcpy
 .text          0x9d02b024      0x168 c:/program files (x86)/microchip/xc32/v2.30/bin/bin/../../lib/gcc/pic32mx/4.8.3/../../../../pic32mx/lib\libpic32.a(strlen.o)
                0x9d02b024                strlen

.text           0x9d02b18c      0x2a4
 .text          0x9d02b18c      0x154 output\system_alarm.o
                0x9d02b18c                system_set_exec_alarm
                0x9d02b1fc                system_get_exec_alarm
                0x9d02b270                system_clear_exec_alarm
 .text          0x9d02b2e0      0x150 output\grbl_multi.o
                0x9d02b330                init_serial_grbl
                0x9d02b354                do_serial_grbl
                0x9d02b378                isr_serial_grbl_1ms
                0x9d02b39c                getChar_grbl
                0x9d02b3e4                putChar_grbl

.text           0x9d02b430      0x130
 .text          0x9d02b430      0x130 output\usb_grbl_multi.o
                0x9d02b430                init_serial_grbl_usb_multi
                0x9d02b474                do_serial_grbl_usb_multi
                0x9d02b47c                isr_serial_grbl_usb_multi_1ms
                0x9d02b484                isCharInBuffer_grbl_usb_multi
                0x9d02b4ac                isCharOutBuffer_grbl_usb_multi
                0x9d02b4d4                isCharOutBuffer_usb
                0x9d02b4f0                getChar_grbl_usb_multi
                0x9d02b524                putChar_grbl_usb_multi

.rodata         0x9d02b560      0x12c
 .rodata        0x9d02b560      0x12c output\c_eep_manager.o
                0x9d02b560                default_grbl_Tool_Length_2
                0x9d02b564                default_grbl_Tool_Length_1
                0x9d02b568                default_SerializedMACAddress
                0x9d02b570                default_grbl_running_spindle_running_minutes
                0x9d02b574                default_grbl_running_startup_cnt
                0x9d02b578                default_grbl_running_running_hours
                0x9d02b57c                default_grbl_running_running_minutes
                0x9d02b580                default_coord_offset_eep
                0x9d02b58c                default_coord_system_eep
                0x9d02b598                default_sys_position
                0x9d02b5a4                default_eep_coord_teached
                0x9d02b5b0                default_eep_coord_data
                0x9d02b628                default_eep_settings
                0x9d02b688                default_eep_settings_version

.text.dpcmp     0x9d02b68c      0x12c
 .text.dpcmp    0x9d02b68c      0x12c c:/program files (x86)/microchip/xc32/v2.30/bin/bin/../../lib/gcc/pic32mx/4.8.3/../../../../pic32mx/lib\libm.a(dpcmp.o)
                0x9d02b68c                __ltdf2
                0x9d02b68c                __gedf2
                0x9d02b68c                dpcmp
                0x9d02b68c                __ledf2
                0x9d02b68c                __nedf2
                0x9d02b68c                __eqdf2
                0x9d02b68c                __gtdf2

.text.logbl     0x9d02b7b8      0x124
 .text.logbl    0x9d02b7b8      0x124 c:/program files (x86)/microchip/xc32/v2.30/bin/bin/../../lib/gcc/pic32mx/4.8.3/../../../../pic32mx/lib\libm.a(support.o)
                0x9d02b7b8                logbl

.text           0x9d02b8dc      0x120
 .text          0x9d02b8dc      0x120 c:/program files (x86)/microchip/xc32/v2.30/bin/bin/../../lib/gcc/pic32mx/4.8.3/../../../../pic32mx/lib\libpic32.a(strcmp.o)
                0x9d02b8dc                strcmp

.text.libm      0x9d02b9fc      0x234
 .text.libm     0x9d02b9fc      0x11c c:/program files (x86)/microchip/xc32/v2.30/bin/bin/../../lib/gcc/pic32mx/4.8.3/../../../../pic32mx/lib\libm.a(fpsin32.o)
                0x9d02b9fc                sinf
                0x9d02b9fc                fpsin
 .text.libm     0x9d02bb18      0x118 c:/program files (x86)/microchip/xc32/v2.30/bin/bin/../../lib/gcc/pic32mx/4.8.3/../../../../pic32mx/lib\libm.a(fpcos32.o)
                0x9d02bb18                fpcos
                0x9d02bb18                cosf

.text.libm      0x9d02bc30      0x10c
 .text.libm     0x9d02bc30      0x10c c:/program files (x86)/microchip/xc32/v2.30/bin/bin/../../lib/gcc/pic32mx/4.8.3/../../../../pic32mx/lib\libm.a(fpreduct32.o)
                0x9d02bc30                fpreduct

.rodata         0x9d02bd3c      0x100
 .rodata        0x9d02bd3c      0x100 output\eep_manager_crc.o
                0x9d02bd3c                crcTableEepManager

.text.strncpy   0x9d02be3c      0x100
 .text.strncpy  0x9d02be3c      0x100 c:/program files (x86)/microchip/xc32/v2.30/bin/bin/../../lib/gcc/pic32mx/4.8.3/../../../../pic32mx/lib\liblega-c.a(strncpy.o)
                0x9d02be3c                strncpy

.text.dptofp    0x9d02bf3c      0x100
 .text.dptofp   0x9d02bf3c      0x100 c:/program files (x86)/microchip/xc32/v2.30/bin/bin/../../lib/gcc/pic32mx/4.8.3/../../../../pic32mx/lib\libm.a(dptofp.o)
                0x9d02bf3c                __truncdfsf2
                0x9d02bf3c                dptofp

.text.libm.fpexsqrt
                0x9d02c03c       0xfc
 .text.libm.fpexsqrt
                0x9d02c03c       0xfc c:/program files (x86)/microchip/xc32/v2.30/bin/bin/../../lib/gcc/pic32mx/4.8.3/../../../../pic32mx/lib\libm.a(fpexsqrt32.o)
                0x9d02c03c                fpexsqrt

.text           0x9d02c138       0xf4
 .text          0x9d02c138       0xf4 output\ICMP.o
                0x9d02c138                ICMPProcess

.text           0x9d001010       0xe8
 .text          0x9d001010       0xe8 output\sys_int_pic32.o
                0x9d001010                SYS_INT_Initialize
                0x9d001018                SYS_INT_StatusGetAndDisable
                0x9d001034                SYS_INT_StatusRestore
                0x9d001050                SYS_INT_Disable
                0x9d001070                SYS_INT_SourceDisable
                0x9d0010c4                SYS_INT_ExternalInterruptTriggerSet

.text           0x9d02c22c       0xe0
 .text          0x9d02c22c       0xe0 output\grbl_bootloader.o
                0x9d02c22c                init_grbl_bootloader
                0x9d02c248                do_grbl_bootloader
                0x9d02c2f0                isr_grbl_bootloader_1ms
                0x9d02c300                grbl_bootloader_trigger

.text.strncmp   0x9d02c30c       0xe0
 .text.strncmp  0x9d02c30c       0xe0 c:/program files (x86)/microchip/xc32/v2.30/bin/bin/../../lib/gcc/pic32mx/4.8.3/../../../../pic32mx/lib\liblega-c.a(strncmp.o)
                0x9d02c30c                strncmp

.text.general_exception
                0x9d02c3ec       0xdc
 .text.general_exception
                0x9d02c3ec       0xdc c:/program files (x86)/microchip/xc32/v2.30/bin/bin/../../lib/gcc/pic32mx/4.8.3/../../../../pic32mx/lib\libpic32.a(general-exception.o)
                0x9d02c3ec                _general_exception_context

.text._cache_err_exception_context
                0x9d02c4c8       0xd8
 .text._cache_err_exception_context
                0x9d02c4c8       0xd8 c:/program files (x86)/microchip/xc32/v2.30/bin/bin/../../lib/gcc/pic32mx/4.8.3/../../../../pic32mx/lib\libpic32.a(cache-err-exception.o)
                0x9d02c4c8                _cache_err_exception_context

.text.simple_tlb_refill_context
                0x9d02c5a0       0xd8
 .text.simple_tlb_refill_context
                0x9d02c5a0       0xd8 c:/program files (x86)/microchip/xc32/v2.30/bin/bin/../../lib/gcc/pic32mx/4.8.3/../../../../pic32mx/lib\libpic32.a(simple-tlb-refill-exception.o)
                0x9d02c5a0                _simple_tlb_refill_exception_context

.tlb.__pic32_tlb_init_ebi_sqi
                0x9d02c678       0xbc
 .tlb.__pic32_tlb_init_ebi_sqi
                0x9d02c678       0xbc c:/program files (x86)/microchip/xc32/v2.30/bin/bin/../../lib/gcc/pic32mx/4.8.3/../../../../pic32mx/lib\libpic32.a(pic32_init_tlb_ebi_sqi.o)
                0x9d02c678                __pic32_tlb_init_ebi_sqi

.text           0x9d02c734       0xb8
 .text          0x9d02c734       0xb8 output\jog.o
                0x9d02c734                jog_execute

.text.libm      0x9d02c7ec       0xb4
 .text.libm     0x9d02c7ec       0xb4 c:/program files (x86)/microchip/xc32/v2.30/bin/bin/../../lib/gcc/pic32mx/4.8.3/../../../../pic32mx/lib\libm.a(fpfloo32.o)
                0x9d02c7ec                floorf
                0x9d02c7ec                fpfloor

.text           0x9d02c8a0       0xb0
 .text          0x9d02c8a0       0xb0 output\stackmeasure.o
                0x9d02c8a0                init_stackmeasure
                0x9d02c8e0                do_stackmeasure
                0x9d02c938                getStackFillnessMax
                0x9d02c940                getStackSize

.text.libm      0x9d02c950       0xb0
 .text.libm     0x9d02c950       0xb0 c:/program files (x86)/microchip/xc32/v2.30/bin/bin/../../lib/gcc/pic32mx/4.8.3/../../../../pic32mx/lib\libm.a(fpceil32.o)
                0x9d02c950                ceilf
                0x9d02c950                fpceil

.text.fptodp    0x9d02ca00       0xac
 .text.fptodp   0x9d02ca00       0xac c:/program files (x86)/microchip/xc32/v2.30/bin/bin/../../lib/gcc/pic32mx/4.8.3/../../../../pic32mx/lib\libm.a(fptodp.o)
                0x9d02ca00                fptodp
                0x9d02ca00                __extendsfdf2

.text           0x9d02caac      0x14c
 .text          0x9d02caac       0xa8 c:/program files (x86)/microchip/xc32/v2.30/bin/bin/../../lib/gcc/pic32mx/4.8.3/../../../../pic32mx/lib\libpic32.a(memset.o)
                0x9d02caac                memset
 .text          0x9d02cb54       0xa4 c:/program files (x86)/microchip/xc32/v2.30/bin/bin/../../lib/gcc/pic32mx/4.8.3\libgcc.a(_fixunssfdi.o)
                0x9d02cb54                __fixunssfdi

.text.fpcmp     0x9d02cbf8       0x9c
 .text.fpcmp    0x9d02cbf8       0x9c c:/program files (x86)/microchip/xc32/v2.30/bin/bin/../../lib/gcc/pic32mx/4.8.3/../../../../pic32mx/lib\libm.a(fpcmp.o)
                0x9d02cbf8                __eqsf2
                0x9d02cbf8                __lesf2
                0x9d02cbf8                __gtsf2
                0x9d02cbf8                __nesf2
                0x9d02cbf8                fpcmp
                0x9d02cbf8                __gesf2
                0x9d02cbf8                __ltsf2

.text           0x9d02cc94      0x130
 .text          0x9d02cc94       0x98 output\Delay.o
                0x9d02cc94                Delay10us
                0x9d02ccdc                DelayMs
 .text          0x9d02cd2c       0x98 c:/program files (x86)/microchip/xc32/v2.30/bin/bin/../../lib/gcc/pic32mx/4.8.3/../../../../pic32mx/lib\libpic32.a(memcmp.o)
                0x9d02cd2c                memcmp

.text           0x9d02cdc4      0x124
 .text          0x9d02cdc4       0x94 output\system_init.o
                0x9d02cdc4                SYS_Initialize
 .text          0x9d02ce58       0x90 c:/program files (x86)/microchip/xc32/v2.30/bin/bin/../../lib/gcc/pic32mx/4.8.3\libgcc.a(_floatundisf.o)
                0x9d02ce58                __floatundisf

.text.dptoul    0x9d02cee8       0x8c
 .text.dptoul   0x9d02cee8       0x8c c:/program files (x86)/microchip/xc32/v2.30/bin/bin/../../lib/gcc/pic32mx/4.8.3/../../../../pic32mx/lib\libm.a(dptoul.o)
                0x9d02cee8                dptoul
                0x9d02cee8                __fixunsdfsi

.text           0x9d02cf74      0x10c
 .text          0x9d02cf74       0x88 output\usb.o
                0x9d02cf74                init_usb
                0x9d02cf98                do_usb
                0x9d02cfb4                isr_usb
                0x9d02cfd4                isr_usb_dma
                0x9d02cff4                isr_usb_1ms
 .text          0x9d02cffc       0x84 output\bootloader_interface.o
                0x9d02cffc                bootloader_interface_clearRequest
                0x9d02d018                bootloader_interface_setRequest
                0x9d02d040                bootloader_get_bootloader_was_reset_called
                0x9d02d054                bootloader_reset

.text           0x9d02d080       0x84
 .text          0x9d02d080       0x84 c:/program files (x86)/microchip/xc32/v2.30/bin/bin/../../lib/gcc/pic32mx/4.8.3/../../../../pic32mx/lib\libpic32.a(pic32_data_init.o)
                0x9d02d080                __pic32_data_init

.text.fptoli    0x9d02d104       0x80
 .text.fptoli   0x9d02d104       0x80 c:/program files (x86)/microchip/xc32/v2.30/bin/bin/../../lib/gcc/pic32mx/4.8.3/../../../../pic32mx/lib\libm.a(fptoli.o)
                0x9d02d104                fptoli
                0x9d02d104                fptosi
                0x9d02d104                __fixsfsi

.text           0x9d02d184       0x7c
 .text          0x9d02d184       0x7c output\bsp_sys_init.o
                0x9d02d184                BSP_Initialize
                0x9d02d1ac                BSP_SwitchStateGet
                0x9d02d1c8                BSP_USBVBUSPowerEnable
                0x9d02d1f8                BSP_USBVBUSSwitchOverCurrentDetect

.text.fptoul    0x9d02d200       0x7c
 .text.fptoul   0x9d02d200       0x7c c:/program files (x86)/microchip/xc32/v2.30/bin/bin/../../lib/gcc/pic32mx/4.8.3/../../../../pic32mx/lib\libm.a(fptoul.o)
                0x9d02d200                fptoul
                0x9d02d200                fptoui
                0x9d02d200                __fixunssfsi

.text.litodp    0x9d02d27c       0x78
 .text.litodp   0x9d02d27c       0x78 c:/program files (x86)/microchip/xc32/v2.30/bin/bin/../../lib/gcc/pic32mx/4.8.3/../../../../pic32mx/lib\libm.a(litodp.o)
                0x9d02d27c                __floatsidf
                0x9d02d27c                litodp

.text           0x9d001110       0x70
 .text          0x9d001110       0x70 output\app.o
                0x9d001110                init_app
                0x9d001118                do_app
                0x9d001140                isr_app_1ms
                0x9d00114c                isr_app_100us
                0x9d001154                isr_app_custom
                0x9d00115c                backToSleep
                0x9d001164                eepManager_NotifyUserFailedRead

.text           0x9d001190       0x70
 .text          0x9d001190       0x70 output\stackmeasure_helper.o
                0x9d001190                fill_stack
                0x9d0011bc                stack_usage

.text           0x9d02d2f4       0x6c
 .text          0x9d02d2f4       0x6c output\ad.o
                0x9d02d2f4                init_ad
                0x9d02d314                do_ad
                0x9d02d328                isr_ad_1ms
                0x9d02d354                getAd

.text.sqrtf     0x9d02d360       0x68
 .text.sqrtf    0x9d02d360       0x68 c:/program files (x86)/microchip/xc32/v2.30/bin/bin/../../lib/gcc/pic32mx/4.8.3/../../../../pic32mx/lib\libm.a(w_sqrtf.o)
                0x9d02d360                sqrtf

.text.sitofp    0x9d02d3c8       0x60
 .text.sitofp   0x9d02d3c8       0x60 c:/program files (x86)/microchip/xc32/v2.30/bin/bin/../../lib/gcc/pic32mx/4.8.3/../../../../pic32mx/lib\libm.a(sitofp.o)
                0x9d02d3c8                sitofp
                0x9d02d3c8                litofp
                0x9d02d3c8                __floatsisf

.text.copysign  0x9d02d428       0x60
 .text.copysign
                0x9d02d428       0x60 c:/program files (x86)/microchip/xc32/v2.30/bin/bin/../../lib/gcc/pic32mx/4.8.3/../../../../pic32mx/lib\libm.a(support.o)
                0x9d02d428                copysign

.text.copysignf
                0x9d02d488       0x60
 .text.copysignf
                0x9d02d488       0x60 c:/program files (x86)/microchip/xc32/v2.30/bin/bin/../../lib/gcc/pic32mx/4.8.3/../../../../pic32mx/lib\libm.a(support.o)
                0x9d02d488                copysignf

.text.main_entry
                0x9d02d4e8       0x54
 .text.main_entry
                0x9d02d4e8       0x54 C:\Users\kyrk\AppData\Local\Temp\ccW9mKTz.o
                0x9d02d51c                __crt0_exit

.text           0x9d02d53c       0x4c
 .text          0x9d02d53c       0x4c c:/program files (x86)/microchip/xc32/v2.30/bin/bin/../../lib/gcc/pic32mx/4.8.3\libgcc.a(floatunsisf.o)
                0x9d02d53c                __floatunsisf

.text._bootstrap_exception_handler
                0x9d02d588       0x48
 .text._bootstrap_exception_handler
                0x9d02d588       0x48 c:/program files (x86)/microchip/xc32/v2.30/bin/bin/../../lib/gcc/pic32mx/4.8.3/../../../../pic32mx/lib\libpic32.a(default-bootstrap-exception-handler.o)
                0x9d02d588                _bootstrap_exception_handler

.text._cache_err_exception_handler
                0x9d02d5d0       0x48
 .text._cache_err_exception_handler
                0x9d02d5d0       0x48 c:/program files (x86)/microchip/xc32/v2.30/bin/bin/../../lib/gcc/pic32mx/4.8.3/../../../../pic32mx/lib\libpic32.a(default-cache-err-exception-handler.o)
                0x9d02d5d0                _cache_err_exception_handler

.text._simple_tlb_refill_exception_handler
                0x9d02d618       0x48
 .text._simple_tlb_refill_exception_handler
                0x9d02d618       0x48 c:/program files (x86)/microchip/xc32/v2.30/bin/bin/../../lib/gcc/pic32mx/4.8.3/../../../../pic32mx/lib\libpic32.a(default-simple-tlb-refill-exception-handler.o)
                0x9d02d618                _simple_tlb_refill_exception_handler

.text           0x9d02d660       0x88
 .text          0x9d02d660       0x44 c:/program files (x86)/microchip/xc32/v2.30/bin/bin/../../lib/gcc/pic32mx/4.8.3/../../../../pic32mx/lib\pic32_software_reset.o
                0x9d02d660                __pic32_software_reset
 .text          0x9d02d6a4       0x44 c:/program files (x86)/microchip/xc32/v2.30/bin/bin/../../lib/gcc/pic32mx/4.8.3\libgcc.a(floatunsidf.o)
                0x9d02d6a4                __floatunsidf

.rodata         0x9d02d6e8       0x3c
 .rodata        0x9d02d6e8       0x3c output\grbl_protocol.o

.text           0x9d02d724       0x3c
 .text          0x9d02d724       0x3c output\system_tasks.o
                0x9d02d724                SYS_Tasks

.rodata         0x9d02d760       0x38
 .rodata        0x9d02d760       0x38 output\drv_usbhs_device.o

.text.copysignl
                0x9d02d798       0x34
 .text.copysignl
                0x9d02d798       0x34 c:/program files (x86)/microchip/xc32/v2.30/bin/bin/../../lib/gcc/pic32mx/4.8.3/../../../../pic32mx/lib\libm.a(support.o)
                0x9d02d798                copysignl

.text.logb      0x9d02d7cc       0x34
 .text.logb     0x9d02d7cc       0x34 c:/program files (x86)/microchip/xc32/v2.30/bin/bin/../../lib/gcc/pic32mx/4.8.3/../../../../pic32mx/lib\libm.a(support.o)
                0x9d02d7cc                logb

.text.logbf     0x9d02d800       0x34
 .text.logbf    0x9d02d800       0x34 c:/program files (x86)/microchip/xc32/v2.30/bin/bin/../../lib/gcc/pic32mx/4.8.3/../../../../pic32mx/lib\libm.a(support.o)
                0x9d02d800                logbf

.text.finite    0x9d02d834       0x34
 .text.finite   0x9d02d834       0x34 c:/program files (x86)/microchip/xc32/v2.30/bin/bin/../../lib/gcc/pic32mx/4.8.3/../../../../pic32mx/lib\libm.a(support.o)
                0x9d02d834                finite

.text.finitef   0x9d02d868       0x34
 .text.finitef  0x9d02d868       0x34 c:/program files (x86)/microchip/xc32/v2.30/bin/bin/../../lib/gcc/pic32mx/4.8.3/../../../../pic32mx/lib\libm.a(support.o)
                0x9d02d868                finitef

.text           0x9d02d89c       0x30
 .text          0x9d02d89c       0x30 output\coolant_control.o
                0x9d02d89c                coolant_init
                0x9d02d8a4                coolant_get_state
                0x9d02d8ac                coolant_stop
                0x9d02d8b4                coolant_set_state
                0x9d02d8c0                coolant_sync

.rodata         0x9d02d8cc       0x58
 .rodata        0x9d02d8cc       0x30 output\settings.o
 .rodata        0x9d02d8fc       0x28 output\motion_control.o

.rodata         0x9d02d924       0x28
 .rodata        0x9d02d924       0x28 output\pwm.o

.rodata         0x9d02d950       0x28
 .rodata        0x9d02d950       0x28 c:/program files (x86)/microchip/xc32/v2.30/bin/bin/../../lib/gcc/pic32mx/4.8.3/../../../../pic32mx/lib\libm.a(w_atan2f.o)

.text.drem      0x9d02d978       0x28
 .text.drem     0x9d02d978       0x28 c:/program files (x86)/microchip/xc32/v2.30/bin/bin/../../lib/gcc/pic32mx/4.8.3/../../../../pic32mx/lib\libm.a(support.o)
                0x9d02d978                drem

.text.dremf     0x9d02d9a0       0x28
 .text.dremf    0x9d02d9a0       0x28 c:/program files (x86)/microchip/xc32/v2.30/bin/bin/../../lib/gcc/pic32mx/4.8.3/../../../../pic32mx/lib\libm.a(support.o)
                0x9d02d9a0                dremf

.rodata         0x9d02d9c8       0x40
 .rodata        0x9d02d9c8       0x20 output\nuts_bolts.o
 .rodata        0x9d02d9e8       0x20 output\TCP.o
                0x9d02d9e8                TCPSocketInitializer

.rodata         0x9d02da08       0x3c
 .rodata        0x9d02da08       0x20 c:/program files (x86)/microchip/xc32/v2.30/bin/bin/../../lib/gcc/pic32mx/4.8.3/../../../../pic32mx/lib\libm.a(support.o)
 .rodata        0x9d02da28       0x1c output\Announce.o

.text.finitel   0x9d02da44       0x1c
 .text.finitel  0x9d02da44       0x1c c:/program files (x86)/microchip/xc32/v2.30/bin/bin/../../lib/gcc/pic32mx/4.8.3/../../../../pic32mx/lib\libm.a(support.o)
                0x9d02da44                finitel

.rodata         0x9d02da60       0x30
 .rodata        0x9d02da60       0x18 output\planner.o
 .rodata        0x9d02da78       0x18 output\grbl_eeprom.o

.text           0x9d02da90       0x18
 .text          0x9d02da90       0x18 c:/program files (x86)/microchip/xc32/v2.30/bin/bin/../../lib/gcc/pic32mx/4.8.3/../../../../pic32mx/lib\libpic32.a(default-nmi-handler.o)
                0x9d02da90                _nmi_handler

.rodata         0x9d00814c       0x14
 .rodata        0x9d00814c       0x14 output\gcode.o

.rodata         0x9d00812c       0x14
 .rodata        0x9d00812c       0x14 output\stepper.o

.rodata         0x9d00810c       0x14
 .rodata        0x9d00810c       0x14 output\usb_device_cdc.o
                0x9d00810c                cdcFunctionDriver

.rodata         0x9d02daa8       0x10
 .rodata        0x9d02daa8       0x10 output\print.o

.bev_handler    0x9d02dab8       0x10
 .bev_handler   0x9d02dab8       0x10 C:\Users\kyrk\AppData\Local\Temp\ccW9mKTz.o

.rodata         0x9d02dac8       0x1c
 .rodata        0x9d02dac8       0x10 c:/program files (x86)/microchip/xc32/v2.30/bin/bin/../../lib/gcc/pic32mx/4.8.3\libgcc.a(_fixunssfdi.o)
 .rodata        0x9d02dad8        0xc output\spindle_control.o

.rodata         0x9d02dae4        0xc
 .rodata        0x9d02dae4        0xc output\ethernet.o

.rodata         0x9d008178        0x8
 .rodata        0x9d008178        0x8 output\grbl_limits.o

.rodata         0x9d0010f8        0x8
 .rodata        0x9d0010f8        0x8 c:/program files (x86)/microchip/xc32/v2.30/bin/bin/../../lib/gcc/pic32mx/4.8.3\libgcc.a(_floatundisf.o)

.rodata         0x9d02daf0        0x8
 .rodata        0x9d02daf0        0x8 c:/program files (x86)/microchip/xc32/v2.30/bin/bin/../../lib/gcc/pic32mx/4.8.3\libgcc.a(floatunsidf.o)

.text._on_reset
                0x9d02daf8        0x8
 .text._on_reset
                0x9d02daf8        0x8 c:/program files (x86)/microchip/xc32/v2.30/bin/bin/../../lib/gcc/pic32mx/4.8.3/../../../../pic32mx/lib\libpic32.a(default-on-reset.o)
                0x9d02daf8                _on_reset

.text._on_bootstrap
                0x9d02db00        0x8
 .text._on_bootstrap
                0x9d02db00        0x8 c:/program files (x86)/microchip/xc32/v2.30/bin/bin/../../lib/gcc/pic32mx/4.8.3/../../../../pic32mx/lib\libpic32.a(default-on-bootstrap.o)
                0x9d02db00                _on_bootstrap

.text%z261      0x00000000        0x0
 .text          0x00000000        0x0 c:/program files (x86)/microchip/xc32/v2.30/bin/bin/../../lib/gcc/pic32mx/4.8.3/../../../../pic32mx/lib\libpic32.a(errno.o)

.text%z262      0x00000000        0x0
 .text          0x00000000        0x0 c:/program files (x86)/microchip/xc32/v2.30/bin/bin/../../lib/gcc/pic32mx/4.8.3/../../../../pic32mx/lib\libm.a(s_lib_ver.o)

.text%z263      0x00000000        0x0
 .text          0x00000000        0x0 c:/program files (x86)/microchip/xc32/v2.30/bin/bin/../../lib/gcc/pic32mx/4.8.3/../../../../pic32mx/lib\libm.a(fpsqrt32.o)

.text%z264      0x00000000        0x0
 .text          0x00000000        0x0 c:/program files (x86)/microchip/xc32/v2.30/bin/bin/../../lib/gcc/pic32mx/4.8.3/../../../../pic32mx/lib\libm.a(fpexsqrt32.o)

.text.fpexatan%z265
                0x00000000        0x0
 .text.fpexatan
                0x00000000        0x0 c:/program files (x86)/microchip/xc32/v2.30/bin/bin/../../lib/gcc/pic32mx/4.8.3/../../../../pic32mx/lib\libm.a(fpexatan.o)

.text%z266      0x00000000        0x0
 .text          0x00000000        0x0 c:/program files (x86)/microchip/xc32/v2.30/bin/bin/../../lib/gcc/pic32mx/4.8.3/../../../../pic32mx/lib\libm.a(fpexatan.o)

.text%z267      0x00000000        0x0
 .text          0x00000000        0x0 c:/program files (x86)/microchip/xc32/v2.30/bin/bin/../../lib/gcc/pic32mx/4.8.3/../../../../pic32mx/lib\libm.a(fpatan2.o)

.text%z268      0x00000000        0x0
 .text          0x00000000        0x0 c:/program files (x86)/microchip/xc32/v2.30/bin/bin/../../lib/gcc/pic32mx/4.8.3/../../../../pic32mx/lib\libm.a(dpcmp.o)

.text%z269      0x00000000        0x0
 .text          0x00000000        0x0 c:/program files (x86)/microchip/xc32/v2.30/bin/bin/../../lib/gcc/pic32mx/4.8.3/../../../../pic32mx/lib\libm.a(dp32div.o)

.text%z270      0x00000000        0x0
 .text          0x00000000        0x0 c:/program files (x86)/microchip/xc32/v2.30/bin/bin/../../lib/gcc/pic32mx/4.8.3/../../../../pic32mx/lib\libm.a(dpldexp.o)

.text%z271      0x00000000        0x0
 .text          0x00000000        0x0 c:/program files (x86)/microchip/xc32/v2.30/bin/bin/../../lib/gcc/pic32mx/4.8.3/../../../../pic32mx/lib\libm.a(support.o)

.text%z272      0x00000000        0x0
 .text          0x00000000        0x0 c:/program files (x86)/microchip/xc32/v2.30/bin/bin/../../lib/gcc/pic32mx/4.8.3/../../../../pic32mx/lib\libm.a(w_sqrtf.o)

.text%z273      0x00000000        0x0
 .text          0x00000000        0x0 c:/program files (x86)/microchip/xc32/v2.30/bin/bin/../../lib/gcc/pic32mx/4.8.3/../../../../pic32mx/lib\libm.a(w_atan2f.o)

.text%z274      0x00000000        0x0
 .text          0x00000000        0x0 c:/program files (x86)/microchip/xc32/v2.30/bin/bin/../../lib/gcc/pic32mx/4.8.3/../../../../pic32mx/lib\libm.a(sitofp.o)

.text%z275      0x00000000        0x0
 .text          0x00000000        0x0 c:/program files (x86)/microchip/xc32/v2.30/bin/bin/../../lib/gcc/pic32mx/4.8.3/../../../../pic32mx/lib\libm.a(sincof32.o)

.text%z276      0x00000000        0x0
 .text          0x00000000        0x0 c:/program files (x86)/microchip/xc32/v2.30/bin/bin/../../lib/gcc/pic32mx/4.8.3/../../../../pic32mx/lib\libm.a(litodp.o)

.text%z277      0x00000000        0x0
 .text          0x00000000        0x0 c:/program files (x86)/microchip/xc32/v2.30/bin/bin/../../lib/gcc/pic32mx/4.8.3/../../../../pic32mx/lib\libm.a(fptoul.o)

.text%z278      0x00000000        0x0
 .text          0x00000000        0x0 c:/program files (x86)/microchip/xc32/v2.30/bin/bin/../../lib/gcc/pic32mx/4.8.3/../../../../pic32mx/lib\libm.a(fptoli.o)

.text%z279      0x00000000        0x0
 .text          0x00000000        0x0 c:/program files (x86)/microchip/xc32/v2.30/bin/bin/../../lib/gcc/pic32mx/4.8.3/../../../../pic32mx/lib\libm.a(fptodp.o)

.text%z280      0x00000000        0x0
 .text          0x00000000        0x0 c:/program files (x86)/microchip/xc32/v2.30/bin/bin/../../lib/gcc/pic32mx/4.8.3/../../../../pic32mx/lib\libm.a(fpsin32.o)

.text%z281      0x00000000        0x0
 .text          0x00000000        0x0 c:/program files (x86)/microchip/xc32/v2.30/bin/bin/../../lib/gcc/pic32mx/4.8.3/../../../../pic32mx/lib\libm.a(fpreduct32.o)

.text%z282      0x00000000        0x0
 .text          0x00000000        0x0 c:/program files (x86)/microchip/xc32/v2.30/bin/bin/../../lib/gcc/pic32mx/4.8.3/../../../../pic32mx/lib\libm.a(fpfloo32.o)

.text%z283      0x00000000        0x0
 .text          0x00000000        0x0 c:/program files (x86)/microchip/xc32/v2.30/bin/bin/../../lib/gcc/pic32mx/4.8.3/../../../../pic32mx/lib\libm.a(fpcos32.o)

.text%z284      0x00000000        0x0
 .text          0x00000000        0x0 c:/program files (x86)/microchip/xc32/v2.30/bin/bin/../../lib/gcc/pic32mx/4.8.3/../../../../pic32mx/lib\libm.a(fpcmp.o)

.text%z285      0x00000000        0x0
 .text          0x00000000        0x0 c:/program files (x86)/microchip/xc32/v2.30/bin/bin/../../lib/gcc/pic32mx/4.8.3/../../../../pic32mx/lib\libm.a(fpceil32.o)

.text%z286      0x00000000        0x0
 .text          0x00000000        0x0 c:/program files (x86)/microchip/xc32/v2.30/bin/bin/../../lib/gcc/pic32mx/4.8.3/../../../../pic32mx/lib\libm.a(fp32subadd.o)

.text%z287      0x00000000        0x0
 .text          0x00000000        0x0 c:/program files (x86)/microchip/xc32/v2.30/bin/bin/../../lib/gcc/pic32mx/4.8.3/../../../../pic32mx/lib\libm.a(fp32mul.o)

.text%z288      0x00000000        0x0
 .text          0x00000000        0x0 c:/program files (x86)/microchip/xc32/v2.30/bin/bin/../../lib/gcc/pic32mx/4.8.3/../../../../pic32mx/lib\libm.a(fp32div.o)

.text%z289      0x00000000        0x0
 .text          0x00000000        0x0 c:/program files (x86)/microchip/xc32/v2.30/bin/bin/../../lib/gcc/pic32mx/4.8.3/../../../../pic32mx/lib\libm.a(dptoul.o)

.text%z290      0x00000000        0x0
 .text          0x00000000        0x0 c:/program files (x86)/microchip/xc32/v2.30/bin/bin/../../lib/gcc/pic32mx/4.8.3/../../../../pic32mx/lib\libm.a(dptofp.o)

.text%z291      0x00000000        0x0
 .text          0x00000000        0x0 c:/program files (x86)/microchip/xc32/v2.30/bin/bin/../../lib/gcc/pic32mx/4.8.3/../../../../pic32mx/lib\libm.a(dp32subadd.o)

.text%z292      0x00000000        0x0
 .text          0x00000000        0x0 c:/program files (x86)/microchip/xc32/v2.30/bin/bin/../../lib/gcc/pic32mx/4.8.3/../../../../pic32mx/lib\libm.a(dp32mul.o)

.text%z293      0x00000000        0x0
 .text          0x00000000        0x0 c:/program files (x86)/microchip/xc32/v2.30/bin/bin/../../lib/gcc/pic32mx/4.8.3/../../../../pic32mx/lib\liblega-c.a(strncpy.o)

.text%z294      0x00000000        0x0
 .text          0x00000000        0x0 c:/program files (x86)/microchip/xc32/v2.30/bin/bin/../../lib/gcc/pic32mx/4.8.3/../../../../pic32mx/lib\liblega-c.a(strncmp.o)

.text%z295      0x00000000        0x0
 .text          0x00000000        0x0 c:/program files (x86)/microchip/xc32/v2.30/bin/bin/../../lib/gcc/pic32mx/4.8.3/../../../../pic32mx/lib\libpic32.a(default-simple-tlb-refill-exception-handler.o)

.text%z296      0x00000000        0x0
 .text          0x00000000        0x0 c:/program files (x86)/microchip/xc32/v2.30/bin/bin/../../lib/gcc/pic32mx/4.8.3/../../../../pic32mx/lib\libpic32.a(default-cache-err-exception-handler.o)

.text%z297      0x00000000        0x0
 .text          0x00000000        0x0 c:/program files (x86)/microchip/xc32/v2.30/bin/bin/../../lib/gcc/pic32mx/4.8.3/../../../../pic32mx/lib\libpic32.a(defaultinterrupt.o)

.text%z298      0x00000000        0x0
 .text          0x00000000        0x0 c:/program files (x86)/microchip/xc32/v2.30/bin/bin/../../lib/gcc/pic32mx/4.8.3/../../../../pic32mx/lib\libpic32.a(simple-tlb-refill-exception.o)

.text%z299      0x00000000        0x0
 .text          0x00000000        0x0 c:/program files (x86)/microchip/xc32/v2.30/bin/bin/../../lib/gcc/pic32mx/4.8.3/../../../../pic32mx/lib\libpic32.a(cache-err-exception.o)

.text%z300      0x00000000        0x0
 .text          0x00000000        0x0 c:/program files (x86)/microchip/xc32/v2.30/bin/bin/../../lib/gcc/pic32mx/4.8.3/../../../../pic32mx/lib\libpic32.a(general-exception.o)

.text%z301      0x00000000        0x0
 .text          0x00000000        0x0 c:/program files (x86)/microchip/xc32/v2.30/bin/bin/../../lib/gcc/pic32mx/4.8.3/../../../../pic32mx/lib\libpic32.a(pic32_init_tlb_ebi_sqi.o)

.text%z302      0x00000000        0x0
 .text          0x00000000        0x0 c:/program files (x86)/microchip/xc32/v2.30/bin/bin/../../lib/gcc/pic32mx/4.8.3/../../../../pic32mx/lib\libpic32.a(pic32_init_cache.o)

.text%z303      0x00000000        0x0
 .text          0x00000000        0x0 c:/program files (x86)/microchip/xc32/v2.30/bin/bin/../../lib/gcc/pic32mx/4.8.3/../../../../pic32mx/lib\libpic32.a(default-on-bootstrap.o)

.text%z304      0x00000000        0x0
 .text          0x00000000        0x0 c:/program files (x86)/microchip/xc32/v2.30/bin/bin/../../lib/gcc/pic32mx/4.8.3/../../../../pic32mx/lib\libpic32.a(default-on-reset.o)

.text%z305      0x00000000        0x0
 .text          0x00000000        0x0 c:/program files (x86)/microchip/xc32/v2.30/bin/bin/../../lib/gcc/pic32mx/4.8.3/../../../../pic32mx/lib\libpic32.a(default-bootstrap-exception-handler.o)

.text%z306      0x00000000        0x0
 .text          0x00000000        0x0 c:/program files (x86)/microchip/xc32/v2.30/bin/bin/../../lib/gcc/pic32mx/4.8.3/../../../../pic32mx/lib/./proc/32MZ2048ECG144\default_isr_vectors.o

.text%z307      0x00000000        0x0
 .text          0x00000000        0x0 C:\Users\kyrk\AppData\Local\Temp\ccYFepqr.o

.text%z308      0x00000000        0x0
 .text          0x00000000        0x0 C:\Users\kyrk\AppData\Local\Temp\ccnEG0Qt.o

.text%z309      0x00000000        0x0
 .text          0x00000000        0x0 C:\Users\kyrk\AppData\Local\Temp\ccW9mKTz.o

.text%z310      0x00000000        0x0
 .text          0x00000000        0x0 c:/program files (x86)/microchip/xc32/v2.30/bin/bin/../../lib/gcc/pic32mx/4.8.3/../../../../pic32mx/lib/./proc/32MZ2048ECG144\vector_offset_init.o

.text%z311      0x00000000        0x0
 .text          0x00000000        0x0 output\DHCP.o

.text%z312      0x00000000        0x0
 .text          0x00000000        0x0 output\c_eep_manager.o

.text%z313      0x00000000        0x0
 .text          0x00000000        0x0 c:/program files (x86)/microchip/xc32/v2.30/bin/bin/../../lib/gcc/pic32mx/4.8.3/../../../../pic32mx/lib\debug-exception-return.o
