Archive member included because of file (symbol)

c:/program files (x86)/microchip/xc32/v2.30/bin/bin/../../lib/gcc/pic32mx/4.8.3/../../../../pic32mx/lib\libmchp_peripheral_32MX440F256H.a(soft_reset_lib.o)
                              output\mal.o (SoftReset)
c:/program files (x86)/microchip/xc32/v2.30/bin/bin/../../lib/gcc/pic32mx/4.8.3/../../../../pic32mx/lib\libmchp_peripheral_32MX440F256H.a(pcache.o)
                              output\mal.o (CheKseg0CacheOn)
c:/program files (x86)/microchip/xc32/v2.30/bin/bin/../../lib/gcc/pic32mx/4.8.3/../../../../pic32mx/lib\libmchp_peripheral_32MX440F256H.a(int_disable_interrupts_lib.o)
                              c:/program files (x86)/microchip/xc32/v2.30/bin/bin/../../lib/gcc/pic32mx/4.8.3/../../../../pic32mx/lib\libmchp_peripheral_32MX440F256H.a(soft_reset_lib.o) (INTDisableInterrupts)
c:/program files (x86)/microchip/xc32/v2.30/bin/bin/../../lib/gcc/pic32mx/4.8.3/../../../../pic32mx/lib\libmchp_peripheral_32MX440F256H.a(power_idle_lib.o)
                              output\sleep.o (PowerSaveIdle)
c:/program files (x86)/microchip/xc32/v2.30/bin/bin/../../lib/gcc/pic32mx/4.8.3/../../../../pic32mx/lib\libmchp_peripheral_32MX440F256H.a(power_sleep_lib.o)
                              output\sleep.o (PowerSaveSleep)
c:/program files (x86)/microchip/xc32/v2.30/bin/bin/../../lib/gcc/pic32mx/4.8.3/../../../../pic32mx/lib\libmchp_peripheral_32MX440F256H.a(nvm_erase_page_lib.o)
                              output\dee_page.o (NVMErasePage)
c:/program files (x86)/microchip/xc32/v2.30/bin/bin/../../lib/gcc/pic32mx/4.8.3/../../../../pic32mx/lib\libmchp_peripheral_32MX440F256H.a(nvm_operation_lib.o)
                              c:/program files (x86)/microchip/xc32/v2.30/bin/bin/../../lib/gcc/pic32mx/4.8.3/../../../../pic32mx/lib\libmchp_peripheral_32MX440F256H.a(nvm_erase_page_lib.o) (_NVMOperation)
c:/program files (x86)/microchip/xc32/v2.30/bin/bin/../../lib/gcc/pic32mx/4.8.3/../../../../pic32mx/lib\libmchp_peripheral_32MX440F256H.a(nvm_write_word_lib.o)
                              output\dee_page.o (NVMWriteWord)
c:/program files (x86)/microchip/xc32/v2.30/bin/bin/../../lib/gcc/pic32mx/4.8.3/../../../../pic32mx/lib\libmchp_peripheral_32MX440F256H.a(int_restore_interrupts_lib.o)
                              c:/program files (x86)/microchip/xc32/v2.30/bin/bin/../../lib/gcc/pic32mx/4.8.3/../../../../pic32mx/lib\libmchp_peripheral_32MX440F256H.a(power_idle_lib.o) (INTRestoreInterrupts)
c:/program files (x86)/microchip/xc32/v2.30/bin/bin/../../lib/gcc/pic32mx/4.8.3\libgcc.a(_fixunssfdi.o)
                              output\stepper.o (__fixunssfdi)
c:/program files (x86)/microchip/xc32/v2.30/bin/bin/../../lib/gcc/pic32mx/4.8.3\libgcc.a(_floatundisf.o)
                              output\stepper.o (__floatundisf)
c:/program files (x86)/microchip/xc32/v2.30/bin/bin/../../lib/gcc/pic32mx/4.8.3\libgcc.a(floatunsisf.o)
                              output\grbl_limits.o (__floatunsisf)
c:/program files (x86)/microchip/xc32/v2.30/bin/bin/../../lib/gcc/pic32mx/4.8.3\libgcc.a(floatunsidf.o)
                              c:/program files (x86)/microchip/xc32/v2.30/bin/bin/../../lib/gcc/pic32mx/4.8.3\libgcc.a(_fixunssfdi.o) (__floatunsidf)
c:/program files (x86)/microchip/xc32/v2.30/bin/bin/../../lib/gcc/pic32mx/4.8.3/../../../../pic32mx/lib\libpic32.a(memcmp.o)
                              output\grbl_eeprom.o (memcmp)
c:/program files (x86)/microchip/xc32/v2.30/bin/bin/../../lib/gcc/pic32mx/4.8.3/../../../../pic32mx/lib\libpic32.a(memcpy.o)
                              output\eep_manager.o (memcpy)
c:/program files (x86)/microchip/xc32/v2.30/bin/bin/../../lib/gcc/pic32mx/4.8.3/../../../../pic32mx/lib\libpic32.a(memset.o)
                              output\ringBuffer.o (memset)
c:/program files (x86)/microchip/xc32/v2.30/bin/bin/../../lib/gcc/pic32mx/4.8.3/../../../../pic32mx/lib\libpic32.a(strcmp.o)
                              output\grbl_protocol.o (strcmp)
c:/program files (x86)/microchip/xc32/v2.30/bin/bin/../../lib/gcc/pic32mx/4.8.3/../../../../pic32mx/lib\libpic32.a(strlen.o)
                              output\Helpers.o (strlen)
c:/program files (x86)/microchip/xc32/v2.30/bin/bin/../../lib/gcc/pic32mx/4.8.3/../../../../pic32mx/lib\libpic32.a(default-bootstrap-exception-handler.o)
                              C:\Users\kyrk\AppData\Local\Temp\ccO7tWVt.o (_bootstrap_exception_handler)
c:/program files (x86)/microchip/xc32/v2.30/bin/bin/../../lib/gcc/pic32mx/4.8.3/../../../../pic32mx/lib\libpic32.a(default-on-reset.o)
                              C:\Users\kyrk\AppData\Local\Temp\ccO7tWVt.o (_on_reset)
c:/program files (x86)/microchip/xc32/v2.30/bin/bin/../../lib/gcc/pic32mx/4.8.3/../../../../pic32mx/lib\libpic32.a(default-on-bootstrap.o)
                              C:\Users\kyrk\AppData\Local\Temp\ccO7tWVt.o (_on_bootstrap)
c:/program files (x86)/microchip/xc32/v2.30/bin/bin/../../lib/gcc/pic32mx/4.8.3/../../../../pic32mx/lib\libpic32.a(default-nmi-handler.o)
                              C:\Users\kyrk\AppData\Local\Temp\ccO7tWVt.o (_nmi_handler)
c:/program files (x86)/microchip/xc32/v2.30/bin/bin/../../lib/gcc/pic32mx/4.8.3/../../../../pic32mx/lib\libpic32.a(pic32_data_init.o)
                              C:\Users\kyrk\AppData\Local\Temp\ccO7tWVt.o (__pic32_data_init)
c:/program files (x86)/microchip/xc32/v2.30/bin/bin/../../lib/gcc/pic32mx/4.8.3/../../../../pic32mx/lib\libpic32.a(general-exception.o)
                              C:\Users\kyrk\AppData\Local\Temp\ccO7tWVt.o (_general_exception_context)
c:/program files (x86)/microchip/xc32/v2.30/bin/bin/../../lib/gcc/pic32mx/4.8.3/../../../../pic32mx/lib\libpic32.a(vector1.o)
                              C:\Users\kyrk\AppData\Local\Temp\cc25SlKc.o (__vector_dispatch_1)
c:/program files (x86)/microchip/xc32/v2.30/bin/bin/../../lib/gcc/pic32mx/4.8.3/../../../../pic32mx/lib\libpic32.a(vector2.o)
                              C:\Users\kyrk\AppData\Local\Temp\cc25SlKc.o (__vector_dispatch_2)
c:/program files (x86)/microchip/xc32/v2.30/bin/bin/../../lib/gcc/pic32mx/4.8.3/../../../../pic32mx/lib\libpic32.a(vector3.o)
                              C:\Users\kyrk\AppData\Local\Temp\cc25SlKc.o (__vector_dispatch_3)
c:/program files (x86)/microchip/xc32/v2.30/bin/bin/../../lib/gcc/pic32mx/4.8.3/../../../../pic32mx/lib\libpic32.a(vector5.o)
                              C:\Users\kyrk\AppData\Local\Temp\cc25SlKc.o (__vector_dispatch_5)
c:/program files (x86)/microchip/xc32/v2.30/bin/bin/../../lib/gcc/pic32mx/4.8.3/../../../../pic32mx/lib\libpic32.a(vector6.o)
                              C:\Users\kyrk\AppData\Local\Temp\cc25SlKc.o (__vector_dispatch_6)
c:/program files (x86)/microchip/xc32/v2.30/bin/bin/../../lib/gcc/pic32mx/4.8.3/../../../../pic32mx/lib\libpic32.a(vector7.o)
                              C:\Users\kyrk\AppData\Local\Temp\cc25SlKc.o (__vector_dispatch_7)
c:/program files (x86)/microchip/xc32/v2.30/bin/bin/../../lib/gcc/pic32mx/4.8.3/../../../../pic32mx/lib\libpic32.a(vector9.o)
                              C:\Users\kyrk\AppData\Local\Temp\cc25SlKc.o (__vector_dispatch_9)
c:/program files (x86)/microchip/xc32/v2.30/bin/bin/../../lib/gcc/pic32mx/4.8.3/../../../../pic32mx/lib\libpic32.a(vector10.o)
                              C:\Users\kyrk\AppData\Local\Temp\cc25SlKc.o (__vector_dispatch_10)
c:/program files (x86)/microchip/xc32/v2.30/bin/bin/../../lib/gcc/pic32mx/4.8.3/../../../../pic32mx/lib\libpic32.a(vector11.o)
                              C:\Users\kyrk\AppData\Local\Temp\cc25SlKc.o (__vector_dispatch_11)
c:/program files (x86)/microchip/xc32/v2.30/bin/bin/../../lib/gcc/pic32mx/4.8.3/../../../../pic32mx/lib\libpic32.a(vector13.o)
                              C:\Users\kyrk\AppData\Local\Temp\cc25SlKc.o (__vector_dispatch_13)
c:/program files (x86)/microchip/xc32/v2.30/bin/bin/../../lib/gcc/pic32mx/4.8.3/../../../../pic32mx/lib\libpic32.a(vector14.o)
                              C:\Users\kyrk\AppData\Local\Temp\cc25SlKc.o (__vector_dispatch_14)
c:/program files (x86)/microchip/xc32/v2.30/bin/bin/../../lib/gcc/pic32mx/4.8.3/../../../../pic32mx/lib\libpic32.a(vector17.o)
                              C:\Users\kyrk\AppData\Local\Temp\cc25SlKc.o (__vector_dispatch_17)
c:/program files (x86)/microchip/xc32/v2.30/bin/bin/../../lib/gcc/pic32mx/4.8.3/../../../../pic32mx/lib\libpic32.a(vector18.o)
                              C:\Users\kyrk\AppData\Local\Temp\cc25SlKc.o (__vector_dispatch_18)
c:/program files (x86)/microchip/xc32/v2.30/bin/bin/../../lib/gcc/pic32mx/4.8.3/../../../../pic32mx/lib\libpic32.a(vector19.o)
                              C:\Users\kyrk\AppData\Local\Temp\cc25SlKc.o (__vector_dispatch_19)
c:/program files (x86)/microchip/xc32/v2.30/bin/bin/../../lib/gcc/pic32mx/4.8.3/../../../../pic32mx/lib\libpic32.a(vector21.o)
                              C:\Users\kyrk\AppData\Local\Temp\cc25SlKc.o (__vector_dispatch_21)
c:/program files (x86)/microchip/xc32/v2.30/bin/bin/../../lib/gcc/pic32mx/4.8.3/../../../../pic32mx/lib\libpic32.a(vector22.o)
                              C:\Users\kyrk\AppData\Local\Temp\cc25SlKc.o (__vector_dispatch_22)
c:/program files (x86)/microchip/xc32/v2.30/bin/bin/../../lib/gcc/pic32mx/4.8.3/../../../../pic32mx/lib\libpic32.a(vector23.o)
                              C:\Users\kyrk\AppData\Local\Temp\cc25SlKc.o (__vector_dispatch_23)
c:/program files (x86)/microchip/xc32/v2.30/bin/bin/../../lib/gcc/pic32mx/4.8.3/../../../../pic32mx/lib\libpic32.a(vector27.o)
                              C:\Users\kyrk\AppData\Local\Temp\cc25SlKc.o (__vector_dispatch_27)
c:/program files (x86)/microchip/xc32/v2.30/bin/bin/../../lib/gcc/pic32mx/4.8.3/../../../../pic32mx/lib\libpic32.a(vector28.o)
                              C:\Users\kyrk\AppData\Local\Temp\cc25SlKc.o (__vector_dispatch_28)
c:/program files (x86)/microchip/xc32/v2.30/bin/bin/../../lib/gcc/pic32mx/4.8.3/../../../../pic32mx/lib\libpic32.a(vector29.o)
                              C:\Users\kyrk\AppData\Local\Temp\cc25SlKc.o (__vector_dispatch_29)
c:/program files (x86)/microchip/xc32/v2.30/bin/bin/../../lib/gcc/pic32mx/4.8.3/../../../../pic32mx/lib\libpic32.a(vector30.o)
                              C:\Users\kyrk\AppData\Local\Temp\cc25SlKc.o (__vector_dispatch_30)
c:/program files (x86)/microchip/xc32/v2.30/bin/bin/../../lib/gcc/pic32mx/4.8.3/../../../../pic32mx/lib\libpic32.a(vector34.o)
                              C:\Users\kyrk\AppData\Local\Temp\cc25SlKc.o (__vector_dispatch_34)
c:/program files (x86)/microchip/xc32/v2.30/bin/bin/../../lib/gcc/pic32mx/4.8.3/../../../../pic32mx/lib\libpic32.a(vector35.o)
                              C:\Users\kyrk\AppData\Local\Temp\cc25SlKc.o (__vector_dispatch_35)
c:/program files (x86)/microchip/xc32/v2.30/bin/bin/../../lib/gcc/pic32mx/4.8.3/../../../../pic32mx/lib\libpic32.a(vector40.o)
                              C:\Users\kyrk\AppData\Local\Temp\cc25SlKc.o (__vector_dispatch_40)
c:/program files (x86)/microchip/xc32/v2.30/bin/bin/../../lib/gcc/pic32mx/4.8.3/../../../../pic32mx/lib\libpic32.a(vector41.o)
                              C:\Users\kyrk\AppData\Local\Temp\cc25SlKc.o (__vector_dispatch_41)
c:/program files (x86)/microchip/xc32/v2.30/bin/bin/../../lib/gcc/pic32mx/4.8.3/../../../../pic32mx/lib\libpic32.a(vector42.o)
                              C:\Users\kyrk\AppData\Local\Temp\cc25SlKc.o (__vector_dispatch_42)
c:/program files (x86)/microchip/xc32/v2.30/bin/bin/../../lib/gcc/pic32mx/4.8.3/../../../../pic32mx/lib\libpic32.a(vector43.o)
                              C:\Users\kyrk\AppData\Local\Temp\cc25SlKc.o (__vector_dispatch_43)
c:/program files (x86)/microchip/xc32/v2.30/bin/bin/../../lib/gcc/pic32mx/4.8.3/../../../../pic32mx/lib\libpic32.a(vector44.o)
                              C:\Users\kyrk\AppData\Local\Temp\cc25SlKc.o (__vector_dispatch_44)
c:/program files (x86)/microchip/xc32/v2.30/bin/bin/../../lib/gcc/pic32mx/4.8.3/../../../../pic32mx/lib\libpic32.a(defaultinterrupt.o)
                              c:/program files (x86)/microchip/xc32/v2.30/bin/bin/../../lib/gcc/pic32mx/4.8.3/../../../../pic32mx/lib\libpic32.a(vector1.o) (_DefaultInterrupt)
c:/program files (x86)/microchip/xc32/v2.30/bin/bin/../../lib/gcc/pic32mx/4.8.3/../../../../pic32mx/lib\liblega-c.a(strncmp.o)
                              output\grbl_protocol.o (strncmp)
c:/program files (x86)/microchip/xc32/v2.30/bin/bin/../../lib/gcc/pic32mx/4.8.3/../../../../pic32mx/lib\liblega-c.a(strncpy.o)
                              output\Helpers.o (strncpy)
c:/program files (x86)/microchip/xc32/v2.30/bin/bin/../../lib/gcc/pic32mx/4.8.3/../../../../pic32mx/lib\libm.a(dp32mul.o)
                              c:/program files (x86)/microchip/xc32/v2.30/bin/bin/../../lib/gcc/pic32mx/4.8.3\libgcc.a(_fixunssfdi.o) (dpmul)
c:/program files (x86)/microchip/xc32/v2.30/bin/bin/../../lib/gcc/pic32mx/4.8.3/../../../../pic32mx/lib\libm.a(dp32subadd.o)
                              c:/program files (x86)/microchip/xc32/v2.30/bin/bin/../../lib/gcc/pic32mx/4.8.3\libgcc.a(_fixunssfdi.o) (dpsub)
c:/program files (x86)/microchip/xc32/v2.30/bin/bin/../../lib/gcc/pic32mx/4.8.3/../../../../pic32mx/lib\libm.a(dptofp.o)
                              c:/program files (x86)/microchip/xc32/v2.30/bin/bin/../../lib/gcc/pic32mx/4.8.3\libgcc.a(_floatundisf.o) (dptofp)
c:/program files (x86)/microchip/xc32/v2.30/bin/bin/../../lib/gcc/pic32mx/4.8.3/../../../../pic32mx/lib\libm.a(dptoul.o)
                              c:/program files (x86)/microchip/xc32/v2.30/bin/bin/../../lib/gcc/pic32mx/4.8.3\libgcc.a(_fixunssfdi.o) (dptoul)
c:/program files (x86)/microchip/xc32/v2.30/bin/bin/../../lib/gcc/pic32mx/4.8.3/../../../../pic32mx/lib\libm.a(fp32div.o)
                              output\gcode.o (fpdiv)
c:/program files (x86)/microchip/xc32/v2.30/bin/bin/../../lib/gcc/pic32mx/4.8.3/../../../../pic32mx/lib\libm.a(fp32mul.o)
                              output\gcode.o (fpmul)
c:/program files (x86)/microchip/xc32/v2.30/bin/bin/../../lib/gcc/pic32mx/4.8.3/../../../../pic32mx/lib\libm.a(fp32subadd.o)
                              output\gcode.o (fpsub)
c:/program files (x86)/microchip/xc32/v2.30/bin/bin/../../lib/gcc/pic32mx/4.8.3/../../../../pic32mx/lib\libm.a(fpceil32.o)
                              output\nuts_bolts.o (ceilf)
c:/program files (x86)/microchip/xc32/v2.30/bin/bin/../../lib/gcc/pic32mx/4.8.3/../../../../pic32mx/lib\libm.a(fpcmp.o)
                              output\gcode.o (fpcmp)
c:/program files (x86)/microchip/xc32/v2.30/bin/bin/../../lib/gcc/pic32mx/4.8.3/../../../../pic32mx/lib\libm.a(fpcos32.o)
                              output\motion_control.o (cosf)
c:/program files (x86)/microchip/xc32/v2.30/bin/bin/../../lib/gcc/pic32mx/4.8.3/../../../../pic32mx/lib\libm.a(fpfloo32.o)
                              output\motion_control.o (floorf)
c:/program files (x86)/microchip/xc32/v2.30/bin/bin/../../lib/gcc/pic32mx/4.8.3/../../../../pic32mx/lib\libm.a(fpreduct32.o)
                              c:/program files (x86)/microchip/xc32/v2.30/bin/bin/../../lib/gcc/pic32mx/4.8.3/../../../../pic32mx/lib\libm.a(fpcos32.o) (fpreduct)
c:/program files (x86)/microchip/xc32/v2.30/bin/bin/../../lib/gcc/pic32mx/4.8.3/../../../../pic32mx/lib\libm.a(fpsin32.o)
                              output\motion_control.o (sinf)
c:/program files (x86)/microchip/xc32/v2.30/bin/bin/../../lib/gcc/pic32mx/4.8.3/../../../../pic32mx/lib\libm.a(fptodp.o)
                              c:/program files (x86)/microchip/xc32/v2.30/bin/bin/../../lib/gcc/pic32mx/4.8.3\libgcc.a(_fixunssfdi.o) (fptodp)
c:/program files (x86)/microchip/xc32/v2.30/bin/bin/../../lib/gcc/pic32mx/4.8.3/../../../../pic32mx/lib\libm.a(fptoli.o)
                              output\gcode.o (fptosi)
c:/program files (x86)/microchip/xc32/v2.30/bin/bin/../../lib/gcc/pic32mx/4.8.3/../../../../pic32mx/lib\libm.a(fptoul.o)
                              output\gcode.o (fptoui)
c:/program files (x86)/microchip/xc32/v2.30/bin/bin/../../lib/gcc/pic32mx/4.8.3/../../../../pic32mx/lib\libm.a(litodp.o)
                              c:/program files (x86)/microchip/xc32/v2.30/bin/bin/../../lib/gcc/pic32mx/4.8.3\libgcc.a(floatunsidf.o) (litodp)
c:/program files (x86)/microchip/xc32/v2.30/bin/bin/../../lib/gcc/pic32mx/4.8.3/../../../../pic32mx/lib\libm.a(sincof32.o)
                              c:/program files (x86)/microchip/xc32/v2.30/bin/bin/../../lib/gcc/pic32mx/4.8.3/../../../../pic32mx/lib\libm.a(fpcos32.o) (_sincof)
c:/program files (x86)/microchip/xc32/v2.30/bin/bin/../../lib/gcc/pic32mx/4.8.3/../../../../pic32mx/lib\libm.a(sitofp.o)
                              output\gcode.o (sitofp)
c:/program files (x86)/microchip/xc32/v2.30/bin/bin/../../lib/gcc/pic32mx/4.8.3/../../../../pic32mx/lib\libm.a(w_atan2f.o)
                              output\motion_control.o (atan2f)
c:/program files (x86)/microchip/xc32/v2.30/bin/bin/../../lib/gcc/pic32mx/4.8.3/../../../../pic32mx/lib\libm.a(w_sqrtf.o)
                              output\gcode.o (sqrtf)
c:/program files (x86)/microchip/xc32/v2.30/bin/bin/../../lib/gcc/pic32mx/4.8.3/../../../../pic32mx/lib\libm.a(support.o)
                              c:/program files (x86)/microchip/xc32/v2.30/bin/bin/../../lib/gcc/pic32mx/4.8.3/../../../../pic32mx/lib\libm.a(w_atan2f.o) (copysignl)
c:/program files (x86)/microchip/xc32/v2.30/bin/bin/../../lib/gcc/pic32mx/4.8.3/../../../../pic32mx/lib\libm.a(dpldexp.o)
                              c:/program files (x86)/microchip/xc32/v2.30/bin/bin/../../lib/gcc/pic32mx/4.8.3/../../../../pic32mx/lib\libm.a(support.o) (ldexp)
c:/program files (x86)/microchip/xc32/v2.30/bin/bin/../../lib/gcc/pic32mx/4.8.3/../../../../pic32mx/lib\libm.a(dp32div.o)
                              c:/program files (x86)/microchip/xc32/v2.30/bin/bin/../../lib/gcc/pic32mx/4.8.3/../../../../pic32mx/lib\libm.a(support.o) (dpdiv)
c:/program files (x86)/microchip/xc32/v2.30/bin/bin/../../lib/gcc/pic32mx/4.8.3/../../../../pic32mx/lib\libm.a(dpcmp.o)
                              c:/program files (x86)/microchip/xc32/v2.30/bin/bin/../../lib/gcc/pic32mx/4.8.3/../../../../pic32mx/lib\libm.a(w_atan2f.o) (dpcmp)
c:/program files (x86)/microchip/xc32/v2.30/bin/bin/../../lib/gcc/pic32mx/4.8.3/../../../../pic32mx/lib\libm.a(fpatan2.o)
                              c:/program files (x86)/microchip/xc32/v2.30/bin/bin/../../lib/gcc/pic32mx/4.8.3/../../../../pic32mx/lib\libm.a(w_atan2f.o) (__mchp_atan2f)
c:/program files (x86)/microchip/xc32/v2.30/bin/bin/../../lib/gcc/pic32mx/4.8.3/../../../../pic32mx/lib\libm.a(fpexatan.o)
                              c:/program files (x86)/microchip/xc32/v2.30/bin/bin/../../lib/gcc/pic32mx/4.8.3/../../../../pic32mx/lib\libm.a(fpatan2.o) (fpexatan)
c:/program files (x86)/microchip/xc32/v2.30/bin/bin/../../lib/gcc/pic32mx/4.8.3/../../../../pic32mx/lib\libm.a(fpexsqrt32.o)
                              c:/program files (x86)/microchip/xc32/v2.30/bin/bin/../../lib/gcc/pic32mx/4.8.3/../../../../pic32mx/lib\libm.a(fpexatan.o) (fpexsqrt)
c:/program files (x86)/microchip/xc32/v2.30/bin/bin/../../lib/gcc/pic32mx/4.8.3/../../../../pic32mx/lib\libm.a(fpsqrt32.o)
                              c:/program files (x86)/microchip/xc32/v2.30/bin/bin/../../lib/gcc/pic32mx/4.8.3/../../../../pic32mx/lib\libm.a(w_sqrtf.o) (__mchp_sqrtf)
c:/program files (x86)/microchip/xc32/v2.30/bin/bin/../../lib/gcc/pic32mx/4.8.3/../../../../pic32mx/lib\libm.a(s_lib_ver.o)
                              c:/program files (x86)/microchip/xc32/v2.30/bin/bin/../../lib/gcc/pic32mx/4.8.3/../../../../pic32mx/lib\libm.a(w_sqrtf.o) (math_errhandling)
c:/program files (x86)/microchip/xc32/v2.30/bin/bin/../../lib/gcc/pic32mx/4.8.3/../../../../pic32mx/lib\libpic32.a(errno.o)
                              c:/program files (x86)/microchip/xc32/v2.30/bin/bin/../../lib/gcc/pic32mx/4.8.3/../../../../pic32mx/lib\libm.a(w_sqrtf.o) (errno)

Allocating common symbols
Common symbol       size              file

axis_1_buffer       0x1               output\motion_control.o
_return_addr        0x4               output\exceptions.o
center_axis0        0x4               output\motion_control.o
dummyTRIS6          0x4               output\grbl.o
limit_state         0x1               output\grbl_limits.o
adResults           0x2               output\ad.o
protocol_dwellTime  0x4               output\grbl_protocol.o
grbl_toolchange_failsafe_timeout
                    0x4               output\grbl_toolchange.o
pDst                0x4               output\usb_device.o
block_buffer_head   0x1               output\planner.o
eep_coord_data      0x78              output\settings.o
dummyLAT4           0x4               output\grbl.o
dummyPORT1          0x4               output\grbl.o
UDPTxCount          0x2               output\UDP.o
linear_per_segment  0x4               output\motion_control.o
tempB               0x4               output\exceptions.o
coord_offset_eep    0xc               output\gcode.o
dummyPORT4          0x4               output\grbl.o
tempA               0x4               output\exceptions.o
r_axisi             0x4               output\motion_control.o
control_signal_bitmap
                    0x4               output\usb_function_cdc.o
USBDeferINDataStagePackets
                    0x4               output\usb_device.o
BDT                 0x60              output\usb_device.o
CtrlTrfData         0x8               output\usb_device.o
theta_per_segment   0x4               output\motion_control.o
next_buffer_head    0x1               output\planner.o
settings            0x60              output\settings.o
eep_coord_teached   0xa               output\settings.o
prep                0x38              output\stepper.o
USBDeferOUTDataStagePackets
                    0x4               output\usb_device.o
myRingBuffer_hid_rx
                    0x18              output\usb_grbl_multi.o
USBDeviceState      0x4               output\usb_device.o
sin_Ti              0x4               output\motion_control.o
dummyTRIS1          0x4               output\grbl.o
controlTransferState
                    0x1               output\usb_device.o
cdc_tx_len          0x1               output\usb_function_cdc.o
segment_buffer      0x120             output\stepper.o
myRingBuffer_hid_tx
                    0x18              output\usb_grbl_multi.o
endpoint_number     0x1               output\usb_device.o
pCDCSrc             0x4               output\usb_function_cdc.o
dummyLAT1           0x4               output\grbl.o
eep_manager_write_all_trigger
                    0x3c              output\eep_manager.o
dummyTRIS3          0x4               output\grbl.o
system_log          0x80              output\system.o
_excep_code         0x4               output\exceptions.o
sys                 0x14              output\system.o
tempResult          0x4               output\exceptions.o
ReceivedDataBuffer_grbl_ethernet_multi
                    0x40              output\ethernet_grbl_multi.o
axislock            0x1               output\grbl_limits.o
cdc_data_tx         0x40              output\usb_function_cdc.o
axis_linear_buffer  0x1               output\motion_control.o
cos_T               0x4               output\motion_control.o
gc_state            0x44              output\gcode.o
approach            0x1               output\grbl_limits.o
ClientSock          0x1               output\ethernet_grbl_multi.o
inPipes             0x10              output\usb_device.o
pBDTEntryIn         0xc               output\usb_device.o
CDCDataOutHandle    0x4               output\usb_function_cdc.o
gcodePositionSave   0x4               output\grbl_eeprom.o
cdc_rx_len          0x1               output\usb_function_cdc.o
dummyPORT7          0x4               output\grbl.o
myRingBuffer_grbl_protocol_rx
                    0x18              output\grbl_protocol.o
read_dee_page_size  0x4               output\dee_page.o
r_axis0             0x4               output\motion_control.o
limit_filter_state  0x2               output\grbl_limits.o
homing_rate         0x4               output\grbl_limits.o
activeUDPSocket     0x1               output\UDP.o
line_coding         0x8               output\usb_function_cdc.o
block_buffer_tail   0x1               output\planner.o
ep_data_out         0x3               output\usb_device.o
remoteNode          0xa               output\StackTsk.o
limits_set_state_filtered_currentState
                    0x1               output\grbl_limits.o
plan_data           0xc               output\grbl_limits.o
axis_0_buffer       0x1               output\motion_control.o
n_active_axis       0x1               output\grbl_limits.o
dummyTRIS5          0x4               output\grbl.o
eth_tx              0x200             output\ethernet_grbl_multi.o
gc_block            0x40              output\gcode.o
USBStatusStageEnabledFlag1
                    0x4               output\usb_device.o
read_dee_page       0x4               output\dee_page.o
dataEEFlags         0x4               output\dee.o
ReceivedDataBuffer  0x40              output\usb_grbl_multi.o
target_buffer       0xc               output\motion_control.o
dummyPORT2          0x4               output\grbl.o
taskLists           0x480             output\task.o
system_log_caller   0x80              output\system.o
r_axis1             0x4               output\motion_control.o
BaudRateGen         0x4               output\usb_function_cdc.o
USBStatusStageEnabledFlag2
                    0x4               output\usb_device.o
pBDTEntryOut        0xc               output\usb_device.o
eep_settings_backup
                    0x60              output\settings.o
myRingBuffer_eth_rx
                    0x18              output\ethernet_grbl_multi.o
offset_buffer       0xc               output\motion_control.o
CDCDataInHandle     0x4               output\usb_function_cdc.o
sys_probe_position  0xc               output\system.o
BothEP0OutUOWNsSet  0x4               output\usb_device.o
sin_T               0x4               output\motion_control.o
pl                  0x1c              output\planner.o
cdc_data_rx         0x40              output\usb_function_cdc.o
cycle_mask_buffer   0x1               output\motion_control.o
dummyLAT3           0x4               output\grbl.o
cdc_notice          0xa               output\usb_function_cdc.o
dummyTRIS4          0x4               output\grbl.o
pBDTEntryEP0OutNext
                    0x4               output\usb_device.o
st_block_buffer     0x1cc             output\stepper.o
sys_position        0xc               output\system.o
USBBusIsSuspended   0x4               output\usb_device.o
pl_data_buffer      0xc               output\motion_control.o
_excep_addr         0x4               output\exceptions.o
addr                0x10              output\ethernet_grbl_multi.o
max_travel          0x4               output\grbl_limits.o
dummyLAT5           0x4               output\grbl.o
AppConfig           0x33              output\ethernet.o
coord_system_eep    0xc               output\gcode.o
grbl_bootloader_timer
                    0x4               output\grbl_bootloader.o
step_pin            0x3               output\grbl_limits.o
USBStatusStageTimeoutCounter
                    0x1               output\usb_device.o
line_buffer         0x50              output\grbl_protocol.o
radius_buffer       0x4               output\motion_control.o
ToSendDataBuffer_grbl_ethernet_multi
                    0x40              output\ethernet_grbl_multi.o
ToSendDataBuffer    0x40              output\usb_grbl_multi.o
cdc_trf_state       0x1               output\usb_function_cdc.o
eep_settings        0x60              output\settings.o
UDPRxCount          0x2               output\UDP.o
SetupPkt            0x8               output\usb_device.o
dummyLAT7           0x4               output\grbl.o
dummyLAT2           0x4               output\grbl.o
dummyPORT5          0x4               output\grbl.o
eth_rx              0x200             output\ethernet_grbl_multi.o
pCDCDst             0x4               output\usb_function_cdc.o
is_clockwise_arc_buffer
                    0x1               output\motion_control.o
cdc_mem_type        0x1               output\usb_function_cdc.o
hid_rx              0x200             output\usb_grbl_multi.o
system_suspendTime  0x4               output\system.o
dummyTRIS7          0x4               output\grbl.o
ep_data_in          0x3               output\usb_device.o
center_axis1        0x4               output\motion_control.o
bsdServerSocket     0x1               output\ethernet_grbl_multi.o
myRingBuffer_eth_tx
                    0x18              output\ethernet_grbl_multi.o
cycle_mask_asynch   0x1               output\grbl_limits.o
pwm_duty            0x40              output\pwm.o
shortPacketStatus   0x1               output\usb_device.o
pBDTEntryEP0OutCurrent
                    0x4               output\usb_device.o
USBActiveConfiguration
                    0x1               output\usb_device.o
RemoteWakeup        0x4               output\usb_device.o
grbl_protocol_rx    0x80              output\grbl_protocol.o
dummyLAT6           0x4               output\grbl.o
dummyTRIS2          0x4               output\grbl.o
block_buffer_planned
                    0x1               output\planner.o
block_buffer        0xd00             output\planner.o
hid_tx              0x200             output\usb_grbl_multi.o
dummyPORT3          0x4               output\grbl.o
n_cycle             0x1               output\grbl_limits.o
dee_debug_page_status
                    0xc               output\dee_page.o
UDPSocketInfo       0xe0              output\UDP.o
segments_buffer     0x2               output\motion_control.o
USTATcopy           0x1               output\usb_device.o
eep_settings_version
                    0x1               output\settings.o
USBAlternateInterface
                    0x2               output\usb_device.o
read_dee_page_startaddress
                    0x4               output\dee_page.o
outPipes            0xb               output\usb_device.o
st                  0x28              output\stepper.o
dummy_encapsulated_cmd_response
                    0x8               output\usb_function_cdc.o
USBDeferStatusStagePacket
                    0x4               output\usb_device.o
loopCntHistory      0xf0              output\main.o
position_buffer     0xc               output\motion_control.o
eep_manager_debug_address
                    0x3c              output\eep_manager.o
addRemote           0x10              output\ethernet_grbl_multi.o
cos_Ti              0x4               output\motion_control.o
target              0xc               output\grbl_limits.o
i_buffer            0x2               output\motion_control.o
dummyPORT6          0x4               output\grbl.o

Microchip PIC32 Memory-Usage Report

kseg0 Program-Memory Usage
section                    address  length [bytes]      (dec)  Description
-------                 ----------  -------------------------  -----------
.text                   0x9d007490          0xb64        2916  App's exec code 
.text.libm              0x9d007ff4          0x10c         268   
_0755b5a060323632       0x9d008100            0xc          12   
.rodata                 0x9d00810c           0x14          20  Read-only const 
_0755b66060323632       0x9d008120            0xc          12   
.rodata                 0x9d00812c           0x14          20  Read-only const 
_0755b72060323632       0x9d008140            0xc          12   
.text                   0x9d00814c         0x327c       12924  App's exec code 
.text                   0x9d00b3c8         0x2544        9540  App's exec code 
.text                   0x9d00d90c         0x1c00        7168  App's exec code 
.text                   0x9d00f50c          0xda0        3488  App's exec code 
.text                   0x9d0102ac         0x1518        5400  App's exec code 
.text                   0x9d0117c4          0x974        2420  App's exec code 
.rodata                 0x9d012138          0x944        2372  Read-only const 
.text                   0x9d012a7c         0x119c        4508  App's exec code 
.text                   0x9d013c18          0x71c        1820  App's exec code 
.dinit                  0x9d014334          0x6f0        1776   
.text                   0x9d014a24          0xc60        3168  App's exec code 
.text                   0x9d015684          0xb8c        2956  App's exec code 
.text                   0x9d016210          0xa28        2600  App's exec code 
.text.dp32mul           0x9d016c38          0x4b8        1208   
.text                   0x9d0170f0          0x934        2356  App's exec code 
.text                   0x9d017a24          0x470        1136  App's exec code 
.text.dreml             0x9d017e94          0x470        1136   
.text                   0x9d018304          0x444        1092  App's exec code 
.text.dp32subadd        0x9d018748          0x430        1072   
.text                   0x9d018b78          0x724        1828  App's exec code 
.text                   0x9d01929c          0x358         856  App's exec code 
.text.libm              0x9d0195f4          0x350         848   
.text.dp32mul           0x9d019944          0x32c         812   
.text                   0x9d019c70          0x5e4        1508  App's exec code 
.text                   0x9d01a254          0x588        1416  App's exec code 
.text                   0x9d01a7dc          0x500        1280  App's exec code 
.text                   0x9d01acdc          0x278         632  App's exec code 
.text.fpsubadd          0x9d01af54          0x278         632   
.text.libm              0x9d01b1cc          0x248         584   
.text.fp32div           0x9d01b414          0x230         560   
.text                   0x9d01b644          0x44c        1100  App's exec code 
.text                   0x9d01ba90          0x3f4        1012  App's exec code 
.text                   0x9d01be84          0x3dc         988  App's exec code 
.text.atan2f            0x9d01c260          0x1e0         480   
.text                   0x9d01c440          0x390         912  App's exec code 
.text.fp32mul           0x9d01c7d0          0x1bc         444   
.text.libm              0x9d01c98c          0x318         792   
.text                   0x9d01cca4          0x2d0         720  App's exec code 
.text                   0x9d01cf74          0x2bc         700  App's exec code 
.text                   0x9d01d230          0x274         628  App's exec code 
.text                   0x9d01d4a4          0x130         304  App's exec code 
.rodata                 0x9d01d5d4          0x12c         300  Read-only const 
.text.dpcmp             0x9d01d700          0x12c         300   
.text.logbl             0x9d01d82c          0x124         292   
.text                   0x9d01d950          0x240         576  App's exec code 
.text.libm              0x9d01db90          0x234         564   
.text._NVMOperation     0x9d01ddc4          0x114         276   
.text.PowerSaveIdle     0x9d01ded8          0x110         272   
.text.PowerSaveSleep    0x9d01dfe8          0x110         272   
.rodata                 0x9d01e0f8          0x100         256  Read-only const 
.text.strncpy           0x9d01e1f8          0x100         256   
.text.dptofp            0x9d01e2f8          0x100         256   
.text.libm.fpexsqrt     0x9d01e3f8           0xfc         252   
.text                   0x9d01e4f4          0x1e8         488  App's exec code 
.text                   0x9d01e6dc           0xec         236  App's exec code 
.text.strncmp           0x9d01e7c8           0xe0         224   
.text.general_exception 0x9d01e8a8           0xdc         220   
.rodata                 0x9d01e984           0xd4         212  Read-only const 
.text                   0x9d01ea58          0x1a0         416  App's exec code 
.text                   0x9d01ebf8           0xc4         196  App's exec code 
.text.libm              0x9d01ecbc          0x164         356   
.text.fptodp            0x9d01ee20           0xac         172   
.text                   0x9d01eecc          0x14c         332  App's exec code 
.text.fpcmp             0x9d01f018           0x9c         156   
.text                   0x9d01f0b4          0x130         304  App's exec code 
.text                   0x9d01f1e4           0x90         144  App's exec code 
.text.dptoul            0x9d01f274           0x8c         140   
.text                   0x9d01f300          0x108         264  App's exec code 
.text.fptoli            0x9d01f408           0x80         128   
.text.SoftReset         0x9d01f488           0x7c         124   
.text.fptoul            0x9d01f504           0x7c         124   
.text.litodp            0x9d01f580           0x78         120   
.rodata                 0x9d01f5f8            0x8           8  Read-only const 
.text                   0x9d01f600           0xd8         216  App's exec code 
.text.sqrtf             0x9d01f6d8           0x68         104   
.text.sitofp            0x9d01f740           0x60          96   
.text.copysign          0x9d01f7a0           0x60          96   
.text.copysignf         0x9d01f800           0x60          96   
.text.main_entry        0x9d01f860           0x54          84   
.text                   0x9d01f8b4           0x4c          76  App's exec code 
.text._bootstrap_except 0x9d01f900           0x48          72   
.vector_default         0x9d01f948           0x48          72   
.text                   0x9d01f990           0x88         136  App's exec code 
.text                   0x9d01fa18           0x44          68  App's exec code 
.rodata                 0x9d01fa5c           0x34          52  Read-only const 
.text.NVMWriteWord      0x9d01fa90           0x34          52   
.text.copysignl         0x9d01fac4           0x34          52   
.text.logb              0x9d01faf8           0x34          52   
.text.logbf             0x9d01fb2c           0x34          52   
.text.finite            0x9d01fb60           0x34          52   
.text.finitef           0x9d01fb94           0x34          52   
.text                   0x9d01fbc8           0x30          48  App's exec code 
.text.NVMErasePage      0x9d01fbf8           0x2c          44   
.rodata                 0x9d01fc24           0x50          80  Read-only const 
.rodata                 0x9d01fc78           0x28          40  Read-only const 
.text.drem              0x9d01fca0           0x28          40   
.text.dremf             0x9d01fcc8           0x28          40   
.rodata                 0x9d01fcf0           0x44          68  Read-only const 
.rodata                 0x9d01fd38           0x3c          60  Read-only const 
.rodata                 0x9d01fd74           0x1c          28  Read-only const 
.text.INTRestoreInterru 0x9d01fd90           0x1c          28   
.text.finitel           0x9d01fdac           0x1c          28   
.rodata                 0x9d01fdc8           0x18          24  Read-only const 
.text.CheKseg0CacheOff  0x9d01fde0           0x18          24   
.text.CheKseg0CacheOn   0x9d01fdf8           0x18          24   
.text                   0x9d01fe10           0x18          24  App's exec code 
.rodata                 0x9d01fe28           0x20          32  Read-only const 
.rodata                 0x9d01fe48           0x1c          28  Read-only const 
.rodata                 0x9d01fe64            0xc          12  Read-only const 
.text.INTDisableInterru 0x9d01fe70            0x8           8   
.rodata                 0x9d01fe78           0x10          16  Read-only const 
.text._on_reset         0x9d01fe88            0x8           8   
.text._on_bootstrap     0x9d01fe90            0x8           8   
_07627d2060323633       0x9d030000         0x9000       36864   
.text                   0x9d039000         0x5364       21348  App's exec code 
.text                   0x9d03e364         0x1a44        6724  App's exec code 
.text                   0x9d03fda8          0x254         596  App's exec code 
      Total kseg0_program_mem used  :     0x289fc      166396  71.6% of 0x38b70

kseg0 Boot-Memory Usage
section                    address  length [bytes]      (dec)  Description
-------                 ----------  -------------------------  -----------
         Total kseg0_boot_mem used  :           0           0  

Exception-Memory Usage 
section                    address  length [bytes]      (dec)  Description
-------                 ----------  -------------------------  -----------
.app_excpt              0x9d006180           0x10          16  General-Exception 
.vector_0               0x9d006200            0x8           8  Interrupt Vector 0 
.vector_1               0x9d006220            0x8           8  Interrupt Vector 1 
.vector_2               0x9d006240            0x8           8  Interrupt Vector 2 
.vector_3               0x9d006260            0x8           8  Interrupt Vector 3 
.vector_4               0x9d006280            0x8           8  Interrupt Vector 4 
.vector_5               0x9d0062a0            0x8           8  Interrupt Vector 5 
.vector_6               0x9d0062c0            0x8           8  Interrupt Vector 6 
.vector_7               0x9d0062e0            0x8           8  Interrupt Vector 7 
.vector_8               0x9d006300            0x8           8  Interrupt Vector 8 
.vector_9               0x9d006320            0x8           8  Interrupt Vector 9 
.vector_10              0x9d006340            0x8           8  Interrupt Vector 10 
.vector_11              0x9d006360            0x8           8  Interrupt Vector 11 
.vector_12              0x9d006380            0x8           8  Interrupt Vector 12 
.vector_13              0x9d0063a0            0x8           8  Interrupt Vector 13 
.vector_14              0x9d0063c0            0x8           8  Interrupt Vector 14 
.vector_15              0x9d0063e0            0x8           8  Interrupt Vector 15 
.vector_16              0x9d006400            0x8           8  Interrupt Vector 16 
.vector_17              0x9d006420            0x8           8  Interrupt Vector 17 
.vector_18              0x9d006440            0x8           8  Interrupt Vector 18 
.vector_19              0x9d006460            0x8           8  Interrupt Vector 19 
.vector_20              0x9d006480            0x8           8  Interrupt Vector 20 
.vector_21              0x9d0064a0            0x8           8  Interrupt Vector 21 
.vector_22              0x9d0064c0            0x8           8  Interrupt Vector 22 
.vector_23              0x9d0064e0            0x8           8  Interrupt Vector 23 
.vector_24              0x9d006500            0x8           8  Interrupt Vector 24 
.vector_25              0x9d006520            0x8           8  Interrupt Vector 25 
.vector_26              0x9d006540            0x8           8  Interrupt Vector 26 
.vector_27              0x9d006560            0x8           8  Interrupt Vector 27 
.vector_28              0x9d006580            0x8           8  Interrupt Vector 28 
.vector_29              0x9d0065a0            0x8           8  Interrupt Vector 29 
.vector_30              0x9d0065c0            0x8           8  Interrupt Vector 30 
.vector_31              0x9d0065e0            0x8           8  Interrupt Vector 31 
.vector_32              0x9d006600            0x8           8  Interrupt Vector 32 
.vector_33              0x9d006620            0x8           8  Interrupt Vector 33 
.vector_34              0x9d006640            0x8           8  Interrupt Vector 34 
.vector_35              0x9d006660            0x8           8  Interrupt Vector 35 
.vector_36              0x9d006680            0x8           8  Interrupt Vector 36 
.vector_37              0x9d0066a0            0x8           8  Interrupt Vector 37 
.vector_38              0x9d0066c0            0x8           8  Interrupt Vector 38 
.vector_39              0x9d0066e0            0x8           8  Interrupt Vector 39 
.vector_40              0x9d006700            0x8           8  Interrupt Vector 40 
.vector_41              0x9d006720            0x8           8  Interrupt Vector 41 
.vector_42              0x9d006740            0x8           8  Interrupt Vector 42 
.vector_43              0x9d006760            0x8           8  Interrupt Vector 43 
.vector_44              0x9d006780            0x8           8  Interrupt Vector 44 
.vector_45              0x9d0067a0            0x8           8  Interrupt Vector 45 
          Total exception_mem used  :       0x180         384  9.4% of 0x1000

kseg1 Boot-Memory Usage
section                    address  length [bytes]      (dec)  Description
-------                 ----------  -------------------------  -----------
.reset                  0x9d007000          0x19c         412  Reset handler 
.bev_excpt              0x9d007380           0x10          16  BEV-Exception 
         Total kseg1_boot_mem used  :       0x1ac         428  36.6% of 0x490
        --------------------------------------------------------------------------
         Total Program Memory used  :     0x28d28      167208  70.4% of 0x3a000
        --------------------------------------------------------------------------


kseg1 Data-Memory Usage
section                    address  length [bytes]      (dec)  Description
-------                 ----------  -------------------------  -----------
.sdata                  0xa0001004           0x5c          92  Small init data 
.sbss                   0xa0001060          0x3ec        1004  Small uninit data 
.bss                    0xa000144c          0x164         356  Uninitialized data 
.data                   0xa00015b0           0x24          36  Initialized data 
.bss                    0xa00015d4           0x20          32  Uninitialized data 
.bss                    0xa00015f4            0xc          12  Uninitialized data 
.bss                    0xa0001600         0x2800       10240  Uninitialized data 
.data                   0xa0003e00          0x22c         556  Initialized data 
.bss                    0xa000402c           0x8c         140  Uninitialized data 
.data                   0xa00040b8           0x18          24  Initialized data 
.bss                    0xa00040d0           0x18          24  Uninitialized data 
.data.math_errhandling_ 0xa00040e8            0x4           4   
.bss.errno              0xa00040ec            0x4           4   
         Total kseg1_data_mem used  :      0x30ec       12524  43.7% of 0x7000
        --------------------------------------------------------------------------
            Total Data Memory used  :      0x30ec       12524  43.7% of 0x7000
        --------------------------------------------------------------------------


Dynamic Data-Memory Reservation
section                    address  length [bytes]      (dec)  Description
-------                 ----------  -------------------------  -----------
heap                    0xa00040f8         0x1000        4096  Reserved for heap 
stack                   0xa0005110         0x2ee8       12008  Reserved for stack 

        --------------------------------------------------------------------------

Discarded input sections

 .reginfo       0x00000000       0x18 output\tmr.o
 .reginfo       0x00000000       0x18 output\mal.o
 .reginfo       0x00000000       0x18 output\ringBuffer.o
 .reginfo       0x00000000       0x18 output\task.o
 .reginfo       0x00000000       0x18 output\sleep.o
 .reginfo       0x00000000       0x18 output\eeprom.o
 .reginfo       0x00000000       0x18 output\eep_manager.o
 .reginfo       0x00000000       0x18 output\usb.o
 .reginfo       0x00000000       0x18 output\usb_descriptors.o
 .reginfo       0x00000000       0x18 output\usb_device.o
 .reginfo       0x00000000       0x18 output\exceptions.o
 .reginfo       0x00000000       0x18 output\isr.o
 .reginfo       0x00000000       0x18 output\main.o
 .reginfo       0x00000000       0x18 output\c_eep_manager.o
 .reginfo       0x00000000       0x18 output\app.o
 .reginfo       0x00000000       0x18 output\ad.o
 .reginfo       0x00000000       0x18 output\gcode.o
 .reginfo       0x00000000       0x18 output\grbl_limits.o
 .reginfo       0x00000000       0x18 output\coolant_control.o
 .reginfo       0x00000000       0x18 output\motion_control.o
 .reginfo       0x00000000       0x18 output\nuts_bolts.o
 .reginfo       0x00000000       0x18 output\planner.o
 .reginfo       0x00000000       0x18 output\print.o
 .reginfo       0x00000000       0x18 output\report.o
 .reginfo       0x00000000       0x18 output\settings.o
 .reginfo       0x00000000       0x18 output\spindle_control.o
 .reginfo       0x00000000       0x18 output\stepper.o
 .reginfo       0x00000000       0x18 output\system.o
 .reginfo       0x00000000       0x18 output\grbl.o
 .reginfo       0x00000000       0x18 output\pwm.o
 .reginfo       0x00000000       0x18 output\jog.o
 .reginfo       0x00000000       0x18 output\usb_function_cdc.o
 .reginfo       0x00000000       0x18 output\dee.o
 .reginfo       0x00000000       0x18 output\dee_page.o
 .reginfo       0x00000000       0x18 output\dee_page_helper.o
 .reginfo       0x00000000       0x18 output\eep_manager_crc.o
 .reginfo       0x00000000       0x18 output\system_control.o
 .reginfo       0x00000000       0x18 output\stepper_enable.o
 .reginfo       0x00000000       0x18 output\system_exec.o
 .reginfo       0x00000000       0x18 output\system_alarm.o
 .reginfo       0x00000000       0x18 output\grbl_eeprom.o
 .reginfo       0x00000000       0x18 output\bootloader_interface.o
 .reginfo       0x00000000       0x18 output\grbl_toolchange.o
 .reginfo       0x00000000       0x18 output\stackmeasure.o
 .reginfo       0x00000000       0x18 output\stackmeasure_helper.o
 .reginfo       0x00000000       0x18 output\grbl_protocol.o
 .reginfo       0x00000000       0x18 output\grbl_running.o
 .reginfo       0x00000000       0x18 output\grbl_bootloader.o
 .reginfo       0x00000000       0x18 output\grbl_probe.o
 .reginfo       0x00000000       0x18 output\ethernet.o
 .reginfo       0x00000000       0x18 output\ENC28J60.o
 .reginfo       0x00000000       0x18 output\DHCP.o
 .reginfo       0x00000000       0x18 output\Delay.o
 .reginfo       0x00000000       0x18 output\ARP.o
 .reginfo       0x00000000       0x18 output\Announce.o
 .reginfo       0x00000000       0x18 output\Helpers.o
 .reginfo       0x00000000       0x18 output\ICMP.o
 .reginfo       0x00000000       0x18 output\IP.o
 .reginfo       0x00000000       0x18 output\StackTsk.o
 .reginfo       0x00000000       0x18 output\UDP.o
 .reginfo       0x00000000       0x18 output\usb_grbl_multi.o
 .reginfo       0x00000000       0x18 output\ethernet_grbl_multi.o
 .reginfo       0x00000000       0x18 output\grbl_multi.o
 .reginfo       0x00000000       0x18 output\Reboot.o
 .reginfo       0x00000000       0x18 output\TCP.o
 .reginfo       0x00000000       0x18 output\BerkeleyAPI.o
 .reginfo       0x00000000       0x18 output\noinitram.o
 .reginfo       0x00000000       0x18 c:/program files (x86)/microchip/xc32/v2.30/bin/bin/../../lib/gcc/pic32mx/4.8.3/../../../../pic32mx/lib/./proc/32MX440F256H\processor.o
 .reginfo       0x00000000       0x18 c:/program files (x86)/microchip/xc32/v2.30/bin/bin/../../lib/gcc/pic32mx/4.8.3/../../../../pic32mx/lib\libmchp_peripheral_32MX440F256H.a(soft_reset_lib.o)
 .reginfo       0x00000000       0x18 c:/program files (x86)/microchip/xc32/v2.30/bin/bin/../../lib/gcc/pic32mx/4.8.3/../../../../pic32mx/lib\libmchp_peripheral_32MX440F256H.a(pcache.o)
 .reginfo       0x00000000       0x18 c:/program files (x86)/microchip/xc32/v2.30/bin/bin/../../lib/gcc/pic32mx/4.8.3/../../../../pic32mx/lib\libmchp_peripheral_32MX440F256H.a(int_disable_interrupts_lib.o)
 .reginfo       0x00000000       0x18 c:/program files (x86)/microchip/xc32/v2.30/bin/bin/../../lib/gcc/pic32mx/4.8.3/../../../../pic32mx/lib\libmchp_peripheral_32MX440F256H.a(power_idle_lib.o)
 .reginfo       0x00000000       0x18 c:/program files (x86)/microchip/xc32/v2.30/bin/bin/../../lib/gcc/pic32mx/4.8.3/../../../../pic32mx/lib\libmchp_peripheral_32MX440F256H.a(power_sleep_lib.o)
 .reginfo       0x00000000       0x18 c:/program files (x86)/microchip/xc32/v2.30/bin/bin/../../lib/gcc/pic32mx/4.8.3/../../../../pic32mx/lib\libmchp_peripheral_32MX440F256H.a(nvm_erase_page_lib.o)
 .reginfo       0x00000000       0x18 c:/program files (x86)/microchip/xc32/v2.30/bin/bin/../../lib/gcc/pic32mx/4.8.3/../../../../pic32mx/lib\libmchp_peripheral_32MX440F256H.a(nvm_operation_lib.o)
 .reginfo       0x00000000       0x18 c:/program files (x86)/microchip/xc32/v2.30/bin/bin/../../lib/gcc/pic32mx/4.8.3/../../../../pic32mx/lib\libmchp_peripheral_32MX440F256H.a(nvm_write_word_lib.o)
 .reginfo       0x00000000       0x18 c:/program files (x86)/microchip/xc32/v2.30/bin/bin/../../lib/gcc/pic32mx/4.8.3/../../../../pic32mx/lib\libmchp_peripheral_32MX440F256H.a(int_restore_interrupts_lib.o)
 .reginfo       0x00000000       0x18 C:\Users\kyrk\AppData\Local\Temp\ccO7tWVt.o
 .reginfo       0x00000000       0x18 C:\Users\kyrk\AppData\Local\Temp\ccRrtqIO.o
 .reginfo       0x00000000       0x18 C:\Users\kyrk\AppData\Local\Temp\cc25SlKc.o
 .discard       0x00000000       0xb8 C:\Users\kyrk\AppData\Local\Temp\cc25SlKc.o
 .reginfo       0x00000000       0x18 c:/program files (x86)/microchip/xc32/v2.30/bin/bin/../../lib/gcc/pic32mx/4.8.3/../../../../pic32mx/lib/./proc/32MX440F256H\default_isr_vectors.o
 .discard       0x00000000       0xb8 c:/program files (x86)/microchip/xc32/v2.30/bin/bin/../../lib/gcc/pic32mx/4.8.3/../../../../pic32mx/lib/./proc/32MX440F256H\default_isr_vectors.o
 .reginfo       0x00000000       0x18 c:/program files (x86)/microchip/xc32/v2.30/bin/bin/../../lib/gcc/pic32mx/4.8.3/../../../../pic32mx/lib\pic32_software_reset.o
 .reginfo       0x00000000       0x18 c:/program files (x86)/microchip/xc32/v2.30/bin/bin/../../lib/gcc/pic32mx/4.8.3\libgcc.a(_fixunssfdi.o)
 .reginfo       0x00000000       0x18 c:/program files (x86)/microchip/xc32/v2.30/bin/bin/../../lib/gcc/pic32mx/4.8.3\libgcc.a(_floatundisf.o)
 .reginfo       0x00000000       0x18 c:/program files (x86)/microchip/xc32/v2.30/bin/bin/../../lib/gcc/pic32mx/4.8.3\libgcc.a(floatunsisf.o)
 .reginfo       0x00000000       0x18 c:/program files (x86)/microchip/xc32/v2.30/bin/bin/../../lib/gcc/pic32mx/4.8.3\libgcc.a(floatunsidf.o)
 .reginfo       0x00000000       0x18 c:/program files (x86)/microchip/xc32/v2.30/bin/bin/../../lib/gcc/pic32mx/4.8.3/../../../../pic32mx/lib\libpic32.a(memcmp.o)
 .reginfo       0x00000000       0x18 c:/program files (x86)/microchip/xc32/v2.30/bin/bin/../../lib/gcc/pic32mx/4.8.3/../../../../pic32mx/lib\libpic32.a(memcpy.o)
 .reginfo       0x00000000       0x18 c:/program files (x86)/microchip/xc32/v2.30/bin/bin/../../lib/gcc/pic32mx/4.8.3/../../../../pic32mx/lib\libpic32.a(memset.o)
 .reginfo       0x00000000       0x18 c:/program files (x86)/microchip/xc32/v2.30/bin/bin/../../lib/gcc/pic32mx/4.8.3/../../../../pic32mx/lib\libpic32.a(strcmp.o)
 .reginfo       0x00000000       0x18 c:/program files (x86)/microchip/xc32/v2.30/bin/bin/../../lib/gcc/pic32mx/4.8.3/../../../../pic32mx/lib\libpic32.a(strlen.o)
 .reginfo       0x00000000       0x18 c:/program files (x86)/microchip/xc32/v2.30/bin/bin/../../lib/gcc/pic32mx/4.8.3/../../../../pic32mx/lib\libpic32.a(default-bootstrap-exception-handler.o)
 .reginfo       0x00000000       0x18 c:/program files (x86)/microchip/xc32/v2.30/bin/bin/../../lib/gcc/pic32mx/4.8.3/../../../../pic32mx/lib\libpic32.a(default-on-reset.o)
 .reginfo       0x00000000       0x18 c:/program files (x86)/microchip/xc32/v2.30/bin/bin/../../lib/gcc/pic32mx/4.8.3/../../../../pic32mx/lib\libpic32.a(default-on-bootstrap.o)
 .reginfo       0x00000000       0x18 c:/program files (x86)/microchip/xc32/v2.30/bin/bin/../../lib/gcc/pic32mx/4.8.3/../../../../pic32mx/lib\libpic32.a(default-nmi-handler.o)
 .reginfo       0x00000000       0x18 c:/program files (x86)/microchip/xc32/v2.30/bin/bin/../../lib/gcc/pic32mx/4.8.3/../../../../pic32mx/lib\libpic32.a(pic32_data_init.o)
 .reginfo       0x00000000       0x18 c:/program files (x86)/microchip/xc32/v2.30/bin/bin/../../lib/gcc/pic32mx/4.8.3/../../../../pic32mx/lib\libpic32.a(general-exception.o)
 .reginfo       0x00000000       0x18 c:/program files (x86)/microchip/xc32/v2.30/bin/bin/../../lib/gcc/pic32mx/4.8.3/../../../../pic32mx/lib\libpic32.a(vector1.o)
 .reginfo       0x00000000       0x18 c:/program files (x86)/microchip/xc32/v2.30/bin/bin/../../lib/gcc/pic32mx/4.8.3/../../../../pic32mx/lib\libpic32.a(vector2.o)
 .reginfo       0x00000000       0x18 c:/program files (x86)/microchip/xc32/v2.30/bin/bin/../../lib/gcc/pic32mx/4.8.3/../../../../pic32mx/lib\libpic32.a(vector3.o)
 .reginfo       0x00000000       0x18 c:/program files (x86)/microchip/xc32/v2.30/bin/bin/../../lib/gcc/pic32mx/4.8.3/../../../../pic32mx/lib\libpic32.a(vector5.o)
 .reginfo       0x00000000       0x18 c:/program files (x86)/microchip/xc32/v2.30/bin/bin/../../lib/gcc/pic32mx/4.8.3/../../../../pic32mx/lib\libpic32.a(vector6.o)
 .reginfo       0x00000000       0x18 c:/program files (x86)/microchip/xc32/v2.30/bin/bin/../../lib/gcc/pic32mx/4.8.3/../../../../pic32mx/lib\libpic32.a(vector7.o)
 .reginfo       0x00000000       0x18 c:/program files (x86)/microchip/xc32/v2.30/bin/bin/../../lib/gcc/pic32mx/4.8.3/../../../../pic32mx/lib\libpic32.a(vector9.o)
 .reginfo       0x00000000       0x18 c:/program files (x86)/microchip/xc32/v2.30/bin/bin/../../lib/gcc/pic32mx/4.8.3/../../../../pic32mx/lib\libpic32.a(vector10.o)
 .reginfo       0x00000000       0x18 c:/program files (x86)/microchip/xc32/v2.30/bin/bin/../../lib/gcc/pic32mx/4.8.3/../../../../pic32mx/lib\libpic32.a(vector11.o)
 .reginfo       0x00000000       0x18 c:/program files (x86)/microchip/xc32/v2.30/bin/bin/../../lib/gcc/pic32mx/4.8.3/../../../../pic32mx/lib\libpic32.a(vector13.o)
 .reginfo       0x00000000       0x18 c:/program files (x86)/microchip/xc32/v2.30/bin/bin/../../lib/gcc/pic32mx/4.8.3/../../../../pic32mx/lib\libpic32.a(vector14.o)
 .reginfo       0x00000000       0x18 c:/program files (x86)/microchip/xc32/v2.30/bin/bin/../../lib/gcc/pic32mx/4.8.3/../../../../pic32mx/lib\libpic32.a(vector17.o)
 .reginfo       0x00000000       0x18 c:/program files (x86)/microchip/xc32/v2.30/bin/bin/../../lib/gcc/pic32mx/4.8.3/../../../../pic32mx/lib\libpic32.a(vector18.o)
 .reginfo       0x00000000       0x18 c:/program files (x86)/microchip/xc32/v2.30/bin/bin/../../lib/gcc/pic32mx/4.8.3/../../../../pic32mx/lib\libpic32.a(vector19.o)
 .reginfo       0x00000000       0x18 c:/program files (x86)/microchip/xc32/v2.30/bin/bin/../../lib/gcc/pic32mx/4.8.3/../../../../pic32mx/lib\libpic32.a(vector21.o)
 .reginfo       0x00000000       0x18 c:/program files (x86)/microchip/xc32/v2.30/bin/bin/../../lib/gcc/pic32mx/4.8.3/../../../../pic32mx/lib\libpic32.a(vector22.o)
 .reginfo       0x00000000       0x18 c:/program files (x86)/microchip/xc32/v2.30/bin/bin/../../lib/gcc/pic32mx/4.8.3/../../../../pic32mx/lib\libpic32.a(vector23.o)
 .reginfo       0x00000000       0x18 c:/program files (x86)/microchip/xc32/v2.30/bin/bin/../../lib/gcc/pic32mx/4.8.3/../../../../pic32mx/lib\libpic32.a(vector27.o)
 .reginfo       0x00000000       0x18 c:/program files (x86)/microchip/xc32/v2.30/bin/bin/../../lib/gcc/pic32mx/4.8.3/../../../../pic32mx/lib\libpic32.a(vector28.o)
 .reginfo       0x00000000       0x18 c:/program files (x86)/microchip/xc32/v2.30/bin/bin/../../lib/gcc/pic32mx/4.8.3/../../../../pic32mx/lib\libpic32.a(vector29.o)
 .reginfo       0x00000000       0x18 c:/program files (x86)/microchip/xc32/v2.30/bin/bin/../../lib/gcc/pic32mx/4.8.3/../../../../pic32mx/lib\libpic32.a(vector30.o)
 .reginfo       0x00000000       0x18 c:/program files (x86)/microchip/xc32/v2.30/bin/bin/../../lib/gcc/pic32mx/4.8.3/../../../../pic32mx/lib\libpic32.a(vector34.o)
 .reginfo       0x00000000       0x18 c:/program files (x86)/microchip/xc32/v2.30/bin/bin/../../lib/gcc/pic32mx/4.8.3/../../../../pic32mx/lib\libpic32.a(vector35.o)
 .reginfo       0x00000000       0x18 c:/program files (x86)/microchip/xc32/v2.30/bin/bin/../../lib/gcc/pic32mx/4.8.3/../../../../pic32mx/lib\libpic32.a(vector40.o)
 .reginfo       0x00000000       0x18 c:/program files (x86)/microchip/xc32/v2.30/bin/bin/../../lib/gcc/pic32mx/4.8.3/../../../../pic32mx/lib\libpic32.a(vector41.o)
 .reginfo       0x00000000       0x18 c:/program files (x86)/microchip/xc32/v2.30/bin/bin/../../lib/gcc/pic32mx/4.8.3/../../../../pic32mx/lib\libpic32.a(vector42.o)
 .reginfo       0x00000000       0x18 c:/program files (x86)/microchip/xc32/v2.30/bin/bin/../../lib/gcc/pic32mx/4.8.3/../../../../pic32mx/lib\libpic32.a(vector43.o)
 .reginfo       0x00000000       0x18 c:/program files (x86)/microchip/xc32/v2.30/bin/bin/../../lib/gcc/pic32mx/4.8.3/../../../../pic32mx/lib\libpic32.a(vector44.o)
 .reginfo       0x00000000       0x18 c:/program files (x86)/microchip/xc32/v2.30/bin/bin/../../lib/gcc/pic32mx/4.8.3/../../../../pic32mx/lib\libpic32.a(defaultinterrupt.o)
 .reginfo       0x00000000       0x18 c:/program files (x86)/microchip/xc32/v2.30/bin/bin/../../lib/gcc/pic32mx/4.8.3/../../../../pic32mx/lib\liblega-c.a(strncmp.o)
 .reginfo       0x00000000       0x18 c:/program files (x86)/microchip/xc32/v2.30/bin/bin/../../lib/gcc/pic32mx/4.8.3/../../../../pic32mx/lib\liblega-c.a(strncpy.o)
 .reginfo       0x00000000       0x18 c:/program files (x86)/microchip/xc32/v2.30/bin/bin/../../lib/gcc/pic32mx/4.8.3/../../../../pic32mx/lib\libm.a(dp32mul.o)
 .reginfo       0x00000000       0x18 c:/program files (x86)/microchip/xc32/v2.30/bin/bin/../../lib/gcc/pic32mx/4.8.3/../../../../pic32mx/lib\libm.a(dp32subadd.o)
 .reginfo       0x00000000       0x18 c:/program files (x86)/microchip/xc32/v2.30/bin/bin/../../lib/gcc/pic32mx/4.8.3/../../../../pic32mx/lib\libm.a(dptofp.o)
 .reginfo       0x00000000       0x18 c:/program files (x86)/microchip/xc32/v2.30/bin/bin/../../lib/gcc/pic32mx/4.8.3/../../../../pic32mx/lib\libm.a(dptoul.o)
 .reginfo       0x00000000       0x18 c:/program files (x86)/microchip/xc32/v2.30/bin/bin/../../lib/gcc/pic32mx/4.8.3/../../../../pic32mx/lib\libm.a(fp32div.o)
 .reginfo       0x00000000       0x18 c:/program files (x86)/microchip/xc32/v2.30/bin/bin/../../lib/gcc/pic32mx/4.8.3/../../../../pic32mx/lib\libm.a(fp32mul.o)
 .reginfo       0x00000000       0x18 c:/program files (x86)/microchip/xc32/v2.30/bin/bin/../../lib/gcc/pic32mx/4.8.3/../../../../pic32mx/lib\libm.a(fp32subadd.o)
 .reginfo       0x00000000       0x18 c:/program files (x86)/microchip/xc32/v2.30/bin/bin/../../lib/gcc/pic32mx/4.8.3/../../../../pic32mx/lib\libm.a(fpceil32.o)
 .reginfo       0x00000000       0x18 c:/program files (x86)/microchip/xc32/v2.30/bin/bin/../../lib/gcc/pic32mx/4.8.3/../../../../pic32mx/lib\libm.a(fpcmp.o)
 .reginfo       0x00000000       0x18 c:/program files (x86)/microchip/xc32/v2.30/bin/bin/../../lib/gcc/pic32mx/4.8.3/../../../../pic32mx/lib\libm.a(fpcos32.o)
 .reginfo       0x00000000       0x18 c:/program files (x86)/microchip/xc32/v2.30/bin/bin/../../lib/gcc/pic32mx/4.8.3/../../../../pic32mx/lib\libm.a(fpfloo32.o)
 .reginfo       0x00000000       0x18 c:/program files (x86)/microchip/xc32/v2.30/bin/bin/../../lib/gcc/pic32mx/4.8.3/../../../../pic32mx/lib\libm.a(fpreduct32.o)
 .reginfo       0x00000000       0x18 c:/program files (x86)/microchip/xc32/v2.30/bin/bin/../../lib/gcc/pic32mx/4.8.3/../../../../pic32mx/lib\libm.a(fpsin32.o)
 .reginfo       0x00000000       0x18 c:/program files (x86)/microchip/xc32/v2.30/bin/bin/../../lib/gcc/pic32mx/4.8.3/../../../../pic32mx/lib\libm.a(fptodp.o)
 .reginfo       0x00000000       0x18 c:/program files (x86)/microchip/xc32/v2.30/bin/bin/../../lib/gcc/pic32mx/4.8.3/../../../../pic32mx/lib\libm.a(fptoli.o)
 .reginfo       0x00000000       0x18 c:/program files (x86)/microchip/xc32/v2.30/bin/bin/../../lib/gcc/pic32mx/4.8.3/../../../../pic32mx/lib\libm.a(fptoul.o)
 .reginfo       0x00000000       0x18 c:/program files (x86)/microchip/xc32/v2.30/bin/bin/../../lib/gcc/pic32mx/4.8.3/../../../../pic32mx/lib\libm.a(litodp.o)
 .reginfo       0x00000000       0x18 c:/program files (x86)/microchip/xc32/v2.30/bin/bin/../../lib/gcc/pic32mx/4.8.3/../../../../pic32mx/lib\libm.a(sincof32.o)
 .reginfo       0x00000000       0x18 c:/program files (x86)/microchip/xc32/v2.30/bin/bin/../../lib/gcc/pic32mx/4.8.3/../../../../pic32mx/lib\libm.a(sitofp.o)
 .reginfo       0x00000000       0x18 c:/program files (x86)/microchip/xc32/v2.30/bin/bin/../../lib/gcc/pic32mx/4.8.3/../../../../pic32mx/lib\libm.a(w_atan2f.o)
 .reginfo       0x00000000       0x18 c:/program files (x86)/microchip/xc32/v2.30/bin/bin/../../lib/gcc/pic32mx/4.8.3/../../../../pic32mx/lib\libm.a(w_sqrtf.o)
 .reginfo       0x00000000       0x18 c:/program files (x86)/microchip/xc32/v2.30/bin/bin/../../lib/gcc/pic32mx/4.8.3/../../../../pic32mx/lib\libm.a(support.o)
 .reginfo       0x00000000       0x18 c:/program files (x86)/microchip/xc32/v2.30/bin/bin/../../lib/gcc/pic32mx/4.8.3/../../../../pic32mx/lib\libm.a(dpldexp.o)
 .reginfo       0x00000000       0x18 c:/program files (x86)/microchip/xc32/v2.30/bin/bin/../../lib/gcc/pic32mx/4.8.3/../../../../pic32mx/lib\libm.a(dp32div.o)
 .reginfo       0x00000000       0x18 c:/program files (x86)/microchip/xc32/v2.30/bin/bin/../../lib/gcc/pic32mx/4.8.3/../../../../pic32mx/lib\libm.a(dpcmp.o)
 .reginfo       0x00000000       0x18 c:/program files (x86)/microchip/xc32/v2.30/bin/bin/../../lib/gcc/pic32mx/4.8.3/../../../../pic32mx/lib\libm.a(fpatan2.o)
 .reginfo       0x00000000       0x18 c:/program files (x86)/microchip/xc32/v2.30/bin/bin/../../lib/gcc/pic32mx/4.8.3/../../../../pic32mx/lib\libm.a(fpexatan.o)
 .reginfo       0x00000000       0x18 c:/program files (x86)/microchip/xc32/v2.30/bin/bin/../../lib/gcc/pic32mx/4.8.3/../../../../pic32mx/lib\libm.a(fpexsqrt32.o)
 .reginfo       0x00000000       0x18 c:/program files (x86)/microchip/xc32/v2.30/bin/bin/../../lib/gcc/pic32mx/4.8.3/../../../../pic32mx/lib\libm.a(fpsqrt32.o)
 .reginfo       0x00000000       0x18 c:/program files (x86)/microchip/xc32/v2.30/bin/bin/../../lib/gcc/pic32mx/4.8.3/../../../../pic32mx/lib\libm.a(s_lib_ver.o)
 .reginfo       0x00000000       0x18 c:/program files (x86)/microchip/xc32/v2.30/bin/bin/../../lib/gcc/pic32mx/4.8.3/../../../../pic32mx/lib\libpic32.a(errno.o)

Memory Configuration

Name             Origin             Length             Attributes
kseg0_program_mem 0x9d007490         0x00038b70         xr
kseg0_boot_mem   0x9d006000         0x00000000
exception_mem    0x9d006000         0x00001000
kseg1_boot_mem   0x9d007000         0x00000490
debug_exec_mem   0xbfc02000         0x00000ff0
config3          0xbfc02ff0         0x00000004
config2          0xbfc02ff4         0x00000004
config1          0xbfc02ff8         0x00000004
config0          0xbfc02ffc         0x00000004
kseg1_shared_mem 0xa0000000         0x00001000         w !x
kseg1_data_mem   0xa0001000         0x00007000         w !x
sfrs             0xbf800000         0x00100000
configsfrs       0xbfc02ff0         0x00000010
*default*        0x00000000         0xffffffff

Linker script and memory map

LOAD c:/program files (x86)/microchip/xc32/v2.30/bin/bin/../../lib/gcc/pic32mx/4.8.3/../../../../pic32mx/lib\debug-exception-return.o
LOAD output\tmr.o
LOAD output\mal.o
LOAD output\ringBuffer.o
LOAD output\task.o
LOAD output\sleep.o
LOAD output\eeprom.o
LOAD output\eep_manager.o
LOAD output\usb.o
LOAD output\usb_descriptors.o
LOAD output\usb_device.o
LOAD output\exceptions.o
LOAD output\isr.o
LOAD output\main.o
LOAD output\c_eep_manager.o
LOAD output\app.o
LOAD output\ad.o
LOAD output\gcode.o
LOAD output\grbl_limits.o
LOAD output\coolant_control.o
LOAD output\motion_control.o
LOAD output\nuts_bolts.o
LOAD output\planner.o
LOAD output\print.o
LOAD output\report.o
LOAD output\settings.o
LOAD output\spindle_control.o
LOAD output\stepper.o
LOAD output\system.o
LOAD output\grbl.o
LOAD output\pwm.o
LOAD output\jog.o
LOAD output\usb_function_cdc.o
LOAD output\dee.o
LOAD output\dee_page.o
LOAD output\dee_page_helper.o
LOAD output\eep_manager_crc.o
LOAD output\system_control.o
LOAD output\stepper_enable.o
LOAD output\system_exec.o
LOAD output\system_alarm.o
LOAD output\grbl_eeprom.o
LOAD output\bootloader_interface.o
LOAD output\grbl_toolchange.o
LOAD output\stackmeasure.o
LOAD output\stackmeasure_helper.o
LOAD output\grbl_protocol.o
LOAD output\grbl_running.o
LOAD output\grbl_bootloader.o
LOAD output\grbl_probe.o
LOAD output\ethernet.o
LOAD output\ENC28J60.o
LOAD output\DHCP.o
LOAD output\Delay.o
LOAD output\ARP.o
LOAD output\Announce.o
LOAD output\Helpers.o
LOAD output\ICMP.o
LOAD output\IP.o
LOAD output\StackTsk.o
LOAD output\UDP.o
LOAD output\usb_grbl_multi.o
LOAD output\ethernet_grbl_multi.o
LOAD output\grbl_multi.o
LOAD output\Reboot.o
LOAD output\TCP.o
LOAD output\BerkeleyAPI.o
LOAD output\noinitram.o
                0x00000400                PROVIDE (_min_stack_size, 0x400)
LOAD c:/program files (x86)/microchip/xc32/v2.30/bin/bin/../../lib/gcc/pic32mx/4.8.3/../../../../pic32mx/lib/./proc/32MX440F256H\processor.o
START GROUP
LOAD c:/program files (x86)/microchip/xc32/v2.30/bin/bin/../../lib/gcc/pic32mx/4.8.3/../../../../pic32mx/lib\libmchp_peripheral.a
END GROUP
START GROUP
LOAD c:/program files (x86)/microchip/xc32/v2.30/bin/bin/../../lib/gcc/pic32mx/4.8.3/../../../../pic32mx/lib\libmchp_peripheral_32MX440F256H.a
END GROUP
                0x00000001                PROVIDE (_vector_spacing, 0x1)
                0x9d006000                _ebase_address = 0x9d006000
                0x9d007000                _RESET_ADDR = 0x9d007000
                0x9d007380                _BEV_EXCPT_ADDR = 0x9d007380
                0x9d007480                _DBG_EXCPT_ADDR = 0x9d007480
                0xbfc02000                _DBG_CODE_ADDR = 0xbfc02000
                0x00000ff0                _DBG_CODE_SIZE = 0xff0
                0x9d006180                _GEN_EXCPT_ADDR = (_ebase_address + 0x180)

.config_BFC02FF0
 *(.config_BFC02FF0)

.config_BFC02FF4
 *(.config_BFC02FF4)

.config_BFC02FF8
 *(.config_BFC02FF8)

.config_BFC02FFC
 *(.config_BFC02FFC)
                0xbfc02000                PROVIDE (_DBG_CODE_ADDR, 0xbfc02000)
                0x00000ff0                PROVIDE (_DBG_CODE_SIZE, 0xff0)

.reset          0x9d007000      0x19c
 *(.reset)
 .reset         0x9d007000        0x8 C:\Users\kyrk\AppData\Local\Temp\ccO7tWVt.o
                0x9d007000                _reset
 *(.reset.startup)
 .reset.startup
                0x9d007008      0x194 C:\Users\kyrk\AppData\Local\Temp\ccO7tWVt.o
                0x9d007008                _startup

.bev_excpt      0x9d007380       0x10
 *(.bev_handler)
 .bev_handler   0x9d007380       0x10 C:\Users\kyrk\AppData\Local\Temp\ccO7tWVt.o

.dbg_excpt      0x9d007480        0x0
                0x9d007480                . = (. + DEFINED (_DEBUGGER)?0x8:0x0)

.dbg_code       0xbfc02000        0x0
                0xbfc02000                . = (. + DEFINED (_DEBUGGER)?_DBG_CODE_SIZE:0x0)

.app_excpt      0x9d006180       0x10
 *(.gen_handler)
 .gen_handler   0x9d006180       0x10 C:\Users\kyrk\AppData\Local\Temp\ccO7tWVt.o

.vector_0       0x9d006200        0x8
 *(.vector_0)
 .vector_0      0x9d006200        0x8 output\isr.o
                0x9d006200                __vector_dispatch_0
                0x00000001                ASSERT (((_vector_spacing == 0x0) || (SIZEOF (.vector_0) <= (_vector_spacing << 0x5))), function at exception vector 0 too large)

.vector_1       0x9d006220        0x8
 *(.vector_1)
 .vector_1      0x9d006220        0x8 c:/program files (x86)/microchip/xc32/v2.30/bin/bin/../../lib/gcc/pic32mx/4.8.3/../../../../pic32mx/lib\libpic32.a(vector1.o)
                0x9d006220                __vector_dispatch_1
                0x00000001                ASSERT (((_vector_spacing == 0x0) || (SIZEOF (.vector_1) <= (_vector_spacing << 0x5))), function at exception vector 1 too large)

.vector_2       0x9d006240        0x8
 *(.vector_2)
 .vector_2      0x9d006240        0x8 c:/program files (x86)/microchip/xc32/v2.30/bin/bin/../../lib/gcc/pic32mx/4.8.3/../../../../pic32mx/lib\libpic32.a(vector2.o)
                0x9d006240                __vector_dispatch_2
                0x00000001                ASSERT (((_vector_spacing == 0x0) || (SIZEOF (.vector_2) <= (_vector_spacing << 0x5))), function at exception vector 2 too large)

.vector_3       0x9d006260        0x8
 *(.vector_3)
 .vector_3      0x9d006260        0x8 c:/program files (x86)/microchip/xc32/v2.30/bin/bin/../../lib/gcc/pic32mx/4.8.3/../../../../pic32mx/lib\libpic32.a(vector3.o)
                0x9d006260                __vector_dispatch_3
                0x00000001                ASSERT (((_vector_spacing == 0x0) || (SIZEOF (.vector_3) <= (_vector_spacing << 0x5))), function at exception vector 3 too large)

.vector_4       0x9d006280        0x8
 *(.vector_4)
 .vector_4      0x9d006280        0x8 output\isr.o
                0x9d006280                __vector_dispatch_4
                0x00000001                ASSERT (((_vector_spacing == 0x0) || (SIZEOF (.vector_4) <= (_vector_spacing << 0x5))), function at exception vector 4 too large)

.vector_5       0x9d0062a0        0x8
 *(.vector_5)
 .vector_5      0x9d0062a0        0x8 c:/program files (x86)/microchip/xc32/v2.30/bin/bin/../../lib/gcc/pic32mx/4.8.3/../../../../pic32mx/lib\libpic32.a(vector5.o)
                0x9d0062a0                __vector_dispatch_5
                0x00000001                ASSERT (((_vector_spacing == 0x0) || (SIZEOF (.vector_5) <= (_vector_spacing << 0x5))), function at exception vector 5 too large)

.vector_6       0x9d0062c0        0x8
 *(.vector_6)
 .vector_6      0x9d0062c0        0x8 c:/program files (x86)/microchip/xc32/v2.30/bin/bin/../../lib/gcc/pic32mx/4.8.3/../../../../pic32mx/lib\libpic32.a(vector6.o)
                0x9d0062c0                __vector_dispatch_6
                0x00000001                ASSERT (((_vector_spacing == 0x0) || (SIZEOF (.vector_6) <= (_vector_spacing << 0x5))), function at exception vector 6 too large)

.vector_7       0x9d0062e0        0x8
 *(.vector_7)
 .vector_7      0x9d0062e0        0x8 c:/program files (x86)/microchip/xc32/v2.30/bin/bin/../../lib/gcc/pic32mx/4.8.3/../../../../pic32mx/lib\libpic32.a(vector7.o)
                0x9d0062e0                __vector_dispatch_7
                0x00000001                ASSERT (((_vector_spacing == 0x0) || (SIZEOF (.vector_7) <= (_vector_spacing << 0x5))), function at exception vector 7 too large)

.vector_8       0x9d006300        0x8
 *(.vector_8)
 .vector_8      0x9d006300        0x8 output\isr.o
                0x9d006300                __vector_dispatch_8
                0x00000001                ASSERT (((_vector_spacing == 0x0) || (SIZEOF (.vector_8) <= (_vector_spacing << 0x5))), function at exception vector 8 too large)

.vector_9       0x9d006320        0x8
 *(.vector_9)
 .vector_9      0x9d006320        0x8 c:/program files (x86)/microchip/xc32/v2.30/bin/bin/../../lib/gcc/pic32mx/4.8.3/../../../../pic32mx/lib\libpic32.a(vector9.o)
                0x9d006320                __vector_dispatch_9
                0x00000001                ASSERT (((_vector_spacing == 0x0) || (SIZEOF (.vector_9) <= (_vector_spacing << 0x5))), function at exception vector 9 too large)

.vector_10      0x9d006340        0x8
 *(.vector_10)
 .vector_10     0x9d006340        0x8 c:/program files (x86)/microchip/xc32/v2.30/bin/bin/../../lib/gcc/pic32mx/4.8.3/../../../../pic32mx/lib\libpic32.a(vector10.o)
                0x9d006340                __vector_dispatch_10
                0x00000001                ASSERT (((_vector_spacing == 0x0) || (SIZEOF (.vector_10) <= (_vector_spacing << 0x5))), function at exception vector 10 too large)

.vector_11      0x9d006360        0x8
 *(.vector_11)
 .vector_11     0x9d006360        0x8 c:/program files (x86)/microchip/xc32/v2.30/bin/bin/../../lib/gcc/pic32mx/4.8.3/../../../../pic32mx/lib\libpic32.a(vector11.o)
                0x9d006360                __vector_dispatch_11
                0x00000001                ASSERT (((_vector_spacing == 0x0) || (SIZEOF (.vector_11) <= (_vector_spacing << 0x5))), function at exception vector 11 too large)

.vector_12      0x9d006380        0x8
 *(.vector_12)
 .vector_12     0x9d006380        0x8 output\isr.o
                0x9d006380                __vector_dispatch_12
                0x00000001                ASSERT (((_vector_spacing == 0x0) || (SIZEOF (.vector_12) <= (_vector_spacing << 0x5))), function at exception vector 12 too large)

.vector_13      0x9d0063a0        0x8
 *(.vector_13)
 .vector_13     0x9d0063a0        0x8 c:/program files (x86)/microchip/xc32/v2.30/bin/bin/../../lib/gcc/pic32mx/4.8.3/../../../../pic32mx/lib\libpic32.a(vector13.o)
                0x9d0063a0                __vector_dispatch_13
                0x00000001                ASSERT (((_vector_spacing == 0x0) || (SIZEOF (.vector_13) <= (_vector_spacing << 0x5))), function at exception vector 13 too large)

.vector_14      0x9d0063c0        0x8
 *(.vector_14)
 .vector_14     0x9d0063c0        0x8 c:/program files (x86)/microchip/xc32/v2.30/bin/bin/../../lib/gcc/pic32mx/4.8.3/../../../../pic32mx/lib\libpic32.a(vector14.o)
                0x9d0063c0                __vector_dispatch_14
                0x00000001                ASSERT (((_vector_spacing == 0x0) || (SIZEOF (.vector_14) <= (_vector_spacing << 0x5))), function at exception vector 14 too large)

.vector_15      0x9d0063e0        0x8
 *(.vector_15)
 .vector_15     0x9d0063e0        0x8 output\isr.o
                0x9d0063e0                __vector_dispatch_15
                0x00000001                ASSERT (((_vector_spacing == 0x0) || (SIZEOF (.vector_15) <= (_vector_spacing << 0x5))), function at exception vector 15 too large)

.vector_16      0x9d006400        0x8
 *(.vector_16)
 .vector_16     0x9d006400        0x8 output\isr.o
                0x9d006400                __vector_dispatch_16
                0x00000001                ASSERT (((_vector_spacing == 0x0) || (SIZEOF (.vector_16) <= (_vector_spacing << 0x5))), function at exception vector 16 too large)

.vector_17      0x9d006420        0x8
 *(.vector_17)
 .vector_17     0x9d006420        0x8 c:/program files (x86)/microchip/xc32/v2.30/bin/bin/../../lib/gcc/pic32mx/4.8.3/../../../../pic32mx/lib\libpic32.a(vector17.o)
                0x9d006420                __vector_dispatch_17
                0x00000001                ASSERT (((_vector_spacing == 0x0) || (SIZEOF (.vector_17) <= (_vector_spacing << 0x5))), function at exception vector 17 too large)

.vector_18      0x9d006440        0x8
 *(.vector_18)
 .vector_18     0x9d006440        0x8 c:/program files (x86)/microchip/xc32/v2.30/bin/bin/../../lib/gcc/pic32mx/4.8.3/../../../../pic32mx/lib\libpic32.a(vector18.o)
                0x9d006440                __vector_dispatch_18
                0x00000001                ASSERT (((_vector_spacing == 0x0) || (SIZEOF (.vector_18) <= (_vector_spacing << 0x5))), function at exception vector 18 too large)

.vector_19      0x9d006460        0x8
 *(.vector_19)
 .vector_19     0x9d006460        0x8 c:/program files (x86)/microchip/xc32/v2.30/bin/bin/../../lib/gcc/pic32mx/4.8.3/../../../../pic32mx/lib\libpic32.a(vector19.o)
                0x9d006460                __vector_dispatch_19
                0x00000001                ASSERT (((_vector_spacing == 0x0) || (SIZEOF (.vector_19) <= (_vector_spacing << 0x5))), function at exception vector 19 too large)

.vector_20      0x9d006480        0x8
 *(.vector_20)
 .vector_20     0x9d006480        0x8 output\isr.o
                0x9d006480                __vector_dispatch_20
                0x00000001                ASSERT (((_vector_spacing == 0x0) || (SIZEOF (.vector_20) <= (_vector_spacing << 0x5))), function at exception vector 20 too large)

.vector_21      0x9d0064a0        0x8
 *(.vector_21)
 .vector_21     0x9d0064a0        0x8 c:/program files (x86)/microchip/xc32/v2.30/bin/bin/../../lib/gcc/pic32mx/4.8.3/../../../../pic32mx/lib\libpic32.a(vector21.o)
                0x9d0064a0                __vector_dispatch_21
                0x00000001                ASSERT (((_vector_spacing == 0x0) || (SIZEOF (.vector_21) <= (_vector_spacing << 0x5))), function at exception vector 21 too large)

.vector_22      0x9d0064c0        0x8
 *(.vector_22)
 .vector_22     0x9d0064c0        0x8 c:/program files (x86)/microchip/xc32/v2.30/bin/bin/../../lib/gcc/pic32mx/4.8.3/../../../../pic32mx/lib\libpic32.a(vector22.o)
                0x9d0064c0                __vector_dispatch_22
                0x00000001                ASSERT (((_vector_spacing == 0x0) || (SIZEOF (.vector_22) <= (_vector_spacing << 0x5))), function at exception vector 22 too large)

.vector_23      0x9d0064e0        0x8
 *(.vector_23)
 .vector_23     0x9d0064e0        0x8 c:/program files (x86)/microchip/xc32/v2.30/bin/bin/../../lib/gcc/pic32mx/4.8.3/../../../../pic32mx/lib\libpic32.a(vector23.o)
                0x9d0064e0                __vector_dispatch_23
                0x00000001                ASSERT (((_vector_spacing == 0x0) || (SIZEOF (.vector_23) <= (_vector_spacing << 0x5))), function at exception vector 23 too large)

.vector_24      0x9d006500        0x8
 *(.vector_24)
 .vector_24     0x9d006500        0x8 output\isr.o
                0x9d006500                __vector_dispatch_24
                0x00000001                ASSERT (((_vector_spacing == 0x0) || (SIZEOF (.vector_24) <= (_vector_spacing << 0x5))), function at exception vector 24 too large)

.vector_25      0x9d006520        0x8
 *(.vector_25)
 .vector_25     0x9d006520        0x8 output\isr.o
                0x9d006520                __vector_dispatch_25
                0x00000001                ASSERT (((_vector_spacing == 0x0) || (SIZEOF (.vector_25) <= (_vector_spacing << 0x5))), function at exception vector 25 too large)

.vector_26      0x9d006540        0x8
 *(.vector_26)
 .vector_26     0x9d006540        0x8 output\isr.o
                0x9d006540                __vector_dispatch_26
                0x00000001                ASSERT (((_vector_spacing == 0x0) || (SIZEOF (.vector_26) <= (_vector_spacing << 0x5))), function at exception vector 26 too large)

.vector_27      0x9d006560        0x8
 *(.vector_27)
 .vector_27     0x9d006560        0x8 c:/program files (x86)/microchip/xc32/v2.30/bin/bin/../../lib/gcc/pic32mx/4.8.3/../../../../pic32mx/lib\libpic32.a(vector27.o)
                0x9d006560                __vector_dispatch_27
                0x00000001                ASSERT (((_vector_spacing == 0x0) || (SIZEOF (.vector_27) <= (_vector_spacing << 0x5))), function at exception vector 27 too large)

.vector_28      0x9d006580        0x8
 *(.vector_28)
 .vector_28     0x9d006580        0x8 c:/program files (x86)/microchip/xc32/v2.30/bin/bin/../../lib/gcc/pic32mx/4.8.3/../../../../pic32mx/lib\libpic32.a(vector28.o)
                0x9d006580                __vector_dispatch_28
                0x00000001                ASSERT (((_vector_spacing == 0x0) || (SIZEOF (.vector_28) <= (_vector_spacing << 0x5))), function at exception vector 28 too large)

.vector_29      0x9d0065a0        0x8
 *(.vector_29)
 .vector_29     0x9d0065a0        0x8 c:/program files (x86)/microchip/xc32/v2.30/bin/bin/../../lib/gcc/pic32mx/4.8.3/../../../../pic32mx/lib\libpic32.a(vector29.o)
                0x9d0065a0                __vector_dispatch_29
                0x00000001                ASSERT (((_vector_spacing == 0x0) || (SIZEOF (.vector_29) <= (_vector_spacing << 0x5))), function at exception vector 29 too large)

.vector_30      0x9d0065c0        0x8
 *(.vector_30)
 .vector_30     0x9d0065c0        0x8 c:/program files (x86)/microchip/xc32/v2.30/bin/bin/../../lib/gcc/pic32mx/4.8.3/../../../../pic32mx/lib\libpic32.a(vector30.o)
                0x9d0065c0                __vector_dispatch_30
                0x00000001                ASSERT (((_vector_spacing == 0x0) || (SIZEOF (.vector_30) <= (_vector_spacing << 0x5))), function at exception vector 30 too large)

.vector_31      0x9d0065e0        0x8
 *(.vector_31)
 .vector_31     0x9d0065e0        0x8 output\isr.o
                0x9d0065e0                __vector_dispatch_31
                0x00000001                ASSERT (((_vector_spacing == 0x0) || (SIZEOF (.vector_31) <= (_vector_spacing << 0x5))), function at exception vector 31 too large)

.vector_32      0x9d006600        0x8
 *(.vector_32)
 .vector_32     0x9d006600        0x8 output\isr.o
                0x9d006600                __vector_dispatch_32
                0x00000001                ASSERT (((_vector_spacing == 0x0) || (SIZEOF (.vector_32) <= (_vector_spacing << 0x5))), function at exception vector 32 too large)

.vector_33      0x9d006620        0x8
 *(.vector_33)
 .vector_33     0x9d006620        0x8 output\isr.o
                0x9d006620                __vector_dispatch_33
                0x00000001                ASSERT (((_vector_spacing == 0x0) || (SIZEOF (.vector_33) <= (_vector_spacing << 0x5))), function at exception vector 33 too large)

.vector_34      0x9d006640        0x8
 *(.vector_34)
 .vector_34     0x9d006640        0x8 c:/program files (x86)/microchip/xc32/v2.30/bin/bin/../../lib/gcc/pic32mx/4.8.3/../../../../pic32mx/lib\libpic32.a(vector34.o)
                0x9d006640                __vector_dispatch_34
                0x00000001                ASSERT (((_vector_spacing == 0x0) || (SIZEOF (.vector_34) <= (_vector_spacing << 0x5))), function at exception vector 34 too large)

.vector_35      0x9d006660        0x8
 *(.vector_35)
 .vector_35     0x9d006660        0x8 c:/program files (x86)/microchip/xc32/v2.30/bin/bin/../../lib/gcc/pic32mx/4.8.3/../../../../pic32mx/lib\libpic32.a(vector35.o)
                0x9d006660                __vector_dispatch_35
                0x00000001                ASSERT (((_vector_spacing == 0x0) || (SIZEOF (.vector_35) <= (_vector_spacing << 0x5))), function at exception vector 35 too large)

.vector_36      0x9d006680        0x8
 *(.vector_36)
 .vector_36     0x9d006680        0x8 output\isr.o
                0x9d006680                __vector_dispatch_36
                0x00000001                ASSERT (((_vector_spacing == 0x0) || (SIZEOF (.vector_36) <= (_vector_spacing << 0x5))), function at exception vector 36 too large)

.vector_37      0x9d0066a0        0x8
 *(.vector_37)
 .vector_37     0x9d0066a0        0x8 output\isr.o
                0x9d0066a0                __vector_dispatch_37
                0x00000001                ASSERT (((_vector_spacing == 0x0) || (SIZEOF (.vector_37) <= (_vector_spacing << 0x5))), function at exception vector 37 too large)

.vector_38      0x9d0066c0        0x8
 *(.vector_38)
 .vector_38     0x9d0066c0        0x8 output\isr.o
                0x9d0066c0                __vector_dispatch_38
                0x00000001                ASSERT (((_vector_spacing == 0x0) || (SIZEOF (.vector_38) <= (_vector_spacing << 0x5))), function at exception vector 38 too large)

.vector_39      0x9d0066e0        0x8
 *(.vector_39)
 .vector_39     0x9d0066e0        0x8 output\isr.o
                0x9d0066e0                __vector_dispatch_39
                0x00000001                ASSERT (((_vector_spacing == 0x0) || (SIZEOF (.vector_39) <= (_vector_spacing << 0x5))), function at exception vector 39 too large)

.vector_40      0x9d006700        0x8
 *(.vector_40)
 .vector_40     0x9d006700        0x8 c:/program files (x86)/microchip/xc32/v2.30/bin/bin/../../lib/gcc/pic32mx/4.8.3/../../../../pic32mx/lib\libpic32.a(vector40.o)
                0x9d006700                __vector_dispatch_40
                0x00000001                ASSERT (((_vector_spacing == 0x0) || (SIZEOF (.vector_40) <= (_vector_spacing << 0x5))), function at exception vector 40 too large)

.vector_41      0x9d006720        0x8
 *(.vector_41)
 .vector_41     0x9d006720        0x8 c:/program files (x86)/microchip/xc32/v2.30/bin/bin/../../lib/gcc/pic32mx/4.8.3/../../../../pic32mx/lib\libpic32.a(vector41.o)
                0x9d006720                __vector_dispatch_41
                0x00000001                ASSERT (((_vector_spacing == 0x0) || (SIZEOF (.vector_41) <= (_vector_spacing << 0x5))), function at exception vector 41 too large)

.vector_42      0x9d006740        0x8
 *(.vector_42)
 .vector_42     0x9d006740        0x8 c:/program files (x86)/microchip/xc32/v2.30/bin/bin/../../lib/gcc/pic32mx/4.8.3/../../../../pic32mx/lib\libpic32.a(vector42.o)
                0x9d006740                __vector_dispatch_42
                0x00000001                ASSERT (((_vector_spacing == 0x0) || (SIZEOF (.vector_42) <= (_vector_spacing << 0x5))), function at exception vector 42 too large)

.vector_43      0x9d006760        0x8
 *(.vector_43)
 .vector_43     0x9d006760        0x8 c:/program files (x86)/microchip/xc32/v2.30/bin/bin/../../lib/gcc/pic32mx/4.8.3/../../../../pic32mx/lib\libpic32.a(vector43.o)
                0x9d006760                __vector_dispatch_43
                0x00000001                ASSERT (((_vector_spacing == 0x0) || (SIZEOF (.vector_43) <= (_vector_spacing << 0x5))), function at exception vector 43 too large)

.vector_44      0x9d006780        0x8
 *(.vector_44)
 .vector_44     0x9d006780        0x8 c:/program files (x86)/microchip/xc32/v2.30/bin/bin/../../lib/gcc/pic32mx/4.8.3/../../../../pic32mx/lib\libpic32.a(vector44.o)
                0x9d006780                __vector_dispatch_44
                0x00000001                ASSERT (((_vector_spacing == 0x0) || (SIZEOF (.vector_44) <= (_vector_spacing << 0x5))), function at exception vector 44 too large)

.vector_45      0x9d0067a0        0x8
 *(.vector_45)
 .vector_45     0x9d0067a0        0x8 output\isr.o
                0x9d0067a0                __vector_dispatch_45
                0x00000001                ASSERT (((_vector_spacing == 0x0) || (SIZEOF (.vector_45) <= (_vector_spacing << 0x5))), function at exception vector 45 too large)

.vector_46      0x9d0067c0        0x0
 *(.vector_46)
                0x00000001                ASSERT (((_vector_spacing == 0x0) || (SIZEOF (.vector_46) <= (_vector_spacing << 0x5))), function at exception vector 46 too large)

.vector_47      0x9d0067e0        0x0
 *(.vector_47)
                0x00000001                ASSERT (((_vector_spacing == 0x0) || (SIZEOF (.vector_47) <= (_vector_spacing << 0x5))), function at exception vector 47 too large)

.vector_48      0x9d006800        0x0
 *(.vector_48)
                0x00000001                ASSERT (((_vector_spacing == 0x0) || (SIZEOF (.vector_48) <= (_vector_spacing << 0x5))), function at exception vector 48 too large)

.vector_49      0x9d006820        0x0
 *(.vector_49)
                0x00000001                ASSERT (((_vector_spacing == 0x0) || (SIZEOF (.vector_49) <= (_vector_spacing << 0x5))), function at exception vector 49 too large)

.vector_50      0x9d006840        0x0
 *(.vector_50)
                0x00000001                ASSERT (((_vector_spacing == 0x0) || (SIZEOF (.vector_50) <= (_vector_spacing << 0x5))), function at exception vector 50 too large)

.vector_51      0x9d006860        0x0
 *(.vector_51)
                0x00000001                ASSERT (((_vector_spacing == 0x0) || (SIZEOF (.vector_51) <= (_vector_spacing << 0x5))), function at exception vector 51 too large)

.vector_52      0x9d006880        0x0
 *(.vector_52)
                0x00000001                ASSERT (((_vector_spacing == 0x0) || (SIZEOF (.vector_52) <= (_vector_spacing << 0x5))), function at exception vector 52 too large)

.vector_53      0x9d0068a0        0x0
 *(.vector_53)
                0x00000001                ASSERT (((_vector_spacing == 0x0) || (SIZEOF (.vector_53) <= (_vector_spacing << 0x5))), function at exception vector 53 too large)

.vector_54      0x9d0068c0        0x0
 *(.vector_54)
                0x00000001                ASSERT (((_vector_spacing == 0x0) || (SIZEOF (.vector_54) <= (_vector_spacing << 0x5))), function at exception vector 54 too large)

.vector_55      0x9d0068e0        0x0
 *(.vector_55)
                0x00000001                ASSERT (((_vector_spacing == 0x0) || (SIZEOF (.vector_55) <= (_vector_spacing << 0x5))), function at exception vector 55 too large)

.vector_56      0x9d006900        0x0
 *(.vector_56)
                0x00000001                ASSERT (((_vector_spacing == 0x0) || (SIZEOF (.vector_56) <= (_vector_spacing << 0x5))), function at exception vector 56 too large)

.vector_57      0x9d006920        0x0
 *(.vector_57)
                0x00000001                ASSERT (((_vector_spacing == 0x0) || (SIZEOF (.vector_57) <= (_vector_spacing << 0x5))), function at exception vector 57 too large)

.vector_58      0x9d006940        0x0
 *(.vector_58)
                0x00000001                ASSERT (((_vector_spacing == 0x0) || (SIZEOF (.vector_58) <= (_vector_spacing << 0x5))), function at exception vector 58 too large)

.vector_59      0x9d006960        0x0
 *(.vector_59)
                0x00000001                ASSERT (((_vector_spacing == 0x0) || (SIZEOF (.vector_59) <= (_vector_spacing << 0x5))), function at exception vector 59 too large)

.vector_60      0x9d006980        0x0
 *(.vector_60)
                0x00000001                ASSERT (((_vector_spacing == 0x0) || (SIZEOF (.vector_60) <= (_vector_spacing << 0x5))), function at exception vector 60 too large)

.vector_61      0x9d0069a0        0x0
 *(.vector_61)
                0x00000001                ASSERT (((_vector_spacing == 0x0) || (SIZEOF (.vector_61) <= (_vector_spacing << 0x5))), function at exception vector 61 too large)

.vector_62      0x9d0069c0        0x0
 *(.vector_62)
                0x00000001                ASSERT (((_vector_spacing == 0x0) || (SIZEOF (.vector_62) <= (_vector_spacing << 0x5))), function at exception vector 62 too large)

.vector_63      0x9d0069e0        0x0
 *(.vector_63)
                0x00000001                ASSERT (((_vector_spacing == 0x0) || (SIZEOF (.vector_63) <= (_vector_spacing << 0x5))), function at exception vector 63 too large)

.startup
 *(.startup)

.text           0x9d007490        0x0
 *(.stub .gnu.linkonce.t.*)
 *(.text.*personality*)
 *(.mips16.fn.*)
 *(.mips16.call.*)
 *(.gnu.warning)
                0x9d007490                . = ALIGN (0x4)

.init           0x9d007490        0x0
 *crti.o(.init)
 *crtbegin.o(.init)
 *(EXCLUDE_FILE(*crtn.o *crtend?.o *crtend.o) .init)
 *crtend.o(.init)
 *crtn.o(.init)
                0x9d007490                . = ALIGN (0x4)

.fini           0x9d007490        0x0
 *(.fini)
                0x9d007490                . = ALIGN (0x4)

.preinit_array  0x9d007490        0x0
                0x9d007490                PROVIDE (__preinit_array_start, .)
 *(.preinit_array)
                0x9d007490                PROVIDE (__preinit_array_end, .)
                0x9d007490                . = ALIGN (0x4)

.init_array     0x9d007490        0x0
                0x9d007490                PROVIDE (__init_array_start, .)
 *(SORT(.init_array.*))
 *(.init_array)
                0x9d007490                PROVIDE (__init_array_end, .)
                0x9d007490                . = ALIGN (0x4)

.fini_array     0x9d007490        0x0
                0x9d007490                PROVIDE (__fini_array_start, .)
 *(SORT(.fini_array.*))
 *(.fini_array)
                0x9d007490                PROVIDE (__fini_array_end, .)
                0x9d007490                . = ALIGN (0x4)

.ctors          0x9d007490        0x0
 *crtbegin.o(.ctors)
 *crtbegin?.o(.ctors)
 *(EXCLUDE_FILE(*crtend?.o *crtend.o) .ctors)
 *(SORT(.ctors.*))
 *(.ctors)
                0x9d007490                . = ALIGN (0x4)

.dtors          0x9d007490        0x0
 *crtbegin.o(.dtors)
 *crtbegin?.o(.dtors)
 *(EXCLUDE_FILE(*crtend?.o *crtend.o) .dtors)
 *(SORT(.dtors.*))
 *(.dtors)
                0x9d007490                . = ALIGN (0x4)

.rodata         0x9d007490        0x0
 *(.gnu.linkonce.r.*)
 *(.rodata1)
                0x9d007490                . = ALIGN (0x4)

.sdata2         0x9d006000        0x0
 *(.sdata2 .sdata2.* .gnu.linkonce.s2.*)
                0x9d006000                . = ALIGN (0x4)

.sbss2          0x9d006000        0x0
 *(.sbss2 .sbss2.* .gnu.linkonce.sb2.*)
                0x9d006000                . = ALIGN (0x4)

.eh_frame_hdr
 *(.eh_frame_hdr)
                0x9d006000                . = ALIGN (0x4)

.eh_frame
 *(.eh_frame)
                0x9d006000                . = ALIGN (0x4)

.gcc_except_table
 *(.gcc_except_table .gcc_except_table.*)
                0x9d006000                . = ALIGN (0x4)

.dbg_data       0xa0001000        0x0
                0xa0001000                . = (. + DEFINED (_DEBUGGER)?0x200:0x0)

.jcr            0xa0001000        0x0
 *(.jcr)
                0xa0001000                . = ALIGN (0x4)

.eh_frame
 *(.eh_frame)
                0xa0001000                . = ALIGN (0x4)

.gcc_except_table
 *(.gcc_except_table .gcc_except_table.*)
                0xa0001000                . = ALIGN (0x4)

.persist        0xa0001000        0x4
                0xa0001000                _persist_begin = .
 *(.persist .persist.*)
 *(.pbss .pbss.*)
 .pbss          0xa0001000        0x2 output\UDP.o
 .pbss          0xa0001002        0x2 output\TCP.o
                0xa0001004                . = ALIGN (0x4)
                0xa0001004                _persist_end = .

.data           0xa0001004        0x0
 *(.gnu.linkonce.d.*)
 *(.data1)
                0xa0001004                . = ALIGN (0x4)
                0xa0001004                . = .
                0xa0009000                _gp = (ALIGN (0x10) + 0x7ff0)

.got            0xa0001004        0x0
 *(.got.plt)
 *(.got)
                0xa0001004                . = ALIGN (0x4)

.sdata          0xa0001004       0x5c
                0xa0001004                _sdata_begin = .
 *(.sdata .sdata.* .gnu.linkonce.s.*)
 .sdata         0xa0001004        0x1 output\sleep.o
                0xa0001004                sleepGetMainLoopRun_result
 *fill*         0xa0001005        0x3 
 .sdata         0xa0001008        0x4 output\eep_manager.o
 .sdata         0xa000100c        0x1 output\app.o
 *fill*         0xa000100d        0x3 
 .sdata         0xa0001010        0x8 output\grbl_limits.o
                0xa0001010                limits_disabled
                0xa0001014                pl_data
 .sdata         0xa0001018        0x8 output\pwm.o
                0xa0001018                maxFreq
                0xa000101c                maxDuty
 .sdata         0xa0001020        0x1 output\dee.o
                0xa0001020                dee_debug_enable
 *fill*         0xa0001021        0x3 
 .sdata         0xa0001024        0x8 output\stepper_enable.o
                0xa0001028                stepper_enable_emergency_stop_active
 .sdata         0xa000102c        0x3 output\grbl_eeprom.o
                0xa000102c                grbl_eeprom_trigger_prev
                0xa000102d                backup_eep_error_single_shoot
                0xa000102e                master_eep_error_single_shoot
 *fill*         0xa000102f        0x1 
 .sdata         0xa0001030        0x8 output\stackmeasure.o
                0xa0001030                stackmeasure_to
                0xa0001034                stackmeasure_from
 .sdata         0xa0001038        0x1 output\grbl_running.o
 *fill*         0xa0001039        0x3 
 .sdata         0xa000103c        0x8 output\ethernet.o
                0xa000103c                SerializedMACAddress
 .sdata         0xa0001044        0x4 output\Helpers.o
 .sdata         0xa0001048        0x2 output\UDP.o
 *fill*         0xa000104a        0x2 
 .sdata         0xa000104c        0x8 output\ethernet_grbl_multi.o
                0xa000104c                addrlen
                0xa0001050                serverPort
 .sdata         0xa0001054        0x1 output\Reboot.o
 .sdata         0xa0001055        0x2 output\TCP.o
 *fill*         0xa0001057        0x1 
 .sdata         0xa0001058        0x8 output\BerkeleyAPI.o
                0xa0001060                . = ALIGN (0x4)
                0xa0001060                _sdata_end = .

.lit8
 *(.lit8)

.lit4
 *(.lit4)
                0xa0001060                . = ALIGN (0x4)
                0xa0001060                _data_end = .
                0xa0001060                _bss_begin = .

.sbss           0xa0001060      0x3ec
                0xa0001060                _sbss_begin = .
 *(.dynsbss)
 *(.sbss .sbss.* .gnu.linkonce.sb.*)
 .sbss          0xa0001060       0x14 output\tmr.o
                0xa000106c                globalTimeUs
                0xa0001070                globalTime
 .sbss          0xa0001074       0x10 output\mal.o
                0xa0001074                isrLockCnt
                0xa0001078                gieTemp
                0xa000107c                mal_RCON_temp
                0xa0001080                mal_resetReason_temp
 .sbss          0xa0001084        0xc output\task.o
                0xa0001084                taskListsPtr
                0xa0001088                doTaskListGuard
                0xa0001089                doTaskList1ms
                0xa000108c                tasksTotalTime
 .sbss          0xa0001090       0x20 output\sleep.o
                0xa0001090                do_isr_sleep_1ms
                0xa0001091                sleep_executeSleep
                0xa0001092                sleepPointOfNoReturnRegisteredRequest
                0xa0001093                sleepPointOfNoReturn
                0xa0001094                sleepEdgeDetector
                0xa0001098                sleepDriverRequest_delay
                0xa000109c                sleepAppRequest_delay
                0xa00010a0                sleepRequestDriver
                0xa00010a4                sleepRequestApp
                0xa00010a8                sleepRequestLock
                0xa00010ac                sleepTime
 .sbss          0xa00010b0       0x20 output\eep_manager.o
                0xa00010c1                do_eep_manager_1ms
                0xa00010c4                eep_manager_persistent_eeprom_2
                0xa00010c8                eep_manager_persistent_eeprom
                0xa00010cc                eep_manager_persistent_config
 .sbss          0xa00010d0        0x8 output\exceptions.o
                0xa00010d0                generateException
                0xa00010d4                exceptionCounter
 .sbss          0xa00010d8       0x20 output\main.o
                0xa00010e4                loopCntHistoryCnt
                0xa00010e8                tick_count
                0xa00010ec                loopCnt
                0xa00010f0                loopCntTemp
                0xa00010f4                do_loopCnt
 .sbss          0xa00010f8        0x2 output\ad.o
                0xa00010f9                doAd100ms
 *fill*         0xa00010fa        0x2 
 .sbss          0xa00010fc        0x8 output\gcode.o
                0xa00010fc                grbl_Tool_Length_2
                0xa0001100                grbl_Tool_Length_1
 .sbss          0xa0001104       0x18 output\grbl_limits.o
                0xa0001104                logger_limits_get_state_prev
                0xa0001105                limit_flag_for_homeing_EXEC_CYCLE_STOP
                0xa0001106                limit_delay_home
                0xa0001108                limits_get_state_debug
                0xa0001109                limits_get_state_current
                0xa000110a                limits_get_state_last
                0xa000110c                do_limits_polling
                0xa0001110                do_limits_1ms
                0xa0001114                limit_go_home_state
                0xa0001118                do_limits_go_home
 .sbss          0xa000111c        0x8 output\motion_control.o
                0xa000111c                mc_homing_state_machine
                0xa0001120                do_mc_homing_cycle
                0xa0001121                count
                0xa0001122                do_ArcGenerating
 .sbss          0xa0001124        0x5 output\nuts_bolts.o
                0xa0001124                nuts_bolts_delayCnt
                0xa0001125                do_nuts_bolts_delay1ms
                0xa0001126                grbl_not_existing_lat
                0xa0001127                grbl_not_existing_port
                0xa0001128                grbl_not_existing_tris
 *fill*         0xa0001129        0x3 
 .sbss          0xa000112c       0x28 output\report.o
                0xa0001144                do_grbl_report_50ms
                0xa0001148                grbl_report_eeprom_dump
                0xa000114c                grbl_report_sys_log_1
                0xa0001150                grbl_report_sys_log_0
 .sbss          0xa0001154       0x10 output\stepper.o
                0xa0001160                segment_next_head
                0xa0001161                segment_buffer_head
                0xa0001162                segment_buffer_tail
 .sbss          0xa0001164       0x10 output\system.o
                0xa0001165                restore_condition
                0xa0001168                restore_spindle_speed
                0xa000116c                sys_rt_exec_accessory_override
                0xa000116d                sys_rt_exec_motion_override
                0xa0001170                grbl_system_sm
 .sbss          0xa0001174       0x1c output\dee.o
                0xa0001178                dee_debug_init_dee
                0xa000117c                do_dee_debug
                0xa0001180                dee_addr_cache
                0xa0001184                dee_data_cache
                0xa0001188                dee_cache_valid
                0xa000118c                dee_debug_last_return_value
 .sbss          0xa0001190        0xc output\system_control.o
                0xa0001190                system_control_get_state_debug
                0xa0001191                system_control_get_state_last_SAFETY_DOOR
                0xa0001192                system_control_get_state_last_CYCLE_START
                0xa0001193                system_control_get_state_last_FEED_HOLD
                0xa0001194                system_control_get_state_last_ABORT
                0xa0001195                system_control_get_state_current_SAFETY_DOOR
                0xa0001196                system_control_get_state_current_CYCLE_START
                0xa0001197                system_control_get_state_current_FEED_HOLD
                0xa0001198                system_control_get_state_current_ABORT
                0xa0001199                do_system_poll_control_pins
                0xa000119a                do_system_control_1ms
                0xa000119b                system_reset_debug
 .sbss          0xa000119c       0x14 output\stepper_enable.o
                0xa000119c                stepper_logger_single_shoot
                0xa000119d                stepper_enable_abort_cnt
                0xa00011a0                stepper_enable_emergency_stop_delay_cnt
                0xa00011a4                stepper_enable_emergency_stop_delay
                0xa00011a8                stepper_enable_delayed_enabling_cnt
                0xa00011ac                stepper_enable_delayed_enabling
                0xa00011ad                do_stepper_enable_1ms
 .sbss          0xa00011b0        0x2 output\system_exec.o
                0xa00011b0                sys_rt_exec_state
 .sbss          0xa00011b2        0x2 output\system_alarm.o
                0xa00011b2                sys_rt_exec_alarm
 .sbss          0xa00011b4        0xc output\grbl_eeprom.o
                0xa00011b8                grbl_eeprom_trigger_current
                0xa00011b9                gc_main_eeprom_trigger
                0xa00011ba                grbl_critical_eep_error
                0xa00011bb                grbl_backup_eep_error
                0xa00011bc                grbl_master_eep_error
                0xa00011bd                grbl_eeprom_triggerWriteSettings
                0xa00011be                grbl_eeprom_triggerWriteAll
                0xa00011bf                do_grbl_eeprom_1ms
 .sbss          0xa00011c0        0xc output\grbl_toolchange.o
                0xa00011c0                do_grbl_toolchange_1ms
                0xa00011c1                grbl_toolchange_load_or_load_and_change
                0xa00011c2                grbl_toolchange_toolNumber
                0xa00011c4                grbl_toolchange_isRunning
                0xa00011c8                GRBL_Toolchange_SM_State
 .sbss          0xa00011cc        0x8 output\stackmeasure.o
                0xa00011cc                stackmeasure_maxfillness
                0xa00011d0                stackmeasure_current_pos
 .sbss          0xa00011d4       0x14 output\grbl_protocol.o
                0xa00011d8                missedRxChar_Grbl_Protocol
                0xa00011dc                protocol_set_requestDwell_dwellTime
                0xa00011e0                protocol_execute_line_status
                0xa00011e2                gc_execute_line_result
                0xa00011e3                requestSynchMotion
                0xa00011e4                lineStateMachine
 .sbss          0xa00011e8       0x20 output\grbl_running.o
                0xa00011f4                do_grbl_running_1h
                0xa00011f5                do_grbl_running_1min
                0xa00011f6                do_grbl_running_1s
                0xa00011f8                grbl_running_spindle_running_minutes
                0xa00011fc                grbl_running_startup_cnt
                0xa0001200                grbl_running_running_hours
                0xa0001204                grbl_running_running_minutes
 .sbss          0xa0001208        0x3 output\grbl_bootloader.o
                0xa0001209                grbl_bootloader_triggered
                0xa000120a                do_grbl_bootloader_1ms
 .sbss          0xa000120b        0x6 output\grbl_probe.o
                0xa000120b                probe_is_no_error
                0xa000120c                do_mc_probe_cycle
                0xa000120d                sys_probe_state
                0xa000120e                do_probe_1ms
                0xa000120f                probe_pin_state
                0xa0001210                probe_invert_mask
 *fill*         0xa0001211        0x3 
 .sbss          0xa0001214       0x3c output\ENC28J60.o
                0xa000121c                enc28j60_Dummy
                0xa0001220                enc28j60_spi_corruption_reinit_state
                0xa0001224                enc28j60_spi_corruption2_cnt
                0xa0001228                enc28j60_spi_corruption1_cnt
                0xa000122c                enc28j60_spi_corruption_reinit
                0xa0001230                ENC28J60_MACON4
                0xa0001231                ENC28J60_MACON3
                0xa0001232                ENC28J60_MACON1
                0xa0001233                ENC28J60_EFLOCON
                0xa0001234                ENC28J60_ECOCON
                0xa0001235                ENC28J60_MISTAT
                0xa0001236                ENC28J60_EBSTCON
                0xa0001237                ENC28J60_MICMD
                0xa0001238                ENC28J60_ERXFCON
                0xa0001239                ENC28J60_ECON1
                0xa000123a                ENC28J60_ECON2
                0xa000123b                ENC28J60_ESTAT
                0xa000123c                ENC28J60_EIR
                0xa000123d                ENC28J60_EIE
                0xa000123e                do_enc28j60_100ms
                0xa000123f                do_enc28j60_1ms
 .sbss          0xa0001250        0x4 output\ARP.o
 .sbss          0xa0001254        0x8 output\Announce.o
 .sbss          0xa000125c        0x4 output\IP.o
 .sbss          0xa0001260        0xc output\StackTsk.o
 .sbss          0xa000126c        0xc output\UDP.o
                0xa000126c                do_udp_1ms
 .sbss          0xa0001278        0x8 output\usb_grbl_multi.o
                0xa0001278                missedRxCharHID
                0xa000127c                missedTxCharHID
 .sbss          0xa0001280       0x1c output\ethernet_grbl_multi.o
                0xa0001284                do_serial_grbl_ethernet_multi_100ms
                0xa0001288                do_serial_grbl_ethernet_multi_1ms
                0xa000128c                ToSendDataBuffer_grbl_ethernet_multi_filled
                0xa0001290                missedRxCharEthernet
                0xa0001294                missedTxCharEthernet
                0xa0001298                bsdServerState
 .sbss          0xa000129c        0x4 output\grbl_multi.o
                0xa000129c                grbl_multi_source
 .sbss          0xa00012a0        0x4 output\TCP.o
                0xa00012a0                do_tcp_1ms
 .sbss          0xa00012a4        0x4 output\BerkeleyAPI.o
                0xa00012a4                do_berkeleyapi_1ms
 .sbss          0xa00012a8        0x4 output\noinitram.o
                0xa00012a8                noinitram_valid_block
 *(.scommon)
 .scommon       0xa00012ac       0x5c output\usb_device.o
                0xa00012ac                pDst
                0xa00012b0                USBDeferINDataStagePackets
                0xa00012b4                CtrlTrfData
                0xa00012bc                USBDeferOUTDataStagePackets
                0xa00012c0                USBDeviceState
                0xa00012c4                controlTransferState
                0xa00012c5                endpoint_number
                0xa00012c8                ep_data_out
                0xa00012cc                USBStatusStageEnabledFlag1
                0xa00012d0                USBStatusStageEnabledFlag2
                0xa00012d4                BothEP0OutUOWNsSet
                0xa00012d8                pBDTEntryEP0OutNext
                0xa00012dc                USBBusIsSuspended
                0xa00012e0                USBStatusStageTimeoutCounter
                0xa00012e4                SetupPkt
                0xa00012ec                ep_data_in
                0xa00012ef                shortPacketStatus
                0xa00012f0                pBDTEntryEP0OutCurrent
                0xa00012f4                USBActiveConfiguration
                0xa00012f8                RemoteWakeup
                0xa00012fc                USTATcopy
                0xa0001300                USBAlternateInterface
                0xa0001304                USBDeferStatusStagePacket
 .scommon       0xa0001308       0x18 output\exceptions.o
                0xa0001308                _return_addr
                0xa000130c                tempB
                0xa0001310                tempA
                0xa0001314                _excep_code
                0xa0001318                tempResult
                0xa000131c                _excep_addr
 .scommon       0xa0001320        0x2 output\ad.o
                0xa0001320                adResults
 *fill*         0xa0001322        0x2 
 .scommon       0xa0001324       0x19 output\grbl_limits.o
                0xa0001324                limit_state
                0xa0001325                axislock
                0xa0001326                approach
                0xa0001328                limit_filter_state
                0xa000132c                homing_rate
                0xa0001330                limits_set_state_filtered_currentState
                0xa0001331                n_active_axis
                0xa0001334                max_travel
                0xa0001338                step_pin
                0xa000133b                cycle_mask_asynch
                0xa000133c                n_cycle
 *fill*         0xa000133d        0x3 
 .scommon       0xa0001340       0x4a output\motion_control.o
                0xa0001340                axis_1_buffer
                0xa0001344                center_axis0
                0xa0001348                linear_per_segment
                0xa000134c                r_axisi
                0xa0001350                theta_per_segment
                0xa0001354                sin_Ti
                0xa0001358                axis_linear_buffer
                0xa000135c                cos_T
                0xa0001360                r_axis0
                0xa0001364                axis_0_buffer
                0xa0001368                r_axis1
                0xa000136c                sin_T
                0xa0001370                cycle_mask_buffer
                0xa0001374                radius_buffer
                0xa0001378                is_clockwise_arc_buffer
                0xa000137c                center_axis1
                0xa0001380                segments_buffer
                0xa0001384                cos_Ti
                0xa0001388                i_buffer
 .scommon       0xa000138a        0x4 output\planner.o
                0xa000138a                block_buffer_head
                0xa000138b                next_buffer_head
                0xa000138c                block_buffer_tail
                0xa000138d                block_buffer_planned
 .scommon       0xa000138e        0x1 output\settings.o
                0xa000138e                eep_settings_version
 *fill*         0xa000138f        0x1 
 .scommon       0xa0001390        0x4 output\system.o
                0xa0001390                system_suspendTime
 .scommon       0xa0001394       0x54 output\grbl.o
                0xa0001394                dummyTRIS6
                0xa0001398                dummyLAT4
                0xa000139c                dummyPORT1
                0xa00013a0                dummyPORT4
                0xa00013a4                dummyTRIS1
                0xa00013a8                dummyLAT1
                0xa00013ac                dummyTRIS3
                0xa00013b0                dummyPORT7
                0xa00013b4                dummyTRIS5
                0xa00013b8                dummyPORT2
                0xa00013bc                dummyLAT3
                0xa00013c0                dummyTRIS4
                0xa00013c4                dummyLAT5
                0xa00013c8                dummyLAT7
                0xa00013cc                dummyLAT2
                0xa00013d0                dummyPORT5
                0xa00013d4                dummyTRIS7
                0xa00013d8                dummyLAT6
                0xa00013dc                dummyTRIS2
                0xa00013e0                dummyPORT3
                0xa00013e4                dummyPORT6
 .scommon       0xa00013e8       0x38 output\usb_function_cdc.o
                0xa00013e8                control_signal_bitmap
                0xa00013ec                cdc_tx_len
                0xa00013f0                pCDCSrc
                0xa00013f4                CDCDataOutHandle
                0xa00013f8                cdc_rx_len
                0xa00013fc                line_coding
                0xa0001404                BaudRateGen
                0xa0001408                CDCDataInHandle
                0xa000140c                cdc_trf_state
                0xa0001410                pCDCDst
                0xa0001414                cdc_mem_type
                0xa0001418                dummy_encapsulated_cmd_response
 .scommon       0xa0001420        0x4 output\dee.o
                0xa0001420                dataEEFlags
 .scommon       0xa0001424        0xc output\dee_page.o
                0xa0001424                read_dee_page_size
                0xa0001428                read_dee_page
                0xa000142c                read_dee_page_startaddress
 .scommon       0xa0001430        0x4 output\grbl_eeprom.o
                0xa0001430                gcodePositionSave
 .scommon       0xa0001434        0x4 output\grbl_toolchange.o
                0xa0001434                grbl_toolchange_failsafe_timeout
 .scommon       0xa0001438        0x4 output\grbl_protocol.o
                0xa0001438                protocol_dwellTime
 .scommon       0xa000143c        0x4 output\grbl_bootloader.o
                0xa000143c                grbl_bootloader_timer
 .scommon       0xa0001440        0x6 output\UDP.o
                0xa0001440                UDPTxCount
                0xa0001442                activeUDPSocket
                0xa0001444                UDPRxCount
 *fill*         0xa0001446        0x2 
 .scommon       0xa0001448        0x2 output\ethernet_grbl_multi.o
                0xa0001448                ClientSock
                0xa0001449                bsdServerSocket
                0xa000144a                _sbss_end = .
                0xa000144c                . = ALIGN (0x4)
 *fill*         0xa000144a        0x2 

.bss            0xa0001600     0x2800
 *(.dynbss)
 *(COMMON)
 COMMON         0xa0001600      0x480 output\task.o
                0xa0001600                taskLists
 COMMON         0xa0001a80       0x78 output\eep_manager.o
                0xa0001a80                eep_manager_write_all_trigger
                0xa0001abc                eep_manager_debug_address
 *fill*         0xa0001af8      0x108 
 COMMON         0xa0001c00       0x93 output\usb_device.o
                0xa0001c00                BDT
                0xa0001c60                inPipes
                0xa0001c70                pBDTEntryIn
                0xa0001c7c                pBDTEntryOut
                0xa0001c88                outPipes
 *fill*         0xa0001c93        0x1 
 COMMON         0xa0001c94       0xf0 output\main.o
                0xa0001c94                loopCntHistory
 COMMON         0xa0001d84       0x9c output\gcode.o
                0xa0001d84                coord_offset_eep
                0xa0001d90                gc_state
                0xa0001dd4                gc_block
                0xa0001e14                coord_system_eep
 COMMON         0xa0001e20       0x18 output\grbl_limits.o
                0xa0001e20                plan_data
                0xa0001e2c                target
 COMMON         0xa0001e38       0x30 output\motion_control.o
                0xa0001e38                target_buffer
                0xa0001e44                offset_buffer
                0xa0001e50                pl_data_buffer
                0xa0001e5c                position_buffer
 COMMON         0xa0001e68      0xd1c output\planner.o
                0xa0001e68                pl
                0xa0001e84                block_buffer
 COMMON         0xa0002b84      0x1a4 output\settings.o
                0xa0002b84                eep_coord_data
                0xa0002bfc                settings
                0xa0002c5c                eep_coord_teached
                0xa0002c68                eep_settings_backup
                0xa0002cc8                eep_settings
 COMMON         0xa0002d28      0x34c output\stepper.o
                0xa0002d28                prep
                0xa0002d60                segment_buffer
                0xa0002e80                st_block_buffer
                0xa000304c                st
 COMMON         0xa0003074      0x12c output\system.o
                0xa0003074                system_log
                0xa00030f4                sys
                0xa0003108                system_log_caller
                0xa0003188                sys_probe_position
                0xa0003194                sys_position
 COMMON         0xa00031a0       0x40 output\pwm.o
                0xa00031a0                pwm_duty
 COMMON         0xa00031e0       0x8a output\usb_function_cdc.o
                0xa00031e0                cdc_data_tx
                0xa0003220                cdc_data_rx
                0xa0003260                cdc_notice
 *fill*         0xa000326a        0x2 
 COMMON         0xa000326c        0xc output\dee_page.o
                0xa000326c                dee_debug_page_status
 COMMON         0xa0003278       0xe8 output\grbl_protocol.o
                0xa0003278                myRingBuffer_grbl_protocol_rx
                0xa0003290                line_buffer
                0xa00032e0                grbl_protocol_rx
 COMMON         0xa0003360       0x33 output\ethernet.o
                0xa0003360                AppConfig
 *fill*         0xa0003393        0x1 
 COMMON         0xa0003394        0xa output\StackTsk.o
                0xa0003394                remoteNode
 *fill*         0xa000339e        0x2 
 COMMON         0xa00033a0       0xe0 output\UDP.o
                0xa00033a0                UDPSocketInfo
 COMMON         0xa0003480      0x4b0 output\usb_grbl_multi.o
                0xa0003480                myRingBuffer_hid_rx
                0xa0003498                myRingBuffer_hid_tx
                0xa00034b0                ReceivedDataBuffer
                0xa00034f0                ToSendDataBuffer
                0xa0003530                hid_rx
                0xa0003730                hid_tx
 COMMON         0xa0003930      0x4d0 output\ethernet_grbl_multi.o
                0xa0003930                ReceivedDataBuffer_grbl_ethernet_multi
                0xa0003970                eth_tx
                0xa0003b70                myRingBuffer_eth_rx
                0xa0003b88                addr
                0xa0003b98                ToSendDataBuffer_grbl_ethernet_multi
                0xa0003bd8                eth_rx
                0xa0003dd8                myRingBuffer_eth_tx
                0xa0003df0                addRemote
                0xa0003e00                . = ALIGN ((. != 0x0)?0x4:0x1)
                0xa0003e00                . = ALIGN (0x4)
                0xa0003e00                _end = .
                0xa0003e00                _bss_end = .
                0x00007000                _bmxdudba_address = 0x7000
                0x00007000                _bmxdupba_address = 0x7000

/DISCARD/
 *(.pdr)
 *(.rel.dyn)
 *(.note.GNU-stack)
 *(.note.GNU-stack)
 *(.gnu_debuglink)
 *(.gnu.lto_*)
 *(.discard)
 *(._debug_exception)

.gptab.sdata
 *(.gptab.data)
 *(.gptab.sdata)

.gptab.sbss
 *(.gptab.bss)
 *(.gptab.sbss)

.mdebug.abi32   0xa0000000        0x0
 *(.mdebug.abi32)
 .mdebug.abi32  0xa0000000        0x0 output\tmr.o
 .mdebug.abi32  0xa0000000        0x0 output\mal.o
 .mdebug.abi32  0xa0000000        0x0 output\ringBuffer.o
 .mdebug.abi32  0xa0000000        0x0 output\task.o
 .mdebug.abi32  0xa0000000        0x0 output\sleep.o
 .mdebug.abi32  0xa0000000        0x0 output\eeprom.o
 .mdebug.abi32  0xa0000000        0x0 output\eep_manager.o
 .mdebug.abi32  0xa0000000        0x0 output\usb.o
 .mdebug.abi32  0xa0000000        0x0 output\usb_descriptors.o
 .mdebug.abi32  0xa0000000        0x0 output\usb_device.o
 .mdebug.abi32  0xa0000000        0x0 output\exceptions.o
 .mdebug.abi32  0xa0000000        0x0 output\isr.o
 .mdebug.abi32  0xa0000000        0x0 output\main.o
 .mdebug.abi32  0xa0000000        0x0 output\c_eep_manager.o
 .mdebug.abi32  0xa0000000        0x0 output\app.o
 .mdebug.abi32  0xa0000000        0x0 output\ad.o
 .mdebug.abi32  0xa0000000        0x0 output\gcode.o
 .mdebug.abi32  0xa0000000        0x0 output\grbl_limits.o
 .mdebug.abi32  0xa0000000        0x0 output\coolant_control.o
 .mdebug.abi32  0xa0000000        0x0 output\motion_control.o
 .mdebug.abi32  0xa0000000        0x0 output\nuts_bolts.o
 .mdebug.abi32  0xa0000000        0x0 output\planner.o
 .mdebug.abi32  0xa0000000        0x0 output\print.o
 .mdebug.abi32  0xa0000000        0x0 output\report.o
 .mdebug.abi32  0xa0000000        0x0 output\settings.o
 .mdebug.abi32  0xa0000000        0x0 output\spindle_control.o
 .mdebug.abi32  0xa0000000        0x0 output\stepper.o
 .mdebug.abi32  0xa0000000        0x0 output\system.o
 .mdebug.abi32  0xa0000000        0x0 output\grbl.o
 .mdebug.abi32  0xa0000000        0x0 output\pwm.o
 .mdebug.abi32  0xa0000000        0x0 output\jog.o
 .mdebug.abi32  0xa0000000        0x0 output\usb_function_cdc.o
 .mdebug.abi32  0xa0000000        0x0 output\dee.o
 .mdebug.abi32  0xa0000000        0x0 output\dee_page.o
 .mdebug.abi32  0xa0000000        0x0 output\dee_page_helper.o
 .mdebug.abi32  0xa0000000        0x0 output\eep_manager_crc.o
 .mdebug.abi32  0xa0000000        0x0 output\system_control.o
 .mdebug.abi32  0xa0000000        0x0 output\stepper_enable.o
 .mdebug.abi32  0xa0000000        0x0 output\system_exec.o
 .mdebug.abi32  0xa0000000        0x0 output\system_alarm.o
 .mdebug.abi32  0xa0000000        0x0 output\grbl_eeprom.o
 .mdebug.abi32  0xa0000000        0x0 output\bootloader_interface.o
 .mdebug.abi32  0xa0000000        0x0 output\grbl_toolchange.o
 .mdebug.abi32  0xa0000000        0x0 output\stackmeasure.o
 .mdebug.abi32  0xa0000000        0x0 output\grbl_protocol.o
 .mdebug.abi32  0xa0000000        0x0 output\grbl_running.o
 .mdebug.abi32  0xa0000000        0x0 output\grbl_bootloader.o
 .mdebug.abi32  0xa0000000        0x0 output\grbl_probe.o
 .mdebug.abi32  0xa0000000        0x0 output\ethernet.o
 .mdebug.abi32  0xa0000000        0x0 output\ENC28J60.o
 .mdebug.abi32  0xa0000000        0x0 output\DHCP.o
 .mdebug.abi32  0xa0000000        0x0 output\Delay.o
 .mdebug.abi32  0xa0000000        0x0 output\ARP.o
 .mdebug.abi32  0xa0000000        0x0 output\Announce.o
 .mdebug.abi32  0xa0000000        0x0 output\Helpers.o
 .mdebug.abi32  0xa0000000        0x0 output\ICMP.o
 .mdebug.abi32  0xa0000000        0x0 output\IP.o
 .mdebug.abi32  0xa0000000        0x0 output\StackTsk.o
 .mdebug.abi32  0xa0000000        0x0 output\UDP.o
 .mdebug.abi32  0xa0000000        0x0 output\usb_grbl_multi.o
 .mdebug.abi32  0xa0000000        0x0 output\ethernet_grbl_multi.o
 .mdebug.abi32  0xa0000000        0x0 output\grbl_multi.o
 .mdebug.abi32  0xa0000000        0x0 output\Reboot.o
 .mdebug.abi32  0xa0000000        0x0 output\TCP.o
 .mdebug.abi32  0xa0000000        0x0 output\BerkeleyAPI.o
 .mdebug.abi32  0xa0000000        0x0 output\noinitram.o
 .mdebug.abi32  0xa0000000        0x0 c:/program files (x86)/microchip/xc32/v2.30/bin/bin/../../lib/gcc/pic32mx/4.8.3/../../../../pic32mx/lib\libmchp_peripheral_32MX440F256H.a(soft_reset_lib.o)
 .mdebug.abi32  0xa0000000        0x0 c:/program files (x86)/microchip/xc32/v2.30/bin/bin/../../lib/gcc/pic32mx/4.8.3/../../../../pic32mx/lib\libmchp_peripheral_32MX440F256H.a(pcache.o)
 .mdebug.abi32  0xa0000000        0x0 c:/program files (x86)/microchip/xc32/v2.30/bin/bin/../../lib/gcc/pic32mx/4.8.3/../../../../pic32mx/lib\libmchp_peripheral_32MX440F256H.a(int_disable_interrupts_lib.o)
 .mdebug.abi32  0xa0000000        0x0 c:/program files (x86)/microchip/xc32/v2.30/bin/bin/../../lib/gcc/pic32mx/4.8.3/../../../../pic32mx/lib\libmchp_peripheral_32MX440F256H.a(power_idle_lib.o)
 .mdebug.abi32  0xa0000000        0x0 c:/program files (x86)/microchip/xc32/v2.30/bin/bin/../../lib/gcc/pic32mx/4.8.3/../../../../pic32mx/lib\libmchp_peripheral_32MX440F256H.a(power_sleep_lib.o)
 .mdebug.abi32  0xa0000000        0x0 c:/program files (x86)/microchip/xc32/v2.30/bin/bin/../../lib/gcc/pic32mx/4.8.3/../../../../pic32mx/lib\libmchp_peripheral_32MX440F256H.a(nvm_erase_page_lib.o)
 .mdebug.abi32  0xa0000000        0x0 c:/program files (x86)/microchip/xc32/v2.30/bin/bin/../../lib/gcc/pic32mx/4.8.3/../../../../pic32mx/lib\libmchp_peripheral_32MX440F256H.a(nvm_operation_lib.o)
 .mdebug.abi32  0xa0000000        0x0 c:/program files (x86)/microchip/xc32/v2.30/bin/bin/../../lib/gcc/pic32mx/4.8.3/../../../../pic32mx/lib\libmchp_peripheral_32MX440F256H.a(nvm_write_word_lib.o)
 .mdebug.abi32  0xa0000000        0x0 c:/program files (x86)/microchip/xc32/v2.30/bin/bin/../../lib/gcc/pic32mx/4.8.3/../../../../pic32mx/lib\libmchp_peripheral_32MX440F256H.a(int_restore_interrupts_lib.o)
 .mdebug.abi32  0xa0000000        0x0 c:/program files (x86)/microchip/xc32/v2.30/bin/bin/../../lib/gcc/pic32mx/4.8.3\libgcc.a(_fixunssfdi.o)
 .mdebug.abi32  0xa0000000        0x0 c:/program files (x86)/microchip/xc32/v2.30/bin/bin/../../lib/gcc/pic32mx/4.8.3\libgcc.a(_floatundisf.o)
 .mdebug.abi32  0xa0000000        0x0 c:/program files (x86)/microchip/xc32/v2.30/bin/bin/../../lib/gcc/pic32mx/4.8.3\libgcc.a(floatunsisf.o)
 .mdebug.abi32  0xa0000000        0x0 c:/program files (x86)/microchip/xc32/v2.30/bin/bin/../../lib/gcc/pic32mx/4.8.3\libgcc.a(floatunsidf.o)
 .mdebug.abi32  0xa0000000        0x0 c:/program files (x86)/microchip/xc32/v2.30/bin/bin/../../lib/gcc/pic32mx/4.8.3/../../../../pic32mx/lib\libpic32.a(default-bootstrap-exception-handler.o)
 .mdebug.abi32  0xa0000000        0x0 c:/program files (x86)/microchip/xc32/v2.30/bin/bin/../../lib/gcc/pic32mx/4.8.3/../../../../pic32mx/lib\libpic32.a(default-on-reset.o)
 .mdebug.abi32  0xa0000000        0x0 c:/program files (x86)/microchip/xc32/v2.30/bin/bin/../../lib/gcc/pic32mx/4.8.3/../../../../pic32mx/lib\libpic32.a(default-on-bootstrap.o)
 .mdebug.abi32  0xa0000000        0x0 c:/program files (x86)/microchip/xc32/v2.30/bin/bin/../../lib/gcc/pic32mx/4.8.3/../../../../pic32mx/lib\libpic32.a(defaultinterrupt.o)
 .mdebug.abi32  0xa0000000        0x0 c:/program files (x86)/microchip/xc32/v2.30/bin/bin/../../lib/gcc/pic32mx/4.8.3/../../../../pic32mx/lib\liblega-c.a(strncmp.o)
 .mdebug.abi32  0xa0000000        0x0 c:/program files (x86)/microchip/xc32/v2.30/bin/bin/../../lib/gcc/pic32mx/4.8.3/../../../../pic32mx/lib\liblega-c.a(strncpy.o)
 .mdebug.abi32  0xa0000000        0x0 c:/program files (x86)/microchip/xc32/v2.30/bin/bin/../../lib/gcc/pic32mx/4.8.3/../../../../pic32mx/lib\libm.a(w_atan2f.o)
 .mdebug.abi32  0xa0000000        0x0 c:/program files (x86)/microchip/xc32/v2.30/bin/bin/../../lib/gcc/pic32mx/4.8.3/../../../../pic32mx/lib\libm.a(w_sqrtf.o)
 .mdebug.abi32  0xa0000000        0x0 c:/program files (x86)/microchip/xc32/v2.30/bin/bin/../../lib/gcc/pic32mx/4.8.3/../../../../pic32mx/lib\libm.a(support.o)
 .mdebug.abi32  0xa0000000        0x0 c:/program files (x86)/microchip/xc32/v2.30/bin/bin/../../lib/gcc/pic32mx/4.8.3/../../../../pic32mx/lib\libm.a(s_lib_ver.o)
 .mdebug.abi32  0xa0000000        0x0 c:/program files (x86)/microchip/xc32/v2.30/bin/bin/../../lib/gcc/pic32mx/4.8.3/../../../../pic32mx/lib\libpic32.a(errno.o)

.mdebug.abiN32
 *(.mdebug.abiN32)

.mdebug.abi64
 *(.mdebug.abi64)

.mdebug.abiO64
 *(.mdebug.abiO64)

.mdebug.eabi32
 *(.mdebug.eabi32)

.mdebug.eabi64
 *(.mdebug.eabi64)

.gcc_compiled_long32
 *(.gcc_compiled_long32)

.gcc_compiled_long64
 *(.gcc_compiled_long64)

.stab
 *(.stab)

.stabstr
 *(.stabstr)

.stab.excl
 *(.stab.excl)

.stab.exclstr
 *(.stab.exclstr)

.stab.index
 *(.stab.index)

.stab.indexstr
 *(.stab.indexstr)

.comment        0x00000000      0x17a
 *(.comment)
 .comment       0x00000000       0x3c output\tmr.o
                                 0x3d (size before relaxing)
 .comment       0x00000000       0x3d output\mal.o
 .comment       0x00000000       0x3d output\ringBuffer.o
 .comment       0x00000000       0x3d output\task.o
 .comment       0x00000000       0x3d output\sleep.o
 .comment       0x00000000       0x3d output\eeprom.o
 .comment       0x00000000       0x3d output\eep_manager.o
 .comment       0x00000000       0x3d output\usb.o
 .comment       0x00000000       0x3d output\usb_descriptors.o
 .comment       0x00000000       0x3d output\usb_device.o
 .comment       0x00000000       0x3d output\exceptions.o
 .comment       0x00000000       0x3d output\isr.o
 .comment       0x00000000       0x3d output\main.o
 .comment       0x00000000       0x3d output\c_eep_manager.o
 .comment       0x00000000       0x3d output\app.o
 .comment       0x00000000       0x3d output\ad.o
 .comment       0x00000000       0x3d output\gcode.o
 .comment       0x00000000       0x3d output\grbl_limits.o
 .comment       0x00000000       0x3d output\coolant_control.o
 .comment       0x00000000       0x3d output\motion_control.o
 .comment       0x00000000       0x3d output\nuts_bolts.o
 .comment       0x00000000       0x3d output\planner.o
 .comment       0x00000000       0x3d output\print.o
 .comment       0x00000000       0x3d output\report.o
 .comment       0x00000000       0x3d output\settings.o
 .comment       0x00000000       0x3d output\spindle_control.o
 .comment       0x00000000       0x3d output\stepper.o
 .comment       0x00000000       0x3d output\system.o
 .comment       0x00000000       0x3d output\grbl.o
 .comment       0x00000000       0x3d output\pwm.o
 .comment       0x00000000       0x3d output\jog.o
 .comment       0x00000000       0x3d output\usb_function_cdc.o
 .comment       0x00000000       0x3d output\dee.o
 .comment       0x00000000       0x3d output\dee_page.o
 .comment       0x00000000       0x3d output\dee_page_helper.o
 .comment       0x00000000       0x3d output\eep_manager_crc.o
 .comment       0x00000000       0x3d output\system_control.o
 .comment       0x00000000       0x3d output\stepper_enable.o
 .comment       0x00000000       0x3d output\system_exec.o
 .comment       0x00000000       0x3d output\system_alarm.o
 .comment       0x00000000       0x3d output\grbl_eeprom.o
 .comment       0x00000000       0x3d output\bootloader_interface.o
 .comment       0x00000000       0x3d output\grbl_toolchange.o
 .comment       0x00000000       0x3d output\stackmeasure.o
 .comment       0x00000000       0x3d output\grbl_protocol.o
 .comment       0x00000000       0x3d output\grbl_running.o
 .comment       0x00000000       0x3d output\grbl_bootloader.o
 .comment       0x00000000       0x3d output\grbl_probe.o
 .comment       0x00000000       0x3d output\ethernet.o
 .comment       0x00000000       0x3d output\ENC28J60.o
 .comment       0x00000000       0x3d output\DHCP.o
 .comment       0x00000000       0x3d output\Delay.o
 .comment       0x00000000       0x3d output\ARP.o
 .comment       0x00000000       0x3d output\Announce.o
 .comment       0x00000000       0x3d output\Helpers.o
 .comment       0x00000000       0x3d output\ICMP.o
 .comment       0x00000000       0x3d output\IP.o
 .comment       0x00000000       0x3d output\StackTsk.o
 .comment       0x00000000       0x3d output\UDP.o
 .comment       0x00000000       0x3d output\usb_grbl_multi.o
 .comment       0x00000000       0x3d output\ethernet_grbl_multi.o
 .comment       0x00000000       0x3d output\grbl_multi.o
 .comment       0x00000000       0x3d output\Reboot.o
 .comment       0x00000000       0x3d output\TCP.o
 .comment       0x00000000       0x3d output\BerkeleyAPI.o
 .comment       0x00000000       0x3d output\noinitram.o
 .comment       0x0000003c       0x3c c:/program files (x86)/microchip/xc32/v2.30/bin/bin/../../lib/gcc/pic32mx/4.8.3/../../../../pic32mx/lib\libmchp_peripheral_32MX440F256H.a(soft_reset_lib.o)
                                 0x3d (size before relaxing)
 .comment       0x00000000       0x3d c:/program files (x86)/microchip/xc32/v2.30/bin/bin/../../lib/gcc/pic32mx/4.8.3/../../../../pic32mx/lib\libmchp_peripheral_32MX440F256H.a(pcache.o)
 .comment       0x00000000       0x3d c:/program files (x86)/microchip/xc32/v2.30/bin/bin/../../lib/gcc/pic32mx/4.8.3/../../../../pic32mx/lib\libmchp_peripheral_32MX440F256H.a(int_disable_interrupts_lib.o)
 .comment       0x00000000       0x3d c:/program files (x86)/microchip/xc32/v2.30/bin/bin/../../lib/gcc/pic32mx/4.8.3/../../../../pic32mx/lib\libmchp_peripheral_32MX440F256H.a(power_idle_lib.o)
 .comment       0x00000000       0x3d c:/program files (x86)/microchip/xc32/v2.30/bin/bin/../../lib/gcc/pic32mx/4.8.3/../../../../pic32mx/lib\libmchp_peripheral_32MX440F256H.a(power_sleep_lib.o)
 .comment       0x00000000       0x3d c:/program files (x86)/microchip/xc32/v2.30/bin/bin/../../lib/gcc/pic32mx/4.8.3/../../../../pic32mx/lib\libmchp_peripheral_32MX440F256H.a(nvm_erase_page_lib.o)
 .comment       0x00000000       0x3d c:/program files (x86)/microchip/xc32/v2.30/bin/bin/../../lib/gcc/pic32mx/4.8.3/../../../../pic32mx/lib\libmchp_peripheral_32MX440F256H.a(nvm_operation_lib.o)
 .comment       0x00000000       0x3d c:/program files (x86)/microchip/xc32/v2.30/bin/bin/../../lib/gcc/pic32mx/4.8.3/../../../../pic32mx/lib\libmchp_peripheral_32MX440F256H.a(nvm_write_word_lib.o)
 .comment       0x00000000       0x3d c:/program files (x86)/microchip/xc32/v2.30/bin/bin/../../lib/gcc/pic32mx/4.8.3/../../../../pic32mx/lib\libmchp_peripheral_32MX440F256H.a(int_restore_interrupts_lib.o)
 .comment       0x00000000       0x3d c:/program files (x86)/microchip/xc32/v2.30/bin/bin/../../lib/gcc/pic32mx/4.8.3\libgcc.a(_fixunssfdi.o)
 .comment       0x00000000       0x3d c:/program files (x86)/microchip/xc32/v2.30/bin/bin/../../lib/gcc/pic32mx/4.8.3\libgcc.a(_floatundisf.o)
 .comment       0x00000000       0x3d c:/program files (x86)/microchip/xc32/v2.30/bin/bin/../../lib/gcc/pic32mx/4.8.3\libgcc.a(floatunsisf.o)
 .comment       0x00000000       0x3d c:/program files (x86)/microchip/xc32/v2.30/bin/bin/../../lib/gcc/pic32mx/4.8.3\libgcc.a(floatunsidf.o)
 .comment       0x00000078       0x18 c:/program files (x86)/microchip/xc32/v2.30/bin/bin/../../lib/gcc/pic32mx/4.8.3/../../../../pic32mx/lib\libpic32.a(memcmp.o)
                                 0x19 (size before relaxing)
 .comment       0x00000090       0x18 c:/program files (x86)/microchip/xc32/v2.30/bin/bin/../../lib/gcc/pic32mx/4.8.3/../../../../pic32mx/lib\libpic32.a(memset.o)
                                 0x19 (size before relaxing)
 .comment       0x000000a8       0x19 c:/program files (x86)/microchip/xc32/v2.30/bin/bin/../../lib/gcc/pic32mx/4.8.3/../../../../pic32mx/lib\libpic32.a(strcmp.o)
                                 0x1a (size before relaxing)
 .comment       0x000000c1       0x19 c:/program files (x86)/microchip/xc32/v2.30/bin/bin/../../lib/gcc/pic32mx/4.8.3/../../../../pic32mx/lib\libpic32.a(strlen.o)
                                 0x1a (size before relaxing)
 .comment       0x00000000       0x3d c:/program files (x86)/microchip/xc32/v2.30/bin/bin/../../lib/gcc/pic32mx/4.8.3/../../../../pic32mx/lib\libpic32.a(default-bootstrap-exception-handler.o)
 .comment       0x00000000       0x3d c:/program files (x86)/microchip/xc32/v2.30/bin/bin/../../lib/gcc/pic32mx/4.8.3/../../../../pic32mx/lib\libpic32.a(default-on-reset.o)
 .comment       0x00000000       0x3d c:/program files (x86)/microchip/xc32/v2.30/bin/bin/../../lib/gcc/pic32mx/4.8.3/../../../../pic32mx/lib\libpic32.a(default-on-bootstrap.o)
 .comment       0x00000000       0x3d c:/program files (x86)/microchip/xc32/v2.30/bin/bin/../../lib/gcc/pic32mx/4.8.3/../../../../pic32mx/lib\libpic32.a(defaultinterrupt.o)
 .comment       0x000000da       0x50 c:/program files (x86)/microchip/xc32/v2.30/bin/bin/../../lib/gcc/pic32mx/4.8.3/../../../../pic32mx/lib\liblega-c.a(strncmp.o)
                                 0x8d (size before relaxing)
 .comment       0x0000012a       0x50 c:/program files (x86)/microchip/xc32/v2.30/bin/bin/../../lib/gcc/pic32mx/4.8.3/../../../../pic32mx/lib\liblega-c.a(strncpy.o)
                                 0x8d (size before relaxing)
 .comment       0x00000000       0x3d c:/program files (x86)/microchip/xc32/v2.30/bin/bin/../../lib/gcc/pic32mx/4.8.3/../../../../pic32mx/lib\libm.a(w_atan2f.o)
 .comment       0x00000000       0x3d c:/program files (x86)/microchip/xc32/v2.30/bin/bin/../../lib/gcc/pic32mx/4.8.3/../../../../pic32mx/lib\libm.a(w_sqrtf.o)
 .comment       0x00000000       0x3d c:/program files (x86)/microchip/xc32/v2.30/bin/bin/../../lib/gcc/pic32mx/4.8.3/../../../../pic32mx/lib\libm.a(support.o)
 .comment       0x00000000       0x3d c:/program files (x86)/microchip/xc32/v2.30/bin/bin/../../lib/gcc/pic32mx/4.8.3/../../../../pic32mx/lib\libm.a(s_lib_ver.o)
 .comment       0x00000000       0x3d c:/program files (x86)/microchip/xc32/v2.30/bin/bin/../../lib/gcc/pic32mx/4.8.3/../../../../pic32mx/lib\libpic32.a(errno.o)

.debug
 *(.debug)

.line
 *(.line)

.debug_srcinfo
 *(.debug_srcinfo)

.debug_sfnames
 *(.debug_sfnames)

.debug_aranges  0x00000000      0xb08
 *(.debug_aranges)
 .debug_aranges
                0x00000000       0x20 output\tmr.o
 .debug_aranges
                0x00000020       0x20 output\mal.o
 .debug_aranges
                0x00000040       0x20 output\ringBuffer.o
 .debug_aranges
                0x00000060       0x20 output\task.o
 .debug_aranges
                0x00000080       0x20 output\sleep.o
 .debug_aranges
                0x000000a0       0x20 output\eeprom.o
 .debug_aranges
                0x000000c0       0x20 output\eep_manager.o
 .debug_aranges
                0x000000e0       0x20 output\usb.o
 .debug_aranges
                0x00000100       0x18 output\usb_descriptors.o
 .debug_aranges
                0x00000118       0x20 output\usb_device.o
 .debug_aranges
                0x00000138       0x20 output\exceptions.o
 .debug_aranges
                0x00000158       0x20 output\isr.o
 .debug_aranges
                0x00000178       0x20 output\main.o
 .debug_aranges
                0x00000198       0x18 output\c_eep_manager.o
 .debug_aranges
                0x000001b0       0x20 output\app.o
 .debug_aranges
                0x000001d0       0x20 output\ad.o
 .debug_aranges
                0x000001f0       0x20 output\gcode.o
 .debug_aranges
                0x00000210       0x20 output\grbl_limits.o
 .debug_aranges
                0x00000230       0x20 output\coolant_control.o
 .debug_aranges
                0x00000250       0x20 output\motion_control.o
 .debug_aranges
                0x00000270       0x20 output\nuts_bolts.o
 .debug_aranges
                0x00000290       0x20 output\planner.o
 .debug_aranges
                0x000002b0       0x20 output\print.o
 .debug_aranges
                0x000002d0       0x20 output\report.o
 .debug_aranges
                0x000002f0       0x20 output\settings.o
 .debug_aranges
                0x00000310       0x20 output\spindle_control.o
 .debug_aranges
                0x00000330       0x20 output\stepper.o
 .debug_aranges
                0x00000350       0x20 output\system.o
 .debug_aranges
                0x00000370       0x20 output\grbl.o
 .debug_aranges
                0x00000390       0x20 output\pwm.o
 .debug_aranges
                0x000003b0       0x20 output\jog.o
 .debug_aranges
                0x000003d0       0x20 output\usb_function_cdc.o
 .debug_aranges
                0x000003f0       0x20 output\dee.o
 .debug_aranges
                0x00000410       0x20 output\dee_page.o
 .debug_aranges
                0x00000430       0x20 output\dee_page_helper.o
 .debug_aranges
                0x00000450       0x20 output\eep_manager_crc.o
 .debug_aranges
                0x00000470       0x20 output\system_control.o
 .debug_aranges
                0x00000490       0x20 output\stepper_enable.o
 .debug_aranges
                0x000004b0       0x20 output\system_exec.o
 .debug_aranges
                0x000004d0       0x20 output\system_alarm.o
 .debug_aranges
                0x000004f0       0x20 output\grbl_eeprom.o
 .debug_aranges
                0x00000510       0x20 output\bootloader_interface.o
 .debug_aranges
                0x00000530       0x20 output\grbl_toolchange.o
 .debug_aranges
                0x00000550       0x20 output\stackmeasure.o
 .debug_aranges
                0x00000570       0x20 output\grbl_protocol.o
 .debug_aranges
                0x00000590       0x20 output\grbl_running.o
 .debug_aranges
                0x000005b0       0x20 output\grbl_bootloader.o
 .debug_aranges
                0x000005d0       0x20 output\grbl_probe.o
 .debug_aranges
                0x000005f0       0x20 output\ethernet.o
 .debug_aranges
                0x00000610       0x20 output\ENC28J60.o
 .debug_aranges
                0x00000630       0x18 output\DHCP.o
 .debug_aranges
                0x00000648       0x20 output\Delay.o
 .debug_aranges
                0x00000668       0x20 output\ARP.o
 .debug_aranges
                0x00000688       0x20 output\Announce.o
 .debug_aranges
                0x000006a8       0x20 output\Helpers.o
 .debug_aranges
                0x000006c8       0x20 output\ICMP.o
 .debug_aranges
                0x000006e8       0x20 output\IP.o
 .debug_aranges
                0x00000708       0x20 output\StackTsk.o
 .debug_aranges
                0x00000728       0x20 output\UDP.o
 .debug_aranges
                0x00000748       0x20 output\usb_grbl_multi.o
 .debug_aranges
                0x00000768       0x20 output\ethernet_grbl_multi.o
 .debug_aranges
                0x00000788       0x20 output\grbl_multi.o
 .debug_aranges
                0x000007a8       0x20 output\Reboot.o
 .debug_aranges
                0x000007c8       0x20 output\TCP.o
 .debug_aranges
                0x000007e8       0x20 output\BerkeleyAPI.o
 .debug_aranges
                0x00000808       0x20 output\noinitram.o
 .debug_aranges
                0x00000828       0x20 c:/program files (x86)/microchip/xc32/v2.30/bin/bin/../../lib/gcc/pic32mx/4.8.3/../../../../pic32mx/lib\libmchp_peripheral_32MX440F256H.a(soft_reset_lib.o)
 .debug_aranges
                0x00000848       0x28 c:/program files (x86)/microchip/xc32/v2.30/bin/bin/../../lib/gcc/pic32mx/4.8.3/../../../../pic32mx/lib\libmchp_peripheral_32MX440F256H.a(pcache.o)
 .debug_aranges
                0x00000870       0x20 c:/program files (x86)/microchip/xc32/v2.30/bin/bin/../../lib/gcc/pic32mx/4.8.3/../../../../pic32mx/lib\libmchp_peripheral_32MX440F256H.a(int_disable_interrupts_lib.o)
 .debug_aranges
                0x00000890       0x20 c:/program files (x86)/microchip/xc32/v2.30/bin/bin/../../lib/gcc/pic32mx/4.8.3/../../../../pic32mx/lib\libmchp_peripheral_32MX440F256H.a(power_idle_lib.o)
 .debug_aranges
                0x000008b0       0x20 c:/program files (x86)/microchip/xc32/v2.30/bin/bin/../../lib/gcc/pic32mx/4.8.3/../../../../pic32mx/lib\libmchp_peripheral_32MX440F256H.a(power_sleep_lib.o)
 .debug_aranges
                0x000008d0       0x20 c:/program files (x86)/microchip/xc32/v2.30/bin/bin/../../lib/gcc/pic32mx/4.8.3/../../../../pic32mx/lib\libmchp_peripheral_32MX440F256H.a(nvm_erase_page_lib.o)
 .debug_aranges
                0x000008f0       0x20 c:/program files (x86)/microchip/xc32/v2.30/bin/bin/../../lib/gcc/pic32mx/4.8.3/../../../../pic32mx/lib\libmchp_peripheral_32MX440F256H.a(nvm_operation_lib.o)
 .debug_aranges
                0x00000910       0x20 c:/program files (x86)/microchip/xc32/v2.30/bin/bin/../../lib/gcc/pic32mx/4.8.3/../../../../pic32mx/lib\libmchp_peripheral_32MX440F256H.a(nvm_write_word_lib.o)
 .debug_aranges
                0x00000930       0x20 c:/program files (x86)/microchip/xc32/v2.30/bin/bin/../../lib/gcc/pic32mx/4.8.3/../../../../pic32mx/lib\libmchp_peripheral_32MX440F256H.a(int_restore_interrupts_lib.o)
 .debug_aranges
                0x00000950       0x20 c:/program files (x86)/microchip/xc32/v2.30/bin/bin/../../lib/gcc/pic32mx/4.8.3\libgcc.a(_fixunssfdi.o)
 .debug_aranges
                0x00000970       0x20 c:/program files (x86)/microchip/xc32/v2.30/bin/bin/../../lib/gcc/pic32mx/4.8.3\libgcc.a(_floatundisf.o)
 .debug_aranges
                0x00000990       0x20 c:/program files (x86)/microchip/xc32/v2.30/bin/bin/../../lib/gcc/pic32mx/4.8.3\libgcc.a(floatunsisf.o)
 .debug_aranges
                0x000009b0       0x20 c:/program files (x86)/microchip/xc32/v2.30/bin/bin/../../lib/gcc/pic32mx/4.8.3\libgcc.a(floatunsidf.o)
 .debug_aranges
                0x000009d0       0x20 c:/program files (x86)/microchip/xc32/v2.30/bin/bin/../../lib/gcc/pic32mx/4.8.3/../../../../pic32mx/lib\libpic32.a(default-bootstrap-exception-handler.o)
 .debug_aranges
                0x000009f0       0x20 c:/program files (x86)/microchip/xc32/v2.30/bin/bin/../../lib/gcc/pic32mx/4.8.3/../../../../pic32mx/lib\libpic32.a(default-on-reset.o)
 .debug_aranges
                0x00000a10       0x20 c:/program files (x86)/microchip/xc32/v2.30/bin/bin/../../lib/gcc/pic32mx/4.8.3/../../../../pic32mx/lib\libpic32.a(default-on-bootstrap.o)
 .debug_aranges
                0x00000a30       0x20 c:/program files (x86)/microchip/xc32/v2.30/bin/bin/../../lib/gcc/pic32mx/4.8.3/../../../../pic32mx/lib\libpic32.a(defaultinterrupt.o)
 .debug_aranges
                0x00000a50       0x20 c:/program files (x86)/microchip/xc32/v2.30/bin/bin/../../lib/gcc/pic32mx/4.8.3/../../../../pic32mx/lib\libm.a(w_atan2f.o)
 .debug_aranges
                0x00000a70       0x20 c:/program files (x86)/microchip/xc32/v2.30/bin/bin/../../lib/gcc/pic32mx/4.8.3/../../../../pic32mx/lib\libm.a(w_sqrtf.o)
 .debug_aranges
                0x00000a90       0x78 c:/program files (x86)/microchip/xc32/v2.30/bin/bin/../../lib/gcc/pic32mx/4.8.3/../../../../pic32mx/lib\libm.a(support.o)

.debug_pubnames
 *(.debug_pubnames)

.debug_info     0x00000000    0x4b82a
 *(.debug_info .gnu.linkonce.wi.*)
 .debug_info    0x00000000      0xa31 output\tmr.o
 .debug_info    0x00000a31      0x6a2 output\mal.o
 .debug_info    0x000010d3      0x60c output\ringBuffer.o
 .debug_info    0x000016df      0x977 output\task.o
 .debug_info    0x00002056      0x80a output\sleep.o
 .debug_info    0x00002860      0x440 output\eeprom.o
 .debug_info    0x00002ca0     0x134a output\eep_manager.o
 .debug_info    0x00003fea      0xcff output\usb.o
 .debug_info    0x00004ce9      0x79b output\usb_descriptors.o
 .debug_info    0x00005484     0x29d0 output\usb_device.o
 .debug_info    0x00007e54      0x7f7 output\exceptions.o
 .debug_info    0x0000864b      0xde5 output\isr.o
 .debug_info    0x00009430      0xefe output\main.o
 .debug_info    0x0000a32e     0x17a8 output\c_eep_manager.o
 .debug_info    0x0000bad6      0x2c4 output\app.o
 .debug_info    0x0000bd9a      0x9a6 output\ad.o
 .debug_info    0x0000c740     0x181b output\gcode.o
 .debug_info    0x0000df5b     0x1a37 output\grbl_limits.o
 .debug_info    0x0000f992      0x3f4 output\coolant_control.o
 .debug_info    0x0000fd86     0x12c4 output\motion_control.o
 .debug_info    0x0001104a      0x782 output\nuts_bolts.o
 .debug_info    0x000117cc     0x11ec output\planner.o
 .debug_info    0x000129b8      0x8c4 output\print.o
 .debug_info    0x0001327c     0x3736 output\report.o
 .debug_info    0x000169b2      0x9da output\settings.o
 .debug_info    0x0001738c      0xb07 output\spindle_control.o
 .debug_info    0x00017e93     0x181c output\stepper.o
 .debug_info    0x000196af     0x285e output\system.o
 .debug_info    0x0001bf0d     0x1905 output\grbl.o
 .debug_info    0x0001d812      0xb87 output\pwm.o
 .debug_info    0x0001e399      0xa5a output\jog.o
 .debug_info    0x0001edf3     0x1c66 output\usb_function_cdc.o
 .debug_info    0x00020a59     0x155f output\dee.o
 .debug_info    0x00021fb8     0x100e output\dee_page.o
 .debug_info    0x00022fc6      0x763 output\dee_page_helper.o
 .debug_info    0x00023729      0x67a output\eep_manager_crc.o
 .debug_info    0x00023da3      0xa20 output\system_control.o
 .debug_info    0x000247c3      0x87a output\stepper_enable.o
 .debug_info    0x0002503d      0x294 output\system_exec.o
 .debug_info    0x000252d1      0x26f output\system_alarm.o
 .debug_info    0x00025540     0x120d output\grbl_eeprom.o
 .debug_info    0x0002674d      0x2a6 output\bootloader_interface.o
 .debug_info    0x000269f3      0x883 output\grbl_toolchange.o
 .debug_info    0x00027276      0x228 output\stackmeasure.o
 .debug_info    0x0002749e     0x19d8 output\grbl_protocol.o
 .debug_info    0x00028e76      0x632 output\grbl_running.o
 .debug_info    0x000294a8      0x626 output\grbl_bootloader.o
 .debug_info    0x00029ace      0xdf7 output\grbl_probe.o
 .debug_info    0x0002a8c5     0x1b3b output\ethernet.o
 .debug_info    0x0002c400     0x52e3 output\ENC28J60.o
 .debug_info    0x000316e3      0xdb5 output\DHCP.o
 .debug_info    0x00032498      0xea0 output\Delay.o
 .debug_info    0x00033338     0x1a42 output\ARP.o
 .debug_info    0x00034d7a     0x1b6a output\Announce.o
 .debug_info    0x000368e4     0x1ab6 output\Helpers.o
 .debug_info    0x0003839a     0x15d4 output\ICMP.o
 .debug_info    0x0003996e     0x1973 output\IP.o
 .debug_info    0x0003b2e1     0x1974 output\StackTsk.o
 .debug_info    0x0003cc55     0x24dd output\UDP.o
 .debug_info    0x0003f132      0xc59 output\usb_grbl_multi.o
 .debug_info    0x0003fd8b     0x1adc output\ethernet_grbl_multi.o
 .debug_info    0x00041867      0x44b output\grbl_multi.o
 .debug_info    0x00041cb2     0x18a8 output\Reboot.o
 .debug_info    0x0004355a     0x3fd5 output\TCP.o
 .debug_info    0x0004752f     0x26aa output\BerkeleyAPI.o
 .debug_info    0x00049bd9      0x7cf output\noinitram.o
 .debug_info    0x0004a3a8       0xb0 c:/program files (x86)/microchip/xc32/v2.30/bin/bin/../../lib/gcc/pic32mx/4.8.3/../../../../pic32mx/lib\libmchp_peripheral_32MX440F256H.a(soft_reset_lib.o)
 .debug_info    0x0004a458       0xbe c:/program files (x86)/microchip/xc32/v2.30/bin/bin/../../lib/gcc/pic32mx/4.8.3/../../../../pic32mx/lib\libmchp_peripheral_32MX440F256H.a(pcache.o)
 .debug_info    0x0004a516       0xb4 c:/program files (x86)/microchip/xc32/v2.30/bin/bin/../../lib/gcc/pic32mx/4.8.3/../../../../pic32mx/lib\libmchp_peripheral_32MX440F256H.a(int_disable_interrupts_lib.o)
 .debug_info    0x0004a5ca       0xc4 c:/program files (x86)/microchip/xc32/v2.30/bin/bin/../../lib/gcc/pic32mx/4.8.3/../../../../pic32mx/lib\libmchp_peripheral_32MX440F256H.a(power_idle_lib.o)
 .debug_info    0x0004a68e       0xc6 c:/program files (x86)/microchip/xc32/v2.30/bin/bin/../../lib/gcc/pic32mx/4.8.3/../../../../pic32mx/lib\libmchp_peripheral_32MX440F256H.a(power_sleep_lib.o)
 .debug_info    0x0004a754       0xa4 c:/program files (x86)/microchip/xc32/v2.30/bin/bin/../../lib/gcc/pic32mx/4.8.3/../../../../pic32mx/lib\libmchp_peripheral_32MX440F256H.a(nvm_erase_page_lib.o)
 .debug_info    0x0004a7f8       0xc5 c:/program files (x86)/microchip/xc32/v2.30/bin/bin/../../lib/gcc/pic32mx/4.8.3/../../../../pic32mx/lib\libmchp_peripheral_32MX440F256H.a(nvm_operation_lib.o)
 .debug_info    0x0004a8bd       0xa4 c:/program files (x86)/microchip/xc32/v2.30/bin/bin/../../lib/gcc/pic32mx/4.8.3/../../../../pic32mx/lib\libmchp_peripheral_32MX440F256H.a(nvm_write_word_lib.o)
 .debug_info    0x0004a961       0xb4 c:/program files (x86)/microchip/xc32/v2.30/bin/bin/../../lib/gcc/pic32mx/4.8.3/../../../../pic32mx/lib\libmchp_peripheral_32MX440F256H.a(int_restore_interrupts_lib.o)
 .debug_info    0x0004aa15      0x280 c:/program files (x86)/microchip/xc32/v2.30/bin/bin/../../lib/gcc/pic32mx/4.8.3\libgcc.a(_fixunssfdi.o)
 .debug_info    0x0004ac95      0x253 c:/program files (x86)/microchip/xc32/v2.30/bin/bin/../../lib/gcc/pic32mx/4.8.3\libgcc.a(_floatundisf.o)
 .debug_info    0x0004aee8      0x129 c:/program files (x86)/microchip/xc32/v2.30/bin/bin/../../lib/gcc/pic32mx/4.8.3\libgcc.a(floatunsisf.o)
 .debug_info    0x0004b011      0x137 c:/program files (x86)/microchip/xc32/v2.30/bin/bin/../../lib/gcc/pic32mx/4.8.3\libgcc.a(floatunsidf.o)
 .debug_info    0x0004b148       0xf4 c:/program files (x86)/microchip/xc32/v2.30/bin/bin/../../lib/gcc/pic32mx/4.8.3/../../../../pic32mx/lib\libpic32.a(default-bootstrap-exception-handler.o)
 .debug_info    0x0004b23c       0xcd c:/program files (x86)/microchip/xc32/v2.30/bin/bin/../../lib/gcc/pic32mx/4.8.3/../../../../pic32mx/lib\libpic32.a(default-on-reset.o)
 .debug_info    0x0004b309       0xd5 c:/program files (x86)/microchip/xc32/v2.30/bin/bin/../../lib/gcc/pic32mx/4.8.3/../../../../pic32mx/lib\libpic32.a(default-on-bootstrap.o)
 .debug_info    0x0004b3de       0xe7 c:/program files (x86)/microchip/xc32/v2.30/bin/bin/../../lib/gcc/pic32mx/4.8.3/../../../../pic32mx/lib\libpic32.a(defaultinterrupt.o)
 .debug_info    0x0004b4c5       0xce c:/program files (x86)/microchip/xc32/v2.30/bin/bin/../../lib/gcc/pic32mx/4.8.3/../../../../pic32mx/lib\libm.a(w_atan2f.o)
 .debug_info    0x0004b593       0xbe c:/program files (x86)/microchip/xc32/v2.30/bin/bin/../../lib/gcc/pic32mx/4.8.3/../../../../pic32mx/lib\libm.a(w_sqrtf.o)
 .debug_info    0x0004b651      0x1d9 c:/program files (x86)/microchip/xc32/v2.30/bin/bin/../../lib/gcc/pic32mx/4.8.3/../../../../pic32mx/lib\libm.a(support.o)

.debug_abbrev   0x00000000     0x901a
 *(.debug_abbrev)
 .debug_abbrev  0x00000000      0x1c0 output\tmr.o
 .debug_abbrev  0x000001c0      0x1b9 output\mal.o
 .debug_abbrev  0x00000379      0x12b output\ringBuffer.o
 .debug_abbrev  0x000004a4      0x245 output\task.o
 .debug_abbrev  0x000006e9      0x1a2 output\sleep.o
 .debug_abbrev  0x0000088b      0x10c output\eeprom.o
 .debug_abbrev  0x00000997      0x285 output\eep_manager.o
 .debug_abbrev  0x00000c1c      0x1ea output\usb.o
 .debug_abbrev  0x00000e06       0xd8 output\usb_descriptors.o
 .debug_abbrev  0x00000ede      0x3f5 output\usb_device.o
 .debug_abbrev  0x000012d3      0x14a output\exceptions.o
 .debug_abbrev  0x0000141d      0x107 output\isr.o
 .debug_abbrev  0x00001524      0x13f output\main.o
 .debug_abbrev  0x00001663      0x160 output\c_eep_manager.o
 .debug_abbrev  0x000017c3       0xd9 output\app.o
 .debug_abbrev  0x0000189c      0x139 output\ad.o
 .debug_abbrev  0x000019d5      0x295 output\gcode.o
 .debug_abbrev  0x00001c6a      0x39f output\grbl_limits.o
 .debug_abbrev  0x00002009      0x132 output\coolant_control.o
 .debug_abbrev  0x0000213b      0x327 output\motion_control.o
 .debug_abbrev  0x00002462      0x171 output\nuts_bolts.o
 .debug_abbrev  0x000025d3      0x38f output\planner.o
 .debug_abbrev  0x00002962      0x157 output\print.o
 .debug_abbrev  0x00002ab9      0x392 output\report.o
 .debug_abbrev  0x00002e4b      0x22d output\settings.o
 .debug_abbrev  0x00003078      0x1ef output\spindle_control.o
 .debug_abbrev  0x00003267      0x329 output\stepper.o
 .debug_abbrev  0x00003590      0x3ac output\system.o
 .debug_abbrev  0x0000393c      0x185 output\grbl.o
 .debug_abbrev  0x00003ac1      0x197 output\pwm.o
 .debug_abbrev  0x00003c58      0x148 output\jog.o
 .debug_abbrev  0x00003da0      0x26e output\usb_function_cdc.o
 .debug_abbrev  0x0000400e      0x31b output\dee.o
 .debug_abbrev  0x00004329      0x31d output\dee_page.o
 .debug_abbrev  0x00004646      0x1c5 output\dee_page_helper.o
 .debug_abbrev  0x0000480b       0xcf output\eep_manager_crc.o
 .debug_abbrev  0x000048da      0x1d8 output\system_control.o
 .debug_abbrev  0x00004ab2      0x1bb output\stepper_enable.o
 .debug_abbrev  0x00004c6d       0xa9 output\system_exec.o
 .debug_abbrev  0x00004d16       0xc1 output\system_alarm.o
 .debug_abbrev  0x00004dd7      0x277 output\grbl_eeprom.o
 .debug_abbrev  0x0000504e       0xb3 output\bootloader_interface.o
 .debug_abbrev  0x00005101      0x1a3 output\grbl_toolchange.o
 .debug_abbrev  0x000052a4       0xcc output\stackmeasure.o
 .debug_abbrev  0x00005370      0x37a output\grbl_protocol.o
 .debug_abbrev  0x000056ea      0x105 output\grbl_running.o
 .debug_abbrev  0x000057ef      0x139 output\grbl_bootloader.o
 .debug_abbrev  0x00005928      0x2c5 output\grbl_probe.o
 .debug_abbrev  0x00005bed      0x2ba output\ethernet.o
 .debug_abbrev  0x00005ea7      0x466 output\ENC28J60.o
 .debug_abbrev  0x0000630d      0x118 output\DHCP.o
 .debug_abbrev  0x00006425      0x187 output\Delay.o
 .debug_abbrev  0x000065ac      0x2ed output\ARP.o
 .debug_abbrev  0x00006899      0x2ad output\Announce.o
 .debug_abbrev  0x00006b46      0x280 output\Helpers.o
 .debug_abbrev  0x00006dc6      0x21d output\ICMP.o
 .debug_abbrev  0x00006fe3      0x2a4 output\IP.o
 .debug_abbrev  0x00007287      0x27f output\StackTsk.o
 .debug_abbrev  0x00007506      0x3a9 output\UDP.o
 .debug_abbrev  0x000078af      0x231 output\usb_grbl_multi.o
 .debug_abbrev  0x00007ae0      0x318 output\ethernet_grbl_multi.o
 .debug_abbrev  0x00007df8      0x103 output\grbl_multi.o
 .debug_abbrev  0x00007efb      0x21f output\Reboot.o
 .debug_abbrev  0x0000811a      0x4b0 output\TCP.o
 .debug_abbrev  0x000085ca      0x3b8 output\BerkeleyAPI.o
 .debug_abbrev  0x00008982      0x1f3 output\noinitram.o
 .debug_abbrev  0x00008b75       0x37 c:/program files (x86)/microchip/xc32/v2.30/bin/bin/../../lib/gcc/pic32mx/4.8.3/../../../../pic32mx/lib\libmchp_peripheral_32MX440F256H.a(soft_reset_lib.o)
 .debug_abbrev  0x00008bac       0x28 c:/program files (x86)/microchip/xc32/v2.30/bin/bin/../../lib/gcc/pic32mx/4.8.3/../../../../pic32mx/lib\libmchp_peripheral_32MX440F256H.a(pcache.o)
 .debug_abbrev  0x00008bd4       0x28 c:/program files (x86)/microchip/xc32/v2.30/bin/bin/../../lib/gcc/pic32mx/4.8.3/../../../../pic32mx/lib\libmchp_peripheral_32MX440F256H.a(int_disable_interrupts_lib.o)
 .debug_abbrev  0x00008bfc       0x37 c:/program files (x86)/microchip/xc32/v2.30/bin/bin/../../lib/gcc/pic32mx/4.8.3/../../../../pic32mx/lib\libmchp_peripheral_32MX440F256H.a(power_idle_lib.o)
 .debug_abbrev  0x00008c33       0x37 c:/program files (x86)/microchip/xc32/v2.30/bin/bin/../../lib/gcc/pic32mx/4.8.3/../../../../pic32mx/lib\libmchp_peripheral_32MX440F256H.a(power_sleep_lib.o)
 .debug_abbrev  0x00008c6a       0x28 c:/program files (x86)/microchip/xc32/v2.30/bin/bin/../../lib/gcc/pic32mx/4.8.3/../../../../pic32mx/lib\libmchp_peripheral_32MX440F256H.a(nvm_erase_page_lib.o)
 .debug_abbrev  0x00008c92       0x37 c:/program files (x86)/microchip/xc32/v2.30/bin/bin/../../lib/gcc/pic32mx/4.8.3/../../../../pic32mx/lib\libmchp_peripheral_32MX440F256H.a(nvm_operation_lib.o)
 .debug_abbrev  0x00008cc9       0x28 c:/program files (x86)/microchip/xc32/v2.30/bin/bin/../../lib/gcc/pic32mx/4.8.3/../../../../pic32mx/lib\libmchp_peripheral_32MX440F256H.a(nvm_write_word_lib.o)
 .debug_abbrev  0x00008cf1       0x28 c:/program files (x86)/microchip/xc32/v2.30/bin/bin/../../lib/gcc/pic32mx/4.8.3/../../../../pic32mx/lib\libmchp_peripheral_32MX440F256H.a(int_restore_interrupts_lib.o)
 .debug_abbrev  0x00008d19       0x6d c:/program files (x86)/microchip/xc32/v2.30/bin/bin/../../lib/gcc/pic32mx/4.8.3\libgcc.a(_fixunssfdi.o)
 .debug_abbrev  0x00008d86       0x64 c:/program files (x86)/microchip/xc32/v2.30/bin/bin/../../lib/gcc/pic32mx/4.8.3\libgcc.a(_floatundisf.o)
 .debug_abbrev  0x00008dea       0x62 c:/program files (x86)/microchip/xc32/v2.30/bin/bin/../../lib/gcc/pic32mx/4.8.3\libgcc.a(floatunsisf.o)
 .debug_abbrev  0x00008e4c       0x62 c:/program files (x86)/microchip/xc32/v2.30/bin/bin/../../lib/gcc/pic32mx/4.8.3\libgcc.a(floatunsidf.o)
 .debug_abbrev  0x00008eae       0x28 c:/program files (x86)/microchip/xc32/v2.30/bin/bin/../../lib/gcc/pic32mx/4.8.3/../../../../pic32mx/lib\libpic32.a(default-bootstrap-exception-handler.o)
 .debug_abbrev  0x00008ed6       0x28 c:/program files (x86)/microchip/xc32/v2.30/bin/bin/../../lib/gcc/pic32mx/4.8.3/../../../../pic32mx/lib\libpic32.a(default-on-reset.o)
 .debug_abbrev  0x00008efe       0x28 c:/program files (x86)/microchip/xc32/v2.30/bin/bin/../../lib/gcc/pic32mx/4.8.3/../../../../pic32mx/lib\libpic32.a(default-on-bootstrap.o)
 .debug_abbrev  0x00008f26       0x28 c:/program files (x86)/microchip/xc32/v2.30/bin/bin/../../lib/gcc/pic32mx/4.8.3/../../../../pic32mx/lib\libpic32.a(defaultinterrupt.o)
 .debug_abbrev  0x00008f4e       0x37 c:/program files (x86)/microchip/xc32/v2.30/bin/bin/../../lib/gcc/pic32mx/4.8.3/../../../../pic32mx/lib\libm.a(w_atan2f.o)
 .debug_abbrev  0x00008f85       0x28 c:/program files (x86)/microchip/xc32/v2.30/bin/bin/../../lib/gcc/pic32mx/4.8.3/../../../../pic32mx/lib\libm.a(w_sqrtf.o)
 .debug_abbrev  0x00008fad       0x6d c:/program files (x86)/microchip/xc32/v2.30/bin/bin/../../lib/gcc/pic32mx/4.8.3/../../../../pic32mx/lib\libm.a(support.o)

.debug_line     0x00000000     0xc2f7
 *(.debug_line)
 .debug_line    0x00000000      0x2ef output\tmr.o
 .debug_line    0x000002ef      0x1b6 output\mal.o
 .debug_line    0x000004a5      0x12d output\ringBuffer.o
 .debug_line    0x000005d2      0x202 output\task.o
 .debug_line    0x000007d4      0x237 output\sleep.o
 .debug_line    0x00000a0b      0x144 output\eeprom.o
 .debug_line    0x00000b4f      0x33e output\eep_manager.o
 .debug_line    0x00000e8d      0x28d output\usb.o
 .debug_line    0x0000111a      0x12b output\usb_descriptors.o
 .debug_line    0x00001245      0x57b output\usb_device.o
 .debug_line    0x000017c0      0x19b output\exceptions.o
 .debug_line    0x0000195b      0x2dd output\isr.o
 .debug_line    0x00001c38      0x42b output\main.o
 .debug_line    0x00002063      0x343 output\c_eep_manager.o
 .debug_line    0x000023a6      0x11b output\app.o
 .debug_line    0x000024c1      0x18f output\ad.o
 .debug_line    0x00002650      0x613 output\gcode.o
 .debug_line    0x00002c63      0x3d8 output\grbl_limits.o
 .debug_line    0x0000303b      0x133 output\coolant_control.o
 .debug_line    0x0000316e      0x2e7 output\motion_control.o
 .debug_line    0x00003455      0x211 output\nuts_bolts.o
 .debug_line    0x00003666      0x362 output\planner.o
 .debug_line    0x000039c8      0x1c1 output\print.o
 .debug_line    0x00003b89      0x69d output\report.o
 .debug_line    0x00004226      0x252 output\settings.o
 .debug_line    0x00004478      0x2c8 output\spindle_control.o
 .debug_line    0x00004740      0x4b4 output\stepper.o
 .debug_line    0x00004bf4      0x498 output\system.o
 .debug_line    0x0000508c      0x41d output\grbl.o
 .debug_line    0x000054a9      0x207 output\pwm.o
 .debug_line    0x000056b0      0x1cc output\jog.o
 .debug_line    0x0000587c      0x2db output\usb_function_cdc.o
 .debug_line    0x00005b57      0x2cf output\dee.o
 .debug_line    0x00005e26      0x1b4 output\dee_page.o
 .debug_line    0x00005fda      0x1a4 output\dee_page_helper.o
 .debug_line    0x0000617e      0x15c output\eep_manager_crc.o
 .debug_line    0x000062da      0x25a output\system_control.o
 .debug_line    0x00006534      0x24f output\stepper_enable.o
 .debug_line    0x00006783      0x142 output\system_exec.o
 .debug_line    0x000068c5      0x141 output\system_alarm.o
 .debug_line    0x00006a06      0x404 output\grbl_eeprom.o
 .debug_line    0x00006e0a       0xdc output\bootloader_interface.o
 .debug_line    0x00006ee6      0x1ad output\grbl_toolchange.o
 .debug_line    0x00007093       0xe7 output\stackmeasure.o
 .debug_line    0x0000717a      0x513 output\grbl_protocol.o
 .debug_line    0x0000768d      0x1fb output\grbl_running.o
 .debug_line    0x00007888      0x200 output\grbl_bootloader.o
 .debug_line    0x00007a88      0x2aa output\grbl_probe.o
 .debug_line    0x00007d32      0x3ba output\ethernet.o
 .debug_line    0x000080ec      0x6ce output\ENC28J60.o
 .debug_line    0x000087ba      0x17b output\DHCP.o
 .debug_line    0x00008935      0x1eb output\Delay.o
 .debug_line    0x00008b20      0x2d2 output\ARP.o
 .debug_line    0x00008df2      0x29c output\Announce.o
 .debug_line    0x0000908e      0x3a3 output\Helpers.o
 .debug_line    0x00009431      0x258 output\ICMP.o
 .debug_line    0x00009689      0x288 output\IP.o
 .debug_line    0x00009911      0x2ff output\StackTsk.o
 .debug_line    0x00009c10      0x3af output\UDP.o
 .debug_line    0x00009fbf      0x28e output\usb_grbl_multi.o
 .debug_line    0x0000a24d      0x36c output\ethernet_grbl_multi.o
 .debug_line    0x0000a5b9       0xa9 output\grbl_multi.o
 .debug_line    0x0000a662      0x2c4 output\Reboot.o
 .debug_line    0x0000a926      0x8da output\TCP.o
 .debug_line    0x0000b200      0x401 output\BerkeleyAPI.o
 .debug_line    0x0000b601      0x1cb output\noinitram.o
 .debug_line    0x0000b7cc       0xa7 c:/program files (x86)/microchip/xc32/v2.30/bin/bin/../../lib/gcc/pic32mx/4.8.3/../../../../pic32mx/lib\libmchp_peripheral_32MX440F256H.a(soft_reset_lib.o)
 .debug_line    0x0000b873       0x5f c:/program files (x86)/microchip/xc32/v2.30/bin/bin/../../lib/gcc/pic32mx/4.8.3/../../../../pic32mx/lib\libmchp_peripheral_32MX440F256H.a(pcache.o)
 .debug_line    0x0000b8d2       0x70 c:/program files (x86)/microchip/xc32/v2.30/bin/bin/../../lib/gcc/pic32mx/4.8.3/../../../../pic32mx/lib\libmchp_peripheral_32MX440F256H.a(int_disable_interrupts_lib.o)
 .debug_line    0x0000b942       0xa7 c:/program files (x86)/microchip/xc32/v2.30/bin/bin/../../lib/gcc/pic32mx/4.8.3/../../../../pic32mx/lib\libmchp_peripheral_32MX440F256H.a(power_idle_lib.o)
 .debug_line    0x0000b9e9       0xa8 c:/program files (x86)/microchip/xc32/v2.30/bin/bin/../../lib/gcc/pic32mx/4.8.3/../../../../pic32mx/lib\libmchp_peripheral_32MX440F256H.a(power_sleep_lib.o)
 .debug_line    0x0000ba91       0x68 c:/program files (x86)/microchip/xc32/v2.30/bin/bin/../../lib/gcc/pic32mx/4.8.3/../../../../pic32mx/lib\libmchp_peripheral_32MX440F256H.a(nvm_erase_page_lib.o)
 .debug_line    0x0000baf9       0xa8 c:/program files (x86)/microchip/xc32/v2.30/bin/bin/../../lib/gcc/pic32mx/4.8.3/../../../../pic32mx/lib\libmchp_peripheral_32MX440F256H.a(nvm_operation_lib.o)
 .debug_line    0x0000bba1       0x68 c:/program files (x86)/microchip/xc32/v2.30/bin/bin/../../lib/gcc/pic32mx/4.8.3/../../../../pic32mx/lib\libmchp_peripheral_32MX440F256H.a(nvm_write_word_lib.o)
 .debug_line    0x0000bc09       0x70 c:/program files (x86)/microchip/xc32/v2.30/bin/bin/../../lib/gcc/pic32mx/4.8.3/../../../../pic32mx/lib\libmchp_peripheral_32MX440F256H.a(int_restore_interrupts_lib.o)
 .debug_line    0x0000bc79       0xa4 c:/program files (x86)/microchip/xc32/v2.30/bin/bin/../../lib/gcc/pic32mx/4.8.3\libgcc.a(_fixunssfdi.o)
 .debug_line    0x0000bd1d       0xaa c:/program files (x86)/microchip/xc32/v2.30/bin/bin/../../lib/gcc/pic32mx/4.8.3\libgcc.a(_floatundisf.o)
 .debug_line    0x0000bdc7       0x94 c:/program files (x86)/microchip/xc32/v2.30/bin/bin/../../lib/gcc/pic32mx/4.8.3\libgcc.a(floatunsisf.o)
 .debug_line    0x0000be5b       0x93 c:/program files (x86)/microchip/xc32/v2.30/bin/bin/../../lib/gcc/pic32mx/4.8.3\libgcc.a(floatunsidf.o)
 .debug_line    0x0000beee       0xa6 c:/program files (x86)/microchip/xc32/v2.30/bin/bin/../../lib/gcc/pic32mx/4.8.3/../../../../pic32mx/lib\libpic32.a(default-bootstrap-exception-handler.o)
 .debug_line    0x0000bf94       0x93 c:/program files (x86)/microchip/xc32/v2.30/bin/bin/../../lib/gcc/pic32mx/4.8.3/../../../../pic32mx/lib\libpic32.a(default-on-reset.o)
 .debug_line    0x0000c027       0x97 c:/program files (x86)/microchip/xc32/v2.30/bin/bin/../../lib/gcc/pic32mx/4.8.3/../../../../pic32mx/lib\libpic32.a(default-on-bootstrap.o)
 .debug_line    0x0000c0be       0xa5 c:/program files (x86)/microchip/xc32/v2.30/bin/bin/../../lib/gcc/pic32mx/4.8.3/../../../../pic32mx/lib\libpic32.a(defaultinterrupt.o)
 .debug_line    0x0000c163       0x88 c:/program files (x86)/microchip/xc32/v2.30/bin/bin/../../lib/gcc/pic32mx/4.8.3/../../../../pic32mx/lib\libm.a(w_atan2f.o)
 .debug_line    0x0000c1eb       0x87 c:/program files (x86)/microchip/xc32/v2.30/bin/bin/../../lib/gcc/pic32mx/4.8.3/../../../../pic32mx/lib\libm.a(w_sqrtf.o)
 .debug_line    0x0000c272       0x85 c:/program files (x86)/microchip/xc32/v2.30/bin/bin/../../lib/gcc/pic32mx/4.8.3/../../../../pic32mx/lib\libm.a(support.o)
 .debug_line    0x0000c2f7        0x0 c:/program files (x86)/microchip/xc32/v2.30/bin/bin/../../lib/gcc/pic32mx/4.8.3/../../../../pic32mx/lib\libm.a(s_lib_ver.o)
 .debug_line    0x0000c2f7        0x0 c:/program files (x86)/microchip/xc32/v2.30/bin/bin/../../lib/gcc/pic32mx/4.8.3/../../../../pic32mx/lib\libpic32.a(errno.o)

.debug_frame    0x00000000     0x4748
 *(.debug_frame)
 .debug_frame   0x00000000      0x138 output\tmr.o
 .debug_frame   0x00000138       0x84 output\mal.o
 .debug_frame   0x000001bc       0xb4 output\ringBuffer.o
 .debug_frame   0x00000270      0x194 output\task.o
 .debug_frame   0x00000404      0x130 output\sleep.o
 .debug_frame   0x00000534       0xcc output\eeprom.o
 .debug_frame   0x00000600      0x1dc output\eep_manager.o
 .debug_frame   0x000007dc       0xec output\usb.o
 .debug_frame   0x000008c8       0xec output\usb_device.o
 .debug_frame   0x000009b4       0x60 output\exceptions.o
 .debug_frame   0x00000a14      0x3ac output\isr.o
 .debug_frame   0x00000dc0       0x98 output\main.o
 .debug_frame   0x00000e58       0x80 output\app.o
 .debug_frame   0x00000ed8       0x50 output\ad.o
 .debug_frame   0x00000f28       0xd8 output\gcode.o
 .debug_frame   0x00001000      0x14c output\grbl_limits.o
 .debug_frame   0x0000114c       0x60 output\coolant_control.o
 .debug_frame   0x000011ac       0xfc output\motion_control.o
 .debug_frame   0x000012a8      0x160 output\nuts_bolts.o
 .debug_frame   0x00001408      0x190 output\planner.o
 .debug_frame   0x00001598      0x184 output\print.o
 .debug_frame   0x0000171c      0x2f4 output\report.o
 .debug_frame   0x00001a10       0xec output\settings.o
 .debug_frame   0x00001afc       0xa4 output\spindle_control.o
 .debug_frame   0x00001ba0      0x14c output\stepper.o
 .debug_frame   0x00001cec      0x338 output\system.o
 .debug_frame   0x00002024       0xfc output\grbl.o
 .debug_frame   0x00002120       0xa0 output\pwm.o
 .debug_frame   0x000021c0       0x30 output\jog.o
 .debug_frame   0x000021f0       0xd0 output\usb_function_cdc.o
 .debug_frame   0x000022c0      0x1b0 output\dee.o
 .debug_frame   0x00002470      0x15c output\dee_page.o
 .debug_frame   0x000025cc       0xd8 output\dee_page_helper.o
 .debug_frame   0x000026a4       0x60 output\eep_manager_crc.o
 .debug_frame   0x00002704       0xbc output\system_control.o
 .debug_frame   0x000027c0       0xd4 output\stepper_enable.o
 .debug_frame   0x00002894       0x40 output\system_exec.o
 .debug_frame   0x000028d4       0x40 output\system_alarm.o
 .debug_frame   0x00002914       0xec output\grbl_eeprom.o
 .debug_frame   0x00002a00       0x50 output\bootloader_interface.o
 .debug_frame   0x00002a50       0x88 output\grbl_toolchange.o
 .debug_frame   0x00002ad8       0x50 output\stackmeasure.o
 .debug_frame   0x00002b28      0x118 output\grbl_protocol.o
 .debug_frame   0x00002c40       0x50 output\grbl_running.o
 .debug_frame   0x00002c90       0x5c output\grbl_bootloader.o
 .debug_frame   0x00002cec       0xd0 output\grbl_probe.o
 .debug_frame   0x00002dbc       0x94 output\ethernet.o
 .debug_frame   0x00002e50      0x394 output\ENC28J60.o
 .debug_frame   0x000031e4       0x44 output\Delay.o
 .debug_frame   0x00003228       0xcc output\ARP.o
 .debug_frame   0x000032f4       0x58 output\Announce.o
 .debug_frame   0x0000334c      0x15c output\Helpers.o
 .debug_frame   0x000034a8       0x30 output\ICMP.o
 .debug_frame   0x000034d8       0x80 output\IP.o
 .debug_frame   0x00003558       0x70 output\StackTsk.o
 .debug_frame   0x000035c8      0x220 output\UDP.o
 .debug_frame   0x000037e8       0xd4 output\usb_grbl_multi.o
 .debug_frame   0x000038bc      0x114 output\ethernet_grbl_multi.o
 .debug_frame   0x000039d0      0x140 output\grbl_multi.o
 .debug_frame   0x00003b10       0x3c output\Reboot.o
 .debug_frame   0x00003b4c      0x484 output\TCP.o
 .debug_frame   0x00003fd0      0x228 output\BerkeleyAPI.o
 .debug_frame   0x000041f8       0xbc output\noinitram.o
 .debug_frame   0x000042b4       0x28 c:/program files (x86)/microchip/xc32/v2.30/bin/bin/../../lib/gcc/pic32mx/4.8.3/../../../../pic32mx/lib\libmchp_peripheral_32MX440F256H.a(soft_reset_lib.o)
 .debug_frame   0x000042dc       0x30 c:/program files (x86)/microchip/xc32/v2.30/bin/bin/../../lib/gcc/pic32mx/4.8.3/../../../../pic32mx/lib\libmchp_peripheral_32MX440F256H.a(pcache.o)
 .debug_frame   0x0000430c       0x20 c:/program files (x86)/microchip/xc32/v2.30/bin/bin/../../lib/gcc/pic32mx/4.8.3/../../../../pic32mx/lib\libmchp_peripheral_32MX440F256H.a(int_disable_interrupts_lib.o)
 .debug_frame   0x0000432c       0x28 c:/program files (x86)/microchip/xc32/v2.30/bin/bin/../../lib/gcc/pic32mx/4.8.3/../../../../pic32mx/lib\libmchp_peripheral_32MX440F256H.a(power_idle_lib.o)
 .debug_frame   0x00004354       0x28 c:/program files (x86)/microchip/xc32/v2.30/bin/bin/../../lib/gcc/pic32mx/4.8.3/../../../../pic32mx/lib\libmchp_peripheral_32MX440F256H.a(power_sleep_lib.o)
 .debug_frame   0x0000437c       0x28 c:/program files (x86)/microchip/xc32/v2.30/bin/bin/../../lib/gcc/pic32mx/4.8.3/../../../../pic32mx/lib\libmchp_peripheral_32MX440F256H.a(nvm_erase_page_lib.o)
 .debug_frame   0x000043a4       0x28 c:/program files (x86)/microchip/xc32/v2.30/bin/bin/../../lib/gcc/pic32mx/4.8.3/../../../../pic32mx/lib\libmchp_peripheral_32MX440F256H.a(nvm_operation_lib.o)
 .debug_frame   0x000043cc       0x28 c:/program files (x86)/microchip/xc32/v2.30/bin/bin/../../lib/gcc/pic32mx/4.8.3/../../../../pic32mx/lib\libmchp_peripheral_32MX440F256H.a(nvm_write_word_lib.o)
 .debug_frame   0x000043f4       0x20 c:/program files (x86)/microchip/xc32/v2.30/bin/bin/../../lib/gcc/pic32mx/4.8.3/../../../../pic32mx/lib\libmchp_peripheral_32MX440F256H.a(int_restore_interrupts_lib.o)
 .debug_frame   0x00004414       0x30 c:/program files (x86)/microchip/xc32/v2.30/bin/bin/../../lib/gcc/pic32mx/4.8.3\libgcc.a(_fixunssfdi.o)
 .debug_frame   0x00004444       0x2c c:/program files (x86)/microchip/xc32/v2.30/bin/bin/../../lib/gcc/pic32mx/4.8.3\libgcc.a(_floatundisf.o)
 .debug_frame   0x00004470       0x30 c:/program files (x86)/microchip/xc32/v2.30/bin/bin/../../lib/gcc/pic32mx/4.8.3\libgcc.a(floatunsisf.o)
 .debug_frame   0x000044a0       0x2c c:/program files (x86)/microchip/xc32/v2.30/bin/bin/../../lib/gcc/pic32mx/4.8.3\libgcc.a(floatunsidf.o)
 .debug_frame   0x000044cc       0x2c c:/program files (x86)/microchip/xc32/v2.30/bin/bin/../../lib/gcc/pic32mx/4.8.3/../../../../pic32mx/lib\libpic32.a(default-bootstrap-exception-handler.o)
 .debug_frame   0x000044f8       0x20 c:/program files (x86)/microchip/xc32/v2.30/bin/bin/../../lib/gcc/pic32mx/4.8.3/../../../../pic32mx/lib\libpic32.a(default-on-reset.o)
 .debug_frame   0x00004518       0x20 c:/program files (x86)/microchip/xc32/v2.30/bin/bin/../../lib/gcc/pic32mx/4.8.3/../../../../pic32mx/lib\libpic32.a(default-on-bootstrap.o)
 .debug_frame   0x00004538       0x20 c:/program files (x86)/microchip/xc32/v2.30/bin/bin/../../lib/gcc/pic32mx/4.8.3/../../../../pic32mx/lib\libpic32.a(defaultinterrupt.o)
 .debug_frame   0x00004558       0x44 c:/program files (x86)/microchip/xc32/v2.30/bin/bin/../../lib/gcc/pic32mx/4.8.3/../../../../pic32mx/lib\libm.a(w_atan2f.o)
 .debug_frame   0x0000459c       0x30 c:/program files (x86)/microchip/xc32/v2.30/bin/bin/../../lib/gcc/pic32mx/4.8.3/../../../../pic32mx/lib\libm.a(w_sqrtf.o)
 .debug_frame   0x000045cc      0x17c c:/program files (x86)/microchip/xc32/v2.30/bin/bin/../../lib/gcc/pic32mx/4.8.3/../../../../pic32mx/lib\libm.a(support.o)

.debug_str      0x00000000      0x741
 *(.debug_str)
 .debug_str     0x00000000        0x7 output\tmr.o
 .debug_str     0x00000007       0x10 output\mal.o
 .debug_str     0x00000017       0x3c output\ringBuffer.o
 .debug_str     0x00000053       0x22 output\task.o
 .debug_str     0x00000075        0xe output\sleep.o
 .debug_str     0x00000083       0x15 output\eeprom.o
 .debug_str     0x00000098       0x41 output\eep_manager.o
 .debug_str     0x000000d9        0x0 output\usb.o
 .debug_str     0x000000d9       0x18 output\usb_descriptors.o
 .debug_str     0x000000f1       0x41 output\usb_device.o
 .debug_str     0x00000132       0x18 output\exceptions.o
 .debug_str     0x0000014a       0x13 output\isr.o
 .debug_str     0x0000015d        0x0 output\main.o
 .debug_str     0x0000015d        0x0 output\c_eep_manager.o
 .debug_str     0x0000015d        0x0 output\app.o
 .debug_str     0x0000015d        0x0 output\ad.o
 .debug_str     0x0000015d       0x3c output\gcode.o
 .debug_str     0x00000199       0x32 output\grbl_limits.o
 .debug_str     0x000001cb        0x0 output\coolant_control.o
 .debug_str     0x000001cb       0x66 output\motion_control.o
 .debug_str     0x00000231        0x0 output\nuts_bolts.o
 .debug_str     0x00000231       0x68 output\planner.o
 .debug_str     0x00000299        0x0 output\print.o
 .debug_str     0x00000299       0x3f output\report.o
 .debug_str     0x000002d8       0x21 output\settings.o
 .debug_str     0x000002f9        0xa output\spindle_control.o
 .debug_str     0x00000303       0x53 output\stepper.o
 .debug_str     0x00000356       0x3d output\system.o
 .debug_str     0x00000393        0x0 output\grbl.o
 .debug_str     0x00000393       0x21 output\pwm.o
 .debug_str     0x000003b4       0x2f output\jog.o
 .debug_str     0x000003e3       0x17 output\usb_function_cdc.o
 .debug_str     0x000003fa       0x79 output\dee.o
 .debug_str     0x00000473       0x23 output\dee_page.o
 .debug_str     0x00000496       0x24 output\dee_page_helper.o
 .debug_str     0x000004ba       0x10 output\eep_manager_crc.o
 .debug_str     0x000004ca        0x0 output\system_control.o
 .debug_str     0x000004ca        0x0 output\stepper_enable.o
 .debug_str     0x000004ca        0x0 output\system_exec.o
 .debug_str     0x000004ca        0x0 output\system_alarm.o
 .debug_str     0x000004ca        0xa output\grbl_eeprom.o
 .debug_str     0x000004d4        0x0 output\bootloader_interface.o
 .debug_str     0x000004d4        0x9 output\grbl_toolchange.o
 .debug_str     0x000004dd        0x0 output\stackmeasure.o
 .debug_str     0x000004dd       0x2f output\grbl_protocol.o
 .debug_str     0x0000050c        0x0 output\grbl_running.o
 .debug_str     0x0000050c        0x0 output\grbl_bootloader.o
 .debug_str     0x0000050c       0x1c output\grbl_probe.o
 .debug_str     0x00000528        0x0 output\ethernet.o
 .debug_str     0x00000528       0x6e output\ENC28J60.o
 .debug_str     0x00000596        0x0 output\DHCP.o
 .debug_str     0x00000596        0x0 output\Delay.o
 .debug_str     0x00000596        0xe output\ARP.o
 .debug_str     0x000005a4       0x14 output\Announce.o
 .debug_str     0x000005b8        0x0 output\Helpers.o
 .debug_str     0x000005b8        0x0 output\ICMP.o
 .debug_str     0x000005b8        0x9 output\IP.o
 .debug_str     0x000005c1        0x0 output\StackTsk.o
 .debug_str     0x000005c1       0x48 output\UDP.o
 .debug_str     0x00000609        0x7 output\usb_grbl_multi.o
 .debug_str     0x00000610       0x2b output\ethernet_grbl_multi.o
 .debug_str     0x0000063b        0x0 output\grbl_multi.o
 .debug_str     0x0000063b        0x0 output\Reboot.o
 .debug_str     0x0000063b       0xac output\TCP.o
 .debug_str     0x000006e7       0x42 output\BerkeleyAPI.o
 .debug_str     0x00000729       0x18 output\noinitram.o
 .debug_str     0x00000741        0x0 c:/program files (x86)/microchip/xc32/v2.30/bin/bin/../../lib/gcc/pic32mx/4.8.3/../../../../pic32mx/lib\libmchp_peripheral_32MX440F256H.a(soft_reset_lib.o)
 .debug_str     0x00000741        0x0 c:/program files (x86)/microchip/xc32/v2.30/bin/bin/../../lib/gcc/pic32mx/4.8.3/../../../../pic32mx/lib\libmchp_peripheral_32MX440F256H.a(pcache.o)
 .debug_str     0x00000741        0x0 c:/program files (x86)/microchip/xc32/v2.30/bin/bin/../../lib/gcc/pic32mx/4.8.3/../../../../pic32mx/lib\libmchp_peripheral_32MX440F256H.a(int_disable_interrupts_lib.o)
 .debug_str     0x00000741        0x0 c:/program files (x86)/microchip/xc32/v2.30/bin/bin/../../lib/gcc/pic32mx/4.8.3/../../../../pic32mx/lib\libmchp_peripheral_32MX440F256H.a(power_idle_lib.o)
 .debug_str     0x00000741        0x0 c:/program files (x86)/microchip/xc32/v2.30/bin/bin/../../lib/gcc/pic32mx/4.8.3/../../../../pic32mx/lib\libmchp_peripheral_32MX440F256H.a(power_sleep_lib.o)
 .debug_str     0x00000741        0x0 c:/program files (x86)/microchip/xc32/v2.30/bin/bin/../../lib/gcc/pic32mx/4.8.3/../../../../pic32mx/lib\libmchp_peripheral_32MX440F256H.a(nvm_erase_page_lib.o)
 .debug_str     0x00000741        0x0 c:/program files (x86)/microchip/xc32/v2.30/bin/bin/../../lib/gcc/pic32mx/4.8.3/../../../../pic32mx/lib\libmchp_peripheral_32MX440F256H.a(nvm_operation_lib.o)
 .debug_str     0x00000741        0x0 c:/program files (x86)/microchip/xc32/v2.30/bin/bin/../../lib/gcc/pic32mx/4.8.3/../../../../pic32mx/lib\libmchp_peripheral_32MX440F256H.a(nvm_write_word_lib.o)
 .debug_str     0x00000741        0x0 c:/program files (x86)/microchip/xc32/v2.30/bin/bin/../../lib/gcc/pic32mx/4.8.3/../../../../pic32mx/lib\libmchp_peripheral_32MX440F256H.a(int_restore_interrupts_lib.o)
 .debug_str     0x00000741        0x0 c:/program files (x86)/microchip/xc32/v2.30/bin/bin/../../lib/gcc/pic32mx/4.8.3\libgcc.a(_fixunssfdi.o)
 .debug_str     0x00000741        0x0 c:/program files (x86)/microchip/xc32/v2.30/bin/bin/../../lib/gcc/pic32mx/4.8.3\libgcc.a(_floatundisf.o)
 .debug_str     0x00000741        0x0 c:/program files (x86)/microchip/xc32/v2.30/bin/bin/../../lib/gcc/pic32mx/4.8.3\libgcc.a(floatunsisf.o)
 .debug_str     0x00000741        0x0 c:/program files (x86)/microchip/xc32/v2.30/bin/bin/../../lib/gcc/pic32mx/4.8.3\libgcc.a(floatunsidf.o)
 .debug_str     0x00000741        0x0 c:/program files (x86)/microchip/xc32/v2.30/bin/bin/../../lib/gcc/pic32mx/4.8.3/../../../../pic32mx/lib\libpic32.a(default-bootstrap-exception-handler.o)
 .debug_str     0x00000741        0x0 c:/program files (x86)/microchip/xc32/v2.30/bin/bin/../../lib/gcc/pic32mx/4.8.3/../../../../pic32mx/lib\libpic32.a(default-on-reset.o)
 .debug_str     0x00000741        0x0 c:/program files (x86)/microchip/xc32/v2.30/bin/bin/../../lib/gcc/pic32mx/4.8.3/../../../../pic32mx/lib\libpic32.a(default-on-bootstrap.o)
 .debug_str     0x00000741        0x0 c:/program files (x86)/microchip/xc32/v2.30/bin/bin/../../lib/gcc/pic32mx/4.8.3/../../../../pic32mx/lib\libpic32.a(defaultinterrupt.o)
 .debug_str     0x00000741        0x0 c:/program files (x86)/microchip/xc32/v2.30/bin/bin/../../lib/gcc/pic32mx/4.8.3/../../../../pic32mx/lib\libm.a(w_atan2f.o)
 .debug_str     0x00000741        0x0 c:/program files (x86)/microchip/xc32/v2.30/bin/bin/../../lib/gcc/pic32mx/4.8.3/../../../../pic32mx/lib\libm.a(w_sqrtf.o)
 .debug_str     0x00000741        0x0 c:/program files (x86)/microchip/xc32/v2.30/bin/bin/../../lib/gcc/pic32mx/4.8.3/../../../../pic32mx/lib\libm.a(support.o)
 .debug_str     0x00000741        0x0 c:/program files (x86)/microchip/xc32/v2.30/bin/bin/../../lib/gcc/pic32mx/4.8.3/../../../../pic32mx/lib\libm.a(s_lib_ver.o)
 .debug_str     0x00000741        0x0 c:/program files (x86)/microchip/xc32/v2.30/bin/bin/../../lib/gcc/pic32mx/4.8.3/../../../../pic32mx/lib\libpic32.a(errno.o)

.debug_loc      0x00000000     0xdbd1
 *(.debug_loc)
 .debug_loc     0x00000000      0x18e output\tmr.o
 .debug_loc     0x0000018e       0x86 output\mal.o
 .debug_loc     0x00000214      0x4c3 output\ringBuffer.o
 .debug_loc     0x000006d7      0x39c output\task.o
 .debug_loc     0x00000a73      0x105 output\sleep.o
 .debug_loc     0x00000b78      0x393 output\eeprom.o
 .debug_loc     0x00000f0b      0x90d output\eep_manager.o
 .debug_loc     0x00001818       0xae output\usb.o
 .debug_loc     0x000018c6      0x452 output\usb_device.o
 .debug_loc     0x00001d18       0x94 output\exceptions.o
 .debug_loc     0x00001dac       0x86 output\isr.o
 .debug_loc     0x00001e32       0x42 output\app.o
 .debug_loc     0x00001e74       0x34 output\ad.o
 .debug_loc     0x00001ea8      0xb73 output\gcode.o
 .debug_loc     0x00002a1b      0x216 output\grbl_limits.o
 .debug_loc     0x00002c31      0x516 output\motion_control.o
 .debug_loc     0x00003147      0x6fb output\nuts_bolts.o
 .debug_loc     0x00003842      0x62d output\planner.o
 .debug_loc     0x00003e6f      0x552 output\print.o
 .debug_loc     0x000043c1      0x536 output\report.o
 .debug_loc     0x000048f7      0x3a5 output\settings.o
 .debug_loc     0x00004c9c      0x248 output\spindle_control.o
 .debug_loc     0x00004ee4      0x569 output\stepper.o
 .debug_loc     0x0000544d      0x76e output\system.o
 .debug_loc     0x00005bbb       0x63 output\grbl.o
 .debug_loc     0x00005c1e      0x17a output\pwm.o
 .debug_loc     0x00005d98       0x72 output\jog.o
 .debug_loc     0x00005e0a      0x216 output\usb_function_cdc.o
 .debug_loc     0x00006020      0x96c output\dee.o
 .debug_loc     0x0000698c      0x9a1 output\dee_page.o
 .debug_loc     0x0000732d      0x494 output\dee_page_helper.o
 .debug_loc     0x000077c1      0x452 output\eep_manager_crc.o
 .debug_loc     0x00007c13       0xba output\stepper_enable.o
 .debug_loc     0x00007ccd       0x61 output\system_exec.o
 .debug_loc     0x00007d2e       0x1f output\system_alarm.o
 .debug_loc     0x00007d4d       0x7b output\grbl_eeprom.o
 .debug_loc     0x00007dc8       0x72 output\grbl_toolchange.o
 .debug_loc     0x00007e3a       0x2b output\stackmeasure.o
 .debug_loc     0x00007e65      0x340 output\grbl_protocol.o
 .debug_loc     0x000081a5      0x14b output\grbl_probe.o
 .debug_loc     0x000082f0       0x99 output\ethernet.o
 .debug_loc     0x00008389      0xb69 output\ENC28J60.o
 .debug_loc     0x00008ef2       0x93 output\Delay.o
 .debug_loc     0x00008f85      0x129 output\ARP.o
 .debug_loc     0x000090ae       0x3d output\Announce.o
 .debug_loc     0x000090eb      0x953 output\Helpers.o
 .debug_loc     0x00009a3e       0x4d output\ICMP.o
 .debug_loc     0x00009a8b      0x18d output\IP.o
 .debug_loc     0x00009c18      0x693 output\UDP.o
 .debug_loc     0x0000a2ab      0x163 output\usb_grbl_multi.o
 .debug_loc     0x0000a40e      0x28b output\ethernet_grbl_multi.o
 .debug_loc     0x0000a699       0x57 output\grbl_multi.o
 .debug_loc     0x0000a6f0       0x66 output\Reboot.o
 .debug_loc     0x0000a756     0x1f87 output\TCP.o
 .debug_loc     0x0000c6dd      0xe16 output\BerkeleyAPI.o
 .debug_loc     0x0000d4f3      0x2a0 output\noinitram.o
 .debug_loc     0x0000d793       0xe5 c:/program files (x86)/microchip/xc32/v2.30/bin/bin/../../lib/gcc/pic32mx/4.8.3\libgcc.a(_fixunssfdi.o)
 .debug_loc     0x0000d878       0x40 c:/program files (x86)/microchip/xc32/v2.30/bin/bin/../../lib/gcc/pic32mx/4.8.3\libgcc.a(_floatundisf.o)
 .debug_loc     0x0000d8b8       0x74 c:/program files (x86)/microchip/xc32/v2.30/bin/bin/../../lib/gcc/pic32mx/4.8.3\libgcc.a(floatunsisf.o)
 .debug_loc     0x0000d92c       0x80 c:/program files (x86)/microchip/xc32/v2.30/bin/bin/../../lib/gcc/pic32mx/4.8.3\libgcc.a(floatunsidf.o)
 .debug_loc     0x0000d9ac       0x2c c:/program files (x86)/microchip/xc32/v2.30/bin/bin/../../lib/gcc/pic32mx/4.8.3/../../../../pic32mx/lib\libpic32.a(default-bootstrap-exception-handler.o)
 .debug_loc     0x0000d9d8       0x20 c:/program files (x86)/microchip/xc32/v2.30/bin/bin/../../lib/gcc/pic32mx/4.8.3/../../../../pic32mx/lib\libm.a(w_atan2f.o)
 .debug_loc     0x0000d9f8       0x2c c:/program files (x86)/microchip/xc32/v2.30/bin/bin/../../lib/gcc/pic32mx/4.8.3/../../../../pic32mx/lib\libm.a(w_sqrtf.o)
 .debug_loc     0x0000da24      0x1ad c:/program files (x86)/microchip/xc32/v2.30/bin/bin/../../lib/gcc/pic32mx/4.8.3/../../../../pic32mx/lib\libm.a(support.o)

.debug_macinfo
 *(.debug_macinfo)

.debug_weaknames
 *(.debug_weaknames)

.debug_funcnames
 *(.debug_funcnames)

.debug_typenames
 *(.debug_typenames)

.debug_varnames
 *(.debug_varnames)

.debug_pubtypes
 *(.debug_pubtypes)

.debug_ranges   0x00000000     0x1548
 *(.debug_ranges)
 .debug_ranges  0x00000000       0x60 output\eep_manager.o
 .debug_ranges  0x00000060      0x438 output\usb_device.o
 .debug_ranges  0x00000498       0x18 output\exceptions.o
 .debug_ranges  0x000004b0       0x58 output\gcode.o
 .debug_ranges  0x00000508       0x70 output\grbl_limits.o
 .debug_ranges  0x00000578       0x40 output\motion_control.o
 .debug_ranges  0x000005b8       0x60 output\planner.o
 .debug_ranges  0x00000618      0x340 output\report.o
 .debug_ranges  0x00000958       0xa0 output\settings.o
 .debug_ranges  0x000009f8       0xe0 output\stepper.o
 .debug_ranges  0x00000ad8      0x118 output\system.o
 .debug_ranges  0x00000bf0      0x190 output\dee.o
 .debug_ranges  0x00000d80       0x18 output\dee_page.o
 .debug_ranges  0x00000d98       0x20 output\dee_page_helper.o
 .debug_ranges  0x00000db8       0x18 output\stepper_enable.o
 .debug_ranges  0x00000dd0       0x38 output\grbl_eeprom.o
 .debug_ranges  0x00000e08      0x250 output\grbl_protocol.o
 .debug_ranges  0x00001058       0x30 output\grbl_running.o
 .debug_ranges  0x00001088       0x20 output\grbl_bootloader.o
 .debug_ranges  0x000010a8       0x30 output\grbl_probe.o
 .debug_ranges  0x000010d8       0x20 output\ethernet.o
 .debug_ranges  0x000010f8       0xd8 output\ENC28J60.o
 .debug_ranges  0x000011d0       0x48 output\ethernet_grbl_multi.o
 .debug_ranges  0x00001218       0x48 output\Reboot.o
 .debug_ranges  0x00001260      0x170 output\TCP.o
 .debug_ranges  0x000013d0       0x18 output\noinitram.o
 .debug_ranges  0x000013e8       0x10 c:/program files (x86)/microchip/xc32/v2.30/bin/bin/../../lib/gcc/pic32mx/4.8.3/../../../../pic32mx/lib\libmchp_peripheral_32MX440F256H.a(soft_reset_lib.o)
 .debug_ranges  0x000013f8       0x18 c:/program files (x86)/microchip/xc32/v2.30/bin/bin/../../lib/gcc/pic32mx/4.8.3/../../../../pic32mx/lib\libmchp_peripheral_32MX440F256H.a(pcache.o)
 .debug_ranges  0x00001410       0x10 c:/program files (x86)/microchip/xc32/v2.30/bin/bin/../../lib/gcc/pic32mx/4.8.3/../../../../pic32mx/lib\libmchp_peripheral_32MX440F256H.a(int_disable_interrupts_lib.o)
 .debug_ranges  0x00001420       0x10 c:/program files (x86)/microchip/xc32/v2.30/bin/bin/../../lib/gcc/pic32mx/4.8.3/../../../../pic32mx/lib\libmchp_peripheral_32MX440F256H.a(power_idle_lib.o)
 .debug_ranges  0x00001430       0x10 c:/program files (x86)/microchip/xc32/v2.30/bin/bin/../../lib/gcc/pic32mx/4.8.3/../../../../pic32mx/lib\libmchp_peripheral_32MX440F256H.a(power_sleep_lib.o)
 .debug_ranges  0x00001440       0x10 c:/program files (x86)/microchip/xc32/v2.30/bin/bin/../../lib/gcc/pic32mx/4.8.3/../../../../pic32mx/lib\libmchp_peripheral_32MX440F256H.a(nvm_erase_page_lib.o)
 .debug_ranges  0x00001450       0x10 c:/program files (x86)/microchip/xc32/v2.30/bin/bin/../../lib/gcc/pic32mx/4.8.3/../../../../pic32mx/lib\libmchp_peripheral_32MX440F256H.a(nvm_operation_lib.o)
 .debug_ranges  0x00001460       0x10 c:/program files (x86)/microchip/xc32/v2.30/bin/bin/../../lib/gcc/pic32mx/4.8.3/../../../../pic32mx/lib\libmchp_peripheral_32MX440F256H.a(nvm_write_word_lib.o)
 .debug_ranges  0x00001470       0x10 c:/program files (x86)/microchip/xc32/v2.30/bin/bin/../../lib/gcc/pic32mx/4.8.3/../../../../pic32mx/lib\libmchp_peripheral_32MX440F256H.a(int_restore_interrupts_lib.o)
 .debug_ranges  0x00001480       0x10 c:/program files (x86)/microchip/xc32/v2.30/bin/bin/../../lib/gcc/pic32mx/4.8.3/../../../../pic32mx/lib\libpic32.a(default-bootstrap-exception-handler.o)
 .debug_ranges  0x00001490       0x10 c:/program files (x86)/microchip/xc32/v2.30/bin/bin/../../lib/gcc/pic32mx/4.8.3/../../../../pic32mx/lib\libpic32.a(default-on-reset.o)
 .debug_ranges  0x000014a0       0x10 c:/program files (x86)/microchip/xc32/v2.30/bin/bin/../../lib/gcc/pic32mx/4.8.3/../../../../pic32mx/lib\libpic32.a(default-on-bootstrap.o)
 .debug_ranges  0x000014b0       0x10 c:/program files (x86)/microchip/xc32/v2.30/bin/bin/../../lib/gcc/pic32mx/4.8.3/../../../../pic32mx/lib\libpic32.a(defaultinterrupt.o)
 .debug_ranges  0x000014c0       0x10 c:/program files (x86)/microchip/xc32/v2.30/bin/bin/../../lib/gcc/pic32mx/4.8.3/../../../../pic32mx/lib\libm.a(w_atan2f.o)
 .debug_ranges  0x000014d0       0x10 c:/program files (x86)/microchip/xc32/v2.30/bin/bin/../../lib/gcc/pic32mx/4.8.3/../../../../pic32mx/lib\libm.a(w_sqrtf.o)
 .debug_ranges  0x000014e0       0x68 c:/program files (x86)/microchip/xc32/v2.30/bin/bin/../../lib/gcc/pic32mx/4.8.3/../../../../pic32mx/lib\libm.a(support.o)

.gnu.attributes
                0x00000000       0x10
 *(.gnu.attributes)
 .gnu.attributes
                0x00000000       0x10 output\tmr.o
 .gnu.attributes
                0x00000010       0x10 output\mal.o
 .gnu.attributes
                0x00000020       0x10 output\ringBuffer.o
 .gnu.attributes
                0x00000030       0x10 output\task.o
 .gnu.attributes
                0x00000040       0x10 output\sleep.o
 .gnu.attributes
                0x00000050       0x10 output\eeprom.o
 .gnu.attributes
                0x00000060       0x10 output\eep_manager.o
 .gnu.attributes
                0x00000070       0x10 output\usb.o
 .gnu.attributes
                0x00000080       0x10 output\usb_descriptors.o
 .gnu.attributes
                0x00000090       0x10 output\usb_device.o
 .gnu.attributes
                0x000000a0       0x10 output\exceptions.o
 .gnu.attributes
                0x000000b0       0x10 output\isr.o
 .gnu.attributes
                0x000000c0       0x10 output\main.o
 .gnu.attributes
                0x000000d0       0x10 output\c_eep_manager.o
 .gnu.attributes
                0x000000e0       0x10 output\app.o
 .gnu.attributes
                0x000000f0       0x10 output\ad.o
 .gnu.attributes
                0x00000100       0x10 output\gcode.o
 .gnu.attributes
                0x00000110       0x10 output\grbl_limits.o
 .gnu.attributes
                0x00000120       0x10 output\coolant_control.o
 .gnu.attributes
                0x00000130       0x10 output\motion_control.o
 .gnu.attributes
                0x00000140       0x10 output\nuts_bolts.o
 .gnu.attributes
                0x00000150       0x10 output\planner.o
 .gnu.attributes
                0x00000160       0x10 output\print.o
 .gnu.attributes
                0x00000170       0x10 output\report.o
 .gnu.attributes
                0x00000180       0x10 output\settings.o
 .gnu.attributes
                0x00000190       0x10 output\spindle_control.o
 .gnu.attributes
                0x000001a0       0x10 output\stepper.o
 .gnu.attributes
                0x000001b0       0x10 output\system.o
 .gnu.attributes
                0x000001c0       0x10 output\grbl.o
 .gnu.attributes
                0x000001d0       0x10 output\pwm.o
 .gnu.attributes
                0x000001e0       0x10 output\jog.o
 .gnu.attributes
                0x000001f0       0x10 output\usb_function_cdc.o
 .gnu.attributes
                0x00000200       0x10 output\dee.o
 .gnu.attributes
                0x00000210       0x10 output\dee_page.o
 .gnu.attributes
                0x00000220       0x10 output\dee_page_helper.o
 .gnu.attributes
                0x00000230       0x10 output\eep_manager_crc.o
 .gnu.attributes
                0x00000240       0x10 output\system_control.o
 .gnu.attributes
                0x00000250       0x10 output\stepper_enable.o
 .gnu.attributes
                0x00000260       0x10 output\system_exec.o
 .gnu.attributes
                0x00000270       0x10 output\system_alarm.o
 .gnu.attributes
                0x00000280       0x10 output\grbl_eeprom.o
 .gnu.attributes
                0x00000290       0x10 output\bootloader_interface.o
 .gnu.attributes
                0x000002a0       0x10 output\grbl_toolchange.o
 .gnu.attributes
                0x000002b0       0x10 output\stackmeasure.o
 .gnu.attributes
                0x000002c0       0x10 output\grbl_protocol.o
 .gnu.attributes
                0x000002d0       0x10 output\grbl_running.o
 .gnu.attributes
                0x000002e0       0x10 output\grbl_bootloader.o
 .gnu.attributes
                0x000002f0       0x10 output\grbl_probe.o
 .gnu.attributes
                0x00000300       0x10 output\ethernet.o
 .gnu.attributes
                0x00000310       0x10 output\ENC28J60.o
 .gnu.attributes
                0x00000320       0x10 output\DHCP.o
 .gnu.attributes
                0x00000330       0x10 output\Delay.o
 .gnu.attributes
                0x00000340       0x10 output\ARP.o
 .gnu.attributes
                0x00000350       0x10 output\Announce.o
 .gnu.attributes
                0x00000360       0x10 output\Helpers.o
 .gnu.attributes
                0x00000370       0x10 output\ICMP.o
 .gnu.attributes
                0x00000380       0x10 output\IP.o
 .gnu.attributes
                0x00000390       0x10 output\StackTsk.o
 .gnu.attributes
                0x000003a0       0x10 output\UDP.o
 .gnu.attributes
                0x000003b0       0x10 output\usb_grbl_multi.o
 .gnu.attributes
                0x000003c0       0x10 output\ethernet_grbl_multi.o
 .gnu.attributes
                0x000003d0       0x10 output\grbl_multi.o
 .gnu.attributes
                0x000003e0       0x10 output\Reboot.o
 .gnu.attributes
                0x000003f0       0x10 output\TCP.o
 .gnu.attributes
                0x00000400       0x10 output\BerkeleyAPI.o
 .gnu.attributes
                0x00000410       0x10 output\noinitram.o
 .gnu.attributes
                0x00000420       0x10 c:/program files (x86)/microchip/xc32/v2.30/bin/bin/../../lib/gcc/pic32mx/4.8.3/../../../../pic32mx/lib\libmchp_peripheral_32MX440F256H.a(soft_reset_lib.o)
 .gnu.attributes
                0x00000430       0x10 c:/program files (x86)/microchip/xc32/v2.30/bin/bin/../../lib/gcc/pic32mx/4.8.3/../../../../pic32mx/lib\libmchp_peripheral_32MX440F256H.a(pcache.o)
 .gnu.attributes
                0x00000440       0x10 c:/program files (x86)/microchip/xc32/v2.30/bin/bin/../../lib/gcc/pic32mx/4.8.3/../../../../pic32mx/lib\libmchp_peripheral_32MX440F256H.a(int_disable_interrupts_lib.o)
 .gnu.attributes
                0x00000450       0x10 c:/program files (x86)/microchip/xc32/v2.30/bin/bin/../../lib/gcc/pic32mx/4.8.3/../../../../pic32mx/lib\libmchp_peripheral_32MX440F256H.a(power_idle_lib.o)
 .gnu.attributes
                0x00000460       0x10 c:/program files (x86)/microchip/xc32/v2.30/bin/bin/../../lib/gcc/pic32mx/4.8.3/../../../../pic32mx/lib\libmchp_peripheral_32MX440F256H.a(power_sleep_lib.o)
 .gnu.attributes
                0x00000470       0x10 c:/program files (x86)/microchip/xc32/v2.30/bin/bin/../../lib/gcc/pic32mx/4.8.3/../../../../pic32mx/lib\libmchp_peripheral_32MX440F256H.a(nvm_erase_page_lib.o)
 .gnu.attributes
                0x00000480       0x10 c:/program files (x86)/microchip/xc32/v2.30/bin/bin/../../lib/gcc/pic32mx/4.8.3/../../../../pic32mx/lib\libmchp_peripheral_32MX440F256H.a(nvm_operation_lib.o)
 .gnu.attributes
                0x00000490       0x10 c:/program files (x86)/microchip/xc32/v2.30/bin/bin/../../lib/gcc/pic32mx/4.8.3/../../../../pic32mx/lib\libmchp_peripheral_32MX440F256H.a(nvm_write_word_lib.o)
 .gnu.attributes
                0x000004a0       0x10 c:/program files (x86)/microchip/xc32/v2.30/bin/bin/../../lib/gcc/pic32mx/4.8.3/../../../../pic32mx/lib\libmchp_peripheral_32MX440F256H.a(int_restore_interrupts_lib.o)
 .gnu.attributes
                0x000004b0       0x10 c:/program files (x86)/microchip/xc32/v2.30/bin/bin/../../lib/gcc/pic32mx/4.8.3\libgcc.a(_fixunssfdi.o)
 .gnu.attributes
                0x000004c0       0x10 c:/program files (x86)/microchip/xc32/v2.30/bin/bin/../../lib/gcc/pic32mx/4.8.3\libgcc.a(_floatundisf.o)
 .gnu.attributes
                0x000004d0       0x10 c:/program files (x86)/microchip/xc32/v2.30/bin/bin/../../lib/gcc/pic32mx/4.8.3\libgcc.a(floatunsisf.o)
 .gnu.attributes
                0x000004e0       0x10 c:/program files (x86)/microchip/xc32/v2.30/bin/bin/../../lib/gcc/pic32mx/4.8.3\libgcc.a(floatunsidf.o)
 .gnu.attributes
                0x000004f0       0x10 c:/program files (x86)/microchip/xc32/v2.30/bin/bin/../../lib/gcc/pic32mx/4.8.3/../../../../pic32mx/lib\libpic32.a(default-bootstrap-exception-handler.o)
 .gnu.attributes
                0x00000500       0x10 c:/program files (x86)/microchip/xc32/v2.30/bin/bin/../../lib/gcc/pic32mx/4.8.3/../../../../pic32mx/lib\libpic32.a(default-on-reset.o)
 .gnu.attributes
                0x00000510       0x10 c:/program files (x86)/microchip/xc32/v2.30/bin/bin/../../lib/gcc/pic32mx/4.8.3/../../../../pic32mx/lib\libpic32.a(default-on-bootstrap.o)
 .gnu.attributes
                0x00000520       0x10 c:/program files (x86)/microchip/xc32/v2.30/bin/bin/../../lib/gcc/pic32mx/4.8.3/../../../../pic32mx/lib\libpic32.a(defaultinterrupt.o)
 .gnu.attributes
                0x00000530       0x10 c:/program files (x86)/microchip/xc32/v2.30/bin/bin/../../lib/gcc/pic32mx/4.8.3/../../../../pic32mx/lib\liblega-c.a(strncmp.o)
 .gnu.attributes
                0x00000540       0x10 c:/program files (x86)/microchip/xc32/v2.30/bin/bin/../../lib/gcc/pic32mx/4.8.3/../../../../pic32mx/lib\liblega-c.a(strncpy.o)
 .gnu.attributes
                0x00000550       0x10 c:/program files (x86)/microchip/xc32/v2.30/bin/bin/../../lib/gcc/pic32mx/4.8.3/../../../../pic32mx/lib\libm.a(w_atan2f.o)
 .gnu.attributes
                0x00000560       0x10 c:/program files (x86)/microchip/xc32/v2.30/bin/bin/../../lib/gcc/pic32mx/4.8.3/../../../../pic32mx/lib\libm.a(w_sqrtf.o)
 .gnu.attributes
                0x00000570       0x10 c:/program files (x86)/microchip/xc32/v2.30/bin/bin/../../lib/gcc/pic32mx/4.8.3/../../../../pic32mx/lib\libm.a(support.o)
 .gnu.attributes
                0x00000580       0x10 c:/program files (x86)/microchip/xc32/v2.30/bin/bin/../../lib/gcc/pic32mx/4.8.3/../../../../pic32mx/lib\libm.a(s_lib_ver.o)
 .gnu.attributes
                0x00000590       0x10 c:/program files (x86)/microchip/xc32/v2.30/bin/bin/../../lib/gcc/pic32mx/4.8.3/../../../../pic32mx/lib\libpic32.a(errno.o)
                0x00000001                __MPLAB_BUILD = 0x1
                0x00001000                _min_heap_size = 0x1000
LOAD C:\Users\kyrk\AppData\Local\Temp\ccO7tWVt.o
LOAD C:\Users\kyrk\AppData\Local\Temp\ccRrtqIO.o
LOAD C:\Users\kyrk\AppData\Local\Temp\cc25SlKc.o
LOAD c:/program files (x86)/microchip/xc32/v2.30/bin/bin/../../lib/gcc/pic32mx/4.8.3/../../../../pic32mx/lib/./proc/32MX440F256H\default_isr_vectors.o
LOAD c:/program files (x86)/microchip/xc32/v2.30/bin/bin/../../lib/gcc/pic32mx/4.8.3/../../../../pic32mx/lib\pic32_software_reset.o
LOAD c:/program files (x86)/microchip/xc32/v2.30/bin/bin/../../lib/gcc/pic32mx/4.8.3\libgcc.a
START GROUP
LOAD c:/program files (x86)/microchip/xc32/v2.30/bin/bin/../../lib/gcc/pic32mx/4.8.3/../../../../pic32mx/lib\libpic32.a
LOAD c:/program files (x86)/microchip/xc32/v2.30/bin/bin/../../lib/gcc/pic32mx/4.8.3/../../../../pic32mx/lib\libdebug.a
LOAD c:/program files (x86)/microchip/xc32/v2.30/bin/bin/../../lib/gcc/pic32mx/4.8.3/../../../../pic32mx/lib\libpic32.a
LOAD c:/program files (x86)/microchip/xc32/v2.30/bin/bin/../../lib/gcc/pic32mx/4.8.3/../../../../pic32mx/lib\liblega-c.a
LOAD c:/program files (x86)/microchip/xc32/v2.30/bin/bin/../../lib/gcc/pic32mx/4.8.3/../../../../pic32mx/lib\libm.a
LOAD c:/program files (x86)/microchip/xc32/v2.30/bin/bin/../../lib/gcc/pic32mx/4.8.3/../../../../pic32mx/lib\libe.a
LOAD c:/program files (x86)/microchip/xc32/v2.30/bin/bin/../../lib/gcc/pic32mx/4.8.3/../../../../pic32mx/lib\libdsp.a
LOAD c:/program files (x86)/microchip/xc32/v2.30/bin/bin/../../lib/gcc/pic32mx/4.8.3\libgcc.a
LOAD c:/program files (x86)/microchip/xc32/v2.30/bin/bin/../../lib/gcc/pic32mx/4.8.3/../../../../pic32mx/lib\libpic32.a
END GROUP
LOAD c:/program files (x86)/microchip/xc32/v2.30/bin/bin/../../lib/gcc/pic32mx/4.8.3\libgcc.a
OUTPUT(.\output\cnc_1_0_0.elf elf32-tradlittlemips)
LOAD stack
LOAD data_init

.reginfo        0x00000000       0x18
 .reginfo       0x00000000       0x18 c:/program files (x86)/microchip/xc32/v2.30/bin/bin/../../lib/gcc/pic32mx/4.8.3/../../../../pic32mx/lib\debug-exception-return.o

.stack          0xa0005110      0x400
 .stack         0xa0005110      0x400 stack

.exceptionLog.exceptionLog
                0xa0000200       0xc0
 .exceptionLog.exceptionLog
                0xa0000200       0xc0 output\exceptions.o
                0xa0000200                exceptionLog

.noinitram_2.noinitram_2
                0xa00003a0       0x80
 .noinitram_2.noinitram_2
                0xa00003a0       0x80 output\noinitram.o
                0xa00003a0                noinitram_2

.noinitram_1.noinitram_1
                0xa0000310       0x80
 .noinitram_1.noinitram_1
                0xa0000310       0x80 output\noinitram.o
                0xa0000310                noinitram_1

.grbl_eeprom_sys_position_3.grbl_eeprom_sys_position_3
                0xa0000420       0x10
 .grbl_eeprom_sys_position_3.grbl_eeprom_sys_position_3
                0xa0000420       0x10 output\grbl_eeprom.o
                0xa0000420                grbl_eeprom_sys_position_3

.grbl_eeprom_sys_position_2.grbl_eeprom_sys_position_2
                0xa0000410       0x10
 .grbl_eeprom_sys_position_2.grbl_eeprom_sys_position_2
                0xa0000410       0x10 output\grbl_eeprom.o
                0xa0000410                grbl_eeprom_sys_position_2

.grbl_eeprom_sys_position_1.grbl_eeprom_sys_position_1
                0xa0000400       0x10
 .grbl_eeprom_sys_position_1.grbl_eeprom_sys_position_1
                0xa0000400       0x10 output\grbl_eeprom.o
                0xa0000400                grbl_eeprom_sys_position_1

.noinitram_crc_2.noinitram_crc_2
                0xa0000390        0x8
 .noinitram_crc_2.noinitram_crc_2
                0xa0000390        0x8 output\noinitram.o
                0xa0000390                noinitram_crc_2

.noinitram_crc_1.noinitram_crc_1
                0xa0000300        0x8
 .noinitram_crc_1.noinitram_crc_1
                0xa0000300        0x8 output\noinitram.o
                0xa0000300                noinitram_crc_1

.bootloader_was_reset_called.bootloader_was_reset_called
                0xa0000020        0x4
 .bootloader_was_reset_called.bootloader_was_reset_called
                0xa0000020        0x4 output\bootloader_interface.o
                0xa0000020                bootloader_was_reset_called

.bootloader_request_B.bootloader_request_B
                0xa0000010        0x4
 .bootloader_request_B.bootloader_request_B
                0xa0000010        0x4 output\bootloader_interface.o
                0xa0000010                bootloader_request_B

.bootloader_request_A.bootloader_request_A
                0xa0000000        0x4
 .bootloader_request_A.bootloader_request_A
                0xa0000000        0x4 output\bootloader_interface.o
                0xa0000000                bootloader_request_A

.bss            0xa000144c      0x164
 .bss           0xa000144c      0x164 output\TCP.o

.data           0xa0003e00      0x22c
 .data          0xa0003e00      0x12c output\c_eep_manager.o
                0xa0003e00                eepManager_ItemTable
 .data          0xa0003f2c      0x100 c:/program files (x86)/microchip/xc32/v2.30/bin/bin/../../lib/gcc/pic32mx/4.8.3/../../../../pic32mx/lib\libm.a(fpexatan.o)

.bss            0xa000402c       0x8c
 .bss           0xa000402c       0x8c output\BerkeleyAPI.o

.data           0xa00015b0       0x24
 .data          0xa00015b0       0x24 c:/program files (x86)/microchip/xc32/v2.30/bin/bin/../../lib/gcc/pic32mx/4.8.3/../../../../pic32mx/lib\libm.a(sincof32.o)
                0xa00015b0                _sincof
                0xa00015c0                _coscof

.bss            0xa00015d4       0x20
 .bss           0xa00015d4       0x20 output\tmr.o

.data           0xa00040b8       0x18
 .data          0xa00040b8       0x18 output\main.o
                0xa00040b8                VERSION_ID
                0xa00040c4                softwareIdentification

.bss            0xa00040d0       0x18
 .bss           0xa00040d0       0x18 output\ARP.o

.bss            0xa00015f4        0xc
 .bss           0xa00015f4        0xc output\dee.o
                0xa00015f4                GetIndexOfEmptyDataElement_LastFoundHere

.data.math_errhandling_flag
                0xa00040e8        0x4
 .data.math_errhandling_flag
                0xa00040e8        0x4 c:/program files (x86)/microchip/xc32/v2.30/bin/bin/../../lib/gcc/pic32mx/4.8.3/../../../../pic32mx/lib\libm.a(s_lib_ver.o)
                0xa00040e8                math_errhandling

.bss.errno      0xa00040ec        0x4
 .bss.errno     0xa00040ec        0x4 c:/program files (x86)/microchip/xc32/v2.30/bin/bin/../../lib/gcc/pic32mx/4.8.3/../../../../pic32mx/lib\libpic32.a(errno.o)
                0xa00040ec                errno

.bss%z1         0x00000000        0x0
 .bss           0x00000000        0x0 c:/program files (x86)/microchip/xc32/v2.30/bin/bin/../../lib/gcc/pic32mx/4.8.3/../../../../pic32mx/lib\libpic32.a(errno.o)

.data%z2        0x00000000        0x0
 .data          0x00000000        0x0 c:/program files (x86)/microchip/xc32/v2.30/bin/bin/../../lib/gcc/pic32mx/4.8.3/../../../../pic32mx/lib\libpic32.a(errno.o)

.bss%z3         0x00000000        0x0
 .bss           0x00000000        0x0 c:/program files (x86)/microchip/xc32/v2.30/bin/bin/../../lib/gcc/pic32mx/4.8.3/../../../../pic32mx/lib\libm.a(s_lib_ver.o)

.data%z4        0x00000000        0x0
 .data          0x00000000        0x0 c:/program files (x86)/microchip/xc32/v2.30/bin/bin/../../lib/gcc/pic32mx/4.8.3/../../../../pic32mx/lib\libm.a(s_lib_ver.o)

.bss%z5         0x00000000        0x0
 .bss           0x00000000        0x0 c:/program files (x86)/microchip/xc32/v2.30/bin/bin/../../lib/gcc/pic32mx/4.8.3/../../../../pic32mx/lib\libm.a(fpsqrt32.o)

.data%z6        0x00000000        0x0
 .data          0x00000000        0x0 c:/program files (x86)/microchip/xc32/v2.30/bin/bin/../../lib/gcc/pic32mx/4.8.3/../../../../pic32mx/lib\libm.a(fpsqrt32.o)

.bss%z7         0x00000000        0x0
 .bss           0x00000000        0x0 c:/program files (x86)/microchip/xc32/v2.30/bin/bin/../../lib/gcc/pic32mx/4.8.3/../../../../pic32mx/lib\libm.a(fpexsqrt32.o)

.data%z8        0x00000000        0x0
 .data          0x00000000        0x0 c:/program files (x86)/microchip/xc32/v2.30/bin/bin/../../lib/gcc/pic32mx/4.8.3/../../../../pic32mx/lib\libm.a(fpexsqrt32.o)

.bss%z9         0x00000000        0x0
 .bss           0x00000000        0x0 c:/program files (x86)/microchip/xc32/v2.30/bin/bin/../../lib/gcc/pic32mx/4.8.3/../../../../pic32mx/lib\libm.a(fpexatan.o)

.bss%z10        0x00000000        0x0
 .bss           0x00000000        0x0 c:/program files (x86)/microchip/xc32/v2.30/bin/bin/../../lib/gcc/pic32mx/4.8.3/../../../../pic32mx/lib\libm.a(fpatan2.o)

.data%z11       0x00000000        0x0
 .data          0x00000000        0x0 c:/program files (x86)/microchip/xc32/v2.30/bin/bin/../../lib/gcc/pic32mx/4.8.3/../../../../pic32mx/lib\libm.a(fpatan2.o)

.bss%z12        0x00000000        0x0
 .bss           0x00000000        0x0 c:/program files (x86)/microchip/xc32/v2.30/bin/bin/../../lib/gcc/pic32mx/4.8.3/../../../../pic32mx/lib\libm.a(dpcmp.o)

.data%z13       0x00000000        0x0
 .data          0x00000000        0x0 c:/program files (x86)/microchip/xc32/v2.30/bin/bin/../../lib/gcc/pic32mx/4.8.3/../../../../pic32mx/lib\libm.a(dpcmp.o)

.bss%z14        0x00000000        0x0
 .bss           0x00000000        0x0 c:/program files (x86)/microchip/xc32/v2.30/bin/bin/../../lib/gcc/pic32mx/4.8.3/../../../../pic32mx/lib\libm.a(dp32div.o)

.data%z15       0x00000000        0x0
 .data          0x00000000        0x0 c:/program files (x86)/microchip/xc32/v2.30/bin/bin/../../lib/gcc/pic32mx/4.8.3/../../../../pic32mx/lib\libm.a(dp32div.o)

.bss%z16        0x00000000        0x0
 .bss           0x00000000        0x0 c:/program files (x86)/microchip/xc32/v2.30/bin/bin/../../lib/gcc/pic32mx/4.8.3/../../../../pic32mx/lib\libm.a(dpldexp.o)

.data%z17       0x00000000        0x0
 .data          0x00000000        0x0 c:/program files (x86)/microchip/xc32/v2.30/bin/bin/../../lib/gcc/pic32mx/4.8.3/../../../../pic32mx/lib\libm.a(dpldexp.o)

.bss%z18        0x00000000        0x0
 .bss           0x00000000        0x0 c:/program files (x86)/microchip/xc32/v2.30/bin/bin/../../lib/gcc/pic32mx/4.8.3/../../../../pic32mx/lib\libm.a(support.o)

.data%z19       0x00000000        0x0
 .data          0x00000000        0x0 c:/program files (x86)/microchip/xc32/v2.30/bin/bin/../../lib/gcc/pic32mx/4.8.3/../../../../pic32mx/lib\libm.a(support.o)

.bss%z20        0x00000000        0x0
 .bss           0x00000000        0x0 c:/program files (x86)/microchip/xc32/v2.30/bin/bin/../../lib/gcc/pic32mx/4.8.3/../../../../pic32mx/lib\libm.a(w_sqrtf.o)

.data%z21       0x00000000        0x0
 .data          0x00000000        0x0 c:/program files (x86)/microchip/xc32/v2.30/bin/bin/../../lib/gcc/pic32mx/4.8.3/../../../../pic32mx/lib\libm.a(w_sqrtf.o)

.bss%z22        0x00000000        0x0
 .bss           0x00000000        0x0 c:/program files (x86)/microchip/xc32/v2.30/bin/bin/../../lib/gcc/pic32mx/4.8.3/../../../../pic32mx/lib\libm.a(w_atan2f.o)

.data%z23       0x00000000        0x0
 .data          0x00000000        0x0 c:/program files (x86)/microchip/xc32/v2.30/bin/bin/../../lib/gcc/pic32mx/4.8.3/../../../../pic32mx/lib\libm.a(w_atan2f.o)

.bss%z24        0x00000000        0x0
 .bss           0x00000000        0x0 c:/program files (x86)/microchip/xc32/v2.30/bin/bin/../../lib/gcc/pic32mx/4.8.3/../../../../pic32mx/lib\libm.a(sitofp.o)

.data%z25       0x00000000        0x0
 .data          0x00000000        0x0 c:/program files (x86)/microchip/xc32/v2.30/bin/bin/../../lib/gcc/pic32mx/4.8.3/../../../../pic32mx/lib\libm.a(sitofp.o)

.bss%z26        0x00000000        0x0
 .bss           0x00000000        0x0 c:/program files (x86)/microchip/xc32/v2.30/bin/bin/../../lib/gcc/pic32mx/4.8.3/../../../../pic32mx/lib\libm.a(sincof32.o)

.bss%z27        0x00000000        0x0
 .bss           0x00000000        0x0 c:/program files (x86)/microchip/xc32/v2.30/bin/bin/../../lib/gcc/pic32mx/4.8.3/../../../../pic32mx/lib\libm.a(litodp.o)

.data%z28       0x00000000        0x0
 .data          0x00000000        0x0 c:/program files (x86)/microchip/xc32/v2.30/bin/bin/../../lib/gcc/pic32mx/4.8.3/../../../../pic32mx/lib\libm.a(litodp.o)

.bss%z29        0x00000000        0x0
 .bss           0x00000000        0x0 c:/program files (x86)/microchip/xc32/v2.30/bin/bin/../../lib/gcc/pic32mx/4.8.3/../../../../pic32mx/lib\libm.a(fptoul.o)

.data%z30       0x00000000        0x0
 .data          0x00000000        0x0 c:/program files (x86)/microchip/xc32/v2.30/bin/bin/../../lib/gcc/pic32mx/4.8.3/../../../../pic32mx/lib\libm.a(fptoul.o)

.bss%z31        0x00000000        0x0
 .bss           0x00000000        0x0 c:/program files (x86)/microchip/xc32/v2.30/bin/bin/../../lib/gcc/pic32mx/4.8.3/../../../../pic32mx/lib\libm.a(fptoli.o)

.data%z32       0x00000000        0x0
 .data          0x00000000        0x0 c:/program files (x86)/microchip/xc32/v2.30/bin/bin/../../lib/gcc/pic32mx/4.8.3/../../../../pic32mx/lib\libm.a(fptoli.o)

.bss%z33        0x00000000        0x0
 .bss           0x00000000        0x0 c:/program files (x86)/microchip/xc32/v2.30/bin/bin/../../lib/gcc/pic32mx/4.8.3/../../../../pic32mx/lib\libm.a(fptodp.o)

.data%z34       0x00000000        0x0
 .data          0x00000000        0x0 c:/program files (x86)/microchip/xc32/v2.30/bin/bin/../../lib/gcc/pic32mx/4.8.3/../../../../pic32mx/lib\libm.a(fptodp.o)

.bss%z35        0x00000000        0x0
 .bss           0x00000000        0x0 c:/program files (x86)/microchip/xc32/v2.30/bin/bin/../../lib/gcc/pic32mx/4.8.3/../../../../pic32mx/lib\libm.a(fpsin32.o)

.data%z36       0x00000000        0x0
 .data          0x00000000        0x0 c:/program files (x86)/microchip/xc32/v2.30/bin/bin/../../lib/gcc/pic32mx/4.8.3/../../../../pic32mx/lib\libm.a(fpsin32.o)

.bss%z37        0x00000000        0x0
 .bss           0x00000000        0x0 c:/program files (x86)/microchip/xc32/v2.30/bin/bin/../../lib/gcc/pic32mx/4.8.3/../../../../pic32mx/lib\libm.a(fpreduct32.o)

.data%z38       0x00000000        0x0
 .data          0x00000000        0x0 c:/program files (x86)/microchip/xc32/v2.30/bin/bin/../../lib/gcc/pic32mx/4.8.3/../../../../pic32mx/lib\libm.a(fpreduct32.o)

.bss%z39        0x00000000        0x0
 .bss           0x00000000        0x0 c:/program files (x86)/microchip/xc32/v2.30/bin/bin/../../lib/gcc/pic32mx/4.8.3/../../../../pic32mx/lib\libm.a(fpfloo32.o)

.data%z40       0x00000000        0x0
 .data          0x00000000        0x0 c:/program files (x86)/microchip/xc32/v2.30/bin/bin/../../lib/gcc/pic32mx/4.8.3/../../../../pic32mx/lib\libm.a(fpfloo32.o)

.bss%z41        0x00000000        0x0
 .bss           0x00000000        0x0 c:/program files (x86)/microchip/xc32/v2.30/bin/bin/../../lib/gcc/pic32mx/4.8.3/../../../../pic32mx/lib\libm.a(fpcos32.o)

.data%z42       0x00000000        0x0
 .data          0x00000000        0x0 c:/program files (x86)/microchip/xc32/v2.30/bin/bin/../../lib/gcc/pic32mx/4.8.3/../../../../pic32mx/lib\libm.a(fpcos32.o)

.bss%z43        0x00000000        0x0
 .bss           0x00000000        0x0 c:/program files (x86)/microchip/xc32/v2.30/bin/bin/../../lib/gcc/pic32mx/4.8.3/../../../../pic32mx/lib\libm.a(fpcmp.o)

.data%z44       0x00000000        0x0
 .data          0x00000000        0x0 c:/program files (x86)/microchip/xc32/v2.30/bin/bin/../../lib/gcc/pic32mx/4.8.3/../../../../pic32mx/lib\libm.a(fpcmp.o)

.bss%z45        0x00000000        0x0
 .bss           0x00000000        0x0 c:/program files (x86)/microchip/xc32/v2.30/bin/bin/../../lib/gcc/pic32mx/4.8.3/../../../../pic32mx/lib\libm.a(fpceil32.o)

.data%z46       0x00000000        0x0
 .data          0x00000000        0x0 c:/program files (x86)/microchip/xc32/v2.30/bin/bin/../../lib/gcc/pic32mx/4.8.3/../../../../pic32mx/lib\libm.a(fpceil32.o)

.bss%z47        0x00000000        0x0
 .bss           0x00000000        0x0 c:/program files (x86)/microchip/xc32/v2.30/bin/bin/../../lib/gcc/pic32mx/4.8.3/../../../../pic32mx/lib\libm.a(fp32subadd.o)

.data%z48       0x00000000        0x0
 .data          0x00000000        0x0 c:/program files (x86)/microchip/xc32/v2.30/bin/bin/../../lib/gcc/pic32mx/4.8.3/../../../../pic32mx/lib\libm.a(fp32subadd.o)

.bss%z49        0x00000000        0x0
 .bss           0x00000000        0x0 c:/program files (x86)/microchip/xc32/v2.30/bin/bin/../../lib/gcc/pic32mx/4.8.3/../../../../pic32mx/lib\libm.a(fp32mul.o)

.data%z50       0x00000000        0x0
 .data          0x00000000        0x0 c:/program files (x86)/microchip/xc32/v2.30/bin/bin/../../lib/gcc/pic32mx/4.8.3/../../../../pic32mx/lib\libm.a(fp32mul.o)

.bss%z51        0x00000000        0x0
 .bss           0x00000000        0x0 c:/program files (x86)/microchip/xc32/v2.30/bin/bin/../../lib/gcc/pic32mx/4.8.3/../../../../pic32mx/lib\libm.a(fp32div.o)

.data%z52       0x00000000        0x0
 .data          0x00000000        0x0 c:/program files (x86)/microchip/xc32/v2.30/bin/bin/../../lib/gcc/pic32mx/4.8.3/../../../../pic32mx/lib\libm.a(fp32div.o)

.bss%z53        0x00000000        0x0
 .bss           0x00000000        0x0 c:/program files (x86)/microchip/xc32/v2.30/bin/bin/../../lib/gcc/pic32mx/4.8.3/../../../../pic32mx/lib\libm.a(dptoul.o)

.data%z54       0x00000000        0x0
 .data          0x00000000        0x0 c:/program files (x86)/microchip/xc32/v2.30/bin/bin/../../lib/gcc/pic32mx/4.8.3/../../../../pic32mx/lib\libm.a(dptoul.o)

.bss%z55        0x00000000        0x0
 .bss           0x00000000        0x0 c:/program files (x86)/microchip/xc32/v2.30/bin/bin/../../lib/gcc/pic32mx/4.8.3/../../../../pic32mx/lib\libm.a(dptofp.o)

.data%z56       0x00000000        0x0
 .data          0x00000000        0x0 c:/program files (x86)/microchip/xc32/v2.30/bin/bin/../../lib/gcc/pic32mx/4.8.3/../../../../pic32mx/lib\libm.a(dptofp.o)

.bss%z57        0x00000000        0x0
 .bss           0x00000000        0x0 c:/program files (x86)/microchip/xc32/v2.30/bin/bin/../../lib/gcc/pic32mx/4.8.3/../../../../pic32mx/lib\libm.a(dp32subadd.o)

.data%z58       0x00000000        0x0
 .data          0x00000000        0x0 c:/program files (x86)/microchip/xc32/v2.30/bin/bin/../../lib/gcc/pic32mx/4.8.3/../../../../pic32mx/lib\libm.a(dp32subadd.o)

.bss%z59        0x00000000        0x0
 .bss           0x00000000        0x0 c:/program files (x86)/microchip/xc32/v2.30/bin/bin/../../lib/gcc/pic32mx/4.8.3/../../../../pic32mx/lib\libm.a(dp32mul.o)

.data%z60       0x00000000        0x0
 .data          0x00000000        0x0 c:/program files (x86)/microchip/xc32/v2.30/bin/bin/../../lib/gcc/pic32mx/4.8.3/../../../../pic32mx/lib\libm.a(dp32mul.o)

.bss%z61        0x00000000        0x0
 .bss           0x00000000        0x0 c:/program files (x86)/microchip/xc32/v2.30/bin/bin/../../lib/gcc/pic32mx/4.8.3/../../../../pic32mx/lib\liblega-c.a(strncpy.o)

.data%z62       0x00000000        0x0
 .data          0x00000000        0x0 c:/program files (x86)/microchip/xc32/v2.30/bin/bin/../../lib/gcc/pic32mx/4.8.3/../../../../pic32mx/lib\liblega-c.a(strncpy.o)

.bss%z63        0x00000000        0x0
 .bss           0x00000000        0x0 c:/program files (x86)/microchip/xc32/v2.30/bin/bin/../../lib/gcc/pic32mx/4.8.3/../../../../pic32mx/lib\liblega-c.a(strncmp.o)

.data%z64       0x00000000        0x0
 .data          0x00000000        0x0 c:/program files (x86)/microchip/xc32/v2.30/bin/bin/../../lib/gcc/pic32mx/4.8.3/../../../../pic32mx/lib\liblega-c.a(strncmp.o)

.bss%z65        0x00000000        0x0
 .bss           0x00000000        0x0 c:/program files (x86)/microchip/xc32/v2.30/bin/bin/../../lib/gcc/pic32mx/4.8.3/../../../../pic32mx/lib\libpic32.a(defaultinterrupt.o)

.data%z66       0x00000000        0x0
 .data          0x00000000        0x0 c:/program files (x86)/microchip/xc32/v2.30/bin/bin/../../lib/gcc/pic32mx/4.8.3/../../../../pic32mx/lib\libpic32.a(defaultinterrupt.o)

.bss%z67        0x00000000        0x0
 .bss           0x00000000        0x0 c:/program files (x86)/microchip/xc32/v2.30/bin/bin/../../lib/gcc/pic32mx/4.8.3/../../../../pic32mx/lib\libpic32.a(vector44.o)

.data%z68       0x00000000        0x0
 .data          0x00000000        0x0 c:/program files (x86)/microchip/xc32/v2.30/bin/bin/../../lib/gcc/pic32mx/4.8.3/../../../../pic32mx/lib\libpic32.a(vector44.o)

.bss%z69        0x00000000        0x0
 .bss           0x00000000        0x0 c:/program files (x86)/microchip/xc32/v2.30/bin/bin/../../lib/gcc/pic32mx/4.8.3/../../../../pic32mx/lib\libpic32.a(vector43.o)

.data%z70       0x00000000        0x0
 .data          0x00000000        0x0 c:/program files (x86)/microchip/xc32/v2.30/bin/bin/../../lib/gcc/pic32mx/4.8.3/../../../../pic32mx/lib\libpic32.a(vector43.o)

.bss%z71        0x00000000        0x0
 .bss           0x00000000        0x0 c:/program files (x86)/microchip/xc32/v2.30/bin/bin/../../lib/gcc/pic32mx/4.8.3/../../../../pic32mx/lib\libpic32.a(vector42.o)

.data%z72       0x00000000        0x0
 .data          0x00000000        0x0 c:/program files (x86)/microchip/xc32/v2.30/bin/bin/../../lib/gcc/pic32mx/4.8.3/../../../../pic32mx/lib\libpic32.a(vector42.o)

.bss%z73        0x00000000        0x0
 .bss           0x00000000        0x0 c:/program files (x86)/microchip/xc32/v2.30/bin/bin/../../lib/gcc/pic32mx/4.8.3/../../../../pic32mx/lib\libpic32.a(vector41.o)

.data%z74       0x00000000        0x0
 .data          0x00000000        0x0 c:/program files (x86)/microchip/xc32/v2.30/bin/bin/../../lib/gcc/pic32mx/4.8.3/../../../../pic32mx/lib\libpic32.a(vector41.o)

.bss%z75        0x00000000        0x0
 .bss           0x00000000        0x0 c:/program files (x86)/microchip/xc32/v2.30/bin/bin/../../lib/gcc/pic32mx/4.8.3/../../../../pic32mx/lib\libpic32.a(vector40.o)

.data%z76       0x00000000        0x0
 .data          0x00000000        0x0 c:/program files (x86)/microchip/xc32/v2.30/bin/bin/../../lib/gcc/pic32mx/4.8.3/../../../../pic32mx/lib\libpic32.a(vector40.o)

.bss%z77        0x00000000        0x0
 .bss           0x00000000        0x0 c:/program files (x86)/microchip/xc32/v2.30/bin/bin/../../lib/gcc/pic32mx/4.8.3/../../../../pic32mx/lib\libpic32.a(vector35.o)

.data%z78       0x00000000        0x0
 .data          0x00000000        0x0 c:/program files (x86)/microchip/xc32/v2.30/bin/bin/../../lib/gcc/pic32mx/4.8.3/../../../../pic32mx/lib\libpic32.a(vector35.o)

.bss%z79        0x00000000        0x0
 .bss           0x00000000        0x0 c:/program files (x86)/microchip/xc32/v2.30/bin/bin/../../lib/gcc/pic32mx/4.8.3/../../../../pic32mx/lib\libpic32.a(vector34.o)

.data%z80       0x00000000        0x0
 .data          0x00000000        0x0 c:/program files (x86)/microchip/xc32/v2.30/bin/bin/../../lib/gcc/pic32mx/4.8.3/../../../../pic32mx/lib\libpic32.a(vector34.o)

.bss%z81        0x00000000        0x0
 .bss           0x00000000        0x0 c:/program files (x86)/microchip/xc32/v2.30/bin/bin/../../lib/gcc/pic32mx/4.8.3/../../../../pic32mx/lib\libpic32.a(vector30.o)

.data%z82       0x00000000        0x0
 .data          0x00000000        0x0 c:/program files (x86)/microchip/xc32/v2.30/bin/bin/../../lib/gcc/pic32mx/4.8.3/../../../../pic32mx/lib\libpic32.a(vector30.o)

.bss%z83        0x00000000        0x0
 .bss           0x00000000        0x0 c:/program files (x86)/microchip/xc32/v2.30/bin/bin/../../lib/gcc/pic32mx/4.8.3/../../../../pic32mx/lib\libpic32.a(vector29.o)

.data%z84       0x00000000        0x0
 .data          0x00000000        0x0 c:/program files (x86)/microchip/xc32/v2.30/bin/bin/../../lib/gcc/pic32mx/4.8.3/../../../../pic32mx/lib\libpic32.a(vector29.o)

.bss%z85        0x00000000        0x0
 .bss           0x00000000        0x0 c:/program files (x86)/microchip/xc32/v2.30/bin/bin/../../lib/gcc/pic32mx/4.8.3/../../../../pic32mx/lib\libpic32.a(vector28.o)

.data%z86       0x00000000        0x0
 .data          0x00000000        0x0 c:/program files (x86)/microchip/xc32/v2.30/bin/bin/../../lib/gcc/pic32mx/4.8.3/../../../../pic32mx/lib\libpic32.a(vector28.o)

.bss%z87        0x00000000        0x0
 .bss           0x00000000        0x0 c:/program files (x86)/microchip/xc32/v2.30/bin/bin/../../lib/gcc/pic32mx/4.8.3/../../../../pic32mx/lib\libpic32.a(vector27.o)

.data%z88       0x00000000        0x0
 .data          0x00000000        0x0 c:/program files (x86)/microchip/xc32/v2.30/bin/bin/../../lib/gcc/pic32mx/4.8.3/../../../../pic32mx/lib\libpic32.a(vector27.o)

.bss%z89        0x00000000        0x0
 .bss           0x00000000        0x0 c:/program files (x86)/microchip/xc32/v2.30/bin/bin/../../lib/gcc/pic32mx/4.8.3/../../../../pic32mx/lib\libpic32.a(vector23.o)

.data%z90       0x00000000        0x0
 .data          0x00000000        0x0 c:/program files (x86)/microchip/xc32/v2.30/bin/bin/../../lib/gcc/pic32mx/4.8.3/../../../../pic32mx/lib\libpic32.a(vector23.o)

.bss%z91        0x00000000        0x0
 .bss           0x00000000        0x0 c:/program files (x86)/microchip/xc32/v2.30/bin/bin/../../lib/gcc/pic32mx/4.8.3/../../../../pic32mx/lib\libpic32.a(vector22.o)

.data%z92       0x00000000        0x0
 .data          0x00000000        0x0 c:/program files (x86)/microchip/xc32/v2.30/bin/bin/../../lib/gcc/pic32mx/4.8.3/../../../../pic32mx/lib\libpic32.a(vector22.o)

.bss%z93        0x00000000        0x0
 .bss           0x00000000        0x0 c:/program files (x86)/microchip/xc32/v2.30/bin/bin/../../lib/gcc/pic32mx/4.8.3/../../../../pic32mx/lib\libpic32.a(vector21.o)

.data%z94       0x00000000        0x0
 .data          0x00000000        0x0 c:/program files (x86)/microchip/xc32/v2.30/bin/bin/../../lib/gcc/pic32mx/4.8.3/../../../../pic32mx/lib\libpic32.a(vector21.o)

.bss%z95        0x00000000        0x0
 .bss           0x00000000        0x0 c:/program files (x86)/microchip/xc32/v2.30/bin/bin/../../lib/gcc/pic32mx/4.8.3/../../../../pic32mx/lib\libpic32.a(vector19.o)

.data%z96       0x00000000        0x0
 .data          0x00000000        0x0 c:/program files (x86)/microchip/xc32/v2.30/bin/bin/../../lib/gcc/pic32mx/4.8.3/../../../../pic32mx/lib\libpic32.a(vector19.o)

.bss%z97        0x00000000        0x0
 .bss           0x00000000        0x0 c:/program files (x86)/microchip/xc32/v2.30/bin/bin/../../lib/gcc/pic32mx/4.8.3/../../../../pic32mx/lib\libpic32.a(vector18.o)

.data%z98       0x00000000        0x0
 .data          0x00000000        0x0 c:/program files (x86)/microchip/xc32/v2.30/bin/bin/../../lib/gcc/pic32mx/4.8.3/../../../../pic32mx/lib\libpic32.a(vector18.o)

.bss%z99        0x00000000        0x0
 .bss           0x00000000        0x0 c:/program files (x86)/microchip/xc32/v2.30/bin/bin/../../lib/gcc/pic32mx/4.8.3/../../../../pic32mx/lib\libpic32.a(vector17.o)

.data%z100      0x00000000        0x0
 .data          0x00000000        0x0 c:/program files (x86)/microchip/xc32/v2.30/bin/bin/../../lib/gcc/pic32mx/4.8.3/../../../../pic32mx/lib\libpic32.a(vector17.o)

.bss%z101       0x00000000        0x0
 .bss           0x00000000        0x0 c:/program files (x86)/microchip/xc32/v2.30/bin/bin/../../lib/gcc/pic32mx/4.8.3/../../../../pic32mx/lib\libpic32.a(vector14.o)

.data%z102      0x00000000        0x0
 .data          0x00000000        0x0 c:/program files (x86)/microchip/xc32/v2.30/bin/bin/../../lib/gcc/pic32mx/4.8.3/../../../../pic32mx/lib\libpic32.a(vector14.o)

.bss%z103       0x00000000        0x0
 .bss           0x00000000        0x0 c:/program files (x86)/microchip/xc32/v2.30/bin/bin/../../lib/gcc/pic32mx/4.8.3/../../../../pic32mx/lib\libpic32.a(vector13.o)

.data%z104      0x00000000        0x0
 .data          0x00000000        0x0 c:/program files (x86)/microchip/xc32/v2.30/bin/bin/../../lib/gcc/pic32mx/4.8.3/../../../../pic32mx/lib\libpic32.a(vector13.o)

.bss%z105       0x00000000        0x0
 .bss           0x00000000        0x0 c:/program files (x86)/microchip/xc32/v2.30/bin/bin/../../lib/gcc/pic32mx/4.8.3/../../../../pic32mx/lib\libpic32.a(vector11.o)

.data%z106      0x00000000        0x0
 .data          0x00000000        0x0 c:/program files (x86)/microchip/xc32/v2.30/bin/bin/../../lib/gcc/pic32mx/4.8.3/../../../../pic32mx/lib\libpic32.a(vector11.o)

.bss%z107       0x00000000        0x0
 .bss           0x00000000        0x0 c:/program files (x86)/microchip/xc32/v2.30/bin/bin/../../lib/gcc/pic32mx/4.8.3/../../../../pic32mx/lib\libpic32.a(vector10.o)

.data%z108      0x00000000        0x0
 .data          0x00000000        0x0 c:/program files (x86)/microchip/xc32/v2.30/bin/bin/../../lib/gcc/pic32mx/4.8.3/../../../../pic32mx/lib\libpic32.a(vector10.o)

.bss%z109       0x00000000        0x0
 .bss           0x00000000        0x0 c:/program files (x86)/microchip/xc32/v2.30/bin/bin/../../lib/gcc/pic32mx/4.8.3/../../../../pic32mx/lib\libpic32.a(vector9.o)

.data%z110      0x00000000        0x0
 .data          0x00000000        0x0 c:/program files (x86)/microchip/xc32/v2.30/bin/bin/../../lib/gcc/pic32mx/4.8.3/../../../../pic32mx/lib\libpic32.a(vector9.o)

.bss%z111       0x00000000        0x0
 .bss           0x00000000        0x0 c:/program files (x86)/microchip/xc32/v2.30/bin/bin/../../lib/gcc/pic32mx/4.8.3/../../../../pic32mx/lib\libpic32.a(vector7.o)

.data%z112      0x00000000        0x0
 .data          0x00000000        0x0 c:/program files (x86)/microchip/xc32/v2.30/bin/bin/../../lib/gcc/pic32mx/4.8.3/../../../../pic32mx/lib\libpic32.a(vector7.o)

.bss%z113       0x00000000        0x0
 .bss           0x00000000        0x0 c:/program files (x86)/microchip/xc32/v2.30/bin/bin/../../lib/gcc/pic32mx/4.8.3/../../../../pic32mx/lib\libpic32.a(vector6.o)

.data%z114      0x00000000        0x0
 .data          0x00000000        0x0 c:/program files (x86)/microchip/xc32/v2.30/bin/bin/../../lib/gcc/pic32mx/4.8.3/../../../../pic32mx/lib\libpic32.a(vector6.o)

.bss%z115       0x00000000        0x0
 .bss           0x00000000        0x0 c:/program files (x86)/microchip/xc32/v2.30/bin/bin/../../lib/gcc/pic32mx/4.8.3/../../../../pic32mx/lib\libpic32.a(vector5.o)

.data%z116      0x00000000        0x0
 .data          0x00000000        0x0 c:/program files (x86)/microchip/xc32/v2.30/bin/bin/../../lib/gcc/pic32mx/4.8.3/../../../../pic32mx/lib\libpic32.a(vector5.o)

.bss%z117       0x00000000        0x0
 .bss           0x00000000        0x0 c:/program files (x86)/microchip/xc32/v2.30/bin/bin/../../lib/gcc/pic32mx/4.8.3/../../../../pic32mx/lib\libpic32.a(vector3.o)

.data%z118      0x00000000        0x0
 .data          0x00000000        0x0 c:/program files (x86)/microchip/xc32/v2.30/bin/bin/../../lib/gcc/pic32mx/4.8.3/../../../../pic32mx/lib\libpic32.a(vector3.o)

.bss%z119       0x00000000        0x0
 .bss           0x00000000        0x0 c:/program files (x86)/microchip/xc32/v2.30/bin/bin/../../lib/gcc/pic32mx/4.8.3/../../../../pic32mx/lib\libpic32.a(vector2.o)

.data%z120      0x00000000        0x0
 .data          0x00000000        0x0 c:/program files (x86)/microchip/xc32/v2.30/bin/bin/../../lib/gcc/pic32mx/4.8.3/../../../../pic32mx/lib\libpic32.a(vector2.o)

.bss%z121       0x00000000        0x0
 .bss           0x00000000        0x0 c:/program files (x86)/microchip/xc32/v2.30/bin/bin/../../lib/gcc/pic32mx/4.8.3/../../../../pic32mx/lib\libpic32.a(vector1.o)

.data%z122      0x00000000        0x0
 .data          0x00000000        0x0 c:/program files (x86)/microchip/xc32/v2.30/bin/bin/../../lib/gcc/pic32mx/4.8.3/../../../../pic32mx/lib\libpic32.a(vector1.o)

.bss%z123       0x00000000        0x0
 .bss           0x00000000        0x0 c:/program files (x86)/microchip/xc32/v2.30/bin/bin/../../lib/gcc/pic32mx/4.8.3/../../../../pic32mx/lib\libpic32.a(general-exception.o)

.data%z124      0x00000000        0x0
 .data          0x00000000        0x0 c:/program files (x86)/microchip/xc32/v2.30/bin/bin/../../lib/gcc/pic32mx/4.8.3/../../../../pic32mx/lib\libpic32.a(general-exception.o)

.bss%z125       0x00000000        0x0
 .bss           0x00000000        0x0 c:/program files (x86)/microchip/xc32/v2.30/bin/bin/../../lib/gcc/pic32mx/4.8.3/../../../../pic32mx/lib\libpic32.a(pic32_data_init.o)

.data%z126      0x00000000        0x0
 .data          0x00000000        0x0 c:/program files (x86)/microchip/xc32/v2.30/bin/bin/../../lib/gcc/pic32mx/4.8.3/../../../../pic32mx/lib\libpic32.a(pic32_data_init.o)

.bss%z127       0x00000000        0x0
 .bss           0x00000000        0x0 c:/program files (x86)/microchip/xc32/v2.30/bin/bin/../../lib/gcc/pic32mx/4.8.3/../../../../pic32mx/lib\libpic32.a(default-nmi-handler.o)

.data%z128      0x00000000        0x0
 .data          0x00000000        0x0 c:/program files (x86)/microchip/xc32/v2.30/bin/bin/../../lib/gcc/pic32mx/4.8.3/../../../../pic32mx/lib\libpic32.a(default-nmi-handler.o)

.bss%z129       0x00000000        0x0
 .bss           0x00000000        0x0 c:/program files (x86)/microchip/xc32/v2.30/bin/bin/../../lib/gcc/pic32mx/4.8.3/../../../../pic32mx/lib\libpic32.a(default-on-bootstrap.o)

.data%z130      0x00000000        0x0
 .data          0x00000000        0x0 c:/program files (x86)/microchip/xc32/v2.30/bin/bin/../../lib/gcc/pic32mx/4.8.3/../../../../pic32mx/lib\libpic32.a(default-on-bootstrap.o)

.bss%z131       0x00000000        0x0
 .bss           0x00000000        0x0 c:/program files (x86)/microchip/xc32/v2.30/bin/bin/../../lib/gcc/pic32mx/4.8.3/../../../../pic32mx/lib\libpic32.a(default-on-reset.o)

.data%z132      0x00000000        0x0
 .data          0x00000000        0x0 c:/program files (x86)/microchip/xc32/v2.30/bin/bin/../../lib/gcc/pic32mx/4.8.3/../../../../pic32mx/lib\libpic32.a(default-on-reset.o)

.bss%z133       0x00000000        0x0
 .bss           0x00000000        0x0 c:/program files (x86)/microchip/xc32/v2.30/bin/bin/../../lib/gcc/pic32mx/4.8.3/../../../../pic32mx/lib\libpic32.a(default-bootstrap-exception-handler.o)

.data%z134      0x00000000        0x0
 .data          0x00000000        0x0 c:/program files (x86)/microchip/xc32/v2.30/bin/bin/../../lib/gcc/pic32mx/4.8.3/../../../../pic32mx/lib\libpic32.a(default-bootstrap-exception-handler.o)

.bss%z135       0x00000000        0x0
 .bss           0x00000000        0x0 c:/program files (x86)/microchip/xc32/v2.30/bin/bin/../../lib/gcc/pic32mx/4.8.3/../../../../pic32mx/lib\libpic32.a(strlen.o)

.data%z136      0x00000000        0x0
 .data          0x00000000        0x0 c:/program files (x86)/microchip/xc32/v2.30/bin/bin/../../lib/gcc/pic32mx/4.8.3/../../../../pic32mx/lib\libpic32.a(strlen.o)

.bss%z137       0x00000000        0x0
 .bss           0x00000000        0x0 c:/program files (x86)/microchip/xc32/v2.30/bin/bin/../../lib/gcc/pic32mx/4.8.3/../../../../pic32mx/lib\libpic32.a(strcmp.o)

.data%z138      0x00000000        0x0
 .data          0x00000000        0x0 c:/program files (x86)/microchip/xc32/v2.30/bin/bin/../../lib/gcc/pic32mx/4.8.3/../../../../pic32mx/lib\libpic32.a(strcmp.o)

.bss%z139       0x00000000        0x0
 .bss           0x00000000        0x0 c:/program files (x86)/microchip/xc32/v2.30/bin/bin/../../lib/gcc/pic32mx/4.8.3/../../../../pic32mx/lib\libpic32.a(memset.o)

.data%z140      0x00000000        0x0
 .data          0x00000000        0x0 c:/program files (x86)/microchip/xc32/v2.30/bin/bin/../../lib/gcc/pic32mx/4.8.3/../../../../pic32mx/lib\libpic32.a(memset.o)

.bss%z141       0x00000000        0x0
 .bss           0x00000000        0x0 c:/program files (x86)/microchip/xc32/v2.30/bin/bin/../../lib/gcc/pic32mx/4.8.3/../../../../pic32mx/lib\libpic32.a(memcpy.o)

.data%z142      0x00000000        0x0
 .data          0x00000000        0x0 c:/program files (x86)/microchip/xc32/v2.30/bin/bin/../../lib/gcc/pic32mx/4.8.3/../../../../pic32mx/lib\libpic32.a(memcpy.o)

.bss%z143       0x00000000        0x0
 .bss           0x00000000        0x0 c:/program files (x86)/microchip/xc32/v2.30/bin/bin/../../lib/gcc/pic32mx/4.8.3/../../../../pic32mx/lib\libpic32.a(memcmp.o)

.data%z144      0x00000000        0x0
 .data          0x00000000        0x0 c:/program files (x86)/microchip/xc32/v2.30/bin/bin/../../lib/gcc/pic32mx/4.8.3/../../../../pic32mx/lib\libpic32.a(memcmp.o)

.bss%z145       0x00000000        0x0
 .bss           0x00000000        0x0 c:/program files (x86)/microchip/xc32/v2.30/bin/bin/../../lib/gcc/pic32mx/4.8.3\libgcc.a(floatunsidf.o)

.data%z146      0x00000000        0x0
 .data          0x00000000        0x0 c:/program files (x86)/microchip/xc32/v2.30/bin/bin/../../lib/gcc/pic32mx/4.8.3\libgcc.a(floatunsidf.o)

.bss%z147       0x00000000        0x0
 .bss           0x00000000        0x0 c:/program files (x86)/microchip/xc32/v2.30/bin/bin/../../lib/gcc/pic32mx/4.8.3\libgcc.a(floatunsisf.o)

.data%z148      0x00000000        0x0
 .data          0x00000000        0x0 c:/program files (x86)/microchip/xc32/v2.30/bin/bin/../../lib/gcc/pic32mx/4.8.3\libgcc.a(floatunsisf.o)

.bss%z149       0x00000000        0x0
 .bss           0x00000000        0x0 c:/program files (x86)/microchip/xc32/v2.30/bin/bin/../../lib/gcc/pic32mx/4.8.3\libgcc.a(_floatundisf.o)

.data%z150      0x00000000        0x0
 .data          0x00000000        0x0 c:/program files (x86)/microchip/xc32/v2.30/bin/bin/../../lib/gcc/pic32mx/4.8.3\libgcc.a(_floatundisf.o)

.bss%z151       0x00000000        0x0
 .bss           0x00000000        0x0 c:/program files (x86)/microchip/xc32/v2.30/bin/bin/../../lib/gcc/pic32mx/4.8.3\libgcc.a(_fixunssfdi.o)

.data%z152      0x00000000        0x0
 .data          0x00000000        0x0 c:/program files (x86)/microchip/xc32/v2.30/bin/bin/../../lib/gcc/pic32mx/4.8.3\libgcc.a(_fixunssfdi.o)

.bss%z153       0x00000000        0x0
 .bss           0x00000000        0x0 c:/program files (x86)/microchip/xc32/v2.30/bin/bin/../../lib/gcc/pic32mx/4.8.3/../../../../pic32mx/lib\pic32_software_reset.o

.data%z154      0x00000000        0x0
 .data          0x00000000        0x0 c:/program files (x86)/microchip/xc32/v2.30/bin/bin/../../lib/gcc/pic32mx/4.8.3/../../../../pic32mx/lib\pic32_software_reset.o

.bss%z155       0x00000000        0x0
 .bss           0x00000000        0x0 c:/program files (x86)/microchip/xc32/v2.30/bin/bin/../../lib/gcc/pic32mx/4.8.3/../../../../pic32mx/lib/./proc/32MX440F256H\default_isr_vectors.o

.data%z156      0x00000000        0x0
 .data          0x00000000        0x0 c:/program files (x86)/microchip/xc32/v2.30/bin/bin/../../lib/gcc/pic32mx/4.8.3/../../../../pic32mx/lib/./proc/32MX440F256H\default_isr_vectors.o

.bss%z157       0x00000000        0x0
 .bss           0x00000000        0x0 C:\Users\kyrk\AppData\Local\Temp\cc25SlKc.o

.data%z158      0x00000000        0x0
 .data          0x00000000        0x0 C:\Users\kyrk\AppData\Local\Temp\cc25SlKc.o

.bss%z159       0x00000000        0x0
 .bss           0x00000000        0x0 C:\Users\kyrk\AppData\Local\Temp\ccRrtqIO.o

.data%z160      0x00000000        0x0
 .data          0x00000000        0x0 C:\Users\kyrk\AppData\Local\Temp\ccRrtqIO.o

.bss%z161       0x00000000        0x0
 .bss           0x00000000        0x0 C:\Users\kyrk\AppData\Local\Temp\ccO7tWVt.o

.data%z162      0x00000000        0x0
 .data          0x00000000        0x0 C:\Users\kyrk\AppData\Local\Temp\ccO7tWVt.o

.bss%z163       0x00000000        0x0
 .bss           0x00000000        0x0 c:/program files (x86)/microchip/xc32/v2.30/bin/bin/../../lib/gcc/pic32mx/4.8.3/../../../../pic32mx/lib\libmchp_peripheral_32MX440F256H.a(int_restore_interrupts_lib.o)

.data%z164      0x00000000        0x0
 .data          0x00000000        0x0 c:/program files (x86)/microchip/xc32/v2.30/bin/bin/../../lib/gcc/pic32mx/4.8.3/../../../../pic32mx/lib\libmchp_peripheral_32MX440F256H.a(int_restore_interrupts_lib.o)

.bss%z165       0x00000000        0x0
 .bss           0x00000000        0x0 c:/program files (x86)/microchip/xc32/v2.30/bin/bin/../../lib/gcc/pic32mx/4.8.3/../../../../pic32mx/lib\libmchp_peripheral_32MX440F256H.a(nvm_write_word_lib.o)

.data%z166      0x00000000        0x0
 .data          0x00000000        0x0 c:/program files (x86)/microchip/xc32/v2.30/bin/bin/../../lib/gcc/pic32mx/4.8.3/../../../../pic32mx/lib\libmchp_peripheral_32MX440F256H.a(nvm_write_word_lib.o)

.bss%z167       0x00000000        0x0
 .bss           0x00000000        0x0 c:/program files (x86)/microchip/xc32/v2.30/bin/bin/../../lib/gcc/pic32mx/4.8.3/../../../../pic32mx/lib\libmchp_peripheral_32MX440F256H.a(nvm_operation_lib.o)

.data%z168      0x00000000        0x0
 .data          0x00000000        0x0 c:/program files (x86)/microchip/xc32/v2.30/bin/bin/../../lib/gcc/pic32mx/4.8.3/../../../../pic32mx/lib\libmchp_peripheral_32MX440F256H.a(nvm_operation_lib.o)

.bss%z169       0x00000000        0x0
 .bss           0x00000000        0x0 c:/program files (x86)/microchip/xc32/v2.30/bin/bin/../../lib/gcc/pic32mx/4.8.3/../../../../pic32mx/lib\libmchp_peripheral_32MX440F256H.a(nvm_erase_page_lib.o)

.data%z170      0x00000000        0x0
 .data          0x00000000        0x0 c:/program files (x86)/microchip/xc32/v2.30/bin/bin/../../lib/gcc/pic32mx/4.8.3/../../../../pic32mx/lib\libmchp_peripheral_32MX440F256H.a(nvm_erase_page_lib.o)

.bss%z171       0x00000000        0x0
 .bss           0x00000000        0x0 c:/program files (x86)/microchip/xc32/v2.30/bin/bin/../../lib/gcc/pic32mx/4.8.3/../../../../pic32mx/lib\libmchp_peripheral_32MX440F256H.a(power_sleep_lib.o)

.data%z172      0x00000000        0x0
 .data          0x00000000        0x0 c:/program files (x86)/microchip/xc32/v2.30/bin/bin/../../lib/gcc/pic32mx/4.8.3/../../../../pic32mx/lib\libmchp_peripheral_32MX440F256H.a(power_sleep_lib.o)

.bss%z173       0x00000000        0x0
 .bss           0x00000000        0x0 c:/program files (x86)/microchip/xc32/v2.30/bin/bin/../../lib/gcc/pic32mx/4.8.3/../../../../pic32mx/lib\libmchp_peripheral_32MX440F256H.a(power_idle_lib.o)

.data%z174      0x00000000        0x0
 .data          0x00000000        0x0 c:/program files (x86)/microchip/xc32/v2.30/bin/bin/../../lib/gcc/pic32mx/4.8.3/../../../../pic32mx/lib\libmchp_peripheral_32MX440F256H.a(power_idle_lib.o)

.bss%z175       0x00000000        0x0
 .bss           0x00000000        0x0 c:/program files (x86)/microchip/xc32/v2.30/bin/bin/../../lib/gcc/pic32mx/4.8.3/../../../../pic32mx/lib\libmchp_peripheral_32MX440F256H.a(int_disable_interrupts_lib.o)

.data%z176      0x00000000        0x0
 .data          0x00000000        0x0 c:/program files (x86)/microchip/xc32/v2.30/bin/bin/../../lib/gcc/pic32mx/4.8.3/../../../../pic32mx/lib\libmchp_peripheral_32MX440F256H.a(int_disable_interrupts_lib.o)

.bss%z177       0x00000000        0x0
 .bss           0x00000000        0x0 c:/program files (x86)/microchip/xc32/v2.30/bin/bin/../../lib/gcc/pic32mx/4.8.3/../../../../pic32mx/lib\libmchp_peripheral_32MX440F256H.a(pcache.o)

.data%z178      0x00000000        0x0
 .data          0x00000000        0x0 c:/program files (x86)/microchip/xc32/v2.30/bin/bin/../../lib/gcc/pic32mx/4.8.3/../../../../pic32mx/lib\libmchp_peripheral_32MX440F256H.a(pcache.o)

.bss%z179       0x00000000        0x0
 .bss           0x00000000        0x0 c:/program files (x86)/microchip/xc32/v2.30/bin/bin/../../lib/gcc/pic32mx/4.8.3/../../../../pic32mx/lib\libmchp_peripheral_32MX440F256H.a(soft_reset_lib.o)

.data%z180      0x00000000        0x0
 .data          0x00000000        0x0 c:/program files (x86)/microchip/xc32/v2.30/bin/bin/../../lib/gcc/pic32mx/4.8.3/../../../../pic32mx/lib\libmchp_peripheral_32MX440F256H.a(soft_reset_lib.o)

.bss%z181       0x00000000        0x0
 .bss           0x00000000        0x0 c:/program files (x86)/microchip/xc32/v2.30/bin/bin/../../lib/gcc/pic32mx/4.8.3/../../../../pic32mx/lib/./proc/32MX440F256H\processor.o

.data%z182      0x00000000        0x0
 .data          0x00000000        0x0 c:/program files (x86)/microchip/xc32/v2.30/bin/bin/../../lib/gcc/pic32mx/4.8.3/../../../../pic32mx/lib/./proc/32MX440F256H\processor.o

.bss%z183       0x00000000        0x0
 .bss           0x00000000        0x0 output\noinitram.o

.data%z184      0x00000000        0x0
 .data          0x00000000        0x0 output\noinitram.o

.data%z185      0x00000000        0x0
 .data          0x00000000        0x0 output\BerkeleyAPI.o

.data%z186      0x00000000        0x0
 .data          0x00000000        0x0 output\TCP.o

.bss%z187       0x00000000        0x0
 .bss           0x00000000        0x0 output\Reboot.o

.data%z188      0x00000000        0x0
 .data          0x00000000        0x0 output\Reboot.o

.bss%z189       0x00000000        0x0
 .bss           0x00000000        0x0 output\grbl_multi.o

.data%z190      0x00000000        0x0
 .data          0x00000000        0x0 output\grbl_multi.o

.bss%z191       0x00000000        0x0
 .bss           0x00000000        0x0 output\ethernet_grbl_multi.o

.data%z192      0x00000000        0x0
 .data          0x00000000        0x0 output\ethernet_grbl_multi.o

.bss%z193       0x00000000        0x0
 .bss           0x00000000        0x0 output\usb_grbl_multi.o

.data%z194      0x00000000        0x0
 .data          0x00000000        0x0 output\usb_grbl_multi.o

.bss%z195       0x00000000        0x0
 .bss           0x00000000        0x0 output\UDP.o

.data%z196      0x00000000        0x0
 .data          0x00000000        0x0 output\UDP.o

.bss%z197       0x00000000        0x0
 .bss           0x00000000        0x0 output\StackTsk.o

.data%z198      0x00000000        0x0
 .data          0x00000000        0x0 output\StackTsk.o

.bss%z199       0x00000000        0x0
 .bss           0x00000000        0x0 output\IP.o

.data%z200      0x00000000        0x0
 .data          0x00000000        0x0 output\IP.o

.bss%z201       0x00000000        0x0
 .bss           0x00000000        0x0 output\ICMP.o

.data%z202      0x00000000        0x0
 .data          0x00000000        0x0 output\ICMP.o

.bss%z203       0x00000000        0x0
 .bss           0x00000000        0x0 output\Helpers.o

.data%z204      0x00000000        0x0
 .data          0x00000000        0x0 output\Helpers.o

.bss%z205       0x00000000        0x0
 .bss           0x00000000        0x0 output\Announce.o

.data%z206      0x00000000        0x0
 .data          0x00000000        0x0 output\Announce.o

.data%z207      0x00000000        0x0
 .data          0x00000000        0x0 output\ARP.o

.bss%z208       0x00000000        0x0
 .bss           0x00000000        0x0 output\Delay.o

.data%z209      0x00000000        0x0
 .data          0x00000000        0x0 output\Delay.o

.bss%z210       0x00000000        0x0
 .bss           0x00000000        0x0 output\DHCP.o

.data%z211      0x00000000        0x0
 .data          0x00000000        0x0 output\DHCP.o

.bss%z212       0x00000000        0x0
 .bss           0x00000000        0x0 output\ENC28J60.o

.data%z213      0x00000000        0x0
 .data          0x00000000        0x0 output\ENC28J60.o

.bss%z214       0x00000000        0x0
 .bss           0x00000000        0x0 output\ethernet.o

.data%z215      0x00000000        0x0
 .data          0x00000000        0x0 output\ethernet.o

.bss%z216       0x00000000        0x0
 .bss           0x00000000        0x0 output\grbl_probe.o

.data%z217      0x00000000        0x0
 .data          0x00000000        0x0 output\grbl_probe.o

.bss%z218       0x00000000        0x0
 .bss           0x00000000        0x0 output\grbl_bootloader.o

.data%z219      0x00000000        0x0
 .data          0x00000000        0x0 output\grbl_bootloader.o

.bss%z220       0x00000000        0x0
 .bss           0x00000000        0x0 output\grbl_running.o

.data%z221      0x00000000        0x0
 .data          0x00000000        0x0 output\grbl_running.o

.bss%z222       0x00000000        0x0
 .bss           0x00000000        0x0 output\grbl_protocol.o

.data%z223      0x00000000        0x0
 .data          0x00000000        0x0 output\grbl_protocol.o

.bss%z224       0x00000000        0x0
 .bss           0x00000000        0x0 output\stackmeasure_helper.o

.data%z225      0x00000000        0x0
 .data          0x00000000        0x0 output\stackmeasure_helper.o

.bss%z226       0x00000000        0x0
 .bss           0x00000000        0x0 output\stackmeasure.o

.data%z227      0x00000000        0x0
 .data          0x00000000        0x0 output\stackmeasure.o

.bss%z228       0x00000000        0x0
 .bss           0x00000000        0x0 output\grbl_toolchange.o

.data%z229      0x00000000        0x0
 .data          0x00000000        0x0 output\grbl_toolchange.o

.bss%z230       0x00000000        0x0
 .bss           0x00000000        0x0 output\bootloader_interface.o

.data%z231      0x00000000        0x0
 .data          0x00000000        0x0 output\bootloader_interface.o

.bss%z232       0x00000000        0x0
 .bss           0x00000000        0x0 output\grbl_eeprom.o

.data%z233      0x00000000        0x0
 .data          0x00000000        0x0 output\grbl_eeprom.o

.bss%z234       0x00000000        0x0
 .bss           0x00000000        0x0 output\system_alarm.o

.data%z235      0x00000000        0x0
 .data          0x00000000        0x0 output\system_alarm.o

.bss%z236       0x00000000        0x0
 .bss           0x00000000        0x0 output\system_exec.o

.data%z237      0x00000000        0x0
 .data          0x00000000        0x0 output\system_exec.o

.bss%z238       0x00000000        0x0
 .bss           0x00000000        0x0 output\stepper_enable.o

.data%z239      0x00000000        0x0
 .data          0x00000000        0x0 output\stepper_enable.o

.bss%z240       0x00000000        0x0
 .bss           0x00000000        0x0 output\system_control.o

.data%z241      0x00000000        0x0
 .data          0x00000000        0x0 output\system_control.o

.bss%z242       0x00000000        0x0
 .bss           0x00000000        0x0 output\eep_manager_crc.o

.data%z243      0x00000000        0x0
 .data          0x00000000        0x0 output\eep_manager_crc.o

.bss%z244       0x00000000        0x0
 .bss           0x00000000        0x0 output\dee_page_helper.o

.data%z245      0x00000000        0x0
 .data          0x00000000        0x0 output\dee_page_helper.o

.bss%z246       0x00000000        0x0
 .bss           0x00000000        0x0 output\dee_page.o

.data%z247      0x00000000        0x0
 .data          0x00000000        0x0 output\dee_page.o

.data%z248      0x00000000        0x0
 .data          0x00000000        0x0 output\dee.o

.bss%z249       0x00000000        0x0
 .bss           0x00000000        0x0 output\usb_function_cdc.o

.data%z250      0x00000000        0x0
 .data          0x00000000        0x0 output\usb_function_cdc.o

.bss%z251       0x00000000        0x0
 .bss           0x00000000        0x0 output\jog.o

.data%z252      0x00000000        0x0
 .data          0x00000000        0x0 output\jog.o

.bss%z253       0x00000000        0x0
 .bss           0x00000000        0x0 output\pwm.o

.data%z254      0x00000000        0x0
 .data          0x00000000        0x0 output\pwm.o

.bss%z255       0x00000000        0x0
 .bss           0x00000000        0x0 output\grbl.o

.data%z256      0x00000000        0x0
 .data          0x00000000        0x0 output\grbl.o

.bss%z257       0x00000000        0x0
 .bss           0x00000000        0x0 output\system.o

.data%z258      0x00000000        0x0
 .data          0x00000000        0x0 output\system.o

.bss%z259       0x00000000        0x0
 .bss           0x00000000        0x0 output\stepper.o

.data%z260      0x00000000        0x0
 .data          0x00000000        0x0 output\stepper.o

.bss%z261       0x00000000        0x0
 .bss           0x00000000        0x0 output\spindle_control.o

.data%z262      0x00000000        0x0
 .data          0x00000000        0x0 output\spindle_control.o

.bss%z263       0x00000000        0x0
 .bss           0x00000000        0x0 output\settings.o

.data%z264      0x00000000        0x0
 .data          0x00000000        0x0 output\settings.o

.bss%z265       0x00000000        0x0
 .bss           0x00000000        0x0 output\report.o

.data%z266      0x00000000        0x0
 .data          0x00000000        0x0 output\report.o

.bss%z267       0x00000000        0x0
 .bss           0x00000000        0x0 output\print.o

.data%z268      0x00000000        0x0
 .data          0x00000000        0x0 output\print.o

.bss%z269       0x00000000        0x0
 .bss           0x00000000        0x0 output\planner.o

.data%z270      0x00000000        0x0
 .data          0x00000000        0x0 output\planner.o

.bss%z271       0x00000000        0x0
 .bss           0x00000000        0x0 output\nuts_bolts.o

.data%z272      0x00000000        0x0
 .data          0x00000000        0x0 output\nuts_bolts.o

.bss%z273       0x00000000        0x0
 .bss           0x00000000        0x0 output\motion_control.o

.data%z274      0x00000000        0x0
 .data          0x00000000        0x0 output\motion_control.o

.bss%z275       0x00000000        0x0
 .bss           0x00000000        0x0 output\coolant_control.o

.data%z276      0x00000000        0x0
 .data          0x00000000        0x0 output\coolant_control.o

.bss%z277       0x00000000        0x0
 .bss           0x00000000        0x0 output\grbl_limits.o

.data%z278      0x00000000        0x0
 .data          0x00000000        0x0 output\grbl_limits.o

.bss%z279       0x00000000        0x0
 .bss           0x00000000        0x0 output\gcode.o

.data%z280      0x00000000        0x0
 .data          0x00000000        0x0 output\gcode.o

.bss%z281       0x00000000        0x0
 .bss           0x00000000        0x0 output\ad.o

.data%z282      0x00000000        0x0
 .data          0x00000000        0x0 output\ad.o

.bss%z283       0x00000000        0x0
 .bss           0x00000000        0x0 output\app.o

.data%z284      0x00000000        0x0
 .data          0x00000000        0x0 output\app.o

.bss%z285       0x00000000        0x0
 .bss           0x00000000        0x0 output\c_eep_manager.o

.bss%z286       0x00000000        0x0
 .bss           0x00000000        0x0 output\main.o

.bss%z287       0x00000000        0x0
 .bss           0x00000000        0x0 output\isr.o

.data%z288      0x00000000        0x0
 .data          0x00000000        0x0 output\isr.o

.bss%z289       0x00000000        0x0
 .bss           0x00000000        0x0 output\exceptions.o

.data%z290      0x00000000        0x0
 .data          0x00000000        0x0 output\exceptions.o

.bss%z291       0x00000000        0x0
 .bss           0x00000000        0x0 output\usb_device.o

.data%z292      0x00000000        0x0
 .data          0x00000000        0x0 output\usb_device.o

.bss%z293       0x00000000        0x0
 .bss           0x00000000        0x0 output\usb_descriptors.o

.data%z294      0x00000000        0x0
 .data          0x00000000        0x0 output\usb_descriptors.o

.bss%z295       0x00000000        0x0
 .bss           0x00000000        0x0 output\usb.o

.data%z296      0x00000000        0x0
 .data          0x00000000        0x0 output\usb.o

.bss%z297       0x00000000        0x0
 .bss           0x00000000        0x0 output\eep_manager.o

.data%z298      0x00000000        0x0
 .data          0x00000000        0x0 output\eep_manager.o

.bss%z299       0x00000000        0x0
 .bss           0x00000000        0x0 output\eeprom.o

.data%z300      0x00000000        0x0
 .data          0x00000000        0x0 output\eeprom.o

.bss%z301       0x00000000        0x0
 .bss           0x00000000        0x0 output\sleep.o

.data%z302      0x00000000        0x0
 .data          0x00000000        0x0 output\sleep.o

.bss%z303       0x00000000        0x0
 .bss           0x00000000        0x0 output\task.o

.data%z304      0x00000000        0x0
 .data          0x00000000        0x0 output\task.o

.bss%z305       0x00000000        0x0
 .bss           0x00000000        0x0 output\ringBuffer.o

.data%z306      0x00000000        0x0
 .data          0x00000000        0x0 output\ringBuffer.o

.bss%z307       0x00000000        0x0
 .bss           0x00000000        0x0 output\mal.o

.data%z308      0x00000000        0x0
 .data          0x00000000        0x0 output\mal.o

.data%z309      0x00000000        0x0
 .data          0x00000000        0x0 output\tmr.o

.bss%z310       0x00000000        0x0
 .bss           0x00000000        0x0 c:/program files (x86)/microchip/xc32/v2.30/bin/bin/../../lib/gcc/pic32mx/4.8.3/../../../../pic32mx/lib\debug-exception-return.o

.data%z311      0x00000000        0x0
 .data          0x00000000        0x0 c:/program files (x86)/microchip/xc32/v2.30/bin/bin/../../lib/gcc/pic32mx/4.8.3/../../../../pic32mx/lib\debug-exception-return.o

_07627d2060323633
                0x9d030000     0x9000
 _07627d2060323633
                0x9d030000     0x9000 output\dee_page.o
                0x9d030000                dee_page

_0755b72060323632
                0x9d008140        0xc
 _0755b72060323632
                0x9d008140        0xc output\main.o
                0x9d008140                VERSION_ID_FIX

_0755b66060323632
                0x9d008120        0xc
 _0755b66060323632
                0x9d008120        0xc output\main.o
                0x9d008120                VERSION_TIME

_0755b5a060323632
                0x9d008100        0xc
 _0755b5a060323632
                0x9d008100        0xc output\main.o
                0x9d008100                VERSION_DATE

.text           0x9d039000     0x5364
 .text          0x9d039000     0x3524 output\TCP.o
                0x9d039a60                init_tcp
                0x9d039a68                do_tcp
                0x9d039b00                isr_tcp_1ms
                0x9d039b10                TCPInit
                0x9d039c74                TCPOpen
                0x9d039e80                TCPWasReset
                0x9d039ecc                TCPIsConnected
                0x9d039f04                TCPDisconnect
                0x9d03a09c                TCPClose
                0x9d03a0d4                TCPGetRemoteInfo
                0x9d03a134                TCPFlush
                0x9d03a19c                TCPIsPutReady
                0x9d03a21c                TCPPut
                0x9d03a398                TCPPutArray
                0x9d03a57c                TCPPutString
                0x9d03a5c4                TCPGetTxFIFOFull
                0x9d03a620                TCPIsGetReady
                0x9d03a680                TCPDiscard
                0x9d03a6d4                TCPGet
                0x9d03a7d0                TCPGetArray
                0x9d03a948                TCPGetRxFIFOFree
                0x9d03a9a0                TCPPeekArray
                0x9d03aad4                TCPPeek
                0x9d03aafc                TCPFindArrayEx
                0x9d03ae30                TCPFindEx
                0x9d03ae68                TCPTick
                0x9d03b4f0                TCPProcess
                0x9d03c2f8                TCPAdjustFIFOSize
 .text          0x9d03c524     0x1e40 output\ENC28J60.o
                0x9d03c904                init_enc28j60
                0x9d03c90c                isr_enc28j60_1ms
                0x9d03c940                ENC28J60_CalculateBRG
                0x9d03c98c                MACIsTxReady
                0x9d03c9b8                MACDiscardRx
                0x9d03ca24                MACGetFreeRxSize
                0x9d03cb04                MACSetReadPtrInRx
                0x9d03cb50                MACSetWritePtr
                0x9d03cbb0                MACSetReadPtr
                0x9d03cc10                MACIsMemCopyDone
                0x9d03cc3c                MACGet
                0x9d03ccc4                MACGetArray
                0x9d03ce58                MACGetHeader
                0x9d03cfe0                MACFlush
                0x9d03d1f0                CalcIPBufferChecksum
                0x9d03d2d4                MACCalcRxChecksum
                0x9d03d378                MACPut
                0x9d03d418                MACMemCopyAsync
                0x9d03d6e0                MACPutArray
                0x9d03d8c0                MACPutHeader
                0x9d03d944                ReadPHYReg
                0x9d03d9ec                MACIsLinked
                0x9d03da14                WritePHYReg
                0x9d03da84                do_enc28j60
                0x9d03df5c                MACInit
                0x9d03e240                MACPowerDown
                0x9d03e29c                MACPowerUp
                0x9d03e2e0                SetCLKOUT
                0x9d03e310                GetCLKOUT
                0x9d03e348                get_enc28j60_spi_corruption1_cnt
                0x9d03e350                get_enc28j60_spi_corruption2_cnt
                0x9d03e358                MACIsAvailable

.text           0x9d03e364     0x1a44
 .text          0x9d03e364     0x1a44 output\report.o
                0x9d03e3e0                report_util_setting_prefix
                0x9d03e47c                init_grbl_report
                0x9d03e484                isr_grbl_report_1ms
                0x9d03e4b0                grbl_report_dump_eeprom
                0x9d03e4bc                report_status_message
                0x9d03e50c                report_alarm_message
                0x9d03e540                report_feedback_message
                0x9d03e68c                report_init_message
                0x9d03e698                report_grbl_help
                0x9d03e6a4                report_grbl_debug_0
                0x9d03e6b0                report_grbl_debug_1
                0x9d03e6bc                report_grbl_settings
                0x9d03e908                report_probe_parameters
                0x9d03e95c                report_ngc_parameters
                0x9d03ea8c                report_gcode_modes
                0x9d03ec64                report_build_info
                0x9d03ece8                report_echo_line_received
                0x9d03ed1c                report_stack_usage
                0x9d03ed78                report_mac_address
                0x9d03edf0                do_grbl_report
                0x9d03f8fc                report_realtime_status

.text           0x9d00814c     0x327c
 .text          0x9d00814c     0x19c0 output\gcode.o
                0x9d00814c                gc_init
                0x9d008214                gc_soft_init
                0x9d00824c                gc_sync_position
                0x9d008260                gc_main
                0x9d008268                gc_check_for_sync_needed
                0x9d008364                gc_execute_line
                0x9d009ae0                gcode_probe_update_pos
 .text          0x9d009b0c     0x18bc output\usb_device.o
                0x9d009c08                USBDeviceInit
                0x9d009dd4                USBEnableEndpoint
                0x9d009ea0                USBTransferOnePacket
                0x9d009f78                USBStallEndpoint
                0x9d00a020                USBCancelIO
                0x9d00a0f8                USBDeviceDetach
                0x9d00a110                USBDeviceAttach
                0x9d00a190                USBCtrlEPAllowStatusStage
                0x9d00a280                USBCtrlEPAllowDataStage
                0x9d00a334                USBDeviceTasks

.text           0x9d00b3c8     0x2544
 .text          0x9d00b3c8     0x1410 output\stepper.o
                0x9d00b3c8                init_stepper
                0x9d00b41c                do_stepper
                0x9d00b424                st_wake_up
                0x9d00b464                st_go_idle
                0x9d00b4dc                TIMER1_COMPA_vect
                0x9d00b914                TIMER0_OVF_vect
                0x9d00b99c                st_generate_step_dir_invert_masks
                0x9d00ba4c                st_reset
                0x9d00bbd4                st_update_plan_block_parameters
                0x9d00bc20                st_prep_buffer
                0x9d00c7ac                st_get_realtime_rate
                0x9d00c7d0                st_isRunning
 .text          0x9d00c7d8     0x1134 output\system.o
                0x9d00c7d8                isr_system_1ms
                0x9d00c7e0                system_check_safety_door_ajar
                0x9d00c7e8                system_flag_wco_change
                0x9d00c7f4                system_convert_axis_steps_to_mpos
                0x9d00c838                system_convert_array_steps_to_mpos
                0x9d00c89c                system_check_travel_limits
                0x9d00c930                system_set_exec_motion_override_flag
                0x9d00c980                system_set_exec_accessory_override_flag
                0x9d00c9d0                system_clear_exec_motion_overrides
                0x9d00ca14                system_clear_exec_accessory_overrides
                0x9d00ca58                system_set_requestSuspendTime
                0x9d00ca64                system_get_requestSuspendTime
                0x9d00ca84                system_log_add_event
                0x9d00cac0                system_log_unlock
                0x9d00cacc                system_log_sm_abort_input
                0x9d00cad8                system_log_internal_stepper_enable
                0x9d00cae4                system_log_internal_stepper_disable
                0x9d00caf0                system_log_home
                0x9d00cafc                system_log_limit_x
                0x9d00cb08                system_log_limit_y
                0x9d00cb14                system_log_limit_z
                0x9d00cb20                system_log_home_finished
                0x9d00cb2c                system_log_spindle_on
                0x9d00cb38                system_log_spindle_off
                0x9d00cb44                system_log_probe_start
                0x9d00cb50                system_log_probe_touch
                0x9d00cb5c                system_log_st_reset
                0x9d00cb68                system_log_sm_plan_reset
                0x9d00cb74                system_log_st_go_idle
                0x9d00cb80                system_log_st_wake_up
                0x9d00cb8c                system_log_sm_g28
                0x9d00cb98                system_log_st_update_plan_block_parameters
                0x9d00cba4                system_log_EXEC_MOTION_CANCEL
                0x9d00cbb0                system_log_sm_init_log
                0x9d00cbbc                system_log_sm_idle_log
                0x9d00cbc8                system_log_sm_suspend_log
                0x9d00cbd4                system_log_sm_suspend_delay_log
                0x9d00cbe0                system_log_sm_sys_state
                0x9d00cbec                system_set_sys_state
                0x9d00cc10                system_init
                0x9d00ccd0                system_log_sm_sys_suspend
                0x9d00ccdc                system_set_sys_suspend
                0x9d00cd00                do_system

.text           0x9d00d90c     0x1c00
 .text          0x9d00d90c      0xe2c output\isr.o
                0x9d00d90c                Timer1Handler
                0x9d00da48                Timer2Handler
                0x9d00db84                Timer3Handler
                0x9d00dcc0                Timer4Handler
                0x9d00ddfc                Timer5Handler
                0x9d00de70                __SPI2Interrupt
                0x9d00ded0                __EINT3Interrupt
                0x9d00df30                DmaHandler0
                0x9d00df90                DmaHandler1
                0x9d00dff0                DmaHandler2
                0x9d00e050                DmaHandler3
                0x9d00e0b0                ChangeNotification
                0x9d00e204                IntUart1Handler
                0x9d00e2e0                IntUart2Handler
                0x9d00e394                IntUSBHandler
                0x9d00e4b0                CoreTimerHandler
                0x9d00e524                IntI2C1Handler
                0x9d00e5e8                IntI2C2Handler
                0x9d00e6b0                init_isr
                0x9d00e72c                deinit_isr
 .text          0x9d00e738      0xdd4 output\dee.o
                0x9d00e738                deinit_dee
                0x9d00e740                do_dee
                0x9d00e768                isr_dee_1ms
                0x9d00e778                GetIndexOfEmptyDataElement
                0x9d00e85c                ErasePage
                0x9d00e934                MassErasePage
                0x9d00e9c4                DataEERead
                0x9d00eca4                dee_read_eeprom
                0x9d00ed24                Dee_CloseCurrentPage
                0x9d00edc8                DataEEWrite
                0x9d00f074                dee_write_eeprom
                0x9d00f0cc                PackEE
                0x9d00f2c4                init_dee

.text           0x9d00f50c      0xda0
 .text          0x9d00f50c      0xda0 output\BerkeleyAPI.o
                0x9d00f5c8                init_berkeleyapi
                0x9d00f5d0                do_berkeleyapi
                0x9d00f5f8                isr_berkeleyapi_1ms
                0x9d00f608                BerkeleySocketInit
                0x9d00f634                socket
                0x9d00f6cc                bind
                0x9d00f7b0                listen
                0x9d00f908                accept
                0x9d00fa8c                connect
                0x9d00fc30                sendto
                0x9d00fe38                send
                0x9d00fe58                recv
                0x9d00ff30                recvfrom
                0x9d0100d0                gethostname
                0x9d010154                closesocket

.text           0x9d007490      0xb64
 .text          0x9d007490      0xb64 output\grbl_protocol.o
                0x9d007490                init_protocol_main_loop
                0x9d0074c8                isr_protocol_main_loop_1ms
                0x9d0074d0                protocol_set_requestSynchMotion
                0x9d0074dc                protocol_get_requestSynchMotion
                0x9d0074e4                protocol_clear_requestSynchMotion
                0x9d0074ec                protocol_set_requestDwell
                0x9d0074f4                protocol_update_requestDwell
                0x9d007530                protocol_get_requestDwell
                0x9d007568                getChar_grbl_protocol
                0x9d00759c                putChar_grbl_protocol
                0x9d0075d8                do_protocol_main_loop

.text           0x9d0102ac     0x1518
 .text          0x9d0102ac      0xadc output\eep_manager.o
                0x9d0102ac                deinit_eep_manager
                0x9d0102b4                isr_eep_manager_1ms
                0x9d0102c4                eep_manager_WriteAll_Trigger
                0x9d0102ec                eep_manager_WriteItem_Trigger
                0x9d010314                eep_manager_IsBusy
                0x9d010348                eepManagerFindAddr
                0x9d010394                eepManagerReadVarBackup
                0x9d0104fc                eepManagerReadVar
                0x9d010690                eepManagerValid
                0x9d010708                eepManagerUpdate
                0x9d010760                eepManagerWriteVar_Asynch
                0x9d0109d0                do_eep_manager
                0x9d010abc                eepManagerEmpty
                0x9d010ba8                eep_manager_WriteAllDefault
                0x9d010bb0                eepManagerConfigPersistentValue
                0x9d010c2c                eep_manager_ReadAll
                0x9d010d34                init_eep_manager
 .text          0x9d010d88      0xa3c output\planner.o
                0x9d010fe8                plan_next_block_index
                0x9d011000                plan_reset_buffer
                0x9d01103c                plan_reset
                0x9d011064                plan_discard_current_block
                0x9d011098                plan_get_system_motion_block
                0x9d0110b4                plan_get_current_block
                0x9d0110e0                plan_get_exec_block_exit_speed_sqr
                0x9d011120                plan_check_full_buffer
                0x9d011134                plan_compute_profile_nominal_speed
                0x9d011208                plan_update_velocity_profile_parameters
                0x9d0112f0                plan_buffer_line
                0x9d011728                plan_sync_position
                0x9d011754                plan_get_block_buffer_available
                0x9d011778                plan_get_block_buffer_count
                0x9d011798                plan_cycle_reinitialize

.text           0x9d0117c4      0x974
 .text          0x9d0117c4      0x974 output\UDP.o
                0x9d0117c4                init_udp
                0x9d0117cc                do_udp
                0x9d011810                isr_udp_1ms
                0x9d011820                UDPOpenEx
                0x9d011930                UDPTask
                0x9d011a14                UDPIsOpened
                0x9d011a38                UDPClose
                0x9d011a6c                UDPInit
                0x9d011aac                UDPSetTxBuffer
                0x9d011ad8                UDPSetRxBuffer
                0x9d011b08                UDPIsPutReady
                0x9d011b74                UDPPut
                0x9d011bdc                UDPPutArray
                0x9d011c70                UDPPutString
                0x9d011cb8                UDPFlush
                0x9d011e00                UDPIsGetReady
                0x9d011e54                UDPGet
                0x9d011eb4                UDPGetArray
                0x9d011f40                UDPDiscard
                0x9d011f88                UDPProcess

.rodata         0x9d012138      0x944
 .rodata        0x9d012138      0x944 output\report.o

.text           0x9d012a7c     0x119c
 .text          0x9d012a7c      0x8d0 output\grbl_limits.o
                0x9d012a7c                isr_limits_1ms
                0x9d012a8c                LIMIT_INT_vect
                0x9d012aa4                limits_disable
                0x9d012ab0                limits_enable
                0x9d012ad4                limits_get_state_non_filtered
                0x9d012b94                limits_init
                0x9d012c10                limits_get_state_filtered
                0x9d012c18                limits_set_state_filtered
                0x9d012c20                isLimits_go_homeRunning
                0x9d012c30                do_limits
                0x9d013280                limits_go_home
                0x9d013290                limits_EXEC_CYCLE_STOP_event
                0x9d0132b8                limits_EXEC_SAFETY_DOOR_event
                0x9d0132ec                limits_soft_check
 .text          0x9d01334c      0x8cc output\motion_control.o
                0x9d01334c                isArcGeneratingRunning
                0x9d01335c                isMc_homing_cycleRunning
                0x9d013368                mc_line
                0x9d0133bc                do_motion_control
                0x9d0136e0                mc_arc
                0x9d013af4                mc_dwell
                0x9d013b60                mc_homing_cycle
                0x9d013b70                mc_stop

.text           0x9d013c18      0x71c
 .text          0x9d013c18      0x71c output\settings.o
                0x9d013c18                settings_write_coord_data
                0x9d013c68                write_global_settings
                0x9d013c9c                settings_restore
                0x9d013e04                settings_read_coord_data
                0x9d013e50                read_global_settings
                0x9d013e90                settings_store_global_setting
                0x9d0142b8                settings_init
                0x9d0142f4                get_step_pin_mask
                0x9d014314                get_direction_pin_mask

.dinit          0x9d014334      0x6f0
 .dinit         0x9d014334      0x6f0 data_init

.text           0x9d014a24      0xc60
 .text          0x9d014a24      0x64c output\Helpers.o
                0x9d014a24                LFSRRand
                0x9d014a60                LFSRSeedRand
                0x9d014a9c                GenerateRandomDWORD
                0x9d014ab8                StringToIPAddress
                0x9d014bfc                uitoa
                0x9d014c88                ultoa_mla
                0x9d014d0c                hexatob
                0x9d014d70                btohexa_high
                0x9d014d88                btohexa_low
                0x9d014da0                stricmppgm2ram
                0x9d014e18                swaps
                0x9d014e30                swapl
                0x9d014e70                CalcIPChecksum
                0x9d014ed8                strupr
                0x9d014f14                FormatNetBIOSName
                0x9d014f80                strnchr
                0x9d014fb8                strncpy_m
 .text          0x9d015070      0x614 output\pwm.o
                0x9d015070                init_pwm
                0x9d0151fc                do_pwm
                0x9d015204                setPwmFreq
                0x9d015434                getPwmDuty
                0x9d01544c                setPWMRaw
                0x9d0155dc                setPwmDuty

.text           0x9d015684      0xb8c
 .text          0x9d015684      0x608 output\usb_function_cdc.o
                0x9d015684                USBCheckCDCRequest
                0x9d015808                CDCInitEP
                0x9d015874                USBCDCEventHandler
                0x9d0158e4                getsUSBUSART
                0x9d01599c                putUSBUSART
                0x9d0159e0                putsUSBUSART
                0x9d015a68                putrsUSBUSART
                0x9d015af0                CDCTxService
 .text          0x9d015c8c      0x584 output\nuts_bolts.o
                0x9d015c8c                do_nuts_bolts
                0x9d015cfc                isr_nuts_bolts_1ms
                0x9d015d0c                read_float
                0x9d015eec                hypot_f
                0x9d015f3c                convert_delta_vector_to_unit_vector
                0x9d016020                limit_value_by_axis_maximum
                0x9d0160d0                trunc_my
                0x9d016114                round_my
                0x9d016144                lround_my
                0x9d01616c                setDelayRunning
                0x9d016174                isDelayRunning
                0x9d016180                isequal_position_vector

.text           0x9d016210      0xa28
 .text          0x9d016210      0x568 output\print.o
                0x9d016210                printString
                0x9d01624c                printPgmString
                0x9d016288                print_uint8_base10
                0x9d016334                print_uint8_base2_ndigit
                0x9d0163c8                print_uint32_base10
                0x9d016450                print_uint32_base16
                0x9d0164b0                print_uint16_base16
                0x9d016510                print_uint8_base16
                0x9d016560                printInteger
                0x9d016590                printFloat
                0x9d0166f8                printFloat_CoordValue
                0x9d016738                printFloat_RateValue
 .text          0x9d016778      0x4c0 output\task.o
                0x9d016778                isr_task_1ms
                0x9d016788                clearTaskItem
                0x9d0167c4                init_task
                0x9d0167f0                deinit_task
                0x9d01681c                findFreeTaskList
                0x9d016850                addTask
                0x9d0168ac                addTriggerTask
                0x9d0168bc                addSingleShootTimedTask
                0x9d0168f8                removeTask
                0x9d016938                suspendTask
                0x9d016954                resumeTask
                0x9d016974                scheduleTask
                0x9d016994                changeActivationCycleTask
                0x9d0169b0                triggerTask
                0x9d016a14                addSingleShootTask
                0x9d016a48                taskHelperActivator
                0x9d016b1c                do_task
                0x9d016c1c                setTaskName

.text.dp32mul   0x9d016c38      0x4b8
 .text.dp32mul  0x9d016c38      0x4b8 c:/program files (x86)/microchip/xc32/v2.30/bin/bin/../../lib/gcc/pic32mx/4.8.3/../../../../pic32mx/lib\libm.a(dp32div.o)
                0x9d016c38                __divdf3
                0x9d016c38                dpdiv

.text           0x9d0170f0      0x934
 .text          0x9d0170f0      0x4a0 output\tmr.o
                0x9d0170f0                init_tmr
                0x9d017164                deinit_tmr
                0x9d0171a0                do_tmr
                0x9d0171a8                delayms
                0x9d0171e0                addTimer
                0x9d017258                removeTimer
                0x9d0172d0                readTimer
                0x9d017324                writeTimer
                0x9d017374                initTimer
                0x9d0173a0                setTimer
                0x9d0173b8                getTimer
                0x9d0173d0                isr_tmr4
                0x9d0173d8                isr_tmr3
                0x9d0173e0                isr_tmr2
                0x9d0173f0                isr_tmr1
                0x9d017508                getGlobalTime
                0x9d01754c                getGlobalTimeUs
 .text          0x9d017590      0x494 output\grbl_eeprom.o
                0x9d017590                isr_grbl_eeprom_1ms
                0x9d0175a0                grbl_eeprom_trigger
                0x9d0175ac                grbl_eeprom_trigger_settings
                0x9d0175b8                grbl_NotifyUserFailedRead
                0x9d0175e4                grbl_reset_eep_messages
                0x9d0175f4                grbl_eeprom_checkIs
                0x9d0176a4                do_grbl_eeprom
                0x9d0178c0                grbl_eeprom_storePositionToNoInit
                0x9d017924                grbl_eeprom_restorePositionFromNoInit
                0x9d0179d4                init_grbl_eeprom

.text           0x9d017a24      0x470
 .text          0x9d017a24      0x470 output\dee_page.o
                0x9d017a24                GetEraseCounter
                0x9d017a40                dee_page_update_debug_status
                0x9d017a74                init_dee_page
                0x9d017a98                do_dee_page
                0x9d017aa0                dee_page_mass_erase_page
                0x9d017b00                dee_page_erase_page
                0x9d017b98                dee_page_read
                0x9d017bb8                dee_page_read_status
                0x9d017bd8                dee_page_read_address
                0x9d017bfc                dee_page_read_data
                0x9d017c1c                dee_page_read_crc
                0x9d017c40                dee_page_write_status
                0x9d017c58                dee_page_write_address
                0x9d017c84                dee_page_write_data
                0x9d017cac                dee_page_write_crc
                0x9d017cd4                dee_page_read_element
                0x9d017d6c                dee_page_write_element

.text.dreml     0x9d017e94      0x470
 .text.dreml    0x9d017e94      0x470 c:/program files (x86)/microchip/xc32/v2.30/bin/bin/../../lib/gcc/pic32mx/4.8.3/../../../../pic32mx/lib\libm.a(support.o)
                0x9d017e94                dreml

.text           0x9d018304      0x444
 .text          0x9d018304      0x444 output\ethernet_grbl_multi.o
                0x9d018304                init_serial_grbl_ethernet_multi
                0x9d018344                isr_serial_grbl_ethernet_multi_1ms
                0x9d018374                ethernet_grbl_multi_loadbufferRx
                0x9d018434                isCharInBuffer_grbl_ethernet_multi
                0x9d01845c                isCharOutBuffer_grbl_ethernet_multi
                0x9d018484                ethernet_grbl_multi_loadbufferTx
                0x9d018598                do_serial_grbl_ethernet_multi
                0x9d0186d8                getChar_grbl_ethernet_multi
                0x9d01870c                putChar_grbl_ethernet_multi

.text.dp32subadd
                0x9d018748      0x430
 .text.dp32subadd
                0x9d018748      0x430 c:/program files (x86)/microchip/xc32/v2.30/bin/bin/../../lib/gcc/pic32mx/4.8.3/../../../../pic32mx/lib\libm.a(dp32subadd.o)
                0x9d018748                __subdf3
                0x9d018748                dpsub
                0x9d018750                dpadd
                0x9d018750                __adddf3

.text           0x9d018b78      0x724
 .text          0x9d018b78      0x3a4 output\ARP.o
                0x9d018b78                ARPInit
                0x9d018ba8                ARPIsResolved
                0x9d018c20                SwapARPPacket
                0x9d018d24                ARPSendPkt
                0x9d018d6c                ARPResolve
                0x9d018de4                ARPProcess
 .text          0x9d018f1c      0x380 output\grbl.o
                0x9d018f1c                init_grbl
                0x9d019098                do_grbl
                0x9d01912c                isr_grbl_1ms
                0x9d0191a0                isr_grbl_tmr_stepper_delay
                0x9d0191cc                set_grbl_tmr0_trigger
                0x9d0191f0                set_grbl_tmr0_trigger_Step_Pulse_Delay
                0x9d019214                isr_grbl_tmr_stepper
                0x9d01921c                set_grbl_tmr1_period
                0x9d01924c                set_grbl_tmr1_enabled
                0x9d019268                set_grbl_tmr1_disabled
                0x9d019280                isr_grbl_cn

.text           0x9d01929c      0x358
 .text          0x9d01929c      0x358 output\dee_page_helper.o
                0x9d01929c                GetUnexpiredPage
                0x9d01930c                GetActiveCurrentPage
                0x9d019394                GetActiveCurrentPageCount
                0x9d0193fc                GetNextPage
                0x9d019424                GetPreviousPage
                0x9d019448                GetPageStatus
                0x9d0194c0                SetPageStatus

.text.libm      0x9d0195f4      0x350
 .text.libm     0x9d0195f4      0x350 c:/program files (x86)/microchip/xc32/v2.30/bin/bin/../../lib/gcc/pic32mx/4.8.3/../../../../pic32mx/lib\libm.a(fpexatan.o)
                0x9d0195f4                fpexatan

.text.dp32mul   0x9d019944      0x32c
 .text.dp32mul  0x9d019944      0x32c c:/program files (x86)/microchip/xc32/v2.30/bin/bin/../../lib/gcc/pic32mx/4.8.3/../../../../pic32mx/lib\libm.a(dp32mul.o)
                0x9d019944                __muldf3
                0x9d019944                dpmul

.text           0x9d019c70      0x5e4
 .text          0x9d019c70      0x310 output\sleep.o
                0x9d019c70                init_sleep
                0x9d019c98                deinit_sleep
                0x9d019ca0                isr_sleep_1ms
                0x9d019cb0                sleepSetRequestRunApp
                0x9d019ce0                sleepClearRequestRunApp
                0x9d019d04                sleepGetRequestRunApp
                0x9d019d10                sleepSetRequestRunDriver
                0x9d019d38                sleepClearRequestRunDriver
                0x9d019d5c                sleepGetRequestRunDriver
                0x9d019d68                sleepGetMainLoopRun
                0x9d019d70                idle_Request
                0x9d019d78                sleep_Request
                0x9d019d98                executeSleep
                0x9d019e94                do_sleep
                0x9d019f78                sleepExecuteSleep
 .text          0x9d019f80      0x2d4 output\stepper_enable.o
                0x9d019f80                isr_stepper_enable_1ms
                0x9d019f90                get_stepper_enable_emergency_stop_active
                0x9d019f98                stepper_enable_emergency_stop
                0x9d019fb4                stepper_enable_enable
                0x9d01a00c                stepper_enable_emergency_stop_cleared
                0x9d01a064                stepper_enable_disable
                0x9d01a0a8                init_stepper_enable
                0x9d01a0d4                do_stepper_enable
                0x9d01a24c                exceptions_user_callout_grbl

.text           0x9d01a254      0x588
 .text          0x9d01a254      0x2d4 output\grbl_probe.o
                0x9d01a254                isr_probe_1ms
                0x9d01a264                probe_configure_invert_mask
                0x9d01a294                probe_init
                0x9d01a2c8                probe_get_state
                0x9d01a2e0                do_probe
                0x9d01a418                probe_state_monitor
                0x9d01a47c                isProbing_cycleRunning
                0x9d01a48c                mc_probe_cycle
 .text          0x9d01a528      0x2b4 output\spindle_control.o
                0x9d01a680                do_spindle
                0x9d01a688                spindle_get_state
                0x9d01a6d8                spindle_set_state
                0x9d01a77c                spindle_init

.text           0x9d01a7dc      0x500
 .text          0x9d01a7dc      0x288 output\Announce.o
                0x9d01a7dc                AnnounceIP
                0x9d01a8d4                DiscoveryTask
 .text          0x9d01aa64      0x278 output\system_control.o
                0x9d01aa64                init_system_control
                0x9d01aa84                isr_system_control_1ms
                0x9d01aa94                CONTROL_INT_vect
                0x9d01aaa4                system_control_get_state_ABORT
                0x9d01aae0                do_system_control
                0x9d01ac94                system_control_get_state_FEED_HOLD
                0x9d01acac                system_control_get_state_CYCLE_START
                0x9d01acc4                system_control_get_state_SAFETY_DOOR

.text           0x9d01acdc      0x278
 .text          0x9d01acdc      0x278 output\noinitram.o
                0x9d01ad4c                noinitram_IsValid
                0x9d01adf0                noinitram_getByte
                0x9d01ae5c                noinitram_getByteArray
                0x9d01aee4                noinitram_setByte
                0x9d01af0c                noinitram_setByteArray

.text.fpsubadd  0x9d01af54      0x278
 .text.fpsubadd
                0x9d01af54      0x278 c:/program files (x86)/microchip/xc32/v2.30/bin/bin/../../lib/gcc/pic32mx/4.8.3/../../../../pic32mx/lib\libm.a(fp32subadd.o)
                0x9d01af54                fpsub
                0x9d01af54                __subsf3
                0x9d01af5c                __addsf3
                0x9d01af5c                fpadd

.text           0x9d03fda8      0x254
 .text          0x9d03fda8      0x254 output\ringBuffer.o
                0x9d03fda8                ringBuffer_initBuffer
                0x9d03fe08                ringBuffer_getFillness
                0x9d03fe38                ringBuffer_getEmptyness
                0x9d03fe74                ringBuffer_addItem
                0x9d03feb8                ringBuffer_getItem
                0x9d03ff1c                ringBuffer_readItem
                0x9d03ff84                ringBuffer_addBuffer
                0x9d03ffc0                ringBuffer_getBuffer

.text.libm      0x9d01b1cc      0x248
 .text.libm     0x9d01b1cc      0x248 c:/program files (x86)/microchip/xc32/v2.30/bin/bin/../../lib/gcc/pic32mx/4.8.3/../../../../pic32mx/lib\libm.a(fpatan2.o)
                0x9d01b1cc                __mchp_atan2f
                0x9d01b1cc                fpatan2

.text.fp32div   0x9d01b414      0x230
 .text.fp32div  0x9d01b414      0x230 c:/program files (x86)/microchip/xc32/v2.30/bin/bin/../../lib/gcc/pic32mx/4.8.3/../../../../pic32mx/lib\libm.a(fp32div.o)
                0x9d01b414                fpdiv
                0x9d01b414                __divsf3

.text           0x9d01b644      0x44c
 .text          0x9d01b644      0x22c output\usb_grbl_multi.o
                0x9d01b644                init_serial_grbl_usb_multi
                0x9d01b684                isr_serial_grbl_usb_multi_1ms
                0x9d01b68c                isCharInBuffer_grbl_usb_multi
                0x9d01b6b4                isCharOutBuffer_grbl_usb_multi
                0x9d01b6dc                do_serial_grbl_usb_multi
                0x9d01b800                getChar_grbl_usb_multi
                0x9d01b834                putChar_grbl_usb_multi
 .text          0x9d01b870      0x220 output\ethernet.o
                0x9d01b870                init_ethernet
                0x9d01b938                do_ethernet
                0x9d01b974                isr_ethernet_1ms
                0x9d01b9a0                hexStringToChar
                0x9d01ba20                ethernet_set_mac_address

.text           0x9d01ba90      0x3f4
 .text          0x9d01ba90      0x200 output\IP.o
                0x9d01bad4                IPGetHeader
                0x9d01bbb8                IPPutHeader
                0x9d01bc80                IPSetRxBuffer
 .text          0x9d01bc90      0x1f4 output\mal.o
                0x9d01bc98                mal_get_reset_reason
                0x9d01bcb0                mal_reset
                0x9d01bcc0                mal_reset_reason
                0x9d01be1c                init_mal

.text           0x9d01be84      0x3dc
 .text          0x9d01be84      0x1f0 output\StackTsk.o
                0x9d01be84                StackInit
                0x9d01bee0                StackTask
                0x9d01c028                StackApplications
 .text          0x9d01c074      0x1ec output\eeprom.o
                0x9d01c074                write_eeprom_char
                0x9d01c0d8                read_eeprom_char
                0x9d01c10c                write_eeprom_float
                0x9d01c160                read_eeprom_float
                0x9d01c1b8                write_eeprom_int
                0x9d01c20c                read_eeprom_int

.text.atan2f    0x9d01c260      0x1e0
 .text.atan2f   0x9d01c260      0x1e0 c:/program files (x86)/microchip/xc32/v2.30/bin/bin/../../lib/gcc/pic32mx/4.8.3/../../../../pic32mx/lib\libm.a(w_atan2f.o)
                0x9d01c260                atan2f

.text           0x9d01c440      0x390
 .text          0x9d01c440      0x1d4 output\main.o
                0x9d01c460                main
                0x9d01c58c                isr_main_1ms
                0x9d01c60c                isr_main_100us
 .text          0x9d01c614      0x1bc output\Reboot.o
                0x9d01c614                RebootTask

.text.fp32mul   0x9d01c7d0      0x1bc
 .text.fp32mul  0x9d01c7d0      0x1bc c:/program files (x86)/microchip/xc32/v2.30/bin/bin/../../lib/gcc/pic32mx/4.8.3/../../../../pic32mx/lib\libm.a(fp32mul.o)
                0x9d01c7d0                fpmul
                0x9d01c7d0                __mulsf3

.text.libm      0x9d01c98c      0x318
 .text.libm     0x9d01c98c      0x1ac c:/program files (x86)/microchip/xc32/v2.30/bin/bin/../../lib/gcc/pic32mx/4.8.3/../../../../pic32mx/lib\libm.a(fpsqrt32.o)
                0x9d01c98c                fpsqrt
                0x9d01c98c                __mchp_sqrtf
 .text.libm     0x9d01cb38      0x16c c:/program files (x86)/microchip/xc32/v2.30/bin/bin/../../lib/gcc/pic32mx/4.8.3/../../../../pic32mx/lib\libm.a(dpldexp.o)
                0x9d01cb38                ldexp
                0x9d01cb38                dpldexp
                0x9d01cb38                __mchp_ldexp

.text           0x9d01cca4      0x2d0
 .text          0x9d01cca4      0x168 output\eep_manager_crc.o
                0x9d01cca4                calculate_eep_manager_crc
                0x9d01cce8                calculate_eep_manager_xor
                0x9d01cd1c                calculate_eep_manager_sum
                0x9d01cd54                calculate_eep_manager_crc32
                0x9d01cdb0                calculate_eep_manager_crc32_special
 .text          0x9d01ce0c      0x168 c:/program files (x86)/microchip/xc32/v2.30/bin/bin/../../lib/gcc/pic32mx/4.8.3/../../../../pic32mx/lib\libpic32.a(memcpy.o)
                0x9d01ce0c                memcpy

.text           0x9d01cf74      0x2bc
 .text          0x9d01cf74      0x168 c:/program files (x86)/microchip/xc32/v2.30/bin/bin/../../lib/gcc/pic32mx/4.8.3/../../../../pic32mx/lib\libpic32.a(strlen.o)
                0x9d01cf74                strlen
 .text          0x9d01d0dc      0x154 output\grbl_toolchange.o
                0x9d01d0dc                init_grbl_toolchange
                0x9d01d0e4                do_grbl_toolchange
                0x9d01d1e8                isr_grbl_toolchange_1ms
                0x9d01d1f8                setToolChangeRunning
                0x9d01d220                updateToolChangeRunning
                0x9d01d228                isToolChangeRunning

.text           0x9d01d230      0x274
 .text          0x9d01d230      0x140 output\grbl_multi.o
                0x9d01d280                init_serial_grbl
                0x9d01d29c                do_serial_grbl
                0x9d01d2b8                isr_serial_grbl_1ms
                0x9d01d2d4                getChar_grbl
                0x9d01d31c                putChar_grbl
 .text          0x9d01d370      0x134 output\exceptions.o
                0x9d01d370                _general_exception_handler
                0x9d01d48c                do_exception_examples
                0x9d01d494                exceptions_clearException
                0x9d01d49c                exceptions_getException

.text           0x9d01d4a4      0x130
 .text          0x9d01d4a4      0x130 output\grbl_running.o
                0x9d01d4a4                init_grbl_running
                0x9d01d4ac                do_grbl_running
                0x9d01d5a8                isr_grbl_running_1ms

.rodata         0x9d01d5d4      0x12c
 .rodata        0x9d01d5d4      0x12c output\c_eep_manager.o
                0x9d01d5d4                default_grbl_Tool_Length_2
                0x9d01d5d8                default_grbl_Tool_Length_1
                0x9d01d5dc                default_SerializedMACAddress
                0x9d01d5e4                default_grbl_running_spindle_running_minutes
                0x9d01d5e8                default_grbl_running_startup_cnt
                0x9d01d5ec                default_grbl_running_running_hours
                0x9d01d5f0                default_grbl_running_running_minutes
                0x9d01d5f4                default_coord_offset_eep
                0x9d01d600                default_coord_system_eep
                0x9d01d60c                default_sys_position
                0x9d01d618                default_eep_coord_teached
                0x9d01d624                default_eep_coord_data
                0x9d01d69c                default_eep_settings
                0x9d01d6fc                default_eep_settings_version

.text.dpcmp     0x9d01d700      0x12c
 .text.dpcmp    0x9d01d700      0x12c c:/program files (x86)/microchip/xc32/v2.30/bin/bin/../../lib/gcc/pic32mx/4.8.3/../../../../pic32mx/lib\libm.a(dpcmp.o)
                0x9d01d700                __gtdf2
                0x9d01d700                __ltdf2
                0x9d01d700                dpcmp
                0x9d01d700                __ledf2
                0x9d01d700                __nedf2
                0x9d01d700                __gedf2
                0x9d01d700                __eqdf2

.text.logbl     0x9d01d82c      0x124
 .text.logbl    0x9d01d82c      0x124 c:/program files (x86)/microchip/xc32/v2.30/bin/bin/../../lib/gcc/pic32mx/4.8.3/../../../../pic32mx/lib\libm.a(support.o)
                0x9d01d82c                logbl

.text           0x9d01d950      0x240
 .text          0x9d01d950      0x120 output\usb.o
                0x9d01d950                init_usb
                0x9d01d978                do_usb
                0x9d01d980                isr_usb
                0x9d01d988                isr_usb_1ms
                0x9d01d990                USBCBSuspend
                0x9d01d998                USBCBWakeFromSuspend
                0x9d01d9a0                USBCB_SOF_Handler
                0x9d01d9a8                USBCBErrorHandler
                0x9d01d9b0                USBCBCheckOtherReq
                0x9d01d9b8                USBCBStdSetDscHandler
                0x9d01d9c0                USBCBInitEP
                0x9d01d9c8                USBCBSendResume
                0x9d01da2c                USER_USB_CALLBACK_EVENT_HANDLER
 .text          0x9d01da70      0x120 c:/program files (x86)/microchip/xc32/v2.30/bin/bin/../../lib/gcc/pic32mx/4.8.3/../../../../pic32mx/lib\libpic32.a(strcmp.o)
                0x9d01da70                strcmp

.text.libm      0x9d01db90      0x234
 .text.libm     0x9d01db90      0x11c c:/program files (x86)/microchip/xc32/v2.30/bin/bin/../../lib/gcc/pic32mx/4.8.3/../../../../pic32mx/lib\libm.a(fpsin32.o)
                0x9d01db90                sinf
                0x9d01db90                fpsin
 .text.libm     0x9d01dcac      0x118 c:/program files (x86)/microchip/xc32/v2.30/bin/bin/../../lib/gcc/pic32mx/4.8.3/../../../../pic32mx/lib\libm.a(fpcos32.o)
                0x9d01dcac                cosf
                0x9d01dcac                fpcos

.text._NVMOperation
                0x9d01ddc4      0x114
 .text._NVMOperation
                0x9d01ddc4      0x114 c:/program files (x86)/microchip/xc32/v2.30/bin/bin/../../lib/gcc/pic32mx/4.8.3/../../../../pic32mx/lib\libmchp_peripheral_32MX440F256H.a(nvm_operation_lib.o)
                0x9d01ddc4                _NVMOperation

.text.PowerSaveIdle
                0x9d01ded8      0x110
 .text.PowerSaveIdle
                0x9d01ded8      0x110 c:/program files (x86)/microchip/xc32/v2.30/bin/bin/../../lib/gcc/pic32mx/4.8.3/../../../../pic32mx/lib\libmchp_peripheral_32MX440F256H.a(power_idle_lib.o)
                0x9d01ded8                PowerSaveIdle

.text.PowerSaveSleep
                0x9d01dfe8      0x110
 .text.PowerSaveSleep
                0x9d01dfe8      0x110 c:/program files (x86)/microchip/xc32/v2.30/bin/bin/../../lib/gcc/pic32mx/4.8.3/../../../../pic32mx/lib\libmchp_peripheral_32MX440F256H.a(power_sleep_lib.o)
                0x9d01dfe8                PowerSaveSleep

.text.libm      0x9d007ff4      0x10c
 .text.libm     0x9d007ff4      0x10c c:/program files (x86)/microchip/xc32/v2.30/bin/bin/../../lib/gcc/pic32mx/4.8.3/../../../../pic32mx/lib\libm.a(fpreduct32.o)
                0x9d007ff4                fpreduct

.rodata         0x9d01e0f8      0x100
 .rodata        0x9d01e0f8      0x100 output\eep_manager_crc.o
                0x9d01e0f8                crcTableEepManager

.text.strncpy   0x9d01e1f8      0x100
 .text.strncpy  0x9d01e1f8      0x100 c:/program files (x86)/microchip/xc32/v2.30/bin/bin/../../lib/gcc/pic32mx/4.8.3/../../../../pic32mx/lib\liblega-c.a(strncpy.o)
                0x9d01e1f8                strncpy

.text.dptofp    0x9d01e2f8      0x100
 .text.dptofp   0x9d01e2f8      0x100 c:/program files (x86)/microchip/xc32/v2.30/bin/bin/../../lib/gcc/pic32mx/4.8.3/../../../../pic32mx/lib\libm.a(dptofp.o)
                0x9d01e2f8                __truncdfsf2
                0x9d01e2f8                dptofp

.text.libm.fpexsqrt
                0x9d01e3f8       0xfc
 .text.libm.fpexsqrt
                0x9d01e3f8       0xfc c:/program files (x86)/microchip/xc32/v2.30/bin/bin/../../lib/gcc/pic32mx/4.8.3/../../../../pic32mx/lib\libm.a(fpexsqrt32.o)
                0x9d01e3f8                fpexsqrt

.text           0x9d01e4f4      0x1e8
 .text          0x9d01e4f4       0xf4 output\ad.o
                0x9d01e4f4                init_ad
                0x9d01e560                do_ad
                0x9d01e5b0                isr_ad_1ms
                0x9d01e5dc                getAd
 .text          0x9d01e5e8       0xf4 output\ICMP.o
                0x9d01e5e8                ICMPProcess

.text           0x9d01e6dc       0xec
 .text          0x9d01e6dc       0xec output\system_exec.o
                0x9d01e6dc                system_set_exec_state_flag
                0x9d01e72c                system_clear_exec_state_flag
                0x9d01e780                system_get_exec_state_flag

.text.strncmp   0x9d01e7c8       0xe0
 .text.strncmp  0x9d01e7c8       0xe0 c:/program files (x86)/microchip/xc32/v2.30/bin/bin/../../lib/gcc/pic32mx/4.8.3/../../../../pic32mx/lib\liblega-c.a(strncmp.o)
                0x9d01e7c8                strncmp

.text.general_exception
                0x9d01e8a8       0xdc
 .text.general_exception
                0x9d01e8a8       0xdc c:/program files (x86)/microchip/xc32/v2.30/bin/bin/../../lib/gcc/pic32mx/4.8.3/../../../../pic32mx/lib\libpic32.a(general-exception.o)
                0x9d01e8a8                _general_exception_context

.rodata         0x9d01e984       0xd4
 .rodata        0x9d01e984       0xd4 output\usb_descriptors.o
                0x9d01e984                USB_SD_Ptr
                0x9d01e990                USB_CD_Ptr
                0x9d01e994                sd002
                0x9d01e9c8                sd001
                0x9d01e9fc                sd000
                0x9d01ea00                configDescriptor1
                0x9d01ea44                device_dsc

.text           0x9d01ea58      0x1a0
 .text          0x9d01ea58       0xd0 output\system_alarm.o
                0x9d01ea58                system_set_exec_alarm
                0x9d01ea9c                system_get_exec_alarm
                0x9d01eae4                system_clear_exec_alarm
 .text          0x9d01eb28       0xd0 output\grbl_bootloader.o
                0x9d01eb28                init_grbl_bootloader
                0x9d01eb30                do_grbl_bootloader
                0x9d01ebdc                isr_grbl_bootloader_1ms
                0x9d01ebec                grbl_bootloader_trigger

.text           0x9d01ebf8       0xc4
 .text          0x9d01ebf8       0xc4 output\jog.o
                0x9d01ebf8                jog_execute

.text.libm      0x9d01ecbc      0x164
 .text.libm     0x9d01ecbc       0xb4 c:/program files (x86)/microchip/xc32/v2.30/bin/bin/../../lib/gcc/pic32mx/4.8.3/../../../../pic32mx/lib\libm.a(fpfloo32.o)
                0x9d01ecbc                floorf
                0x9d01ecbc                fpfloor
 .text.libm     0x9d01ed70       0xb0 c:/program files (x86)/microchip/xc32/v2.30/bin/bin/../../lib/gcc/pic32mx/4.8.3/../../../../pic32mx/lib\libm.a(fpceil32.o)
                0x9d01ed70                ceilf
                0x9d01ed70                fpceil

.text.fptodp    0x9d01ee20       0xac
 .text.fptodp   0x9d01ee20       0xac c:/program files (x86)/microchip/xc32/v2.30/bin/bin/../../lib/gcc/pic32mx/4.8.3/../../../../pic32mx/lib\libm.a(fptodp.o)
                0x9d01ee20                fptodp
                0x9d01ee20                __extendsfdf2

.text           0x9d01eecc      0x14c
 .text          0x9d01eecc       0xa8 c:/program files (x86)/microchip/xc32/v2.30/bin/bin/../../lib/gcc/pic32mx/4.8.3/../../../../pic32mx/lib\libpic32.a(memset.o)
                0x9d01eecc                memset
 .text          0x9d01ef74       0xa4 c:/program files (x86)/microchip/xc32/v2.30/bin/bin/../../lib/gcc/pic32mx/4.8.3\libgcc.a(_fixunssfdi.o)
                0x9d01ef74                __fixunssfdi

.text.fpcmp     0x9d01f018       0x9c
 .text.fpcmp    0x9d01f018       0x9c c:/program files (x86)/microchip/xc32/v2.30/bin/bin/../../lib/gcc/pic32mx/4.8.3/../../../../pic32mx/lib\libm.a(fpcmp.o)
                0x9d01f018                __nesf2
                0x9d01f018                __gtsf2
                0x9d01f018                __eqsf2
                0x9d01f018                __ltsf2
                0x9d01f018                fpcmp
                0x9d01f018                __gesf2
                0x9d01f018                __lesf2

.text           0x9d01f0b4      0x130
 .text          0x9d01f0b4       0x98 output\stackmeasure.o
                0x9d01f0b4                init_stackmeasure
                0x9d01f0e0                do_stackmeasure
                0x9d01f134                getStackFillnessMax
                0x9d01f13c                getStackSize
 .text          0x9d01f14c       0x98 c:/program files (x86)/microchip/xc32/v2.30/bin/bin/../../lib/gcc/pic32mx/4.8.3/../../../../pic32mx/lib\libpic32.a(memcmp.o)
                0x9d01f14c                memcmp

.text           0x9d01f1e4       0x90
 .text          0x9d01f1e4       0x90 c:/program files (x86)/microchip/xc32/v2.30/bin/bin/../../lib/gcc/pic32mx/4.8.3\libgcc.a(_floatundisf.o)
                0x9d01f1e4                __floatundisf

.text.dptoul    0x9d01f274       0x8c
 .text.dptoul   0x9d01f274       0x8c c:/program files (x86)/microchip/xc32/v2.30/bin/bin/../../lib/gcc/pic32mx/4.8.3/../../../../pic32mx/lib\libm.a(dptoul.o)
                0x9d01f274                dptoul
                0x9d01f274                __fixunsdfsi

.text           0x9d01f300      0x108
 .text          0x9d01f300       0x84 output\Delay.o
                0x9d01f300                Delay10us
                0x9d01f33c                DelayMs
 .text          0x9d01f384       0x84 c:/program files (x86)/microchip/xc32/v2.30/bin/bin/../../lib/gcc/pic32mx/4.8.3/../../../../pic32mx/lib\libpic32.a(pic32_data_init.o)
                0x9d01f384                __pic32_data_init

.text.fptoli    0x9d01f408       0x80
 .text.fptoli   0x9d01f408       0x80 c:/program files (x86)/microchip/xc32/v2.30/bin/bin/../../lib/gcc/pic32mx/4.8.3/../../../../pic32mx/lib\libm.a(fptoli.o)
                0x9d01f408                fptoli
                0x9d01f408                fptosi
                0x9d01f408                __fixsfsi

.text.SoftReset
                0x9d01f488       0x7c
 .text.SoftReset
                0x9d01f488       0x7c c:/program files (x86)/microchip/xc32/v2.30/bin/bin/../../lib/gcc/pic32mx/4.8.3/../../../../pic32mx/lib\libmchp_peripheral_32MX440F256H.a(soft_reset_lib.o)
                0x9d01f488                SoftReset

.text.fptoul    0x9d01f504       0x7c
 .text.fptoul   0x9d01f504       0x7c c:/program files (x86)/microchip/xc32/v2.30/bin/bin/../../lib/gcc/pic32mx/4.8.3/../../../../pic32mx/lib\libm.a(fptoul.o)
                0x9d01f504                __fixunssfsi
                0x9d01f504                fptoul
                0x9d01f504                fptoui

.text.litodp    0x9d01f580       0x78
 .text.litodp   0x9d01f580       0x78 c:/program files (x86)/microchip/xc32/v2.30/bin/bin/../../lib/gcc/pic32mx/4.8.3/../../../../pic32mx/lib\libm.a(litodp.o)
                0x9d01f580                litodp
                0x9d01f580                __floatsidf

.text           0x9d01f600       0xd8
 .text          0x9d01f600       0x70 output\stackmeasure_helper.o
                0x9d01f600                fill_stack
                0x9d01f62c                stack_usage
 .text          0x9d01f670       0x68 output\bootloader_interface.o
                0x9d01f670                bootloader_interface_clearRequest
                0x9d01f688                bootloader_interface_setRequest
                0x9d01f6ac                bootloader_get_bootloader_was_reset_called
                0x9d01f6c0                bootloader_reset

.text.sqrtf     0x9d01f6d8       0x68
 .text.sqrtf    0x9d01f6d8       0x68 c:/program files (x86)/microchip/xc32/v2.30/bin/bin/../../lib/gcc/pic32mx/4.8.3/../../../../pic32mx/lib\libm.a(w_sqrtf.o)
                0x9d01f6d8                sqrtf

.text.sitofp    0x9d01f740       0x60
 .text.sitofp   0x9d01f740       0x60 c:/program files (x86)/microchip/xc32/v2.30/bin/bin/../../lib/gcc/pic32mx/4.8.3/../../../../pic32mx/lib\libm.a(sitofp.o)
                0x9d01f740                __floatsisf
                0x9d01f740                litofp
                0x9d01f740                sitofp

.text.copysign  0x9d01f7a0       0x60
 .text.copysign
                0x9d01f7a0       0x60 c:/program files (x86)/microchip/xc32/v2.30/bin/bin/../../lib/gcc/pic32mx/4.8.3/../../../../pic32mx/lib\libm.a(support.o)
                0x9d01f7a0                copysign

.text.copysignf
                0x9d01f800       0x60
 .text.copysignf
                0x9d01f800       0x60 c:/program files (x86)/microchip/xc32/v2.30/bin/bin/../../lib/gcc/pic32mx/4.8.3/../../../../pic32mx/lib\libm.a(support.o)
                0x9d01f800                copysignf

.text.main_entry
                0x9d01f860       0x54
 .text.main_entry
                0x9d01f860       0x54 C:\Users\kyrk\AppData\Local\Temp\ccO7tWVt.o
                0x9d01f894                __crt0_exit

.text           0x9d01f8b4       0x4c
 .text          0x9d01f8b4       0x4c c:/program files (x86)/microchip/xc32/v2.30/bin/bin/../../lib/gcc/pic32mx/4.8.3\libgcc.a(floatunsisf.o)
                0x9d01f8b4                __floatunsisf

.text._bootstrap_exception_handler
                0x9d01f900       0x48
 .text._bootstrap_exception_handler
                0x9d01f900       0x48 c:/program files (x86)/microchip/xc32/v2.30/bin/bin/../../lib/gcc/pic32mx/4.8.3/../../../../pic32mx/lib\libpic32.a(default-bootstrap-exception-handler.o)
                0x9d01f900                _bootstrap_exception_handler

.vector_default
                0x9d01f948       0x48
 .vector_default
                0x9d01f948       0x48 c:/program files (x86)/microchip/xc32/v2.30/bin/bin/../../lib/gcc/pic32mx/4.8.3/../../../../pic32mx/lib\libpic32.a(defaultinterrupt.o)
                0x9d01f948                _DefaultInterrupt

.text           0x9d01f990       0x88
 .text          0x9d01f990       0x44 output\app.o
                0x9d01f990                init_app
                0x9d01f998                do_app
                0x9d01f9ac                isr_app_1ms
                0x9d01f9b4                isr_app_100us
                0x9d01f9bc                isr_app_custom
                0x9d01f9c4                backToSleep
                0x9d01f9cc                eepManager_NotifyUserFailedRead
 .text          0x9d01f9d4       0x44 c:/program files (x86)/microchip/xc32/v2.30/bin/bin/../../lib/gcc/pic32mx/4.8.3/../../../../pic32mx/lib\pic32_software_reset.o
                0x9d01f9d4                __pic32_software_reset

.text           0x9d01fa18       0x44
 .text          0x9d01fa18       0x44 c:/program files (x86)/microchip/xc32/v2.30/bin/bin/../../lib/gcc/pic32mx/4.8.3\libgcc.a(floatunsidf.o)
                0x9d01fa18                __floatunsidf

.rodata         0x9d01fa5c       0x34
 .rodata        0x9d01fa5c       0x34 output\settings.o

.text.NVMWriteWord
                0x9d01fa90       0x34
 .text.NVMWriteWord
                0x9d01fa90       0x34 c:/program files (x86)/microchip/xc32/v2.30/bin/bin/../../lib/gcc/pic32mx/4.8.3/../../../../pic32mx/lib\libmchp_peripheral_32MX440F256H.a(nvm_write_word_lib.o)
                0x9d01fa90                NVMWriteWord

.text.copysignl
                0x9d01fac4       0x34
 .text.copysignl
                0x9d01fac4       0x34 c:/program files (x86)/microchip/xc32/v2.30/bin/bin/../../lib/gcc/pic32mx/4.8.3/../../../../pic32mx/lib\libm.a(support.o)
                0x9d01fac4                copysignl

.text.logb      0x9d01faf8       0x34
 .text.logb     0x9d01faf8       0x34 c:/program files (x86)/microchip/xc32/v2.30/bin/bin/../../lib/gcc/pic32mx/4.8.3/../../../../pic32mx/lib\libm.a(support.o)
                0x9d01faf8                logb

.text.logbf     0x9d01fb2c       0x34
 .text.logbf    0x9d01fb2c       0x34 c:/program files (x86)/microchip/xc32/v2.30/bin/bin/../../lib/gcc/pic32mx/4.8.3/../../../../pic32mx/lib\libm.a(support.o)
                0x9d01fb2c                logbf

.text.finite    0x9d01fb60       0x34
 .text.finite   0x9d01fb60       0x34 c:/program files (x86)/microchip/xc32/v2.30/bin/bin/../../lib/gcc/pic32mx/4.8.3/../../../../pic32mx/lib\libm.a(support.o)
                0x9d01fb60                finite

.text.finitef   0x9d01fb94       0x34
 .text.finitef  0x9d01fb94       0x34 c:/program files (x86)/microchip/xc32/v2.30/bin/bin/../../lib/gcc/pic32mx/4.8.3/../../../../pic32mx/lib\libm.a(support.o)
                0x9d01fb94                finitef

.text           0x9d01fbc8       0x30
 .text          0x9d01fbc8       0x30 output\coolant_control.o
                0x9d01fbc8                coolant_init
                0x9d01fbd0                coolant_get_state
                0x9d01fbd8                coolant_stop
                0x9d01fbe0                coolant_set_state
                0x9d01fbec                coolant_sync

.text.NVMErasePage
                0x9d01fbf8       0x2c
 .text.NVMErasePage
                0x9d01fbf8       0x2c c:/program files (x86)/microchip/xc32/v2.30/bin/bin/../../lib/gcc/pic32mx/4.8.3/../../../../pic32mx/lib\libmchp_peripheral_32MX440F256H.a(nvm_erase_page_lib.o)
                0x9d01fbf8                NVMErasePage

.rodata         0x9d01fc24       0x50
 .rodata        0x9d01fc24       0x28 output\pwm.o
 .rodata        0x9d01fc4c       0x28 output\grbl_protocol.o

.rodata         0x9d01fc78       0x28
 .rodata        0x9d01fc78       0x28 c:/program files (x86)/microchip/xc32/v2.30/bin/bin/../../lib/gcc/pic32mx/4.8.3/../../../../pic32mx/lib\libm.a(w_atan2f.o)

.text.drem      0x9d01fca0       0x28
 .text.drem     0x9d01fca0       0x28 c:/program files (x86)/microchip/xc32/v2.30/bin/bin/../../lib/gcc/pic32mx/4.8.3/../../../../pic32mx/lib\libm.a(support.o)
                0x9d01fca0                drem

.text.dremf     0x9d01fcc8       0x28
 .text.dremf    0x9d01fcc8       0x28 c:/program files (x86)/microchip/xc32/v2.30/bin/bin/../../lib/gcc/pic32mx/4.8.3/../../../../pic32mx/lib\libm.a(support.o)
                0x9d01fcc8                dremf

.rodata         0x9d01fcf0       0x44
 .rodata        0x9d01fcf0       0x24 output\motion_control.o
 .rodata        0x9d01fd14       0x20 output\TCP.o
                0x9d01fd14                TCPSocketInitializer

.rodata         0x9d01fd38       0x3c
 .rodata        0x9d01fd38       0x20 c:/program files (x86)/microchip/xc32/v2.30/bin/bin/../../lib/gcc/pic32mx/4.8.3/../../../../pic32mx/lib\libm.a(support.o)
 .rodata        0x9d01fd58       0x1c output\nuts_bolts.o

.rodata         0x9d01fd74       0x1c
 .rodata        0x9d01fd74       0x1c output\Announce.o

.text.INTRestoreInterrupts
                0x9d01fd90       0x1c
 .text.INTRestoreInterrupts
                0x9d01fd90       0x1c c:/program files (x86)/microchip/xc32/v2.30/bin/bin/../../lib/gcc/pic32mx/4.8.3/../../../../pic32mx/lib\libmchp_peripheral_32MX440F256H.a(int_restore_interrupts_lib.o)
                0x9d01fd90                INTRestoreInterrupts

.text.finitel   0x9d01fdac       0x1c
 .text.finitel  0x9d01fdac       0x1c c:/program files (x86)/microchip/xc32/v2.30/bin/bin/../../lib/gcc/pic32mx/4.8.3/../../../../pic32mx/lib\libm.a(support.o)
                0x9d01fdac                finitel

.rodata         0x9d01fdc8       0x18
 .rodata        0x9d01fdc8       0x18 output\planner.o

.text.CheKseg0CacheOff
                0x9d01fde0       0x18
 .text.CheKseg0CacheOff
                0x9d01fde0       0x18 c:/program files (x86)/microchip/xc32/v2.30/bin/bin/../../lib/gcc/pic32mx/4.8.3/../../../../pic32mx/lib\libmchp_peripheral_32MX440F256H.a(pcache.o)
                0x9d01fde0                CheKseg0CacheOff

.text.CheKseg0CacheOn
                0x9d01fdf8       0x18
 .text.CheKseg0CacheOn
                0x9d01fdf8       0x18 c:/program files (x86)/microchip/xc32/v2.30/bin/bin/../../lib/gcc/pic32mx/4.8.3/../../../../pic32mx/lib\libmchp_peripheral_32MX440F256H.a(pcache.o)
                0x9d01fdf8                CheKseg0CacheOn

.text           0x9d01fe10       0x18
 .text          0x9d01fe10       0x18 c:/program files (x86)/microchip/xc32/v2.30/bin/bin/../../lib/gcc/pic32mx/4.8.3/../../../../pic32mx/lib\libpic32.a(default-nmi-handler.o)
                0x9d01fe10                _nmi_handler

.rodata         0x9d00812c       0x14
 .rodata        0x9d00812c       0x14 output\gcode.o

.rodata         0x9d00810c       0x14
 .rodata        0x9d00810c       0x14 output\stepper.o

.rodata         0x9d01fe28       0x20
 .rodata        0x9d01fe28       0x10 output\exceptions.o
 .rodata        0x9d01fe38       0x10 output\print.o

.rodata         0x9d01fe48       0x1c
 .rodata        0x9d01fe48       0x10 c:/program files (x86)/microchip/xc32/v2.30/bin/bin/../../lib/gcc/pic32mx/4.8.3\libgcc.a(_fixunssfdi.o)
 .rodata        0x9d01fe58        0xc output\spindle_control.o

.rodata         0x9d01fe64        0xc
 .rodata        0x9d01fe64        0xc output\ethernet.o

.rodata         0x9d01f5f8        0x8
 .rodata        0x9d01f5f8        0x8 output\grbl_limits.o

.text.INTDisableInterrupts
                0x9d01fe70        0x8
 .text.INTDisableInterrupts
                0x9d01fe70        0x8 c:/program files (x86)/microchip/xc32/v2.30/bin/bin/../../lib/gcc/pic32mx/4.8.3/../../../../pic32mx/lib\libmchp_peripheral_32MX440F256H.a(int_disable_interrupts_lib.o)
                0x9d01fe70                INTDisableInterrupts

.rodata         0x9d01fe78       0x10
 .rodata        0x9d01fe78        0x8 c:/program files (x86)/microchip/xc32/v2.30/bin/bin/../../lib/gcc/pic32mx/4.8.3\libgcc.a(_floatundisf.o)
 .rodata        0x9d01fe80        0x8 c:/program files (x86)/microchip/xc32/v2.30/bin/bin/../../lib/gcc/pic32mx/4.8.3\libgcc.a(floatunsidf.o)

.text._on_reset
                0x9d01fe88        0x8
 .text._on_reset
                0x9d01fe88        0x8 c:/program files (x86)/microchip/xc32/v2.30/bin/bin/../../lib/gcc/pic32mx/4.8.3/../../../../pic32mx/lib\libpic32.a(default-on-reset.o)
                0x9d01fe88                _on_reset

.text._on_bootstrap
                0x9d01fe90        0x8
 .text._on_bootstrap
                0x9d01fe90        0x8 c:/program files (x86)/microchip/xc32/v2.30/bin/bin/../../lib/gcc/pic32mx/4.8.3/../../../../pic32mx/lib\libpic32.a(default-on-bootstrap.o)
                0x9d01fe90                _on_bootstrap

.text%z312      0x00000000        0x0
 .text          0x00000000        0x0 c:/program files (x86)/microchip/xc32/v2.30/bin/bin/../../lib/gcc/pic32mx/4.8.3/../../../../pic32mx/lib\libpic32.a(errno.o)

.text%z313      0x00000000        0x0
 .text          0x00000000        0x0 c:/program files (x86)/microchip/xc32/v2.30/bin/bin/../../lib/gcc/pic32mx/4.8.3/../../../../pic32mx/lib\libm.a(s_lib_ver.o)

.text%z314      0x00000000        0x0
 .text          0x00000000        0x0 c:/program files (x86)/microchip/xc32/v2.30/bin/bin/../../lib/gcc/pic32mx/4.8.3/../../../../pic32mx/lib\libm.a(fpsqrt32.o)

.text%z315      0x00000000        0x0
 .text          0x00000000        0x0 c:/program files (x86)/microchip/xc32/v2.30/bin/bin/../../lib/gcc/pic32mx/4.8.3/../../../../pic32mx/lib\libm.a(fpexsqrt32.o)

.text.fpexatan%z316
                0x00000000        0x0
 .text.fpexatan
                0x00000000        0x0 c:/program files (x86)/microchip/xc32/v2.30/bin/bin/../../lib/gcc/pic32mx/4.8.3/../../../../pic32mx/lib\libm.a(fpexatan.o)

.text%z317      0x00000000        0x0
 .text          0x00000000        0x0 c:/program files (x86)/microchip/xc32/v2.30/bin/bin/../../lib/gcc/pic32mx/4.8.3/../../../../pic32mx/lib\libm.a(fpexatan.o)

.text%z318      0x00000000        0x0
 .text          0x00000000        0x0 c:/program files (x86)/microchip/xc32/v2.30/bin/bin/../../lib/gcc/pic32mx/4.8.3/../../../../pic32mx/lib\libm.a(fpatan2.o)

.text%z319      0x00000000        0x0
 .text          0x00000000        0x0 c:/program files (x86)/microchip/xc32/v2.30/bin/bin/../../lib/gcc/pic32mx/4.8.3/../../../../pic32mx/lib\libm.a(dpcmp.o)

.text%z320      0x00000000        0x0
 .text          0x00000000        0x0 c:/program files (x86)/microchip/xc32/v2.30/bin/bin/../../lib/gcc/pic32mx/4.8.3/../../../../pic32mx/lib\libm.a(dp32div.o)

.text%z321      0x00000000        0x0
 .text          0x00000000        0x0 c:/program files (x86)/microchip/xc32/v2.30/bin/bin/../../lib/gcc/pic32mx/4.8.3/../../../../pic32mx/lib\libm.a(dpldexp.o)

.text%z322      0x00000000        0x0
 .text          0x00000000        0x0 c:/program files (x86)/microchip/xc32/v2.30/bin/bin/../../lib/gcc/pic32mx/4.8.3/../../../../pic32mx/lib\libm.a(support.o)

.text%z323      0x00000000        0x0
 .text          0x00000000        0x0 c:/program files (x86)/microchip/xc32/v2.30/bin/bin/../../lib/gcc/pic32mx/4.8.3/../../../../pic32mx/lib\libm.a(w_sqrtf.o)

.text%z324      0x00000000        0x0
 .text          0x00000000        0x0 c:/program files (x86)/microchip/xc32/v2.30/bin/bin/../../lib/gcc/pic32mx/4.8.3/../../../../pic32mx/lib\libm.a(w_atan2f.o)

.text%z325      0x00000000        0x0
 .text          0x00000000        0x0 c:/program files (x86)/microchip/xc32/v2.30/bin/bin/../../lib/gcc/pic32mx/4.8.3/../../../../pic32mx/lib\libm.a(sitofp.o)

.text%z326      0x00000000        0x0
 .text          0x00000000        0x0 c:/program files (x86)/microchip/xc32/v2.30/bin/bin/../../lib/gcc/pic32mx/4.8.3/../../../../pic32mx/lib\libm.a(sincof32.o)

.text%z327      0x00000000        0x0
 .text          0x00000000        0x0 c:/program files (x86)/microchip/xc32/v2.30/bin/bin/../../lib/gcc/pic32mx/4.8.3/../../../../pic32mx/lib\libm.a(litodp.o)

.text%z328      0x00000000        0x0
 .text          0x00000000        0x0 c:/program files (x86)/microchip/xc32/v2.30/bin/bin/../../lib/gcc/pic32mx/4.8.3/../../../../pic32mx/lib\libm.a(fptoul.o)

.text%z329      0x00000000        0x0
 .text          0x00000000        0x0 c:/program files (x86)/microchip/xc32/v2.30/bin/bin/../../lib/gcc/pic32mx/4.8.3/../../../../pic32mx/lib\libm.a(fptoli.o)

.text%z330      0x00000000        0x0
 .text          0x00000000        0x0 c:/program files (x86)/microchip/xc32/v2.30/bin/bin/../../lib/gcc/pic32mx/4.8.3/../../../../pic32mx/lib\libm.a(fptodp.o)

.text%z331      0x00000000        0x0
 .text          0x00000000        0x0 c:/program files (x86)/microchip/xc32/v2.30/bin/bin/../../lib/gcc/pic32mx/4.8.3/../../../../pic32mx/lib\libm.a(fpsin32.o)

.text%z332      0x00000000        0x0
 .text          0x00000000        0x0 c:/program files (x86)/microchip/xc32/v2.30/bin/bin/../../lib/gcc/pic32mx/4.8.3/../../../../pic32mx/lib\libm.a(fpreduct32.o)

.text%z333      0x00000000        0x0
 .text          0x00000000        0x0 c:/program files (x86)/microchip/xc32/v2.30/bin/bin/../../lib/gcc/pic32mx/4.8.3/../../../../pic32mx/lib\libm.a(fpfloo32.o)

.text%z334      0x00000000        0x0
 .text          0x00000000        0x0 c:/program files (x86)/microchip/xc32/v2.30/bin/bin/../../lib/gcc/pic32mx/4.8.3/../../../../pic32mx/lib\libm.a(fpcos32.o)

.text%z335      0x00000000        0x0
 .text          0x00000000        0x0 c:/program files (x86)/microchip/xc32/v2.30/bin/bin/../../lib/gcc/pic32mx/4.8.3/../../../../pic32mx/lib\libm.a(fpcmp.o)

.text%z336      0x00000000        0x0
 .text          0x00000000        0x0 c:/program files (x86)/microchip/xc32/v2.30/bin/bin/../../lib/gcc/pic32mx/4.8.3/../../../../pic32mx/lib\libm.a(fpceil32.o)

.text%z337      0x00000000        0x0
 .text          0x00000000        0x0 c:/program files (x86)/microchip/xc32/v2.30/bin/bin/../../lib/gcc/pic32mx/4.8.3/../../../../pic32mx/lib\libm.a(fp32subadd.o)

.text%z338      0x00000000        0x0
 .text          0x00000000        0x0 c:/program files (x86)/microchip/xc32/v2.30/bin/bin/../../lib/gcc/pic32mx/4.8.3/../../../../pic32mx/lib\libm.a(fp32mul.o)

.text%z339      0x00000000        0x0
 .text          0x00000000        0x0 c:/program files (x86)/microchip/xc32/v2.30/bin/bin/../../lib/gcc/pic32mx/4.8.3/../../../../pic32mx/lib\libm.a(fp32div.o)

.text%z340      0x00000000        0x0
 .text          0x00000000        0x0 c:/program files (x86)/microchip/xc32/v2.30/bin/bin/../../lib/gcc/pic32mx/4.8.3/../../../../pic32mx/lib\libm.a(dptoul.o)

.text%z341      0x00000000        0x0
 .text          0x00000000        0x0 c:/program files (x86)/microchip/xc32/v2.30/bin/bin/../../lib/gcc/pic32mx/4.8.3/../../../../pic32mx/lib\libm.a(dptofp.o)

.text%z342      0x00000000        0x0
 .text          0x00000000        0x0 c:/program files (x86)/microchip/xc32/v2.30/bin/bin/../../lib/gcc/pic32mx/4.8.3/../../../../pic32mx/lib\libm.a(dp32subadd.o)

.text%z343      0x00000000        0x0
 .text          0x00000000        0x0 c:/program files (x86)/microchip/xc32/v2.30/bin/bin/../../lib/gcc/pic32mx/4.8.3/../../../../pic32mx/lib\libm.a(dp32mul.o)

.text%z344      0x00000000        0x0
 .text          0x00000000        0x0 c:/program files (x86)/microchip/xc32/v2.30/bin/bin/../../lib/gcc/pic32mx/4.8.3/../../../../pic32mx/lib\liblega-c.a(strncpy.o)

.text%z345      0x00000000        0x0
 .text          0x00000000        0x0 c:/program files (x86)/microchip/xc32/v2.30/bin/bin/../../lib/gcc/pic32mx/4.8.3/../../../../pic32mx/lib\liblega-c.a(strncmp.o)

.text%z346      0x00000000        0x0
 .text          0x00000000        0x0 c:/program files (x86)/microchip/xc32/v2.30/bin/bin/../../lib/gcc/pic32mx/4.8.3/../../../../pic32mx/lib\libpic32.a(defaultinterrupt.o)

.text%z347      0x00000000        0x0
 .text          0x00000000        0x0 c:/program files (x86)/microchip/xc32/v2.30/bin/bin/../../lib/gcc/pic32mx/4.8.3/../../../../pic32mx/lib\libpic32.a(vector44.o)

.text%z348      0x00000000        0x0
 .text          0x00000000        0x0 c:/program files (x86)/microchip/xc32/v2.30/bin/bin/../../lib/gcc/pic32mx/4.8.3/../../../../pic32mx/lib\libpic32.a(vector43.o)

.text%z349      0x00000000        0x0
 .text          0x00000000        0x0 c:/program files (x86)/microchip/xc32/v2.30/bin/bin/../../lib/gcc/pic32mx/4.8.3/../../../../pic32mx/lib\libpic32.a(vector42.o)

.text%z350      0x00000000        0x0
 .text          0x00000000        0x0 c:/program files (x86)/microchip/xc32/v2.30/bin/bin/../../lib/gcc/pic32mx/4.8.3/../../../../pic32mx/lib\libpic32.a(vector41.o)

.text%z351      0x00000000        0x0
 .text          0x00000000        0x0 c:/program files (x86)/microchip/xc32/v2.30/bin/bin/../../lib/gcc/pic32mx/4.8.3/../../../../pic32mx/lib\libpic32.a(vector40.o)

.text%z352      0x00000000        0x0
 .text          0x00000000        0x0 c:/program files (x86)/microchip/xc32/v2.30/bin/bin/../../lib/gcc/pic32mx/4.8.3/../../../../pic32mx/lib\libpic32.a(vector35.o)

.text%z353      0x00000000        0x0
 .text          0x00000000        0x0 c:/program files (x86)/microchip/xc32/v2.30/bin/bin/../../lib/gcc/pic32mx/4.8.3/../../../../pic32mx/lib\libpic32.a(vector34.o)

.text%z354      0x00000000        0x0
 .text          0x00000000        0x0 c:/program files (x86)/microchip/xc32/v2.30/bin/bin/../../lib/gcc/pic32mx/4.8.3/../../../../pic32mx/lib\libpic32.a(vector30.o)

.text%z355      0x00000000        0x0
 .text          0x00000000        0x0 c:/program files (x86)/microchip/xc32/v2.30/bin/bin/../../lib/gcc/pic32mx/4.8.3/../../../../pic32mx/lib\libpic32.a(vector29.o)

.text%z356      0x00000000        0x0
 .text          0x00000000        0x0 c:/program files (x86)/microchip/xc32/v2.30/bin/bin/../../lib/gcc/pic32mx/4.8.3/../../../../pic32mx/lib\libpic32.a(vector28.o)

.text%z357      0x00000000        0x0
 .text          0x00000000        0x0 c:/program files (x86)/microchip/xc32/v2.30/bin/bin/../../lib/gcc/pic32mx/4.8.3/../../../../pic32mx/lib\libpic32.a(vector27.o)

.text%z358      0x00000000        0x0
 .text          0x00000000        0x0 c:/program files (x86)/microchip/xc32/v2.30/bin/bin/../../lib/gcc/pic32mx/4.8.3/../../../../pic32mx/lib\libpic32.a(vector23.o)

.text%z359      0x00000000        0x0
 .text          0x00000000        0x0 c:/program files (x86)/microchip/xc32/v2.30/bin/bin/../../lib/gcc/pic32mx/4.8.3/../../../../pic32mx/lib\libpic32.a(vector22.o)

.text%z360      0x00000000        0x0
 .text          0x00000000        0x0 c:/program files (x86)/microchip/xc32/v2.30/bin/bin/../../lib/gcc/pic32mx/4.8.3/../../../../pic32mx/lib\libpic32.a(vector21.o)

.text%z361      0x00000000        0x0
 .text          0x00000000        0x0 c:/program files (x86)/microchip/xc32/v2.30/bin/bin/../../lib/gcc/pic32mx/4.8.3/../../../../pic32mx/lib\libpic32.a(vector19.o)

.text%z362      0x00000000        0x0
 .text          0x00000000        0x0 c:/program files (x86)/microchip/xc32/v2.30/bin/bin/../../lib/gcc/pic32mx/4.8.3/../../../../pic32mx/lib\libpic32.a(vector18.o)

.text%z363      0x00000000        0x0
 .text          0x00000000        0x0 c:/program files (x86)/microchip/xc32/v2.30/bin/bin/../../lib/gcc/pic32mx/4.8.3/../../../../pic32mx/lib\libpic32.a(vector17.o)

.text%z364      0x00000000        0x0
 .text          0x00000000        0x0 c:/program files (x86)/microchip/xc32/v2.30/bin/bin/../../lib/gcc/pic32mx/4.8.3/../../../../pic32mx/lib\libpic32.a(vector14.o)

.text%z365      0x00000000        0x0
 .text          0x00000000        0x0 c:/program files (x86)/microchip/xc32/v2.30/bin/bin/../../lib/gcc/pic32mx/4.8.3/../../../../pic32mx/lib\libpic32.a(vector13.o)

.text%z366      0x00000000        0x0
 .text          0x00000000        0x0 c:/program files (x86)/microchip/xc32/v2.30/bin/bin/../../lib/gcc/pic32mx/4.8.3/../../../../pic32mx/lib\libpic32.a(vector11.o)

.text%z367      0x00000000        0x0
 .text          0x00000000        0x0 c:/program files (x86)/microchip/xc32/v2.30/bin/bin/../../lib/gcc/pic32mx/4.8.3/../../../../pic32mx/lib\libpic32.a(vector10.o)

.text%z368      0x00000000        0x0
 .text          0x00000000        0x0 c:/program files (x86)/microchip/xc32/v2.30/bin/bin/../../lib/gcc/pic32mx/4.8.3/../../../../pic32mx/lib\libpic32.a(vector9.o)

.text%z369      0x00000000        0x0
 .text          0x00000000        0x0 c:/program files (x86)/microchip/xc32/v2.30/bin/bin/../../lib/gcc/pic32mx/4.8.3/../../../../pic32mx/lib\libpic32.a(vector7.o)

.text%z370      0x00000000        0x0
 .text          0x00000000        0x0 c:/program files (x86)/microchip/xc32/v2.30/bin/bin/../../lib/gcc/pic32mx/4.8.3/../../../../pic32mx/lib\libpic32.a(vector6.o)

.text%z371      0x00000000        0x0
 .text          0x00000000        0x0 c:/program files (x86)/microchip/xc32/v2.30/bin/bin/../../lib/gcc/pic32mx/4.8.3/../../../../pic32mx/lib\libpic32.a(vector5.o)

.text%z372      0x00000000        0x0
 .text          0x00000000        0x0 c:/program files (x86)/microchip/xc32/v2.30/bin/bin/../../lib/gcc/pic32mx/4.8.3/../../../../pic32mx/lib\libpic32.a(vector3.o)

.text%z373      0x00000000        0x0
 .text          0x00000000        0x0 c:/program files (x86)/microchip/xc32/v2.30/bin/bin/../../lib/gcc/pic32mx/4.8.3/../../../../pic32mx/lib\libpic32.a(vector2.o)

.text%z374      0x00000000        0x0
 .text          0x00000000        0x0 c:/program files (x86)/microchip/xc32/v2.30/bin/bin/../../lib/gcc/pic32mx/4.8.3/../../../../pic32mx/lib\libpic32.a(vector1.o)

.text%z375      0x00000000        0x0
 .text          0x00000000        0x0 c:/program files (x86)/microchip/xc32/v2.30/bin/bin/../../lib/gcc/pic32mx/4.8.3/../../../../pic32mx/lib\libpic32.a(general-exception.o)

.text%z376      0x00000000        0x0
 .text          0x00000000        0x0 c:/program files (x86)/microchip/xc32/v2.30/bin/bin/../../lib/gcc/pic32mx/4.8.3/../../../../pic32mx/lib\libpic32.a(default-on-bootstrap.o)

.text%z377      0x00000000        0x0
 .text          0x00000000        0x0 c:/program files (x86)/microchip/xc32/v2.30/bin/bin/../../lib/gcc/pic32mx/4.8.3/../../../../pic32mx/lib\libpic32.a(default-on-reset.o)

.text%z378      0x00000000        0x0
 .text          0x00000000        0x0 c:/program files (x86)/microchip/xc32/v2.30/bin/bin/../../lib/gcc/pic32mx/4.8.3/../../../../pic32mx/lib\libpic32.a(default-bootstrap-exception-handler.o)

.text%z379      0x00000000        0x0
 .text          0x00000000        0x0 c:/program files (x86)/microchip/xc32/v2.30/bin/bin/../../lib/gcc/pic32mx/4.8.3/../../../../pic32mx/lib/./proc/32MX440F256H\default_isr_vectors.o

.text%z380      0x00000000        0x0
 .text          0x00000000        0x0 C:\Users\kyrk\AppData\Local\Temp\cc25SlKc.o

.text%z381      0x00000000        0x0
 .text          0x00000000        0x0 C:\Users\kyrk\AppData\Local\Temp\ccRrtqIO.o

.text%z382      0x00000000        0x0
 .text          0x00000000        0x0 C:\Users\kyrk\AppData\Local\Temp\ccO7tWVt.o

.text%z383      0x00000000        0x0
 .text          0x00000000        0x0 c:/program files (x86)/microchip/xc32/v2.30/bin/bin/../../lib/gcc/pic32mx/4.8.3/../../../../pic32mx/lib\libmchp_peripheral_32MX440F256H.a(int_restore_interrupts_lib.o)

.text%z384      0x00000000        0x0
 .text          0x00000000        0x0 c:/program files (x86)/microchip/xc32/v2.30/bin/bin/../../lib/gcc/pic32mx/4.8.3/../../../../pic32mx/lib\libmchp_peripheral_32MX440F256H.a(nvm_write_word_lib.o)

.text%z385      0x00000000        0x0
 .text          0x00000000        0x0 c:/program files (x86)/microchip/xc32/v2.30/bin/bin/../../lib/gcc/pic32mx/4.8.3/../../../../pic32mx/lib\libmchp_peripheral_32MX440F256H.a(nvm_operation_lib.o)

.text%z386      0x00000000        0x0
 .text          0x00000000        0x0 c:/program files (x86)/microchip/xc32/v2.30/bin/bin/../../lib/gcc/pic32mx/4.8.3/../../../../pic32mx/lib\libmchp_peripheral_32MX440F256H.a(nvm_erase_page_lib.o)

.text%z387      0x00000000        0x0
 .text          0x00000000        0x0 c:/program files (x86)/microchip/xc32/v2.30/bin/bin/../../lib/gcc/pic32mx/4.8.3/../../../../pic32mx/lib\libmchp_peripheral_32MX440F256H.a(power_sleep_lib.o)

.text%z388      0x00000000        0x0
 .text          0x00000000        0x0 c:/program files (x86)/microchip/xc32/v2.30/bin/bin/../../lib/gcc/pic32mx/4.8.3/../../../../pic32mx/lib\libmchp_peripheral_32MX440F256H.a(power_idle_lib.o)

.text%z389      0x00000000        0x0
 .text          0x00000000        0x0 c:/program files (x86)/microchip/xc32/v2.30/bin/bin/../../lib/gcc/pic32mx/4.8.3/../../../../pic32mx/lib\libmchp_peripheral_32MX440F256H.a(int_disable_interrupts_lib.o)

.text%z390      0x00000000        0x0
 .text          0x00000000        0x0 c:/program files (x86)/microchip/xc32/v2.30/bin/bin/../../lib/gcc/pic32mx/4.8.3/../../../../pic32mx/lib\libmchp_peripheral_32MX440F256H.a(pcache.o)

.text%z391      0x00000000        0x0
 .text          0x00000000        0x0 c:/program files (x86)/microchip/xc32/v2.30/bin/bin/../../lib/gcc/pic32mx/4.8.3/../../../../pic32mx/lib\libmchp_peripheral_32MX440F256H.a(soft_reset_lib.o)

.text%z392      0x00000000        0x0
 .text          0x00000000        0x0 c:/program files (x86)/microchip/xc32/v2.30/bin/bin/../../lib/gcc/pic32mx/4.8.3/../../../../pic32mx/lib/./proc/32MX440F256H\processor.o

.text%z393      0x00000000        0x0
 .text          0x00000000        0x0 output\DHCP.o

.text%z394      0x00000000        0x0
 .text          0x00000000        0x0 output\c_eep_manager.o

.text%z395      0x00000000        0x0
 .text          0x00000000        0x0 output\usb_descriptors.o

.text%z396      0x00000000        0x0
 .text          0x00000000        0x0 c:/program files (x86)/microchip/xc32/v2.30/bin/bin/../../lib/gcc/pic32mx/4.8.3/../../../../pic32mx/lib\debug-exception-return.o
