Archive member included to satisfy reference by file (symbol)

c:/program files/microchip/xc32/v4.20/bin/bin/../../lib/gcc/pic32mx/8.3.1\libgcc.a(_fixunssfdi.o)
                              output\stepper.o (__fixunssfdi)
c:/program files/microchip/xc32/v4.20/bin/bin/../../lib/gcc/pic32mx/8.3.1\libgcc.a(_floatundidf.o)
                              output\stepper.o (__floatundidf)
c:/program files/microchip/xc32/v4.20/bin/bin/../../lib/gcc/pic32mx/8.3.1\libgcc.a(floatunsisf.o)
                              output\nuts_bolts.o (__floatunsisf)
c:/program files/microchip/xc32/v4.20/bin/bin/../../lib/gcc/pic32mx/8.3.1\libgcc.a(floatunsidf.o)
                              output\grbl_limits.o (__floatunsidf)
c:/program files/microchip/xc32/v4.20/bin/bin/../../lib/gcc/pic32mx/8.3.1/../../../../pic32mx/lib\libpic32.a(memcmp.o)
                              output\grbl_eeprom.o (memcmp)
c:/program files/microchip/xc32/v4.20/bin/bin/../../lib/gcc/pic32mx/8.3.1/../../../../pic32mx/lib\libpic32.a(memcpy.o)
                              output\eep_manager.o (memcpy)
c:/program files/microchip/xc32/v4.20/bin/bin/../../lib/gcc/pic32mx/8.3.1/../../../../pic32mx/lib\libpic32.a(memset.o)
                              output\ringBuffer.o (memset)
c:/program files/microchip/xc32/v4.20/bin/bin/../../lib/gcc/pic32mx/8.3.1/../../../../pic32mx/lib\libpic32.a(strcmp.o)
                              output\grbl_protocol.o (strcmp)
c:/program files/microchip/xc32/v4.20/bin/bin/../../lib/gcc/pic32mx/8.3.1/../../../../pic32mx/lib\libpic32.a(strlen.o)
                              output\Helpers.o (strlen)
c:/program files/microchip/xc32/v4.20/bin/bin/../../lib/gcc/pic32mx/8.3.1/../../../../pic32mx/lib\libpic32.a(default-bootstrap-exception-handler.o)
                              C:\Users\kyrk\AppData\Local\Temp\ccC6iq7L.o (_bootstrap_exception_handler)
c:/program files/microchip/xc32/v4.20/bin/bin/../../lib/gcc/pic32mx/8.3.1/../../../../pic32mx/lib\libpic32.a(default-on-reset.o)
                              C:\Users\kyrk\AppData\Local\Temp\ccC6iq7L.o (_on_reset)
c:/program files/microchip/xc32/v4.20/bin/bin/../../lib/gcc/pic32mx/8.3.1/../../../../pic32mx/lib\libpic32.a(default-on-bootstrap.o)
                              C:\Users\kyrk\AppData\Local\Temp\ccC6iq7L.o (_on_bootstrap)
c:/program files/microchip/xc32/v4.20/bin/bin/../../lib/gcc/pic32mx/8.3.1/../../../../pic32mx/lib\libpic32.a(default-nmi-handler.o)
                              C:\Users\kyrk\AppData\Local\Temp\ccC6iq7L.o (_nmi_handler)
c:/program files/microchip/xc32/v4.20/bin/bin/../../lib/gcc/pic32mx/8.3.1/../../../../pic32mx/lib\libpic32.a(pic32_data_init_wrapper.o)
                              C:\Users\kyrk\AppData\Local\Temp\ccC6iq7L.o (__pic32_data_init)
c:/program files/microchip/xc32/v4.20/bin/bin/../../lib/gcc/pic32mx/8.3.1/../../../../pic32mx/lib\libpic32.a(pic32_data_init_0_1.o)
                              (__copy_needed)
c:/program files/microchip/xc32/v4.20/bin/bin/../../lib/gcc/pic32mx/8.3.1/../../../../pic32mx/lib\libpic32.a(general-exception.o)
                              C:\Users\kyrk\AppData\Local\Temp\ccC6iq7L.o (_general_exception_context)
c:/program files/microchip/xc32/v4.20/bin/bin/../../lib/gcc/pic32mx/8.3.1/../../../../pic32mx/lib\libpic32.a(vector1.o)
                              C:\Users\kyrk\AppData\Local\Temp\ccMtDgJu.o (__vector_dispatch_1)
c:/program files/microchip/xc32/v4.20/bin/bin/../../lib/gcc/pic32mx/8.3.1/../../../../pic32mx/lib\libpic32.a(vector2.o)
                              C:\Users\kyrk\AppData\Local\Temp\ccMtDgJu.o (__vector_dispatch_2)
c:/program files/microchip/xc32/v4.20/bin/bin/../../lib/gcc/pic32mx/8.3.1/../../../../pic32mx/lib\libpic32.a(vector3.o)
                              C:\Users\kyrk\AppData\Local\Temp\ccMtDgJu.o (__vector_dispatch_3)
c:/program files/microchip/xc32/v4.20/bin/bin/../../lib/gcc/pic32mx/8.3.1/../../../../pic32mx/lib\libpic32.a(vector5.o)
                              C:\Users\kyrk\AppData\Local\Temp\ccMtDgJu.o (__vector_dispatch_5)
c:/program files/microchip/xc32/v4.20/bin/bin/../../lib/gcc/pic32mx/8.3.1/../../../../pic32mx/lib\libpic32.a(vector6.o)
                              C:\Users\kyrk\AppData\Local\Temp\ccMtDgJu.o (__vector_dispatch_6)
c:/program files/microchip/xc32/v4.20/bin/bin/../../lib/gcc/pic32mx/8.3.1/../../../../pic32mx/lib\libpic32.a(vector7.o)
                              C:\Users\kyrk\AppData\Local\Temp\ccMtDgJu.o (__vector_dispatch_7)
c:/program files/microchip/xc32/v4.20/bin/bin/../../lib/gcc/pic32mx/8.3.1/../../../../pic32mx/lib\libpic32.a(vector9.o)
                              C:\Users\kyrk\AppData\Local\Temp\ccMtDgJu.o (__vector_dispatch_9)
c:/program files/microchip/xc32/v4.20/bin/bin/../../lib/gcc/pic32mx/8.3.1/../../../../pic32mx/lib\libpic32.a(vector10.o)
                              C:\Users\kyrk\AppData\Local\Temp\ccMtDgJu.o (__vector_dispatch_10)
c:/program files/microchip/xc32/v4.20/bin/bin/../../lib/gcc/pic32mx/8.3.1/../../../../pic32mx/lib\libpic32.a(vector11.o)
                              C:\Users\kyrk\AppData\Local\Temp\ccMtDgJu.o (__vector_dispatch_11)
c:/program files/microchip/xc32/v4.20/bin/bin/../../lib/gcc/pic32mx/8.3.1/../../../../pic32mx/lib\libpic32.a(vector13.o)
                              C:\Users\kyrk\AppData\Local\Temp\ccMtDgJu.o (__vector_dispatch_13)
c:/program files/microchip/xc32/v4.20/bin/bin/../../lib/gcc/pic32mx/8.3.1/../../../../pic32mx/lib\libpic32.a(vector14.o)
                              C:\Users\kyrk\AppData\Local\Temp\ccMtDgJu.o (__vector_dispatch_14)
c:/program files/microchip/xc32/v4.20/bin/bin/../../lib/gcc/pic32mx/8.3.1/../../../../pic32mx/lib\libpic32.a(vector17.o)
                              C:\Users\kyrk\AppData\Local\Temp\ccMtDgJu.o (__vector_dispatch_17)
c:/program files/microchip/xc32/v4.20/bin/bin/../../lib/gcc/pic32mx/8.3.1/../../../../pic32mx/lib\libpic32.a(vector18.o)
                              C:\Users\kyrk\AppData\Local\Temp\ccMtDgJu.o (__vector_dispatch_18)
c:/program files/microchip/xc32/v4.20/bin/bin/../../lib/gcc/pic32mx/8.3.1/../../../../pic32mx/lib\libpic32.a(vector21.o)
                              C:\Users\kyrk\AppData\Local\Temp\ccMtDgJu.o (__vector_dispatch_21)
c:/program files/microchip/xc32/v4.20/bin/bin/../../lib/gcc/pic32mx/8.3.1/../../../../pic32mx/lib\libpic32.a(vector22.o)
                              C:\Users\kyrk\AppData\Local\Temp\ccMtDgJu.o (__vector_dispatch_22)
c:/program files/microchip/xc32/v4.20/bin/bin/../../lib/gcc/pic32mx/8.3.1/../../../../pic32mx/lib\libpic32.a(vector23.o)
                              C:\Users\kyrk\AppData\Local\Temp\ccMtDgJu.o (__vector_dispatch_23)
c:/program files/microchip/xc32/v4.20/bin/bin/../../lib/gcc/pic32mx/8.3.1/../../../../pic32mx/lib\libpic32.a(vector27.o)
                              C:\Users\kyrk\AppData\Local\Temp\ccMtDgJu.o (__vector_dispatch_27)
c:/program files/microchip/xc32/v4.20/bin/bin/../../lib/gcc/pic32mx/8.3.1/../../../../pic32mx/lib\libpic32.a(vector28.o)
                              C:\Users\kyrk\AppData\Local\Temp\ccMtDgJu.o (__vector_dispatch_28)
c:/program files/microchip/xc32/v4.20/bin/bin/../../lib/gcc/pic32mx/8.3.1/../../../../pic32mx/lib\libpic32.a(vector29.o)
                              C:\Users\kyrk\AppData\Local\Temp\ccMtDgJu.o (__vector_dispatch_29)
c:/program files/microchip/xc32/v4.20/bin/bin/../../lib/gcc/pic32mx/8.3.1/../../../../pic32mx/lib\libpic32.a(vector30.o)
                              C:\Users\kyrk\AppData\Local\Temp\ccMtDgJu.o (__vector_dispatch_30)
c:/program files/microchip/xc32/v4.20/bin/bin/../../lib/gcc/pic32mx/8.3.1/../../../../pic32mx/lib\libpic32.a(vector34.o)
                              C:\Users\kyrk\AppData\Local\Temp\ccMtDgJu.o (__vector_dispatch_34)
c:/program files/microchip/xc32/v4.20/bin/bin/../../lib/gcc/pic32mx/8.3.1/../../../../pic32mx/lib\libpic32.a(vector35.o)
                              C:\Users\kyrk\AppData\Local\Temp\ccMtDgJu.o (__vector_dispatch_35)
c:/program files/microchip/xc32/v4.20/bin/bin/../../lib/gcc/pic32mx/8.3.1/../../../../pic32mx/lib\libpic32.a(vector40.o)
                              C:\Users\kyrk\AppData\Local\Temp\ccMtDgJu.o (__vector_dispatch_40)
c:/program files/microchip/xc32/v4.20/bin/bin/../../lib/gcc/pic32mx/8.3.1/../../../../pic32mx/lib\libpic32.a(vector41.o)
                              C:\Users\kyrk\AppData\Local\Temp\ccMtDgJu.o (__vector_dispatch_41)
c:/program files/microchip/xc32/v4.20/bin/bin/../../lib/gcc/pic32mx/8.3.1/../../../../pic32mx/lib\libpic32.a(vector42.o)
                              C:\Users\kyrk\AppData\Local\Temp\ccMtDgJu.o (__vector_dispatch_42)
c:/program files/microchip/xc32/v4.20/bin/bin/../../lib/gcc/pic32mx/8.3.1/../../../../pic32mx/lib\libpic32.a(vector43.o)
                              C:\Users\kyrk\AppData\Local\Temp\ccMtDgJu.o (__vector_dispatch_43)
c:/program files/microchip/xc32/v4.20/bin/bin/../../lib/gcc/pic32mx/8.3.1/../../../../pic32mx/lib\libpic32.a(vector44.o)
                              C:\Users\kyrk\AppData\Local\Temp\ccMtDgJu.o (__vector_dispatch_44)
c:/program files/microchip/xc32/v4.20/bin/bin/../../lib/gcc/pic32mx/8.3.1/../../../../pic32mx/lib\libpic32.a(defaultinterrupt.o)
                              c:/program files/microchip/xc32/v4.20/bin/bin/../../lib/gcc/pic32mx/8.3.1/../../../../pic32mx/lib\libpic32.a(vector1.o) (_DefaultInterrupt)
c:/program files/microchip/xc32/v4.20/bin/bin/../../lib/gcc/pic32mx/8.3.1/../../../../pic32mx/lib\libc-musl.a(strncmp.o)
                              output\grbl_protocol.o (strncmp)
c:/program files/microchip/xc32/v4.20/bin/bin/../../lib/gcc/pic32mx/8.3.1/../../../../pic32mx/lib\libc-musl.a(strncpy.o)
                              output\Helpers.o (strncpy)
c:/program files/microchip/xc32/v4.20/bin/bin/../../lib/gcc/pic32mx/8.3.1/../../../../pic32mx/lib\libc-musl.a(stpncpy.o)
                              c:/program files/microchip/xc32/v4.20/bin/bin/../../lib/gcc/pic32mx/8.3.1/../../../../pic32mx/lib\libc-musl.a(strncpy.o) (__stpncpy)
c:/program files/microchip/xc32/v4.20/bin/bin/../../lib/gcc/pic32mx/8.3.1/../../../../pic32mx/lib\libm.a(floor32.o)
                              output\motion_control.o (floor)
c:/program files/microchip/xc32/v4.20/bin/bin/../../lib/gcc/pic32mx/8.3.1/../../../../pic32mx/lib\libm.a(ceil32.o)
                              output\nuts_bolts.o (ceil)
c:/program files/microchip/xc32/v4.20/bin/bin/../../lib/gcc/pic32mx/8.3.1/../../../../pic32mx/lib\libm.a(cos32.o)
                              output\motion_control.o (cos)
c:/program files/microchip/xc32/v4.20/bin/bin/../../lib/gcc/pic32mx/8.3.1/../../../../pic32mx/lib\libm.a(dp32div.o)
                              output\grbl_gcode.o (__divdf3)
c:/program files/microchip/xc32/v4.20/bin/bin/../../lib/gcc/pic32mx/8.3.1/../../../../pic32mx/lib\libm.a(dp32mul.o)
                              output\grbl_gcode.o (__muldf3)
c:/program files/microchip/xc32/v4.20/bin/bin/../../lib/gcc/pic32mx/8.3.1/../../../../pic32mx/lib\libm.a(dp32subadd.o)
                              output\grbl_gcode.o (__subdf3)
c:/program files/microchip/xc32/v4.20/bin/bin/../../lib/gcc/pic32mx/8.3.1/../../../../pic32mx/lib\libm.a(dpcmp.o)
                              output\grbl_limits.o (__gtdf2)
c:/program files/microchip/xc32/v4.20/bin/bin/../../lib/gcc/pic32mx/8.3.1/../../../../pic32mx/lib\libm.a(dpcmplt.o)
                              output\motion_control.o (__ledf2)
c:/program files/microchip/xc32/v4.20/bin/bin/../../lib/gcc/pic32mx/8.3.1/../../../../pic32mx/lib\libm.a(dpsqrt.o)
                              output\grbl_gcode.o (sqrt)
c:/program files/microchip/xc32/v4.20/bin/bin/../../lib/gcc/pic32mx/8.3.1/../../../../pic32mx/lib\libm.a(dptofp.o)
                              output\grbl_gcode.o (__truncdfsf2)
c:/program files/microchip/xc32/v4.20/bin/bin/../../lib/gcc/pic32mx/8.3.1/../../../../pic32mx/lib\libm.a(dptoul.o)
                              output\motion_control.o (__fixunsdfsi)
c:/program files/microchip/xc32/v4.20/bin/bin/../../lib/gcc/pic32mx/8.3.1/../../../../pic32mx/lib\libm.a(exmul.o)
                              c:/program files/microchip/xc32/v4.20/bin/bin/../../lib/gcc/pic32mx/8.3.1/../../../../pic32mx/lib\libm.a(cos32.o) (exmul)
c:/program files/microchip/xc32/v4.20/bin/bin/../../lib/gcc/pic32mx/8.3.1/../../../../pic32mx/lib\libm.a(exsqrt.o)
                              c:/program files/microchip/xc32/v4.20/bin/bin/../../lib/gcc/pic32mx/8.3.1/../../../../pic32mx/lib\libm.a(dpsqrt.o) (exsqrt)
c:/program files/microchip/xc32/v4.20/bin/bin/../../lib/gcc/pic32mx/8.3.1/../../../../pic32mx/lib\libm.a(fp32div.o)
                              output\motion_control.o (__divsf3)
c:/program files/microchip/xc32/v4.20/bin/bin/../../lib/gcc/pic32mx/8.3.1/../../../../pic32mx/lib\libm.a(fp32mul.o)
                              output\grbl_gcode.o (__mulsf3)
c:/program files/microchip/xc32/v4.20/bin/bin/../../lib/gcc/pic32mx/8.3.1/../../../../pic32mx/lib\libm.a(fp32subadd.o)
                              output\grbl_gcode.o (__subsf3)
c:/program files/microchip/xc32/v4.20/bin/bin/../../lib/gcc/pic32mx/8.3.1/../../../../pic32mx/lib\libm.a(fpcmp.o)
                              output\grbl_gcode.o (__eqsf2)
c:/program files/microchip/xc32/v4.20/bin/bin/../../lib/gcc/pic32mx/8.3.1/../../../../pic32mx/lib\libm.a(fpcmplt.o)
                              output\spindle_control.o (__lesf2)
c:/program files/microchip/xc32/v4.20/bin/bin/../../lib/gcc/pic32mx/8.3.1/../../../../pic32mx/lib\libm.a(fpexsqrt32.o)
                              c:/program files/microchip/xc32/v4.20/bin/bin/../../lib/gcc/pic32mx/8.3.1/../../../../pic32mx/lib\libm.a(exsqrt.o) (fpexsqrt)
c:/program files/microchip/xc32/v4.20/bin/bin/../../lib/gcc/pic32mx/8.3.1/../../../../pic32mx/lib\libm.a(fptodp.o)
                              output\grbl_gcode.o (__extendsfdf2)
c:/program files/microchip/xc32/v4.20/bin/bin/../../lib/gcc/pic32mx/8.3.1/../../../../pic32mx/lib\libm.a(fptoli.o)
                              output\grbl_gcode.o (__fixsfsi)
c:/program files/microchip/xc32/v4.20/bin/bin/../../lib/gcc/pic32mx/8.3.1/../../../../pic32mx/lib\libm.a(fptoul.o)
                              output\grbl_gcode.o (__fixunssfsi)
c:/program files/microchip/xc32/v4.20/bin/bin/../../lib/gcc/pic32mx/8.3.1/../../../../pic32mx/lib\libm.a(litodp.o)
                              output\planner.o (__floatsidf)
c:/program files/microchip/xc32/v4.20/bin/bin/../../lib/gcc/pic32mx/8.3.1/../../../../pic32mx/lib\libm.a(reduct32.o)
                              c:/program files/microchip/xc32/v4.20/bin/bin/../../lib/gcc/pic32mx/8.3.1/../../../../pic32mx/lib\libm.a(cos32.o) (reduct)
c:/program files/microchip/xc32/v4.20/bin/bin/../../lib/gcc/pic32mx/8.3.1/../../../../pic32mx/lib\libm.a(sigmax.o)
                              c:/program files/microchip/xc32/v4.20/bin/bin/../../lib/gcc/pic32mx/8.3.1/../../../../pic32mx/lib\libm.a(cos32.o) (sigmax)
c:/program files/microchip/xc32/v4.20/bin/bin/../../lib/gcc/pic32mx/8.3.1/../../../../pic32mx/lib\libm.a(sin32.o)
                              output\motion_control.o (sin)
c:/program files/microchip/xc32/v4.20/bin/bin/../../lib/gcc/pic32mx/8.3.1/../../../../pic32mx/lib\libm.a(sincos32.o)
                              c:/program files/microchip/xc32/v4.20/bin/bin/../../lib/gcc/pic32mx/8.3.1/../../../../pic32mx/lib\libm.a(cos32.o) (sincon)
c:/program files/microchip/xc32/v4.20/bin/bin/../../lib/gcc/pic32mx/8.3.1/../../../../pic32mx/lib\libm.a(sitofp.o)
                              output\grbl_gcode.o (__floatsisf)
c:/program files/microchip/xc32/v4.20/bin/bin/../../lib/gcc/pic32mx/8.3.1/../../../../pic32mx/lib\libm.a(atan2.o)
                              output\motion_control.o (atan2)
c:/program files/microchip/xc32/v4.20/bin/bin/../../lib/gcc/pic32mx/8.3.1/../../../../pic32mx/lib\libm.a(w_sqrt.o)
                              c:/program files/microchip/xc32/v4.20/bin/bin/../../lib/gcc/pic32mx/8.3.1/../../../../pic32mx/lib\libm.a(dpsqrt.o) (sqrtl)
c:/program files/microchip/xc32/v4.20/bin/bin/../../lib/gcc/pic32mx/8.3.1/../../../../pic32mx/lib\libm.a(support.o)
                              c:/program files/microchip/xc32/v4.20/bin/bin/../../lib/gcc/pic32mx/8.3.1/../../../../pic32mx/lib\libm.a(atan2.o) (copysignl)
c:/program files/microchip/xc32/v4.20/bin/bin/../../lib/gcc/pic32mx/8.3.1/../../../../pic32mx/lib\libm.a(w_ldexp.o)
                              c:/program files/microchip/xc32/v4.20/bin/bin/../../lib/gcc/pic32mx/8.3.1/../../../../pic32mx/lib\libm.a(atan2.o) (ldexpl)
c:/program files/microchip/xc32/v4.20/bin/bin/../../lib/gcc/pic32mx/8.3.1/../../../../pic32mx/lib\libm.a(dpldexp.o)
                              c:/program files/microchip/xc32/v4.20/bin/bin/../../lib/gcc/pic32mx/8.3.1/../../../../pic32mx/lib\libm.a(w_ldexp.o) (__mchp_ldexp)
c:/program files/microchip/xc32/v4.20/bin/bin/../../lib/gcc/pic32mx/8.3.1/../../../../pic32mx/lib\libm.a(dptoli.o)
                              c:/program files/microchip/xc32/v4.20/bin/bin/../../lib/gcc/pic32mx/8.3.1/../../../../pic32mx/lib\libm.a(atan2.o) (__fixdfsi)
c:/program files/microchip/xc32/v4.20/bin/bin/../../lib/gcc/pic32mx/8.3.1/../../../../pic32mx/lib\libm.a(s_lib_ver.o)
                              c:/program files/microchip/xc32/v4.20/bin/bin/../../lib/gcc/pic32mx/8.3.1/../../../../pic32mx/lib\libm.a(w_sqrt.o) (math_errhandling)
c:/program files/microchip/xc32/v4.20/bin/bin/../../lib/gcc/pic32mx/8.3.1/../../../../pic32mx/lib\libpic32.a(errno.o)
                              c:/program files/microchip/xc32/v4.20/bin/bin/../../lib/gcc/pic32mx/8.3.1/../../../../pic32mx/lib\libm.a(w_sqrt.o) (errno)
c:/program files/microchip/xc32/v4.20/bin/bin/../../lib/gcc/pic32mx/8.3.1/../../../../pic32mx/lib\libpic32.a(isinf.o)
                              c:/program files/microchip/xc32/v4.20/bin/bin/../../lib/gcc/pic32mx/8.3.1/../../../../pic32mx/lib\libm.a(w_ldexp.o) (isinfl)
c:/program files/microchip/xc32/v4.20/bin/bin/../../lib/gcc/pic32mx/8.3.1/../../../../pic32mx/lib\libe.a(_unorddf2.o)
                              c:/program files/microchip/xc32/v4.20/bin/bin/../../lib/gcc/pic32mx/8.3.1/../../../../pic32mx/lib\libpic32.a(isinf.o) (__unorddf2)

Allocating common symbols
Common symbol       size              file

axis_1_buffer       0x1               output\motion_control.o
_return_addr        0x4               output\exceptions.o
center_axis0        0x4               output\motion_control.o
dummyTRIS6          0x4               output\grbl.o
adResults           0x2               output\ad.o
protocol_dwellTime  0x4               output\grbl_protocol.o
grbl_toolchange_failsafe_timeout
                    0x4               output\grbl_toolchange.o
pDst                0x4               output\usb_device.o
block_buffer_head   0x1               output\planner.o
eep_coord_data      0x78              output\settings.o
dummyLAT4           0x4               output\grbl.o
dummyPORT1          0x4               output\grbl.o
UDPTxCount          0x2               output\UDP.o
linear_per_segment  0x4               output\motion_control.o
tempB               0x4               output\exceptions.o
coord_offset_eep    0xc               output\grbl_gcode.o
stepper_st          0x28              output\stepper.o
dummyPORT4          0x4               output\grbl.o
tempA               0x4               output\exceptions.o
r_axisi             0x4               output\motion_control.o
control_signal_bitmap
                    0x4               output\usb_function_cdc.o
USBDeferINDataStagePackets
                    0x4               output\usb_device.o
BDT                 0x60              output\usb_device.o
CtrlTrfData         0x8               output\usb_device.o
theta_per_segment   0x4               output\motion_control.o
next_buffer_head    0x1               output\planner.o
settings            0x70              output\settings.o
eep_coord_teached   0xa               output\settings.o
prep                0x38              output\stepper.o
USBDeferOUTDataStagePackets
                    0x4               output\usb_device.o
myRingBuffer_hid_rx
                    0x18              output\usb_grbl_multi.o
USBDeviceState      0x4               output\usb_device.o
sin_Ti              0x4               output\motion_control.o
dummyTRIS1          0x4               output\grbl.o
controlTransferState
                    0x1               output\usb_device.o
cdc_tx_len          0x1               output\usb_function_cdc.o
segment_buffer      0x120             output\stepper.o
myRingBuffer_hid_tx
                    0x18              output\usb_grbl_multi.o
endpoint_number     0x1               output\usb_device.o
pCDCSrc             0x4               output\usb_function_cdc.o
dummyLAT1           0x4               output\grbl.o
eep_manager_write_all_trigger
                    0x3c              output\eep_manager.o
dummyTRIS3          0x4               output\grbl.o
_excep_code         0x4               output\exceptions.o
sys                 0x14              output\system.o
tempResult          0x4               output\exceptions.o
ReceivedDataBuffer_grbl_ethernet_multi
                    0x40              output\ethernet_grbl_multi.o
cdc_data_tx         0x40              output\usb_function_cdc.o
axis_linear_buffer  0x1               output\motion_control.o
cos_T               0x4               output\motion_control.o
gc_state            0x44              output\grbl_gcode.o
ClientSock          0x1               output\ethernet_grbl_multi.o
inPipes             0x10              output\usb_device.o
pBDTEntryIn         0xc               output\usb_device.o
CDCDataOutHandle    0x4               output\usb_function_cdc.o
gcodePositionSave   0x4               output\grbl_eeprom.o
cdc_rx_len          0x1               output\usb_function_cdc.o
dummyPORT7          0x4               output\grbl.o
myRingBuffer_grbl_protocol_rx
                    0x18              output\grbl_protocol.o
read_dee_page_size  0x4               output\dee_page.o
r_axis0             0x4               output\motion_control.o
limit_filter_state  0x4               output\grbl_limits.o
activeUDPSocket     0x1               output\UDP.o
line_coding         0x8               output\usb_function_cdc.o
block_buffer_tail   0x1               output\planner.o
ep_data_out         0x3               output\usb_device.o
remoteNode          0xa               output\StackTsk.o
limits_set_state_filtered_currentState
                    0x1               output\grbl_limits.o
plan_data           0xc               output\grbl_limits.o
axis_0_buffer       0x1               output\motion_control.o
dummyTRIS5          0x4               output\grbl.o
eth_tx              0x200             output\ethernet_grbl_multi.o
gc_block            0x40              output\grbl_gcode.o
USBStatusStageEnabledFlag1
                    0x4               output\usb_device.o
read_dee_page       0x4               output\dee_page.o
dataEEFlags         0x4               output\dee.o
pl_block            0x4               output\stepper.o
ReceivedDataBuffer  0x40              output\usb_grbl_multi.o
target_buffer       0xc               output\motion_control.o
dummyPORT2          0x4               output\grbl.o
taskLists           0x480             output\task.o
r_axis1             0x4               output\motion_control.o
BaudRateGen         0x4               output\usb_function_cdc.o
USBStatusStageEnabledFlag2
                    0x4               output\usb_device.o
pBDTEntryOut        0xc               output\usb_device.o
check_is_delay      0x4               output\grbl_eeprom.o
eep_settings_backup
                    0x70              output\settings.o
myRingBuffer_eth_rx
                    0x18              output\ethernet_grbl_multi.o
offset_buffer       0xc               output\motion_control.o
CDCDataInHandle     0x4               output\usb_function_cdc.o
sys_probe_position  0xc               output\system.o
BothEP0OutUOWNsSet  0x4               output\usb_device.o
sin_T               0x4               output\motion_control.o
pl                  0x1c              output\planner.o
cdc_data_rx         0x40              output\usb_function_cdc.o
cycle_mask_buffer   0x1               output\motion_control.o
dummyLAT3           0x4               output\grbl.o
cdc_notice          0xa               output\usb_function_cdc.o
dummyTRIS4          0x4               output\grbl.o
pBDTEntryEP0OutNext
                    0x4               output\usb_device.o
st_block_buffer     0x1cc             output\stepper.o
sys_position        0xc               output\system.o
eeprom_write_buffer
                    0x400             output\eeprom.o
USBBusIsSuspended   0x4               output\usb_device.o
pl_data_buffer      0xc               output\motion_control.o
_excep_addr         0x4               output\exceptions.o
addr                0x10              output\ethernet_grbl_multi.o
dummyLAT5           0x4               output\grbl.o
AppConfig           0x33              output\ethernet.o
coord_system_eep    0xc               output\grbl_gcode.o
grbl_bootloader_timer
                    0x4               output\grbl_bootloader.o
step_pin            0x3               output\grbl_limits.o
USBStatusStageTimeoutCounter
                    0x1               output\usb_device.o
line_buffer         0x50              output\grbl_protocol.o
radius_buffer       0x4               output\motion_control.o
ToSendDataBuffer_grbl_ethernet_multi
                    0x40              output\ethernet_grbl_multi.o
ToSendDataBuffer    0x40              output\usb_grbl_multi.o
cdc_trf_state       0x1               output\usb_function_cdc.o
eep_settings        0x70              output\settings.o
UDPRxCount          0x2               output\UDP.o
SetupPkt            0x8               output\usb_device.o
dummyLAT7           0x4               output\grbl.o
dummyLAT2           0x4               output\grbl.o
dummyPORT5          0x4               output\grbl.o
eth_rx              0x200             output\ethernet_grbl_multi.o
pCDCDst             0x4               output\usb_function_cdc.o
st_prep_block       0x4               output\stepper.o
is_clockwise_arc_buffer
                    0x1               output\motion_control.o
cdc_mem_type        0x1               output\usb_function_cdc.o
hid_rx              0x200             output\usb_grbl_multi.o
system_suspendTime  0x4               output\system.o
dummyTRIS7          0x4               output\grbl.o
ep_data_in          0x3               output\usb_device.o
center_axis1        0x4               output\motion_control.o
bsdServerSocket     0x1               output\ethernet_grbl_multi.o
myRingBuffer_eth_tx
                    0x18              output\ethernet_grbl_multi.o
pwm_duty            0x40              output\pwm.o
shortPacketStatus   0x1               output\usb_device.o
pBDTEntryEP0OutCurrent
                    0x4               output\usb_device.o
USBActiveConfiguration
                    0x1               output\usb_device.o
RemoteWakeup        0x4               output\usb_device.o
grbl_protocol_rx    0x80              output\grbl_protocol.o
dummyLAT6           0x4               output\grbl.o
dummyTRIS2          0x4               output\grbl.o
block_buffer_planned
                    0x1               output\planner.o
block_buffer        0xd00             output\planner.o
enc28j60_timer      0x4               output\ENC28J60.o
stepper_idle_lock_timer
                    0x4               output\stepper.o
hid_tx              0x200             output\usb_grbl_multi.o
dummyPORT3          0x4               output\grbl.o
dee_debug_page_status
                    0xc               output\dee_page.o
UDPSocketInfo       0xe0              output\UDP.o
segments_buffer     0x2               output\motion_control.o
USTATcopy           0x1               output\usb_device.o
USBAlternateInterface
                    0x2               output\usb_device.o
read_dee_page_startaddress
                    0x4               output\dee_page.o
outPipes            0xb               output\usb_device.o
StackTsk_Announce_autonomous
                    0x4               output\StackTsk.o
dummy_encapsulated_cmd_response
                    0x8               output\usb_function_cdc.o
USBDeferStatusStagePacket
                    0x4               output\usb_device.o
loopCntHistory      0xf0              output\main.o
position_buffer     0xc               output\motion_control.o
grbl_system_logger  0x180             output\system.o
eep_manager_debug_address
                    0x3c              output\eep_manager.o
addRemote           0x10              output\ethernet_grbl_multi.o
cos_Ti              0x4               output\motion_control.o
target              0xc               output\grbl_limits.o
i_buffer            0x2               output\motion_control.o
dummyPORT6          0x4               output\grbl.o

Microchip PIC32 Memory-Usage Report

kseg0 Program-Memory Usage
section                    address  length [bytes]      (dec)  Description
-------                 ----------  -------------------------  -----------
.text                   0x9d007490          0xc64        3172  App's exec code 
.rodata.cst4            0x9d0080f4            0xc          12   
_038003f065ac025f       0x9d008100            0xc          12   
.text.finitel           0x9d00810c           0x14          20   
_0380048065ac025f       0x9d008120            0xc          12   
.rodata.cst4            0x9d00812c           0x14          20   
_0380051065ac025f       0x9d008140            0xc          12   
.rodata.cst4            0x9d00814c           0x14          20   
_038005a065ac025f       0x9d008160           0x14          20   
.rodata.str1.4          0x9d008174           0x1c          28   
_03fe5f3065ac025f       0x9d008190            0xc          12   
.text                   0x9d00819c         0x330c       13068  App's exec code 
.text                   0x9d00b4a8         0x2a54       10836  App's exec code 
.text.atan2             0x9d00defc         0x1254        4692   
.text                   0x9d00f150         0x2030        8240  App's exec code 
.text                   0x9d011180         0x1b0c        6924  App's exec code 
.text                   0x9d012c8c         0x17fc        6140  App's exec code 
.text                   0x9d014488          0xafc        2812  App's exec code 
.rodata.str1.4          0x9d014f84          0xa30        2608   
.text                   0x9d0159b4         0x12ec        4844  App's exec code 
.text                   0x9d016ca0          0xe50        3664  App's exec code 
.dinit                  0x9d017af0          0x690        1680   
.text                   0x9d018180          0xc20        3104  App's exec code 
.text                   0x9d018da0          0xb8c        2956  App's exec code 
.text                   0x9d01992c          0xb20        2848  App's exec code 
.text.dp32mul           0x9d01a44c          0x4b8        1208   
.text                   0x9d01a904          0x92c        2348  App's exec code 
.text                   0x9d01b230          0x8ec        2284  App's exec code 
.text.dreml             0x9d01bb1c          0x454        1108   
.text.dp32subadd        0x9d01bf70          0x430        1072   
.text                   0x9d01c3a0          0x7d0        2000  App's exec code 
.text                   0x9d01cb70          0x760        1888  App's exec code 
.text                   0x9d01d2d0          0x6d0        1744  App's exec code 
.text                   0x9d01d9a0          0x33c         828  App's exec code 
.text.dp32mul           0x9d01dcdc          0x32c         812   
.text.libm              0x9d01e008          0x328         808   
.text                   0x9d01e330          0x5e8        1512  App's exec code 
.text                   0x9d01e918          0x2a4         676  App's exec code 
.text.exsqrt            0x9d01ebbc          0x29c         668   
.text                   0x9d01ee58          0x50c        1292  App's exec code 
.text                   0x9d01f364          0x278         632  App's exec code 
.text.fpsubadd          0x9d01f5dc          0x278         632   
.text                   0x9d01f854          0x260         608  App's exec code 
.text.fp32div           0x9d01fab4          0x230         560   
.text                   0x9d01fce4          0x42c        1068  App's exec code 
.text                   0x9d020110          0x1e8         488  App's exec code 
.text.fp32mul           0x9d0202f8          0x1bc         444   
.text.libm              0x9d0204b4          0x1b8         440   
.text                   0x9d02066c          0x1a8         424  App's exec code 
.text.libm              0x9d020814          0x1a4         420   
.text                   0x9d0209b8          0x30c         780  App's exec code 
.text.libm              0x9d020cc4          0x16c         364   
.text                   0x9d020e30          0x2d0         720  App's exec code 
.text                   0x9d021100          0x2b4         692  App's exec code 
.text                   0x9d0213b4          0x150         336  App's exec code 
.rodata                 0x9d021504          0x13c         316  Read-only const 
.text                   0x9d021640          0x138         312  App's exec code 
.text.dpcmp             0x9d021778          0x12c         300   
.text.dfcmplt           0x9d0218a4          0x12c         300   
.text                   0x9d0219d0          0x120         288  App's exec code 
.text.logbl             0x9d021af0          0x120         288   
.text.libm              0x9d021c10          0x10c         268   
.text                   0x9d021d1c          0x108         264  App's exec code 
.rodata                 0x9d021e24          0x100         256  Read-only const 
.text.libm              0x9d021f24          0x100         256   
.text.dptofp            0x9d022024          0x100         256   
.text.libm.fpexsqrt     0x9d022124           0xfc         252   
.text                   0x9d022220          0x1e0         480  App's exec code 
.text                   0x9d022400          0x1d0         464  App's exec code 
.text.general_exception 0x9d0225d0           0xdc         220   
.text                   0x9d0226ac           0xd8         216  App's exec code 
.rodata                 0x9d022784           0xd4         212  Read-only const 
.text.libm              0x9d022858           0xd0         208   
.text                   0x9d022928           0xc8         200  App's exec code 
.rodata.cst8            0x9d0229f0           0xc8         200   
.text                   0x9d022ab8           0xbc         188  App's exec code 
.text.fptodp            0x9d022b74           0xac         172   
.text                   0x9d022c20          0x14c         332  App's exec code 
.text.fpcmp             0x9d022d6c           0x9c         156   
.text.fpcmplt           0x9d022e08           0x9c         156   
.text                   0x9d022ea4          0x130         304  App's exec code 
.text.dptoli            0x9d022fd4           0x90         144   
.text.dptoul            0x9d023064           0x8c         140   
.text.copysignf         0x9d0230f0           0x8c         140   
.text.isinff            0x9d02317c           0x88         136   
.text.sqrtl             0x9d023204           0x84         132   
.text.dinit.startup     0x9d023288           0x80         128   
.text.fptoli            0x9d023308           0x80         128   
.text.dremf             0x9d023388           0x80         128   
.text.isinf             0x9d023408           0x80         128   
.text.fptoul            0x9d023488           0x7c         124   
.text.litodp            0x9d023504           0x78         120   
.text                   0x9d02357c           0xe8         232  App's exec code 
.rodata.cst4            0x9d023664            0xc          12   
.text                   0x9d023670           0x70         112  App's exec code 
.text.ldexpl            0x9d0236e0           0x6c         108   
.text.__unorddf2        0x9d02374c           0x68         104   
.text.sitofp            0x9d0237b4           0x60          96   
.text.main_entry        0x9d023814           0x54          84   
.text.stpncpy           0x9d023868           0x4c          76   
.rodata.cst4            0x9d0238b4           0x48          72   
.text                   0x9d0238fc           0x48          72  App's exec code 
.text._bootstrap_except 0x9d023944           0x48          72   
.vector_default         0x9d02398c           0x48          72   
.text.strncmp           0x9d0239d4           0x48          72   
.rodata.str1.4          0x9d023a1c           0x44          68   
.text                   0x9d023a60           0x84         132  App's exec code 
.text.logbf             0x9d023ae4           0x3c          60   
.text.finitef           0x9d023b20           0x34          52   
.text.isnanf            0x9d023b54           0x34          52   
.text                   0x9d023b88           0x30          48  App's exec code 
.rodata.cst8            0x9d023bb8           0x30          48   
.text.copysign          0x9d023be8           0x30          48   
.text.copysignl         0x9d023c18           0x2c          44   
.rodata.cst4            0x9d023c44            0x4           4   
.rodata.cst8            0x9d023c48           0x28          40   
.rodata.cst4            0x9d023c70           0x28          40   
.text.strncpy           0x9d023c98           0x28          40   
.text.isnanl            0x9d023cc0           0x24          36   
.text.isnan             0x9d023ce4           0x24          36   
.text.isinfl            0x9d023d08           0x24          36   
.rodata                 0x9d023d2c           0x20          32  Read-only const 
.text.dinit.startup     0x9d023d4c           0x20          32   
.rodata.cst4            0x9d023d6c            0x4           4   
.rodata.cst8            0x9d023d70           0x20          32   
.text.logb              0x9d023d90           0x1c          28   
.text.drem              0x9d023dac           0x1c          28   
.MIPS.abiflags          0x9d023dc8           0x18          24   
.rodata.cst8            0x9d023de0           0x18          24   
.rodata.cst4            0x9d023df8           0x18          24   
.rodata.str1.4          0x9d023e10           0x18          24   
.text                   0x9d023e28           0x18          24  App's exec code 
.text.finite            0x9d023e40           0x14          20   
.rodata                 0x9d023e54           0x10          16  Read-only const 
.rodata.cst4            0x9d023e64            0x4           4   
.rodata.cst8            0x9d023e68           0x20          32   
.rodata.cst8            0x9d023e88           0x10          16   
.rodata.cst4            0x9d023e98            0xc          12   
.rodata.str1.4          0x9d023ea4            0xc          12   
.rodata.cst8            0x9d023eb0            0x8           8   
.rodata.cst4            0x9d023eb8            0x8           8   
.rodata.cst8            0x9d023ec0           0x10          16   
.rodata.cst8            0x9d023ed0            0x8           8   
.text._on_reset         0x9d023ed8            0x8           8   
.text._on_bootstrap     0x9d023ee0            0x8           8   
.rodata.cst8            0x9d023ee8            0x8           8   
_037bd36065ac0260       0x9d030000         0x9000       36864   
.text                   0x9d039000         0x523c       21052  App's exec code 
.text                   0x9d03e23c         0x1c28        7208  App's exec code 
.text                   0x9d03fe64          0x19c         412  App's exec code 
      Total kseg0_program_mem used  :     0x2ca60      182880  78.7% of 0x38b70

kseg0 Boot-Memory Usage
section                    address  length [bytes]      (dec)  Description
-------                 ----------  -------------------------  -----------
         Total kseg0_boot_mem used  :           0           0  

Exception-Memory Usage 
section                    address  length [bytes]      (dec)  Description
-------                 ----------  -------------------------  -----------
.app_excpt              0x9d006180           0x10          16  General-Exception 
.vector_0               0x9d006200            0x8           8  Interrupt Vector 0 
.vector_1               0x9d006220            0x8           8  Interrupt Vector 1 
.vector_2               0x9d006240            0x8           8  Interrupt Vector 2 
.vector_3               0x9d006260            0x8           8  Interrupt Vector 3 
.vector_4               0x9d006280            0x8           8  Interrupt Vector 4 
.vector_5               0x9d0062a0            0x8           8  Interrupt Vector 5 
.vector_6               0x9d0062c0            0x8           8  Interrupt Vector 6 
.vector_7               0x9d0062e0            0x8           8  Interrupt Vector 7 
.vector_8               0x9d006300            0x8           8  Interrupt Vector 8 
.vector_9               0x9d006320            0x8           8  Interrupt Vector 9 
.vector_10              0x9d006340            0x8           8  Interrupt Vector 10 
.vector_11              0x9d006360            0x8           8  Interrupt Vector 11 
.vector_12              0x9d006380            0x8           8  Interrupt Vector 12 
.vector_13              0x9d0063a0            0x8           8  Interrupt Vector 13 
.vector_14              0x9d0063c0            0x8           8  Interrupt Vector 14 
.vector_15              0x9d0063e0            0x8           8  Interrupt Vector 15 
.vector_16              0x9d006400            0x8           8  Interrupt Vector 16 
.vector_17              0x9d006420            0x8           8  Interrupt Vector 17 
.vector_18              0x9d006440            0x8           8  Interrupt Vector 18 
.vector_19              0x9d006460            0x8           8  Interrupt Vector 19 
.vector_20              0x9d006480            0x8           8  Interrupt Vector 20 
.vector_21              0x9d0064a0            0x8           8  Interrupt Vector 21 
.vector_22              0x9d0064c0            0x8           8  Interrupt Vector 22 
.vector_23              0x9d0064e0            0x8           8  Interrupt Vector 23 
.vector_24              0x9d006500            0x8           8  Interrupt Vector 24 
.vector_25              0x9d006520            0x8           8  Interrupt Vector 25 
.vector_26              0x9d006540            0x8           8  Interrupt Vector 26 
.vector_27              0x9d006560            0x8           8  Interrupt Vector 27 
.vector_28              0x9d006580            0x8           8  Interrupt Vector 28 
.vector_29              0x9d0065a0            0x8           8  Interrupt Vector 29 
.vector_30              0x9d0065c0            0x8           8  Interrupt Vector 30 
.vector_31              0x9d0065e0            0x8           8  Interrupt Vector 31 
.vector_32              0x9d006600            0x8           8  Interrupt Vector 32 
.vector_33              0x9d006620            0x8           8  Interrupt Vector 33 
.vector_34              0x9d006640            0x8           8  Interrupt Vector 34 
.vector_35              0x9d006660            0x8           8  Interrupt Vector 35 
.vector_36              0x9d006680            0x8           8  Interrupt Vector 36 
.vector_37              0x9d0066a0            0x8           8  Interrupt Vector 37 
.vector_38              0x9d0066c0            0x8           8  Interrupt Vector 38 
.vector_39              0x9d0066e0            0x8           8  Interrupt Vector 39 
.vector_40              0x9d006700            0x8           8  Interrupt Vector 40 
.vector_41              0x9d006720            0x8           8  Interrupt Vector 41 
.vector_42              0x9d006740            0x8           8  Interrupt Vector 42 
.vector_43              0x9d006760            0x8           8  Interrupt Vector 43 
.vector_44              0x9d006780            0x8           8  Interrupt Vector 44 
.vector_45              0x9d0067a0            0x8           8  Interrupt Vector 45 
          Total exception_mem used  :       0x180         384  9.4% of 0x1000

kseg1 Boot-Memory Usage
section                    address  length [bytes]      (dec)  Description
-------                 ----------  -------------------------  -----------
.reset                  0x9d007000          0x19c         412  Reset handler 
.bev_excpt              0x9d007380           0x10          16  BEV-Exception 
         Total kseg1_boot_mem used  :       0x1ac         428  36.6% of 0x490
        --------------------------------------------------------------------------
         Total Program Memory used  :     0x2cd8c      183692  77.3% of 0x3a000
        --------------------------------------------------------------------------


Data-Memory Usage
section                    address  length [bytes]      (dec)  Description
-------                 ----------  -------------------------  -----------
.persist                0xa0001000            0x4           4   
.sdata                  0xa0001004           0x58          88  Small init data 
.sbss                   0xa000105c          0x474        1140  Small uninit data 
.data                   0xa00014d0          0x12c         300  Initialized data 
.data.math_errhandling_ 0xa00015fc            0x4           4   
.bss                    0xa0001600         0x2cb0       11440  Uninitialized data 
.data                   0xa00042b0           0x88         136  Initialized data 
.bss                    0xa0004338          0x1f0         496  Uninitialized data 
.bss                    0xa0004528           0x54          84  Uninitialized data 
.bss                    0xa000457c           0x36          54  Uninitialized data 
.bss                    0xa00045b4            0xc          12  Uninitialized data 
.bss.errno              0xa00045c0            0x4           4   
         Total kseg0/kseg1 data_mem used  :      0x35c2       13762  48.0% of 0x7000
        --------------------------------------------------------------------------
            Total Data Memory used  :      0x35c2       13762  48.0% of 0x7000
        --------------------------------------------------------------------------


Dynamic Data-Memory Reservation
section                    address  length [bytes]      (dec)  Description
-------                 ----------  -------------------------  -----------
heap                    0xa00045c8         0x1000        4096  Reserved for heap 
stack                   0xa00055e0         0x2a10       10768  Reserved for stack 

        --------------------------------------------------------------------------

Discarded input sections

 .xc_stack_usage.hdr
                0x0000000000000000        0xe c:/program files/microchip/xc32/v4.20/bin/bin/../../lib/gcc/pic32mx/8.3.1/../../../../pic32mx/lib\debug-exception-return.o
 .xc_stack_usage
                0x0000000000000000       0x1d c:/program files/microchip/xc32/v4.20/bin/bin/../../lib/gcc/pic32mx/8.3.1/../../../../pic32mx/lib\debug-exception-return.o
 .reginfo       0x0000000000000000       0x18 output\tmr.o
 .MIPS.abiflags
                0x0000000000000000       0x18 output\tmr.o
 .reginfo       0x0000000000000000       0x18 output\mal.o
 .MIPS.abiflags
                0x0000000000000000       0x18 output\mal.o
 .reginfo       0x0000000000000000       0x18 output\ringBuffer.o
 .MIPS.abiflags
                0x0000000000000000       0x18 output\ringBuffer.o
 .reginfo       0x0000000000000000       0x18 output\task.o
 .MIPS.abiflags
                0x0000000000000000       0x18 output\task.o
 .reginfo       0x0000000000000000       0x18 output\sleep.o
 .MIPS.abiflags
                0x0000000000000000       0x18 output\sleep.o
 .reginfo       0x0000000000000000       0x18 output\eeprom.o
 .MIPS.abiflags
                0x0000000000000000       0x18 output\eeprom.o
 .reginfo       0x0000000000000000       0x18 output\eep_manager.o
 .MIPS.abiflags
                0x0000000000000000       0x18 output\eep_manager.o
 .reginfo       0x0000000000000000       0x18 output\usb.o
 .MIPS.abiflags
                0x0000000000000000       0x18 output\usb.o
 .reginfo       0x0000000000000000       0x18 output\usb_descriptors.o
 .MIPS.abiflags
                0x0000000000000000       0x18 output\usb_descriptors.o
 .reginfo       0x0000000000000000       0x18 output\usb_device.o
 .MIPS.abiflags
                0x0000000000000000       0x18 output\usb_device.o
 .reginfo       0x0000000000000000       0x18 output\exceptions.o
 .MIPS.abiflags
                0x0000000000000000       0x18 output\exceptions.o
 .reginfo       0x0000000000000000       0x18 output\isr.o
 .MIPS.abiflags
                0x0000000000000000       0x18 output\isr.o
 .reginfo       0x0000000000000000       0x18 output\main.o
 .MIPS.abiflags
                0x0000000000000000       0x18 output\main.o
 .reginfo       0x0000000000000000       0x18 output\c_eep_manager.o
 .MIPS.abiflags
                0x0000000000000000       0x18 output\c_eep_manager.o
 .reginfo       0x0000000000000000       0x18 output\app.o
 .MIPS.abiflags
                0x0000000000000000       0x18 output\app.o
 .reginfo       0x0000000000000000       0x18 output\ad.o
 .MIPS.abiflags
                0x0000000000000000       0x18 output\ad.o
 .reginfo       0x0000000000000000       0x18 output\grbl_gcode.o
 .MIPS.abiflags
                0x0000000000000000       0x18 output\grbl_gcode.o
 .reginfo       0x0000000000000000       0x18 output\grbl_limits.o
 .MIPS.abiflags
                0x0000000000000000       0x18 output\grbl_limits.o
 .reginfo       0x0000000000000000       0x18 output\coolant_control.o
 .MIPS.abiflags
                0x0000000000000000       0x18 output\coolant_control.o
 .reginfo       0x0000000000000000       0x18 output\motion_control.o
 .MIPS.abiflags
                0x0000000000000000       0x18 output\motion_control.o
 .reginfo       0x0000000000000000       0x18 output\nuts_bolts.o
 .MIPS.abiflags
                0x0000000000000000       0x18 output\nuts_bolts.o
 .reginfo       0x0000000000000000       0x18 output\planner.o
 .MIPS.abiflags
                0x0000000000000000       0x18 output\planner.o
 .reginfo       0x0000000000000000       0x18 output\print.o
 .MIPS.abiflags
                0x0000000000000000       0x18 output\print.o
 .reginfo       0x0000000000000000       0x18 output\report.o
 .MIPS.abiflags
                0x0000000000000000       0x18 output\report.o
 .reginfo       0x0000000000000000       0x18 output\settings.o
 .MIPS.abiflags
                0x0000000000000000       0x18 output\settings.o
 .reginfo       0x0000000000000000       0x18 output\spindle_control.o
 .MIPS.abiflags
                0x0000000000000000       0x18 output\spindle_control.o
 .reginfo       0x0000000000000000       0x18 output\stepper.o
 .MIPS.abiflags
                0x0000000000000000       0x18 output\stepper.o
 .reginfo       0x0000000000000000       0x18 output\system.o
 .MIPS.abiflags
                0x0000000000000000       0x18 output\system.o
 .reginfo       0x0000000000000000       0x18 output\grbl.o
 .MIPS.abiflags
                0x0000000000000000       0x18 output\grbl.o
 .reginfo       0x0000000000000000       0x18 output\pwm.o
 .MIPS.abiflags
                0x0000000000000000       0x18 output\pwm.o
 .reginfo       0x0000000000000000       0x18 output\jog.o
 .MIPS.abiflags
                0x0000000000000000       0x18 output\jog.o
 .reginfo       0x0000000000000000       0x18 output\usb_function_cdc.o
 .MIPS.abiflags
                0x0000000000000000       0x18 output\usb_function_cdc.o
 .reginfo       0x0000000000000000       0x18 output\dee.o
 .MIPS.abiflags
                0x0000000000000000       0x18 output\dee.o
 .reginfo       0x0000000000000000       0x18 output\dee_page.o
 .MIPS.abiflags
                0x0000000000000000       0x18 output\dee_page.o
 .reginfo       0x0000000000000000       0x18 output\dee_page_helper.o
 .MIPS.abiflags
                0x0000000000000000       0x18 output\dee_page_helper.o
 .reginfo       0x0000000000000000       0x18 output\eep_manager_crc.o
 .MIPS.abiflags
                0x0000000000000000       0x18 output\eep_manager_crc.o
 .reginfo       0x0000000000000000       0x18 output\system_control.o
 .MIPS.abiflags
                0x0000000000000000       0x18 output\system_control.o
 .reginfo       0x0000000000000000       0x18 output\stepper_enable.o
 .MIPS.abiflags
                0x0000000000000000       0x18 output\stepper_enable.o
 .reginfo       0x0000000000000000       0x18 output\system_exec.o
 .MIPS.abiflags
                0x0000000000000000       0x18 output\system_exec.o
 .reginfo       0x0000000000000000       0x18 output\system_alarm.o
 .MIPS.abiflags
                0x0000000000000000       0x18 output\system_alarm.o
 .reginfo       0x0000000000000000       0x18 output\grbl_eeprom.o
 .MIPS.abiflags
                0x0000000000000000       0x18 output\grbl_eeprom.o
 .reginfo       0x0000000000000000       0x18 output\bootloader_interface.o
 .MIPS.abiflags
                0x0000000000000000       0x18 output\bootloader_interface.o
 .reginfo       0x0000000000000000       0x18 output\grbl_toolchange.o
 .MIPS.abiflags
                0x0000000000000000       0x18 output\grbl_toolchange.o
 .reginfo       0x0000000000000000       0x18 output\stackmeasure.o
 .MIPS.abiflags
                0x0000000000000000       0x18 output\stackmeasure.o
 .reginfo       0x0000000000000000       0x18 output\stackmeasure_helper.o
 .MIPS.abiflags
                0x0000000000000000       0x18 output\stackmeasure_helper.o
 .reginfo       0x0000000000000000       0x18 output\grbl_protocol.o
 .MIPS.abiflags
                0x0000000000000000       0x18 output\grbl_protocol.o
 .reginfo       0x0000000000000000       0x18 output\grbl_running.o
 .MIPS.abiflags
                0x0000000000000000       0x18 output\grbl_running.o
 .reginfo       0x0000000000000000       0x18 output\grbl_bootloader.o
 .MIPS.abiflags
                0x0000000000000000       0x18 output\grbl_bootloader.o
 .reginfo       0x0000000000000000       0x18 output\grbl_probe.o
 .MIPS.abiflags
                0x0000000000000000       0x18 output\grbl_probe.o
 .reginfo       0x0000000000000000       0x18 output\ethernet.o
 .MIPS.abiflags
                0x0000000000000000       0x18 output\ethernet.o
 .reginfo       0x0000000000000000       0x18 output\ENC28J60.o
 .MIPS.abiflags
                0x0000000000000000       0x18 output\ENC28J60.o
 .reginfo       0x0000000000000000       0x18 output\DHCP.o
 .MIPS.abiflags
                0x0000000000000000       0x18 output\DHCP.o
 .reginfo       0x0000000000000000       0x18 output\ARP.o
 .MIPS.abiflags
                0x0000000000000000       0x18 output\ARP.o
 .reginfo       0x0000000000000000       0x18 output\Announce.o
 .MIPS.abiflags
                0x0000000000000000       0x18 output\Announce.o
 .reginfo       0x0000000000000000       0x18 output\Helpers.o
 .MIPS.abiflags
                0x0000000000000000       0x18 output\Helpers.o
 .reginfo       0x0000000000000000       0x18 output\ICMP.o
 .MIPS.abiflags
                0x0000000000000000       0x18 output\ICMP.o
 .reginfo       0x0000000000000000       0x18 output\IP.o
 .MIPS.abiflags
                0x0000000000000000       0x18 output\IP.o
 .reginfo       0x0000000000000000       0x18 output\StackTsk.o
 .MIPS.abiflags
                0x0000000000000000       0x18 output\StackTsk.o
 .reginfo       0x0000000000000000       0x18 output\UDP.o
 .MIPS.abiflags
                0x0000000000000000       0x18 output\UDP.o
 .reginfo       0x0000000000000000       0x18 output\usb_grbl_multi.o
 .MIPS.abiflags
                0x0000000000000000       0x18 output\usb_grbl_multi.o
 .reginfo       0x0000000000000000       0x18 output\ethernet_grbl_multi.o
 .MIPS.abiflags
                0x0000000000000000       0x18 output\ethernet_grbl_multi.o
 .reginfo       0x0000000000000000       0x18 output\grbl_multi.o
 .MIPS.abiflags
                0x0000000000000000       0x18 output\grbl_multi.o
 .reginfo       0x0000000000000000       0x18 output\Reboot.o
 .MIPS.abiflags
                0x0000000000000000       0x18 output\Reboot.o
 .reginfo       0x0000000000000000       0x18 output\TCP.o
 .MIPS.abiflags
                0x0000000000000000       0x18 output\TCP.o
 .reginfo       0x0000000000000000       0x18 output\BerkeleyAPI.o
 .MIPS.abiflags
                0x0000000000000000       0x18 output\BerkeleyAPI.o
 .reginfo       0x0000000000000000       0x18 output\noinitram.o
 .MIPS.abiflags
                0x0000000000000000       0x18 output\noinitram.o
 .reginfo       0x0000000000000000       0x18 c:/program files/microchip/xc32/v4.20/bin/bin/../../lib/gcc/pic32mx/8.3.1/../../../../pic32mx/lib/./proc/32MX440F256H\processor.o
 .MIPS.abiflags
                0x0000000000000000       0x18 c:/program files/microchip/xc32/v4.20/bin/bin/../../lib/gcc/pic32mx/8.3.1/../../../../pic32mx/lib/./proc/32MX440F256H\processor.o
 .reginfo       0x0000000000000000       0x18 C:\Users\kyrk\AppData\Local\Temp\ccC6iq7L.o
 .MIPS.abiflags
                0x0000000000000000       0x18 C:\Users\kyrk\AppData\Local\Temp\ccC6iq7L.o
 .reginfo       0x0000000000000000       0x18 C:\Users\kyrk\AppData\Local\Temp\ccgwFKT5.o
 .MIPS.abiflags
                0x0000000000000000       0x18 C:\Users\kyrk\AppData\Local\Temp\ccgwFKT5.o
 .reginfo       0x0000000000000000       0x18 C:\Users\kyrk\AppData\Local\Temp\ccMtDgJu.o
 .MIPS.abiflags
                0x0000000000000000       0x18 C:\Users\kyrk\AppData\Local\Temp\ccMtDgJu.o
 .discard       0x0000000000000000       0xb8 C:\Users\kyrk\AppData\Local\Temp\ccMtDgJu.o
 .reginfo       0x0000000000000000       0x18 c:/program files/microchip/xc32/v4.20/bin/bin/../../lib/gcc/pic32mx/8.3.1/../../../../pic32mx/lib/./proc/32MX440F256H\default_isr_vectors.o
 .MIPS.abiflags
                0x0000000000000000       0x18 c:/program files/microchip/xc32/v4.20/bin/bin/../../lib/gcc/pic32mx/8.3.1/../../../../pic32mx/lib/./proc/32MX440F256H\default_isr_vectors.o
 .discard       0x0000000000000000       0xb8 c:/program files/microchip/xc32/v4.20/bin/bin/../../lib/gcc/pic32mx/8.3.1/../../../../pic32mx/lib/./proc/32MX440F256H\default_isr_vectors.o
 .reginfo       0x0000000000000000       0x18 c:/program files/microchip/xc32/v4.20/bin/bin/../../lib/gcc/pic32mx/8.3.1/../../../../pic32mx/lib\pic32_software_reset.o
 .MIPS.abiflags
                0x0000000000000000       0x18 c:/program files/microchip/xc32/v4.20/bin/bin/../../lib/gcc/pic32mx/8.3.1/../../../../pic32mx/lib\pic32_software_reset.o
 .xc_stack_usage.hdr
                0x0000000000000000        0xe c:/program files/microchip/xc32/v4.20/bin/bin/../../lib/gcc/pic32mx/8.3.1/../../../../pic32mx/lib\pic32_software_reset.o
 .xc_stack_usage
                0x0000000000000000       0x24 c:/program files/microchip/xc32/v4.20/bin/bin/../../lib/gcc/pic32mx/8.3.1/../../../../pic32mx/lib\pic32_software_reset.o
 .reginfo       0x0000000000000000       0x18 c:/program files/microchip/xc32/v4.20/bin/bin/../../lib/gcc/pic32mx/8.3.1\libgcc.a(_fixunssfdi.o)
 .MIPS.abiflags
                0x0000000000000000       0x18 c:/program files/microchip/xc32/v4.20/bin/bin/../../lib/gcc/pic32mx/8.3.1\libgcc.a(_fixunssfdi.o)
 .xc_stack_usage
                0x0000000000000000       0x1a c:/program files/microchip/xc32/v4.20/bin/bin/../../lib/gcc/pic32mx/8.3.1\libgcc.a(_fixunssfdi.o)
 .xc_stack_usage.hdr
                0x0000000000000000        0xe c:/program files/microchip/xc32/v4.20/bin/bin/../../lib/gcc/pic32mx/8.3.1\libgcc.a(_fixunssfdi.o)
 .reginfo       0x0000000000000000       0x18 c:/program files/microchip/xc32/v4.20/bin/bin/../../lib/gcc/pic32mx/8.3.1\libgcc.a(_floatundidf.o)
 .MIPS.abiflags
                0x0000000000000000       0x18 c:/program files/microchip/xc32/v4.20/bin/bin/../../lib/gcc/pic32mx/8.3.1\libgcc.a(_floatundidf.o)
 .xc_stack_usage
                0x0000000000000000       0x1b c:/program files/microchip/xc32/v4.20/bin/bin/../../lib/gcc/pic32mx/8.3.1\libgcc.a(_floatundidf.o)
 .xc_stack_usage.hdr
                0x0000000000000000        0xe c:/program files/microchip/xc32/v4.20/bin/bin/../../lib/gcc/pic32mx/8.3.1\libgcc.a(_floatundidf.o)
 .reginfo       0x0000000000000000       0x18 c:/program files/microchip/xc32/v4.20/bin/bin/../../lib/gcc/pic32mx/8.3.1\libgcc.a(floatunsisf.o)
 .MIPS.abiflags
                0x0000000000000000       0x18 c:/program files/microchip/xc32/v4.20/bin/bin/../../lib/gcc/pic32mx/8.3.1\libgcc.a(floatunsisf.o)
 .xc_stack_usage
                0x0000000000000000       0x1b c:/program files/microchip/xc32/v4.20/bin/bin/../../lib/gcc/pic32mx/8.3.1\libgcc.a(floatunsisf.o)
 .xc_stack_usage.hdr
                0x0000000000000000        0xe c:/program files/microchip/xc32/v4.20/bin/bin/../../lib/gcc/pic32mx/8.3.1\libgcc.a(floatunsisf.o)
 .reginfo       0x0000000000000000       0x18 c:/program files/microchip/xc32/v4.20/bin/bin/../../lib/gcc/pic32mx/8.3.1\libgcc.a(floatunsidf.o)
 .MIPS.abiflags
                0x0000000000000000       0x18 c:/program files/microchip/xc32/v4.20/bin/bin/../../lib/gcc/pic32mx/8.3.1\libgcc.a(floatunsidf.o)
 .xc_stack_usage
                0x0000000000000000       0x1b c:/program files/microchip/xc32/v4.20/bin/bin/../../lib/gcc/pic32mx/8.3.1\libgcc.a(floatunsidf.o)
 .xc_stack_usage.hdr
                0x0000000000000000        0xe c:/program files/microchip/xc32/v4.20/bin/bin/../../lib/gcc/pic32mx/8.3.1\libgcc.a(floatunsidf.o)
 .reginfo       0x0000000000000000       0x18 c:/program files/microchip/xc32/v4.20/bin/bin/../../lib/gcc/pic32mx/8.3.1/../../../../pic32mx/lib\libpic32.a(memcmp.o)
 .MIPS.abiflags
                0x0000000000000000       0x18 c:/program files/microchip/xc32/v4.20/bin/bin/../../lib/gcc/pic32mx/8.3.1/../../../../pic32mx/lib\libpic32.a(memcmp.o)
 .xc_stack_usage.hdr
                0x0000000000000000        0xe c:/program files/microchip/xc32/v4.20/bin/bin/../../lib/gcc/pic32mx/8.3.1/../../../../pic32mx/lib\libpic32.a(memcmp.o)
 .xc_stack_usage
                0x0000000000000000       0x14 c:/program files/microchip/xc32/v4.20/bin/bin/../../lib/gcc/pic32mx/8.3.1/../../../../pic32mx/lib\libpic32.a(memcmp.o)
 .reginfo       0x0000000000000000       0x18 c:/program files/microchip/xc32/v4.20/bin/bin/../../lib/gcc/pic32mx/8.3.1/../../../../pic32mx/lib\libpic32.a(memcpy.o)
 .MIPS.abiflags
                0x0000000000000000       0x18 c:/program files/microchip/xc32/v4.20/bin/bin/../../lib/gcc/pic32mx/8.3.1/../../../../pic32mx/lib\libpic32.a(memcpy.o)
 .xc_stack_usage.hdr
                0x0000000000000000        0xe c:/program files/microchip/xc32/v4.20/bin/bin/../../lib/gcc/pic32mx/8.3.1/../../../../pic32mx/lib\libpic32.a(memcpy.o)
 .xc_stack_usage
                0x0000000000000000       0x14 c:/program files/microchip/xc32/v4.20/bin/bin/../../lib/gcc/pic32mx/8.3.1/../../../../pic32mx/lib\libpic32.a(memcpy.o)
 .reginfo       0x0000000000000000       0x18 c:/program files/microchip/xc32/v4.20/bin/bin/../../lib/gcc/pic32mx/8.3.1/../../../../pic32mx/lib\libpic32.a(memset.o)
 .MIPS.abiflags
                0x0000000000000000       0x18 c:/program files/microchip/xc32/v4.20/bin/bin/../../lib/gcc/pic32mx/8.3.1/../../../../pic32mx/lib\libpic32.a(memset.o)
 .xc_stack_usage.hdr
                0x0000000000000000        0xe c:/program files/microchip/xc32/v4.20/bin/bin/../../lib/gcc/pic32mx/8.3.1/../../../../pic32mx/lib\libpic32.a(memset.o)
 .xc_stack_usage
                0x0000000000000000       0x14 c:/program files/microchip/xc32/v4.20/bin/bin/../../lib/gcc/pic32mx/8.3.1/../../../../pic32mx/lib\libpic32.a(memset.o)
 .reginfo       0x0000000000000000       0x18 c:/program files/microchip/xc32/v4.20/bin/bin/../../lib/gcc/pic32mx/8.3.1/../../../../pic32mx/lib\libpic32.a(strcmp.o)
 .MIPS.abiflags
                0x0000000000000000       0x18 c:/program files/microchip/xc32/v4.20/bin/bin/../../lib/gcc/pic32mx/8.3.1/../../../../pic32mx/lib\libpic32.a(strcmp.o)
 .xc_stack_usage.hdr
                0x0000000000000000        0xe c:/program files/microchip/xc32/v4.20/bin/bin/../../lib/gcc/pic32mx/8.3.1/../../../../pic32mx/lib\libpic32.a(strcmp.o)
 .xc_stack_usage
                0x0000000000000000       0x14 c:/program files/microchip/xc32/v4.20/bin/bin/../../lib/gcc/pic32mx/8.3.1/../../../../pic32mx/lib\libpic32.a(strcmp.o)
 .reginfo       0x0000000000000000       0x18 c:/program files/microchip/xc32/v4.20/bin/bin/../../lib/gcc/pic32mx/8.3.1/../../../../pic32mx/lib\libpic32.a(strlen.o)
 .MIPS.abiflags
                0x0000000000000000       0x18 c:/program files/microchip/xc32/v4.20/bin/bin/../../lib/gcc/pic32mx/8.3.1/../../../../pic32mx/lib\libpic32.a(strlen.o)
 .xc_stack_usage.hdr
                0x0000000000000000        0xe c:/program files/microchip/xc32/v4.20/bin/bin/../../lib/gcc/pic32mx/8.3.1/../../../../pic32mx/lib\libpic32.a(strlen.o)
 .xc_stack_usage
                0x0000000000000000       0x14 c:/program files/microchip/xc32/v4.20/bin/bin/../../lib/gcc/pic32mx/8.3.1/../../../../pic32mx/lib\libpic32.a(strlen.o)
 .reginfo       0x0000000000000000       0x18 c:/program files/microchip/xc32/v4.20/bin/bin/../../lib/gcc/pic32mx/8.3.1/../../../../pic32mx/lib\libpic32.a(default-bootstrap-exception-handler.o)
 .MIPS.abiflags
                0x0000000000000000       0x18 c:/program files/microchip/xc32/v4.20/bin/bin/../../lib/gcc/pic32mx/8.3.1/../../../../pic32mx/lib\libpic32.a(default-bootstrap-exception-handler.o)
 .xc_stack_usage
                0x0000000000000000       0x2a c:/program files/microchip/xc32/v4.20/bin/bin/../../lib/gcc/pic32mx/8.3.1/../../../../pic32mx/lib\libpic32.a(default-bootstrap-exception-handler.o)
 .xc_stack_usage.hdr
                0x0000000000000000        0xe c:/program files/microchip/xc32/v4.20/bin/bin/../../lib/gcc/pic32mx/8.3.1/../../../../pic32mx/lib\libpic32.a(default-bootstrap-exception-handler.o)
 .reginfo       0x0000000000000000       0x18 c:/program files/microchip/xc32/v4.20/bin/bin/../../lib/gcc/pic32mx/8.3.1/../../../../pic32mx/lib\libpic32.a(default-on-reset.o)
 .MIPS.abiflags
                0x0000000000000000       0x18 c:/program files/microchip/xc32/v4.20/bin/bin/../../lib/gcc/pic32mx/8.3.1/../../../../pic32mx/lib\libpic32.a(default-on-reset.o)
 .xc_stack_usage
                0x0000000000000000       0x17 c:/program files/microchip/xc32/v4.20/bin/bin/../../lib/gcc/pic32mx/8.3.1/../../../../pic32mx/lib\libpic32.a(default-on-reset.o)
 .xc_stack_usage.hdr
                0x0000000000000000        0xe c:/program files/microchip/xc32/v4.20/bin/bin/../../lib/gcc/pic32mx/8.3.1/../../../../pic32mx/lib\libpic32.a(default-on-reset.o)
 .reginfo       0x0000000000000000       0x18 c:/program files/microchip/xc32/v4.20/bin/bin/../../lib/gcc/pic32mx/8.3.1/../../../../pic32mx/lib\libpic32.a(default-on-bootstrap.o)
 .MIPS.abiflags
                0x0000000000000000       0x18 c:/program files/microchip/xc32/v4.20/bin/bin/../../lib/gcc/pic32mx/8.3.1/../../../../pic32mx/lib\libpic32.a(default-on-bootstrap.o)
 .xc_stack_usage
                0x0000000000000000       0x1b c:/program files/microchip/xc32/v4.20/bin/bin/../../lib/gcc/pic32mx/8.3.1/../../../../pic32mx/lib\libpic32.a(default-on-bootstrap.o)
 .xc_stack_usage.hdr
                0x0000000000000000        0xe c:/program files/microchip/xc32/v4.20/bin/bin/../../lib/gcc/pic32mx/8.3.1/../../../../pic32mx/lib\libpic32.a(default-on-bootstrap.o)
 .reginfo       0x0000000000000000       0x18 c:/program files/microchip/xc32/v4.20/bin/bin/../../lib/gcc/pic32mx/8.3.1/../../../../pic32mx/lib\libpic32.a(default-nmi-handler.o)
 .MIPS.abiflags
                0x0000000000000000       0x18 c:/program files/microchip/xc32/v4.20/bin/bin/../../lib/gcc/pic32mx/8.3.1/../../../../pic32mx/lib\libpic32.a(default-nmi-handler.o)
 .xc_stack_usage.hdr
                0x0000000000000000        0xe c:/program files/microchip/xc32/v4.20/bin/bin/../../lib/gcc/pic32mx/8.3.1/../../../../pic32mx/lib\libpic32.a(default-nmi-handler.o)
 .xc_stack_usage
                0x0000000000000000       0x1a c:/program files/microchip/xc32/v4.20/bin/bin/../../lib/gcc/pic32mx/8.3.1/../../../../pic32mx/lib\libpic32.a(default-nmi-handler.o)
 .reginfo       0x0000000000000000       0x18 c:/program files/microchip/xc32/v4.20/bin/bin/../../lib/gcc/pic32mx/8.3.1/../../../../pic32mx/lib\libpic32.a(pic32_data_init_wrapper.o)
 .MIPS.abiflags
                0x0000000000000000       0x18 c:/program files/microchip/xc32/v4.20/bin/bin/../../lib/gcc/pic32mx/8.3.1/../../../../pic32mx/lib\libpic32.a(pic32_data_init_wrapper.o)
 .xc_stack_usage.hdr
                0x0000000000000000        0xe c:/program files/microchip/xc32/v4.20/bin/bin/../../lib/gcc/pic32mx/8.3.1/../../../../pic32mx/lib\libpic32.a(pic32_data_init_wrapper.o)
 .xc_stack_usage
                0x0000000000000000       0x1f c:/program files/microchip/xc32/v4.20/bin/bin/../../lib/gcc/pic32mx/8.3.1/../../../../pic32mx/lib\libpic32.a(pic32_data_init_wrapper.o)
 .reginfo       0x0000000000000000       0x18 c:/program files/microchip/xc32/v4.20/bin/bin/../../lib/gcc/pic32mx/8.3.1/../../../../pic32mx/lib\libpic32.a(pic32_data_init_0_1.o)
 .MIPS.abiflags
                0x0000000000000000       0x18 c:/program files/microchip/xc32/v4.20/bin/bin/../../lib/gcc/pic32mx/8.3.1/../../../../pic32mx/lib\libpic32.a(pic32_data_init_0_1.o)
 .xc_stack_usage.hdr
                0x0000000000000000        0xe c:/program files/microchip/xc32/v4.20/bin/bin/../../lib/gcc/pic32mx/8.3.1/../../../../pic32mx/lib\libpic32.a(pic32_data_init_0_1.o)
 .xc_stack_usage
                0x0000000000000000       0x24 c:/program files/microchip/xc32/v4.20/bin/bin/../../lib/gcc/pic32mx/8.3.1/../../../../pic32mx/lib\libpic32.a(pic32_data_init_0_1.o)
 .reginfo       0x0000000000000000       0x18 c:/program files/microchip/xc32/v4.20/bin/bin/../../lib/gcc/pic32mx/8.3.1/../../../../pic32mx/lib\libpic32.a(general-exception.o)
 .MIPS.abiflags
                0x0000000000000000       0x18 c:/program files/microchip/xc32/v4.20/bin/bin/../../lib/gcc/pic32mx/8.3.1/../../../../pic32mx/lib\libpic32.a(general-exception.o)
 .xc_stack_usage.hdr
                0x0000000000000000        0xe c:/program files/microchip/xc32/v4.20/bin/bin/../../lib/gcc/pic32mx/8.3.1/../../../../pic32mx/lib\libpic32.a(general-exception.o)
 .xc_stack_usage
                0x0000000000000000       0x28 c:/program files/microchip/xc32/v4.20/bin/bin/../../lib/gcc/pic32mx/8.3.1/../../../../pic32mx/lib\libpic32.a(general-exception.o)
 .reginfo       0x0000000000000000       0x18 c:/program files/microchip/xc32/v4.20/bin/bin/../../lib/gcc/pic32mx/8.3.1/../../../../pic32mx/lib\libpic32.a(vector1.o)
 .MIPS.abiflags
                0x0000000000000000       0x18 c:/program files/microchip/xc32/v4.20/bin/bin/../../lib/gcc/pic32mx/8.3.1/../../../../pic32mx/lib\libpic32.a(vector1.o)
 .xc_stack_usage.hdr
                0x0000000000000000        0xe c:/program files/microchip/xc32/v4.20/bin/bin/../../lib/gcc/pic32mx/8.3.1/../../../../pic32mx/lib\libpic32.a(vector1.o)
 .xc_stack_usage
                0x0000000000000000       0x21 c:/program files/microchip/xc32/v4.20/bin/bin/../../lib/gcc/pic32mx/8.3.1/../../../../pic32mx/lib\libpic32.a(vector1.o)
 .reginfo       0x0000000000000000       0x18 c:/program files/microchip/xc32/v4.20/bin/bin/../../lib/gcc/pic32mx/8.3.1/../../../../pic32mx/lib\libpic32.a(vector2.o)
 .MIPS.abiflags
                0x0000000000000000       0x18 c:/program files/microchip/xc32/v4.20/bin/bin/../../lib/gcc/pic32mx/8.3.1/../../../../pic32mx/lib\libpic32.a(vector2.o)
 .xc_stack_usage.hdr
                0x0000000000000000        0xe c:/program files/microchip/xc32/v4.20/bin/bin/../../lib/gcc/pic32mx/8.3.1/../../../../pic32mx/lib\libpic32.a(vector2.o)
 .xc_stack_usage
                0x0000000000000000       0x21 c:/program files/microchip/xc32/v4.20/bin/bin/../../lib/gcc/pic32mx/8.3.1/../../../../pic32mx/lib\libpic32.a(vector2.o)
 .reginfo       0x0000000000000000       0x18 c:/program files/microchip/xc32/v4.20/bin/bin/../../lib/gcc/pic32mx/8.3.1/../../../../pic32mx/lib\libpic32.a(vector3.o)
 .MIPS.abiflags
                0x0000000000000000       0x18 c:/program files/microchip/xc32/v4.20/bin/bin/../../lib/gcc/pic32mx/8.3.1/../../../../pic32mx/lib\libpic32.a(vector3.o)
 .xc_stack_usage.hdr
                0x0000000000000000        0xe c:/program files/microchip/xc32/v4.20/bin/bin/../../lib/gcc/pic32mx/8.3.1/../../../../pic32mx/lib\libpic32.a(vector3.o)
 .xc_stack_usage
                0x0000000000000000       0x21 c:/program files/microchip/xc32/v4.20/bin/bin/../../lib/gcc/pic32mx/8.3.1/../../../../pic32mx/lib\libpic32.a(vector3.o)
 .reginfo       0x0000000000000000       0x18 c:/program files/microchip/xc32/v4.20/bin/bin/../../lib/gcc/pic32mx/8.3.1/../../../../pic32mx/lib\libpic32.a(vector5.o)
 .MIPS.abiflags
                0x0000000000000000       0x18 c:/program files/microchip/xc32/v4.20/bin/bin/../../lib/gcc/pic32mx/8.3.1/../../../../pic32mx/lib\libpic32.a(vector5.o)
 .xc_stack_usage.hdr
                0x0000000000000000        0xe c:/program files/microchip/xc32/v4.20/bin/bin/../../lib/gcc/pic32mx/8.3.1/../../../../pic32mx/lib\libpic32.a(vector5.o)
 .xc_stack_usage
                0x0000000000000000       0x21 c:/program files/microchip/xc32/v4.20/bin/bin/../../lib/gcc/pic32mx/8.3.1/../../../../pic32mx/lib\libpic32.a(vector5.o)
 .reginfo       0x0000000000000000       0x18 c:/program files/microchip/xc32/v4.20/bin/bin/../../lib/gcc/pic32mx/8.3.1/../../../../pic32mx/lib\libpic32.a(vector6.o)
 .MIPS.abiflags
                0x0000000000000000       0x18 c:/program files/microchip/xc32/v4.20/bin/bin/../../lib/gcc/pic32mx/8.3.1/../../../../pic32mx/lib\libpic32.a(vector6.o)
 .xc_stack_usage.hdr
                0x0000000000000000        0xe c:/program files/microchip/xc32/v4.20/bin/bin/../../lib/gcc/pic32mx/8.3.1/../../../../pic32mx/lib\libpic32.a(vector6.o)
 .xc_stack_usage
                0x0000000000000000       0x21 c:/program files/microchip/xc32/v4.20/bin/bin/../../lib/gcc/pic32mx/8.3.1/../../../../pic32mx/lib\libpic32.a(vector6.o)
 .reginfo       0x0000000000000000       0x18 c:/program files/microchip/xc32/v4.20/bin/bin/../../lib/gcc/pic32mx/8.3.1/../../../../pic32mx/lib\libpic32.a(vector7.o)
 .MIPS.abiflags
                0x0000000000000000       0x18 c:/program files/microchip/xc32/v4.20/bin/bin/../../lib/gcc/pic32mx/8.3.1/../../../../pic32mx/lib\libpic32.a(vector7.o)
 .xc_stack_usage.hdr
                0x0000000000000000        0xe c:/program files/microchip/xc32/v4.20/bin/bin/../../lib/gcc/pic32mx/8.3.1/../../../../pic32mx/lib\libpic32.a(vector7.o)
 .xc_stack_usage
                0x0000000000000000       0x21 c:/program files/microchip/xc32/v4.20/bin/bin/../../lib/gcc/pic32mx/8.3.1/../../../../pic32mx/lib\libpic32.a(vector7.o)
 .reginfo       0x0000000000000000       0x18 c:/program files/microchip/xc32/v4.20/bin/bin/../../lib/gcc/pic32mx/8.3.1/../../../../pic32mx/lib\libpic32.a(vector9.o)
 .MIPS.abiflags
                0x0000000000000000       0x18 c:/program files/microchip/xc32/v4.20/bin/bin/../../lib/gcc/pic32mx/8.3.1/../../../../pic32mx/lib\libpic32.a(vector9.o)
 .xc_stack_usage.hdr
                0x0000000000000000        0xe c:/program files/microchip/xc32/v4.20/bin/bin/../../lib/gcc/pic32mx/8.3.1/../../../../pic32mx/lib\libpic32.a(vector9.o)
 .xc_stack_usage
                0x0000000000000000       0x21 c:/program files/microchip/xc32/v4.20/bin/bin/../../lib/gcc/pic32mx/8.3.1/../../../../pic32mx/lib\libpic32.a(vector9.o)
 .reginfo       0x0000000000000000       0x18 c:/program files/microchip/xc32/v4.20/bin/bin/../../lib/gcc/pic32mx/8.3.1/../../../../pic32mx/lib\libpic32.a(vector10.o)
 .MIPS.abiflags
                0x0000000000000000       0x18 c:/program files/microchip/xc32/v4.20/bin/bin/../../lib/gcc/pic32mx/8.3.1/../../../../pic32mx/lib\libpic32.a(vector10.o)
 .xc_stack_usage.hdr
                0x0000000000000000        0xe c:/program files/microchip/xc32/v4.20/bin/bin/../../lib/gcc/pic32mx/8.3.1/../../../../pic32mx/lib\libpic32.a(vector10.o)
 .xc_stack_usage
                0x0000000000000000       0x22 c:/program files/microchip/xc32/v4.20/bin/bin/../../lib/gcc/pic32mx/8.3.1/../../../../pic32mx/lib\libpic32.a(vector10.o)
 .reginfo       0x0000000000000000       0x18 c:/program files/microchip/xc32/v4.20/bin/bin/../../lib/gcc/pic32mx/8.3.1/../../../../pic32mx/lib\libpic32.a(vector11.o)
 .MIPS.abiflags
                0x0000000000000000       0x18 c:/program files/microchip/xc32/v4.20/bin/bin/../../lib/gcc/pic32mx/8.3.1/../../../../pic32mx/lib\libpic32.a(vector11.o)
 .xc_stack_usage.hdr
                0x0000000000000000        0xe c:/program files/microchip/xc32/v4.20/bin/bin/../../lib/gcc/pic32mx/8.3.1/../../../../pic32mx/lib\libpic32.a(vector11.o)
 .xc_stack_usage
                0x0000000000000000       0x22 c:/program files/microchip/xc32/v4.20/bin/bin/../../lib/gcc/pic32mx/8.3.1/../../../../pic32mx/lib\libpic32.a(vector11.o)
 .reginfo       0x0000000000000000       0x18 c:/program files/microchip/xc32/v4.20/bin/bin/../../lib/gcc/pic32mx/8.3.1/../../../../pic32mx/lib\libpic32.a(vector13.o)
 .MIPS.abiflags
                0x0000000000000000       0x18 c:/program files/microchip/xc32/v4.20/bin/bin/../../lib/gcc/pic32mx/8.3.1/../../../../pic32mx/lib\libpic32.a(vector13.o)
 .xc_stack_usage.hdr
                0x0000000000000000        0xe c:/program files/microchip/xc32/v4.20/bin/bin/../../lib/gcc/pic32mx/8.3.1/../../../../pic32mx/lib\libpic32.a(vector13.o)
 .xc_stack_usage
                0x0000000000000000       0x22 c:/program files/microchip/xc32/v4.20/bin/bin/../../lib/gcc/pic32mx/8.3.1/../../../../pic32mx/lib\libpic32.a(vector13.o)
 .reginfo       0x0000000000000000       0x18 c:/program files/microchip/xc32/v4.20/bin/bin/../../lib/gcc/pic32mx/8.3.1/../../../../pic32mx/lib\libpic32.a(vector14.o)
 .MIPS.abiflags
                0x0000000000000000       0x18 c:/program files/microchip/xc32/v4.20/bin/bin/../../lib/gcc/pic32mx/8.3.1/../../../../pic32mx/lib\libpic32.a(vector14.o)
 .xc_stack_usage.hdr
                0x0000000000000000        0xe c:/program files/microchip/xc32/v4.20/bin/bin/../../lib/gcc/pic32mx/8.3.1/../../../../pic32mx/lib\libpic32.a(vector14.o)
 .xc_stack_usage
                0x0000000000000000       0x22 c:/program files/microchip/xc32/v4.20/bin/bin/../../lib/gcc/pic32mx/8.3.1/../../../../pic32mx/lib\libpic32.a(vector14.o)
 .reginfo       0x0000000000000000       0x18 c:/program files/microchip/xc32/v4.20/bin/bin/../../lib/gcc/pic32mx/8.3.1/../../../../pic32mx/lib\libpic32.a(vector17.o)
 .MIPS.abiflags
                0x0000000000000000       0x18 c:/program files/microchip/xc32/v4.20/bin/bin/../../lib/gcc/pic32mx/8.3.1/../../../../pic32mx/lib\libpic32.a(vector17.o)
 .xc_stack_usage.hdr
                0x0000000000000000        0xe c:/program files/microchip/xc32/v4.20/bin/bin/../../lib/gcc/pic32mx/8.3.1/../../../../pic32mx/lib\libpic32.a(vector17.o)
 .xc_stack_usage
                0x0000000000000000       0x22 c:/program files/microchip/xc32/v4.20/bin/bin/../../lib/gcc/pic32mx/8.3.1/../../../../pic32mx/lib\libpic32.a(vector17.o)
 .reginfo       0x0000000000000000       0x18 c:/program files/microchip/xc32/v4.20/bin/bin/../../lib/gcc/pic32mx/8.3.1/../../../../pic32mx/lib\libpic32.a(vector18.o)
 .MIPS.abiflags
                0x0000000000000000       0x18 c:/program files/microchip/xc32/v4.20/bin/bin/../../lib/gcc/pic32mx/8.3.1/../../../../pic32mx/lib\libpic32.a(vector18.o)
 .xc_stack_usage.hdr
                0x0000000000000000        0xe c:/program files/microchip/xc32/v4.20/bin/bin/../../lib/gcc/pic32mx/8.3.1/../../../../pic32mx/lib\libpic32.a(vector18.o)
 .xc_stack_usage
                0x0000000000000000       0x22 c:/program files/microchip/xc32/v4.20/bin/bin/../../lib/gcc/pic32mx/8.3.1/../../../../pic32mx/lib\libpic32.a(vector18.o)
 .reginfo       0x0000000000000000       0x18 c:/program files/microchip/xc32/v4.20/bin/bin/../../lib/gcc/pic32mx/8.3.1/../../../../pic32mx/lib\libpic32.a(vector21.o)
 .MIPS.abiflags
                0x0000000000000000       0x18 c:/program files/microchip/xc32/v4.20/bin/bin/../../lib/gcc/pic32mx/8.3.1/../../../../pic32mx/lib\libpic32.a(vector21.o)
 .xc_stack_usage.hdr
                0x0000000000000000        0xe c:/program files/microchip/xc32/v4.20/bin/bin/../../lib/gcc/pic32mx/8.3.1/../../../../pic32mx/lib\libpic32.a(vector21.o)
 .xc_stack_usage
                0x0000000000000000       0x22 c:/program files/microchip/xc32/v4.20/bin/bin/../../lib/gcc/pic32mx/8.3.1/../../../../pic32mx/lib\libpic32.a(vector21.o)
 .reginfo       0x0000000000000000       0x18 c:/program files/microchip/xc32/v4.20/bin/bin/../../lib/gcc/pic32mx/8.3.1/../../../../pic32mx/lib\libpic32.a(vector22.o)
 .MIPS.abiflags
                0x0000000000000000       0x18 c:/program files/microchip/xc32/v4.20/bin/bin/../../lib/gcc/pic32mx/8.3.1/../../../../pic32mx/lib\libpic32.a(vector22.o)
 .xc_stack_usage.hdr
                0x0000000000000000        0xe c:/program files/microchip/xc32/v4.20/bin/bin/../../lib/gcc/pic32mx/8.3.1/../../../../pic32mx/lib\libpic32.a(vector22.o)
 .xc_stack_usage
                0x0000000000000000       0x22 c:/program files/microchip/xc32/v4.20/bin/bin/../../lib/gcc/pic32mx/8.3.1/../../../../pic32mx/lib\libpic32.a(vector22.o)
 .reginfo       0x0000000000000000       0x18 c:/program files/microchip/xc32/v4.20/bin/bin/../../lib/gcc/pic32mx/8.3.1/../../../../pic32mx/lib\libpic32.a(vector23.o)
 .MIPS.abiflags
                0x0000000000000000       0x18 c:/program files/microchip/xc32/v4.20/bin/bin/../../lib/gcc/pic32mx/8.3.1/../../../../pic32mx/lib\libpic32.a(vector23.o)
 .xc_stack_usage.hdr
                0x0000000000000000        0xe c:/program files/microchip/xc32/v4.20/bin/bin/../../lib/gcc/pic32mx/8.3.1/../../../../pic32mx/lib\libpic32.a(vector23.o)
 .xc_stack_usage
                0x0000000000000000       0x22 c:/program files/microchip/xc32/v4.20/bin/bin/../../lib/gcc/pic32mx/8.3.1/../../../../pic32mx/lib\libpic32.a(vector23.o)
 .reginfo       0x0000000000000000       0x18 c:/program files/microchip/xc32/v4.20/bin/bin/../../lib/gcc/pic32mx/8.3.1/../../../../pic32mx/lib\libpic32.a(vector27.o)
 .MIPS.abiflags
                0x0000000000000000       0x18 c:/program files/microchip/xc32/v4.20/bin/bin/../../lib/gcc/pic32mx/8.3.1/../../../../pic32mx/lib\libpic32.a(vector27.o)
 .xc_stack_usage.hdr
                0x0000000000000000        0xe c:/program files/microchip/xc32/v4.20/bin/bin/../../lib/gcc/pic32mx/8.3.1/../../../../pic32mx/lib\libpic32.a(vector27.o)
 .xc_stack_usage
                0x0000000000000000       0x22 c:/program files/microchip/xc32/v4.20/bin/bin/../../lib/gcc/pic32mx/8.3.1/../../../../pic32mx/lib\libpic32.a(vector27.o)
 .reginfo       0x0000000000000000       0x18 c:/program files/microchip/xc32/v4.20/bin/bin/../../lib/gcc/pic32mx/8.3.1/../../../../pic32mx/lib\libpic32.a(vector28.o)
 .MIPS.abiflags
                0x0000000000000000       0x18 c:/program files/microchip/xc32/v4.20/bin/bin/../../lib/gcc/pic32mx/8.3.1/../../../../pic32mx/lib\libpic32.a(vector28.o)
 .xc_stack_usage.hdr
                0x0000000000000000        0xe c:/program files/microchip/xc32/v4.20/bin/bin/../../lib/gcc/pic32mx/8.3.1/../../../../pic32mx/lib\libpic32.a(vector28.o)
 .xc_stack_usage
                0x0000000000000000       0x22 c:/program files/microchip/xc32/v4.20/bin/bin/../../lib/gcc/pic32mx/8.3.1/../../../../pic32mx/lib\libpic32.a(vector28.o)
 .reginfo       0x0000000000000000       0x18 c:/program files/microchip/xc32/v4.20/bin/bin/../../lib/gcc/pic32mx/8.3.1/../../../../pic32mx/lib\libpic32.a(vector29.o)
 .MIPS.abiflags
                0x0000000000000000       0x18 c:/program files/microchip/xc32/v4.20/bin/bin/../../lib/gcc/pic32mx/8.3.1/../../../../pic32mx/lib\libpic32.a(vector29.o)
 .xc_stack_usage.hdr
                0x0000000000000000        0xe c:/program files/microchip/xc32/v4.20/bin/bin/../../lib/gcc/pic32mx/8.3.1/../../../../pic32mx/lib\libpic32.a(vector29.o)
 .xc_stack_usage
                0x0000000000000000       0x22 c:/program files/microchip/xc32/v4.20/bin/bin/../../lib/gcc/pic32mx/8.3.1/../../../../pic32mx/lib\libpic32.a(vector29.o)
 .reginfo       0x0000000000000000       0x18 c:/program files/microchip/xc32/v4.20/bin/bin/../../lib/gcc/pic32mx/8.3.1/../../../../pic32mx/lib\libpic32.a(vector30.o)
 .MIPS.abiflags
                0x0000000000000000       0x18 c:/program files/microchip/xc32/v4.20/bin/bin/../../lib/gcc/pic32mx/8.3.1/../../../../pic32mx/lib\libpic32.a(vector30.o)
 .xc_stack_usage.hdr
                0x0000000000000000        0xe c:/program files/microchip/xc32/v4.20/bin/bin/../../lib/gcc/pic32mx/8.3.1/../../../../pic32mx/lib\libpic32.a(vector30.o)
 .xc_stack_usage
                0x0000000000000000       0x22 c:/program files/microchip/xc32/v4.20/bin/bin/../../lib/gcc/pic32mx/8.3.1/../../../../pic32mx/lib\libpic32.a(vector30.o)
 .reginfo       0x0000000000000000       0x18 c:/program files/microchip/xc32/v4.20/bin/bin/../../lib/gcc/pic32mx/8.3.1/../../../../pic32mx/lib\libpic32.a(vector34.o)
 .MIPS.abiflags
                0x0000000000000000       0x18 c:/program files/microchip/xc32/v4.20/bin/bin/../../lib/gcc/pic32mx/8.3.1/../../../../pic32mx/lib\libpic32.a(vector34.o)
 .xc_stack_usage.hdr
                0x0000000000000000        0xe c:/program files/microchip/xc32/v4.20/bin/bin/../../lib/gcc/pic32mx/8.3.1/../../../../pic32mx/lib\libpic32.a(vector34.o)
 .xc_stack_usage
                0x0000000000000000       0x22 c:/program files/microchip/xc32/v4.20/bin/bin/../../lib/gcc/pic32mx/8.3.1/../../../../pic32mx/lib\libpic32.a(vector34.o)
 .reginfo       0x0000000000000000       0x18 c:/program files/microchip/xc32/v4.20/bin/bin/../../lib/gcc/pic32mx/8.3.1/../../../../pic32mx/lib\libpic32.a(vector35.o)
 .MIPS.abiflags
                0x0000000000000000       0x18 c:/program files/microchip/xc32/v4.20/bin/bin/../../lib/gcc/pic32mx/8.3.1/../../../../pic32mx/lib\libpic32.a(vector35.o)
 .xc_stack_usage.hdr
                0x0000000000000000        0xe c:/program files/microchip/xc32/v4.20/bin/bin/../../lib/gcc/pic32mx/8.3.1/../../../../pic32mx/lib\libpic32.a(vector35.o)
 .xc_stack_usage
                0x0000000000000000       0x22 c:/program files/microchip/xc32/v4.20/bin/bin/../../lib/gcc/pic32mx/8.3.1/../../../../pic32mx/lib\libpic32.a(vector35.o)
 .reginfo       0x0000000000000000       0x18 c:/program files/microchip/xc32/v4.20/bin/bin/../../lib/gcc/pic32mx/8.3.1/../../../../pic32mx/lib\libpic32.a(vector40.o)
 .MIPS.abiflags
                0x0000000000000000       0x18 c:/program files/microchip/xc32/v4.20/bin/bin/../../lib/gcc/pic32mx/8.3.1/../../../../pic32mx/lib\libpic32.a(vector40.o)
 .xc_stack_usage.hdr
                0x0000000000000000        0xe c:/program files/microchip/xc32/v4.20/bin/bin/../../lib/gcc/pic32mx/8.3.1/../../../../pic32mx/lib\libpic32.a(vector40.o)
 .xc_stack_usage
                0x0000000000000000       0x22 c:/program files/microchip/xc32/v4.20/bin/bin/../../lib/gcc/pic32mx/8.3.1/../../../../pic32mx/lib\libpic32.a(vector40.o)
 .reginfo       0x0000000000000000       0x18 c:/program files/microchip/xc32/v4.20/bin/bin/../../lib/gcc/pic32mx/8.3.1/../../../../pic32mx/lib\libpic32.a(vector41.o)
 .MIPS.abiflags
                0x0000000000000000       0x18 c:/program files/microchip/xc32/v4.20/bin/bin/../../lib/gcc/pic32mx/8.3.1/../../../../pic32mx/lib\libpic32.a(vector41.o)
 .xc_stack_usage.hdr
                0x0000000000000000        0xe c:/program files/microchip/xc32/v4.20/bin/bin/../../lib/gcc/pic32mx/8.3.1/../../../../pic32mx/lib\libpic32.a(vector41.o)
 .xc_stack_usage
                0x0000000000000000       0x22 c:/program files/microchip/xc32/v4.20/bin/bin/../../lib/gcc/pic32mx/8.3.1/../../../../pic32mx/lib\libpic32.a(vector41.o)
 .reginfo       0x0000000000000000       0x18 c:/program files/microchip/xc32/v4.20/bin/bin/../../lib/gcc/pic32mx/8.3.1/../../../../pic32mx/lib\libpic32.a(vector42.o)
 .MIPS.abiflags
                0x0000000000000000       0x18 c:/program files/microchip/xc32/v4.20/bin/bin/../../lib/gcc/pic32mx/8.3.1/../../../../pic32mx/lib\libpic32.a(vector42.o)
 .xc_stack_usage.hdr
                0x0000000000000000        0xe c:/program files/microchip/xc32/v4.20/bin/bin/../../lib/gcc/pic32mx/8.3.1/../../../../pic32mx/lib\libpic32.a(vector42.o)
 .xc_stack_usage
                0x0000000000000000       0x22 c:/program files/microchip/xc32/v4.20/bin/bin/../../lib/gcc/pic32mx/8.3.1/../../../../pic32mx/lib\libpic32.a(vector42.o)
 .reginfo       0x0000000000000000       0x18 c:/program files/microchip/xc32/v4.20/bin/bin/../../lib/gcc/pic32mx/8.3.1/../../../../pic32mx/lib\libpic32.a(vector43.o)
 .MIPS.abiflags
                0x0000000000000000       0x18 c:/program files/microchip/xc32/v4.20/bin/bin/../../lib/gcc/pic32mx/8.3.1/../../../../pic32mx/lib\libpic32.a(vector43.o)
 .xc_stack_usage.hdr
                0x0000000000000000        0xe c:/program files/microchip/xc32/v4.20/bin/bin/../../lib/gcc/pic32mx/8.3.1/../../../../pic32mx/lib\libpic32.a(vector43.o)
 .xc_stack_usage
                0x0000000000000000       0x22 c:/program files/microchip/xc32/v4.20/bin/bin/../../lib/gcc/pic32mx/8.3.1/../../../../pic32mx/lib\libpic32.a(vector43.o)
 .reginfo       0x0000000000000000       0x18 c:/program files/microchip/xc32/v4.20/bin/bin/../../lib/gcc/pic32mx/8.3.1/../../../../pic32mx/lib\libpic32.a(vector44.o)
 .MIPS.abiflags
                0x0000000000000000       0x18 c:/program files/microchip/xc32/v4.20/bin/bin/../../lib/gcc/pic32mx/8.3.1/../../../../pic32mx/lib\libpic32.a(vector44.o)
 .xc_stack_usage.hdr
                0x0000000000000000        0xe c:/program files/microchip/xc32/v4.20/bin/bin/../../lib/gcc/pic32mx/8.3.1/../../../../pic32mx/lib\libpic32.a(vector44.o)
 .xc_stack_usage
                0x0000000000000000       0x22 c:/program files/microchip/xc32/v4.20/bin/bin/../../lib/gcc/pic32mx/8.3.1/../../../../pic32mx/lib\libpic32.a(vector44.o)
 .reginfo       0x0000000000000000       0x18 c:/program files/microchip/xc32/v4.20/bin/bin/../../lib/gcc/pic32mx/8.3.1/../../../../pic32mx/lib\libpic32.a(defaultinterrupt.o)
 .MIPS.abiflags
                0x0000000000000000       0x18 c:/program files/microchip/xc32/v4.20/bin/bin/../../lib/gcc/pic32mx/8.3.1/../../../../pic32mx/lib\libpic32.a(defaultinterrupt.o)
 .xc_stack_usage
                0x0000000000000000       0x1f c:/program files/microchip/xc32/v4.20/bin/bin/../../lib/gcc/pic32mx/8.3.1/../../../../pic32mx/lib\libpic32.a(defaultinterrupt.o)
 .xc_stack_usage.hdr
                0x0000000000000000        0xe c:/program files/microchip/xc32/v4.20/bin/bin/../../lib/gcc/pic32mx/8.3.1/../../../../pic32mx/lib\libpic32.a(defaultinterrupt.o)
 .reginfo       0x0000000000000000       0x18 c:/program files/microchip/xc32/v4.20/bin/bin/../../lib/gcc/pic32mx/8.3.1/../../../../pic32mx/lib\libc-musl.a(strncmp.o)
 .MIPS.abiflags
                0x0000000000000000       0x18 c:/program files/microchip/xc32/v4.20/bin/bin/../../lib/gcc/pic32mx/8.3.1/../../../../pic32mx/lib\libc-musl.a(strncmp.o)
 .xc_stack_usage
                0x0000000000000000       0x15 c:/program files/microchip/xc32/v4.20/bin/bin/../../lib/gcc/pic32mx/8.3.1/../../../../pic32mx/lib\libc-musl.a(strncmp.o)
 .xc_stack_usage.hdr
                0x0000000000000000        0xe c:/program files/microchip/xc32/v4.20/bin/bin/../../lib/gcc/pic32mx/8.3.1/../../../../pic32mx/lib\libc-musl.a(strncmp.o)
 .note.GNU-stack
                0x0000000000000000        0x0 c:/program files/microchip/xc32/v4.20/bin/bin/../../lib/gcc/pic32mx/8.3.1/../../../../pic32mx/lib\libc-musl.a(strncmp.o)
 .reginfo       0x0000000000000000       0x18 c:/program files/microchip/xc32/v4.20/bin/bin/../../lib/gcc/pic32mx/8.3.1/../../../../pic32mx/lib\libc-musl.a(strncpy.o)
 .MIPS.abiflags
                0x0000000000000000       0x18 c:/program files/microchip/xc32/v4.20/bin/bin/../../lib/gcc/pic32mx/8.3.1/../../../../pic32mx/lib\libc-musl.a(strncpy.o)
 .xc_stack_usage
                0x0000000000000000       0x15 c:/program files/microchip/xc32/v4.20/bin/bin/../../lib/gcc/pic32mx/8.3.1/../../../../pic32mx/lib\libc-musl.a(strncpy.o)
 .xc_stack_usage.hdr
                0x0000000000000000        0xe c:/program files/microchip/xc32/v4.20/bin/bin/../../lib/gcc/pic32mx/8.3.1/../../../../pic32mx/lib\libc-musl.a(strncpy.o)
 .note.GNU-stack
                0x0000000000000000        0x0 c:/program files/microchip/xc32/v4.20/bin/bin/../../lib/gcc/pic32mx/8.3.1/../../../../pic32mx/lib\libc-musl.a(strncpy.o)
 .reginfo       0x0000000000000000       0x18 c:/program files/microchip/xc32/v4.20/bin/bin/../../lib/gcc/pic32mx/8.3.1/../../../../pic32mx/lib\libc-musl.a(stpncpy.o)
 .MIPS.abiflags
                0x0000000000000000       0x18 c:/program files/microchip/xc32/v4.20/bin/bin/../../lib/gcc/pic32mx/8.3.1/../../../../pic32mx/lib\libc-musl.a(stpncpy.o)
 .xc_stack_usage
                0x0000000000000000       0x15 c:/program files/microchip/xc32/v4.20/bin/bin/../../lib/gcc/pic32mx/8.3.1/../../../../pic32mx/lib\libc-musl.a(stpncpy.o)
 .xc_stack_usage.hdr
                0x0000000000000000        0xe c:/program files/microchip/xc32/v4.20/bin/bin/../../lib/gcc/pic32mx/8.3.1/../../../../pic32mx/lib\libc-musl.a(stpncpy.o)
 .note.GNU-stack
                0x0000000000000000        0x0 c:/program files/microchip/xc32/v4.20/bin/bin/../../lib/gcc/pic32mx/8.3.1/../../../../pic32mx/lib\libc-musl.a(stpncpy.o)
 .reginfo       0x0000000000000000       0x18 c:/program files/microchip/xc32/v4.20/bin/bin/../../lib/gcc/pic32mx/8.3.1/../../../../pic32mx/lib\libm.a(floor32.o)
 .MIPS.abiflags
                0x0000000000000000       0x18 c:/program files/microchip/xc32/v4.20/bin/bin/../../lib/gcc/pic32mx/8.3.1/../../../../pic32mx/lib\libm.a(floor32.o)
 .reginfo       0x0000000000000000       0x18 c:/program files/microchip/xc32/v4.20/bin/bin/../../lib/gcc/pic32mx/8.3.1/../../../../pic32mx/lib\libm.a(ceil32.o)
 .MIPS.abiflags
                0x0000000000000000       0x18 c:/program files/microchip/xc32/v4.20/bin/bin/../../lib/gcc/pic32mx/8.3.1/../../../../pic32mx/lib\libm.a(ceil32.o)
 .reginfo       0x0000000000000000       0x18 c:/program files/microchip/xc32/v4.20/bin/bin/../../lib/gcc/pic32mx/8.3.1/../../../../pic32mx/lib\libm.a(cos32.o)
 .MIPS.abiflags
                0x0000000000000000       0x18 c:/program files/microchip/xc32/v4.20/bin/bin/../../lib/gcc/pic32mx/8.3.1/../../../../pic32mx/lib\libm.a(cos32.o)
 .xc_stack_usage.hdr
                0x0000000000000000        0xe c:/program files/microchip/xc32/v4.20/bin/bin/../../lib/gcc/pic32mx/8.3.1/../../../../pic32mx/lib\libm.a(cos32.o)
 .xc_stack_usage
                0x0000000000000000       0x13 c:/program files/microchip/xc32/v4.20/bin/bin/../../lib/gcc/pic32mx/8.3.1/../../../../pic32mx/lib\libm.a(cos32.o)
 .reginfo       0x0000000000000000       0x18 c:/program files/microchip/xc32/v4.20/bin/bin/../../lib/gcc/pic32mx/8.3.1/../../../../pic32mx/lib\libm.a(dp32div.o)
 .MIPS.abiflags
                0x0000000000000000       0x18 c:/program files/microchip/xc32/v4.20/bin/bin/../../lib/gcc/pic32mx/8.3.1/../../../../pic32mx/lib\libm.a(dp32div.o)
 .reginfo       0x0000000000000000       0x18 c:/program files/microchip/xc32/v4.20/bin/bin/../../lib/gcc/pic32mx/8.3.1/../../../../pic32mx/lib\libm.a(dp32mul.o)
 .MIPS.abiflags
                0x0000000000000000       0x18 c:/program files/microchip/xc32/v4.20/bin/bin/../../lib/gcc/pic32mx/8.3.1/../../../../pic32mx/lib\libm.a(dp32mul.o)
 .reginfo       0x0000000000000000       0x18 c:/program files/microchip/xc32/v4.20/bin/bin/../../lib/gcc/pic32mx/8.3.1/../../../../pic32mx/lib\libm.a(dp32subadd.o)
 .MIPS.abiflags
                0x0000000000000000       0x18 c:/program files/microchip/xc32/v4.20/bin/bin/../../lib/gcc/pic32mx/8.3.1/../../../../pic32mx/lib\libm.a(dp32subadd.o)
 .reginfo       0x0000000000000000       0x18 c:/program files/microchip/xc32/v4.20/bin/bin/../../lib/gcc/pic32mx/8.3.1/../../../../pic32mx/lib\libm.a(dpcmp.o)
 .MIPS.abiflags
                0x0000000000000000       0x18 c:/program files/microchip/xc32/v4.20/bin/bin/../../lib/gcc/pic32mx/8.3.1/../../../../pic32mx/lib\libm.a(dpcmp.o)
 .reginfo       0x0000000000000000       0x18 c:/program files/microchip/xc32/v4.20/bin/bin/../../lib/gcc/pic32mx/8.3.1/../../../../pic32mx/lib\libm.a(dpcmplt.o)
 .MIPS.abiflags
                0x0000000000000000       0x18 c:/program files/microchip/xc32/v4.20/bin/bin/../../lib/gcc/pic32mx/8.3.1/../../../../pic32mx/lib\libm.a(dpcmplt.o)
 .xc_stack_usage.hdr
                0x0000000000000000        0xe c:/program files/microchip/xc32/v4.20/bin/bin/../../lib/gcc/pic32mx/8.3.1/../../../../pic32mx/lib\libm.a(dpcmplt.o)
 .xc_stack_usage
                0x0000000000000000       0x15 c:/program files/microchip/xc32/v4.20/bin/bin/../../lib/gcc/pic32mx/8.3.1/../../../../pic32mx/lib\libm.a(dpcmplt.o)
 .reginfo       0x0000000000000000       0x18 c:/program files/microchip/xc32/v4.20/bin/bin/../../lib/gcc/pic32mx/8.3.1/../../../../pic32mx/lib\libm.a(dpsqrt.o)
 .MIPS.abiflags
                0x0000000000000000       0x18 c:/program files/microchip/xc32/v4.20/bin/bin/../../lib/gcc/pic32mx/8.3.1/../../../../pic32mx/lib\libm.a(dpsqrt.o)
 .xc_stack_usage.hdr
                0x0000000000000000        0xe c:/program files/microchip/xc32/v4.20/bin/bin/../../lib/gcc/pic32mx/8.3.1/../../../../pic32mx/lib\libm.a(dpsqrt.o)
 .xc_stack_usage
                0x0000000000000000       0x13 c:/program files/microchip/xc32/v4.20/bin/bin/../../lib/gcc/pic32mx/8.3.1/../../../../pic32mx/lib\libm.a(dpsqrt.o)
 .reginfo       0x0000000000000000       0x18 c:/program files/microchip/xc32/v4.20/bin/bin/../../lib/gcc/pic32mx/8.3.1/../../../../pic32mx/lib\libm.a(dptofp.o)
 .MIPS.abiflags
                0x0000000000000000       0x18 c:/program files/microchip/xc32/v4.20/bin/bin/../../lib/gcc/pic32mx/8.3.1/../../../../pic32mx/lib\libm.a(dptofp.o)
 .reginfo       0x0000000000000000       0x18 c:/program files/microchip/xc32/v4.20/bin/bin/../../lib/gcc/pic32mx/8.3.1/../../../../pic32mx/lib\libm.a(dptoul.o)
 .MIPS.abiflags
                0x0000000000000000       0x18 c:/program files/microchip/xc32/v4.20/bin/bin/../../lib/gcc/pic32mx/8.3.1/../../../../pic32mx/lib\libm.a(dptoul.o)
 .reginfo       0x0000000000000000       0x18 c:/program files/microchip/xc32/v4.20/bin/bin/../../lib/gcc/pic32mx/8.3.1/../../../../pic32mx/lib\libm.a(exmul.o)
 .MIPS.abiflags
                0x0000000000000000       0x18 c:/program files/microchip/xc32/v4.20/bin/bin/../../lib/gcc/pic32mx/8.3.1/../../../../pic32mx/lib\libm.a(exmul.o)
 .reginfo       0x0000000000000000       0x18 c:/program files/microchip/xc32/v4.20/bin/bin/../../lib/gcc/pic32mx/8.3.1/../../../../pic32mx/lib\libm.a(exsqrt.o)
 .MIPS.abiflags
                0x0000000000000000       0x18 c:/program files/microchip/xc32/v4.20/bin/bin/../../lib/gcc/pic32mx/8.3.1/../../../../pic32mx/lib\libm.a(exsqrt.o)
 .reginfo       0x0000000000000000       0x18 c:/program files/microchip/xc32/v4.20/bin/bin/../../lib/gcc/pic32mx/8.3.1/../../../../pic32mx/lib\libm.a(fp32div.o)
 .MIPS.abiflags
                0x0000000000000000       0x18 c:/program files/microchip/xc32/v4.20/bin/bin/../../lib/gcc/pic32mx/8.3.1/../../../../pic32mx/lib\libm.a(fp32div.o)
 .reginfo       0x0000000000000000       0x18 c:/program files/microchip/xc32/v4.20/bin/bin/../../lib/gcc/pic32mx/8.3.1/../../../../pic32mx/lib\libm.a(fp32mul.o)
 .MIPS.abiflags
                0x0000000000000000       0x18 c:/program files/microchip/xc32/v4.20/bin/bin/../../lib/gcc/pic32mx/8.3.1/../../../../pic32mx/lib\libm.a(fp32mul.o)
 .reginfo       0x0000000000000000       0x18 c:/program files/microchip/xc32/v4.20/bin/bin/../../lib/gcc/pic32mx/8.3.1/../../../../pic32mx/lib\libm.a(fp32subadd.o)
 .MIPS.abiflags
                0x0000000000000000       0x18 c:/program files/microchip/xc32/v4.20/bin/bin/../../lib/gcc/pic32mx/8.3.1/../../../../pic32mx/lib\libm.a(fp32subadd.o)
 .reginfo       0x0000000000000000       0x18 c:/program files/microchip/xc32/v4.20/bin/bin/../../lib/gcc/pic32mx/8.3.1/../../../../pic32mx/lib\libm.a(fpcmp.o)
 .MIPS.abiflags
                0x0000000000000000       0x18 c:/program files/microchip/xc32/v4.20/bin/bin/../../lib/gcc/pic32mx/8.3.1/../../../../pic32mx/lib\libm.a(fpcmp.o)
 .reginfo       0x0000000000000000       0x18 c:/program files/microchip/xc32/v4.20/bin/bin/../../lib/gcc/pic32mx/8.3.1/../../../../pic32mx/lib\libm.a(fpcmplt.o)
 .MIPS.abiflags
                0x0000000000000000       0x18 c:/program files/microchip/xc32/v4.20/bin/bin/../../lib/gcc/pic32mx/8.3.1/../../../../pic32mx/lib\libm.a(fpcmplt.o)
 .xc_stack_usage.hdr
                0x0000000000000000        0xe c:/program files/microchip/xc32/v4.20/bin/bin/../../lib/gcc/pic32mx/8.3.1/../../../../pic32mx/lib\libm.a(fpcmplt.o)
 .xc_stack_usage
                0x0000000000000000       0x15 c:/program files/microchip/xc32/v4.20/bin/bin/../../lib/gcc/pic32mx/8.3.1/../../../../pic32mx/lib\libm.a(fpcmplt.o)
 .reginfo       0x0000000000000000       0x18 c:/program files/microchip/xc32/v4.20/bin/bin/../../lib/gcc/pic32mx/8.3.1/../../../../pic32mx/lib\libm.a(fpexsqrt32.o)
 .MIPS.abiflags
                0x0000000000000000       0x18 c:/program files/microchip/xc32/v4.20/bin/bin/../../lib/gcc/pic32mx/8.3.1/../../../../pic32mx/lib\libm.a(fpexsqrt32.o)
 .reginfo       0x0000000000000000       0x18 c:/program files/microchip/xc32/v4.20/bin/bin/../../lib/gcc/pic32mx/8.3.1/../../../../pic32mx/lib\libm.a(fptodp.o)
 .MIPS.abiflags
                0x0000000000000000       0x18 c:/program files/microchip/xc32/v4.20/bin/bin/../../lib/gcc/pic32mx/8.3.1/../../../../pic32mx/lib\libm.a(fptodp.o)
 .reginfo       0x0000000000000000       0x18 c:/program files/microchip/xc32/v4.20/bin/bin/../../lib/gcc/pic32mx/8.3.1/../../../../pic32mx/lib\libm.a(fptoli.o)
 .MIPS.abiflags
                0x0000000000000000       0x18 c:/program files/microchip/xc32/v4.20/bin/bin/../../lib/gcc/pic32mx/8.3.1/../../../../pic32mx/lib\libm.a(fptoli.o)
 .reginfo       0x0000000000000000       0x18 c:/program files/microchip/xc32/v4.20/bin/bin/../../lib/gcc/pic32mx/8.3.1/../../../../pic32mx/lib\libm.a(fptoul.o)
 .MIPS.abiflags
                0x0000000000000000       0x18 c:/program files/microchip/xc32/v4.20/bin/bin/../../lib/gcc/pic32mx/8.3.1/../../../../pic32mx/lib\libm.a(fptoul.o)
 .reginfo       0x0000000000000000       0x18 c:/program files/microchip/xc32/v4.20/bin/bin/../../lib/gcc/pic32mx/8.3.1/../../../../pic32mx/lib\libm.a(litodp.o)
 .MIPS.abiflags
                0x0000000000000000       0x18 c:/program files/microchip/xc32/v4.20/bin/bin/../../lib/gcc/pic32mx/8.3.1/../../../../pic32mx/lib\libm.a(litodp.o)
 .reginfo       0x0000000000000000       0x18 c:/program files/microchip/xc32/v4.20/bin/bin/../../lib/gcc/pic32mx/8.3.1/../../../../pic32mx/lib\libm.a(reduct32.o)
 .MIPS.abiflags
                0x0000000000000000       0x18 c:/program files/microchip/xc32/v4.20/bin/bin/../../lib/gcc/pic32mx/8.3.1/../../../../pic32mx/lib\libm.a(reduct32.o)
 .reginfo       0x0000000000000000       0x18 c:/program files/microchip/xc32/v4.20/bin/bin/../../lib/gcc/pic32mx/8.3.1/../../../../pic32mx/lib\libm.a(sigmax.o)
 .MIPS.abiflags
                0x0000000000000000       0x18 c:/program files/microchip/xc32/v4.20/bin/bin/../../lib/gcc/pic32mx/8.3.1/../../../../pic32mx/lib\libm.a(sigmax.o)
 .reginfo       0x0000000000000000       0x18 c:/program files/microchip/xc32/v4.20/bin/bin/../../lib/gcc/pic32mx/8.3.1/../../../../pic32mx/lib\libm.a(sin32.o)
 .MIPS.abiflags
                0x0000000000000000       0x18 c:/program files/microchip/xc32/v4.20/bin/bin/../../lib/gcc/pic32mx/8.3.1/../../../../pic32mx/lib\libm.a(sin32.o)
 .xc_stack_usage.hdr
                0x0000000000000000        0xe c:/program files/microchip/xc32/v4.20/bin/bin/../../lib/gcc/pic32mx/8.3.1/../../../../pic32mx/lib\libm.a(sin32.o)
 .xc_stack_usage
                0x0000000000000000       0x13 c:/program files/microchip/xc32/v4.20/bin/bin/../../lib/gcc/pic32mx/8.3.1/../../../../pic32mx/lib\libm.a(sin32.o)
 .reginfo       0x0000000000000000       0x18 c:/program files/microchip/xc32/v4.20/bin/bin/../../lib/gcc/pic32mx/8.3.1/../../../../pic32mx/lib\libm.a(sincos32.o)
 .MIPS.abiflags
                0x0000000000000000       0x18 c:/program files/microchip/xc32/v4.20/bin/bin/../../lib/gcc/pic32mx/8.3.1/../../../../pic32mx/lib\libm.a(sincos32.o)
 .reginfo       0x0000000000000000       0x18 c:/program files/microchip/xc32/v4.20/bin/bin/../../lib/gcc/pic32mx/8.3.1/../../../../pic32mx/lib\libm.a(sitofp.o)
 .MIPS.abiflags
                0x0000000000000000       0x18 c:/program files/microchip/xc32/v4.20/bin/bin/../../lib/gcc/pic32mx/8.3.1/../../../../pic32mx/lib\libm.a(sitofp.o)
 .reginfo       0x0000000000000000       0x18 c:/program files/microchip/xc32/v4.20/bin/bin/../../lib/gcc/pic32mx/8.3.1/../../../../pic32mx/lib\libm.a(atan2.o)
 .MIPS.abiflags
                0x0000000000000000       0x18 c:/program files/microchip/xc32/v4.20/bin/bin/../../lib/gcc/pic32mx/8.3.1/../../../../pic32mx/lib\libm.a(atan2.o)
 .xc_stack_usage
                0x0000000000000000       0x13 c:/program files/microchip/xc32/v4.20/bin/bin/../../lib/gcc/pic32mx/8.3.1/../../../../pic32mx/lib\libm.a(atan2.o)
 .xc_stack_usage.hdr
                0x0000000000000000        0xe c:/program files/microchip/xc32/v4.20/bin/bin/../../lib/gcc/pic32mx/8.3.1/../../../../pic32mx/lib\libm.a(atan2.o)
 .reginfo       0x0000000000000000       0x18 c:/program files/microchip/xc32/v4.20/bin/bin/../../lib/gcc/pic32mx/8.3.1/../../../../pic32mx/lib\libm.a(w_sqrt.o)
 .MIPS.abiflags
                0x0000000000000000       0x18 c:/program files/microchip/xc32/v4.20/bin/bin/../../lib/gcc/pic32mx/8.3.1/../../../../pic32mx/lib\libm.a(w_sqrt.o)
 .xc_stack_usage
                0x0000000000000000       0x13 c:/program files/microchip/xc32/v4.20/bin/bin/../../lib/gcc/pic32mx/8.3.1/../../../../pic32mx/lib\libm.a(w_sqrt.o)
 .xc_stack_usage.hdr
                0x0000000000000000        0xe c:/program files/microchip/xc32/v4.20/bin/bin/../../lib/gcc/pic32mx/8.3.1/../../../../pic32mx/lib\libm.a(w_sqrt.o)
 .reginfo       0x0000000000000000       0x18 c:/program files/microchip/xc32/v4.20/bin/bin/../../lib/gcc/pic32mx/8.3.1/../../../../pic32mx/lib\libm.a(support.o)
 .MIPS.abiflags
                0x0000000000000000       0x18 c:/program files/microchip/xc32/v4.20/bin/bin/../../lib/gcc/pic32mx/8.3.1/../../../../pic32mx/lib\libm.a(support.o)
 .xc_stack_usage
                0x0000000000000000       0xf2 c:/program files/microchip/xc32/v4.20/bin/bin/../../lib/gcc/pic32mx/8.3.1/../../../../pic32mx/lib\libm.a(support.o)
 .xc_stack_usage.hdr
                0x0000000000000000        0xe c:/program files/microchip/xc32/v4.20/bin/bin/../../lib/gcc/pic32mx/8.3.1/../../../../pic32mx/lib\libm.a(support.o)
 .reginfo       0x0000000000000000       0x18 c:/program files/microchip/xc32/v4.20/bin/bin/../../lib/gcc/pic32mx/8.3.1/../../../../pic32mx/lib\libm.a(w_ldexp.o)
 .MIPS.abiflags
                0x0000000000000000       0x18 c:/program files/microchip/xc32/v4.20/bin/bin/../../lib/gcc/pic32mx/8.3.1/../../../../pic32mx/lib\libm.a(w_ldexp.o)
 .xc_stack_usage
                0x0000000000000000       0x14 c:/program files/microchip/xc32/v4.20/bin/bin/../../lib/gcc/pic32mx/8.3.1/../../../../pic32mx/lib\libm.a(w_ldexp.o)
 .xc_stack_usage.hdr
                0x0000000000000000        0xe c:/program files/microchip/xc32/v4.20/bin/bin/../../lib/gcc/pic32mx/8.3.1/../../../../pic32mx/lib\libm.a(w_ldexp.o)
 .reginfo       0x0000000000000000       0x18 c:/program files/microchip/xc32/v4.20/bin/bin/../../lib/gcc/pic32mx/8.3.1/../../../../pic32mx/lib\libm.a(dpldexp.o)
 .MIPS.abiflags
                0x0000000000000000       0x18 c:/program files/microchip/xc32/v4.20/bin/bin/../../lib/gcc/pic32mx/8.3.1/../../../../pic32mx/lib\libm.a(dpldexp.o)
 .reginfo       0x0000000000000000       0x18 c:/program files/microchip/xc32/v4.20/bin/bin/../../lib/gcc/pic32mx/8.3.1/../../../../pic32mx/lib\libm.a(dptoli.o)
 .MIPS.abiflags
                0x0000000000000000       0x18 c:/program files/microchip/xc32/v4.20/bin/bin/../../lib/gcc/pic32mx/8.3.1/../../../../pic32mx/lib\libm.a(dptoli.o)
 .reginfo       0x0000000000000000       0x18 c:/program files/microchip/xc32/v4.20/bin/bin/../../lib/gcc/pic32mx/8.3.1/../../../../pic32mx/lib\libm.a(s_lib_ver.o)
 .MIPS.abiflags
                0x0000000000000000       0x18 c:/program files/microchip/xc32/v4.20/bin/bin/../../lib/gcc/pic32mx/8.3.1/../../../../pic32mx/lib\libm.a(s_lib_ver.o)
 .xc_stack_usage.hdr
                0x0000000000000000        0xe c:/program files/microchip/xc32/v4.20/bin/bin/../../lib/gcc/pic32mx/8.3.1/../../../../pic32mx/lib\libm.a(s_lib_ver.o)
 .reginfo       0x0000000000000000       0x18 c:/program files/microchip/xc32/v4.20/bin/bin/../../lib/gcc/pic32mx/8.3.1/../../../../pic32mx/lib\libpic32.a(errno.o)
 .MIPS.abiflags
                0x0000000000000000       0x18 c:/program files/microchip/xc32/v4.20/bin/bin/../../lib/gcc/pic32mx/8.3.1/../../../../pic32mx/lib\libpic32.a(errno.o)
 .xc_stack_usage.hdr
                0x0000000000000000        0xe c:/program files/microchip/xc32/v4.20/bin/bin/../../lib/gcc/pic32mx/8.3.1/../../../../pic32mx/lib\libpic32.a(errno.o)
 .reginfo       0x0000000000000000       0x18 c:/program files/microchip/xc32/v4.20/bin/bin/../../lib/gcc/pic32mx/8.3.1/../../../../pic32mx/lib\libpic32.a(isinf.o)
 .MIPS.abiflags
                0x0000000000000000       0x18 c:/program files/microchip/xc32/v4.20/bin/bin/../../lib/gcc/pic32mx/8.3.1/../../../../pic32mx/lib\libpic32.a(isinf.o)
 .xc_stack_usage
                0x0000000000000000       0x76 c:/program files/microchip/xc32/v4.20/bin/bin/../../lib/gcc/pic32mx/8.3.1/../../../../pic32mx/lib\libpic32.a(isinf.o)
 .xc_stack_usage.hdr
                0x0000000000000000        0xe c:/program files/microchip/xc32/v4.20/bin/bin/../../lib/gcc/pic32mx/8.3.1/../../../../pic32mx/lib\libpic32.a(isinf.o)
 .reginfo       0x0000000000000000       0x18 c:/program files/microchip/xc32/v4.20/bin/bin/../../lib/gcc/pic32mx/8.3.1/../../../../pic32mx/lib\libe.a(_unorddf2.o)
 .MIPS.abiflags
                0x0000000000000000       0x18 c:/program files/microchip/xc32/v4.20/bin/bin/../../lib/gcc/pic32mx/8.3.1/../../../../pic32mx/lib\libe.a(_unorddf2.o)
 .xc_stack_usage
                0x0000000000000000       0x18 c:/program files/microchip/xc32/v4.20/bin/bin/../../lib/gcc/pic32mx/8.3.1/../../../../pic32mx/lib\libe.a(_unorddf2.o)
 .xc_stack_usage.hdr
                0x0000000000000000        0xe c:/program files/microchip/xc32/v4.20/bin/bin/../../lib/gcc/pic32mx/8.3.1/../../../../pic32mx/lib\libe.a(_unorddf2.o)

Memory Configuration

Name             Origin             Length             Attributes
kseg0_program_mem 0x000000009d007490 0x0000000000038b70 xr
kseg0_boot_mem   0x000000009d006000 0x0000000000000000
exception_mem    0x000000009d006000 0x0000000000001000
kseg1_boot_mem   0x000000009d007000 0x0000000000000490
debug_exec_mem   0x00000000bfc02000 0x0000000000000ff0
config3          0x00000000bfc02ff0 0x0000000000000004
config2          0x00000000bfc02ff4 0x0000000000000004
config1          0x00000000bfc02ff8 0x0000000000000004
config0          0x00000000bfc02ffc 0x0000000000000004
kseg1_shared_mem 0x00000000a0000000 0x0000000000001000 w !x
kseg1_data_mem   0x00000000a0001000 0x0000000000007000 w !x
sfrs             0x00000000bf800000 0x0000000000100000
configsfrs       0x00000000bfc02ff0 0x0000000000000010
*default*        0x0000000000000000 0xffffffffffffffff

Linker script and memory map

LOAD c:/program files/microchip/xc32/v4.20/bin/bin/../../lib/gcc/pic32mx/8.3.1/../../../../pic32mx/lib\debug-exception-return.o
LOAD output\tmr.o
LOAD output\mal.o
LOAD output\ringBuffer.o
LOAD output\task.o
LOAD output\sleep.o
LOAD output\eeprom.o
LOAD output\eep_manager.o
LOAD output\usb.o
LOAD output\usb_descriptors.o
LOAD output\usb_device.o
LOAD output\exceptions.o
LOAD output\isr.o
LOAD output\main.o
LOAD output\c_eep_manager.o
LOAD output\app.o
LOAD output\ad.o
LOAD output\grbl_gcode.o
LOAD output\grbl_limits.o
LOAD output\coolant_control.o
LOAD output\motion_control.o
LOAD output\nuts_bolts.o
LOAD output\planner.o
LOAD output\print.o
LOAD output\report.o
LOAD output\settings.o
LOAD output\spindle_control.o
LOAD output\stepper.o
LOAD output\system.o
LOAD output\grbl.o
LOAD output\pwm.o
LOAD output\jog.o
LOAD output\usb_function_cdc.o
LOAD output\dee.o
LOAD output\dee_page.o
LOAD output\dee_page_helper.o
LOAD output\eep_manager_crc.o
LOAD output\system_control.o
LOAD output\stepper_enable.o
LOAD output\system_exec.o
LOAD output\system_alarm.o
LOAD output\grbl_eeprom.o
LOAD output\bootloader_interface.o
LOAD output\grbl_toolchange.o
LOAD output\stackmeasure.o
LOAD output\stackmeasure_helper.o
LOAD output\grbl_protocol.o
LOAD output\grbl_running.o
LOAD output\grbl_bootloader.o
LOAD output\grbl_probe.o
LOAD output\ethernet.o
LOAD output\ENC28J60.o
LOAD output\DHCP.o
LOAD output\ARP.o
LOAD output\Announce.o
LOAD output\Helpers.o
LOAD output\ICMP.o
LOAD output\IP.o
LOAD output\StackTsk.o
LOAD output\UDP.o
LOAD output\usb_grbl_multi.o
LOAD output\ethernet_grbl_multi.o
LOAD output\grbl_multi.o
LOAD output\Reboot.o
LOAD output\TCP.o
LOAD output\BerkeleyAPI.o
LOAD output\noinitram.o
                0x0000000000000400                PROVIDE (_min_stack_size = 0x400)
LOAD c:/program files/microchip/xc32/v4.20/bin/bin/../../lib/gcc/pic32mx/8.3.1/../../../../pic32mx/lib/./proc/32MX440F256H\processor.o
START GROUP
LOAD C:\Program Files (x86)\Microchip\MPLAB C32 Suite\pic32mx\lib\libmchp_peripheral.a
END GROUP
START GROUP
LOAD C:\Program Files (x86)\Microchip\MPLAB C32 Suite\pic32mx\lib\libmchp_peripheral_32MX440F256H.a
END GROUP
                0x0000000000000001                PROVIDE (_vector_spacing = 0x1)
                0x000000009d006000                _ebase_address = 0x9d006000
                0x000000009d007000                _RESET_ADDR = 0x9d007000
                0x000000009d007380                _BEV_EXCPT_ADDR = 0x9d007380
                0x000000009d007480                _DBG_EXCPT_ADDR = 0x9d007480
                0x00000000bfc02000                _DBG_CODE_ADDR = 0xbfc02000
                0x0000000000000ff0                _DBG_CODE_SIZE = 0xff0
                0x000000009d006180                _GEN_EXCPT_ADDR = (_ebase_address + 0x180)

.config_BFC02FF0
 *(.config_BFC02FF0)

.config_BFC02FF4
 *(.config_BFC02FF4)

.config_BFC02FF8
 *(.config_BFC02FF8)

.config_BFC02FFC
 *(.config_BFC02FFC)
                [!provide]                        PROVIDE (_DBG_CODE_ADDR = 0xbfc02000)
                [!provide]                        PROVIDE (_DBG_CODE_SIZE = 0xff0)

.reset          0x000000009d007000      0x19c
 *(.reset)
 .reset         0x000000009d007000        0x8 C:\Users\kyrk\AppData\Local\Temp\ccC6iq7L.o
                0x000000009d007000                _reset
 *(.reset.startup)
 .reset.startup
                0x000000009d007008      0x194 C:\Users\kyrk\AppData\Local\Temp\ccC6iq7L.o
                0x000000009d007008                _startup

.bev_excpt      0x000000009d007380       0x10
 *(.bev_handler)
 .bev_handler   0x000000009d007380       0x10 C:\Users\kyrk\AppData\Local\Temp\ccC6iq7L.o

.dbg_excpt      0x000000009d007480        0x0
                0x000000009d007480                . = (. + DEFINED (_DEBUGGER)?0x8:0x0)

.dbg_code       0x00000000bfc02000        0x0
                0x00000000bfc02000                . = (. + DEFINED (_DEBUGGER)?_DBG_CODE_SIZE:0x0)

.app_excpt      0x000000009d006180       0x10
 *(.gen_handler)
 .gen_handler   0x000000009d006180       0x10 C:\Users\kyrk\AppData\Local\Temp\ccC6iq7L.o

.vector_0       0x000000009d006200        0x8
 *(.vector_0)
 .vector_0      0x000000009d006200        0x8 output\isr.o
                0x000000009d006200                __vector_dispatch_0
                0x0000000000000001                ASSERT (((_vector_spacing == 0x0) || (SIZEOF (.vector_0) <= (_vector_spacing << 0x5))), function at exception vector 0 too large)

.vector_1       0x000000009d006220        0x8
 *(.vector_1)
 .vector_1      0x000000009d006220        0x8 c:/program files/microchip/xc32/v4.20/bin/bin/../../lib/gcc/pic32mx/8.3.1/../../../../pic32mx/lib\libpic32.a(vector1.o)
                0x000000009d006220                __vector_dispatch_1
                0x0000000000000001                ASSERT (((_vector_spacing == 0x0) || (SIZEOF (.vector_1) <= (_vector_spacing << 0x5))), function at exception vector 1 too large)

.vector_2       0x000000009d006240        0x8
 *(.vector_2)
 .vector_2      0x000000009d006240        0x8 c:/program files/microchip/xc32/v4.20/bin/bin/../../lib/gcc/pic32mx/8.3.1/../../../../pic32mx/lib\libpic32.a(vector2.o)
                0x000000009d006240                __vector_dispatch_2
                0x0000000000000001                ASSERT (((_vector_spacing == 0x0) || (SIZEOF (.vector_2) <= (_vector_spacing << 0x5))), function at exception vector 2 too large)

.vector_3       0x000000009d006260        0x8
 *(.vector_3)
 .vector_3      0x000000009d006260        0x8 c:/program files/microchip/xc32/v4.20/bin/bin/../../lib/gcc/pic32mx/8.3.1/../../../../pic32mx/lib\libpic32.a(vector3.o)
                0x000000009d006260                __vector_dispatch_3
                0x0000000000000001                ASSERT (((_vector_spacing == 0x0) || (SIZEOF (.vector_3) <= (_vector_spacing << 0x5))), function at exception vector 3 too large)

.vector_4       0x000000009d006280        0x8
 *(.vector_4)
 .vector_4      0x000000009d006280        0x8 output\isr.o
                0x000000009d006280                __vector_dispatch_4
                0x0000000000000001                ASSERT (((_vector_spacing == 0x0) || (SIZEOF (.vector_4) <= (_vector_spacing << 0x5))), function at exception vector 4 too large)

.vector_5       0x000000009d0062a0        0x8
 *(.vector_5)
 .vector_5      0x000000009d0062a0        0x8 c:/program files/microchip/xc32/v4.20/bin/bin/../../lib/gcc/pic32mx/8.3.1/../../../../pic32mx/lib\libpic32.a(vector5.o)
                0x000000009d0062a0                __vector_dispatch_5
                0x0000000000000001                ASSERT (((_vector_spacing == 0x0) || (SIZEOF (.vector_5) <= (_vector_spacing << 0x5))), function at exception vector 5 too large)

.vector_6       0x000000009d0062c0        0x8
 *(.vector_6)
 .vector_6      0x000000009d0062c0        0x8 c:/program files/microchip/xc32/v4.20/bin/bin/../../lib/gcc/pic32mx/8.3.1/../../../../pic32mx/lib\libpic32.a(vector6.o)
                0x000000009d0062c0                __vector_dispatch_6
                0x0000000000000001                ASSERT (((_vector_spacing == 0x0) || (SIZEOF (.vector_6) <= (_vector_spacing << 0x5))), function at exception vector 6 too large)

.vector_7       0x000000009d0062e0        0x8
 *(.vector_7)
 .vector_7      0x000000009d0062e0        0x8 c:/program files/microchip/xc32/v4.20/bin/bin/../../lib/gcc/pic32mx/8.3.1/../../../../pic32mx/lib\libpic32.a(vector7.o)
                0x000000009d0062e0                __vector_dispatch_7
                0x0000000000000001                ASSERT (((_vector_spacing == 0x0) || (SIZEOF (.vector_7) <= (_vector_spacing << 0x5))), function at exception vector 7 too large)

.vector_8       0x000000009d006300        0x8
 *(.vector_8)
 .vector_8      0x000000009d006300        0x8 output\isr.o
                0x000000009d006300                __vector_dispatch_8
                0x0000000000000001                ASSERT (((_vector_spacing == 0x0) || (SIZEOF (.vector_8) <= (_vector_spacing << 0x5))), function at exception vector 8 too large)

.vector_9       0x000000009d006320        0x8
 *(.vector_9)
 .vector_9      0x000000009d006320        0x8 c:/program files/microchip/xc32/v4.20/bin/bin/../../lib/gcc/pic32mx/8.3.1/../../../../pic32mx/lib\libpic32.a(vector9.o)
                0x000000009d006320                __vector_dispatch_9
                0x0000000000000001                ASSERT (((_vector_spacing == 0x0) || (SIZEOF (.vector_9) <= (_vector_spacing << 0x5))), function at exception vector 9 too large)

.vector_10      0x000000009d006340        0x8
 *(.vector_10)
 .vector_10     0x000000009d006340        0x8 c:/program files/microchip/xc32/v4.20/bin/bin/../../lib/gcc/pic32mx/8.3.1/../../../../pic32mx/lib\libpic32.a(vector10.o)
                0x000000009d006340                __vector_dispatch_10
                0x0000000000000001                ASSERT (((_vector_spacing == 0x0) || (SIZEOF (.vector_10) <= (_vector_spacing << 0x5))), function at exception vector 10 too large)

.vector_11      0x000000009d006360        0x8
 *(.vector_11)
 .vector_11     0x000000009d006360        0x8 c:/program files/microchip/xc32/v4.20/bin/bin/../../lib/gcc/pic32mx/8.3.1/../../../../pic32mx/lib\libpic32.a(vector11.o)
                0x000000009d006360                __vector_dispatch_11
                0x0000000000000001                ASSERT (((_vector_spacing == 0x0) || (SIZEOF (.vector_11) <= (_vector_spacing << 0x5))), function at exception vector 11 too large)

.vector_12      0x000000009d006380        0x8
 *(.vector_12)
 .vector_12     0x000000009d006380        0x8 output\isr.o
                0x000000009d006380                __vector_dispatch_12
                0x0000000000000001                ASSERT (((_vector_spacing == 0x0) || (SIZEOF (.vector_12) <= (_vector_spacing << 0x5))), function at exception vector 12 too large)

.vector_13      0x000000009d0063a0        0x8
 *(.vector_13)
 .vector_13     0x000000009d0063a0        0x8 c:/program files/microchip/xc32/v4.20/bin/bin/../../lib/gcc/pic32mx/8.3.1/../../../../pic32mx/lib\libpic32.a(vector13.o)
                0x000000009d0063a0                __vector_dispatch_13
                0x0000000000000001                ASSERT (((_vector_spacing == 0x0) || (SIZEOF (.vector_13) <= (_vector_spacing << 0x5))), function at exception vector 13 too large)

.vector_14      0x000000009d0063c0        0x8
 *(.vector_14)
 .vector_14     0x000000009d0063c0        0x8 c:/program files/microchip/xc32/v4.20/bin/bin/../../lib/gcc/pic32mx/8.3.1/../../../../pic32mx/lib\libpic32.a(vector14.o)
                0x000000009d0063c0                __vector_dispatch_14
                0x0000000000000001                ASSERT (((_vector_spacing == 0x0) || (SIZEOF (.vector_14) <= (_vector_spacing << 0x5))), function at exception vector 14 too large)

.vector_15      0x000000009d0063e0        0x8
 *(.vector_15)
 .vector_15     0x000000009d0063e0        0x8 output\isr.o
                0x000000009d0063e0                __vector_dispatch_15
                0x0000000000000001                ASSERT (((_vector_spacing == 0x0) || (SIZEOF (.vector_15) <= (_vector_spacing << 0x5))), function at exception vector 15 too large)

.vector_16      0x000000009d006400        0x8
 *(.vector_16)
 .vector_16     0x000000009d006400        0x8 output\isr.o
                0x000000009d006400                __vector_dispatch_16
                0x0000000000000001                ASSERT (((_vector_spacing == 0x0) || (SIZEOF (.vector_16) <= (_vector_spacing << 0x5))), function at exception vector 16 too large)

.vector_17      0x000000009d006420        0x8
 *(.vector_17)
 .vector_17     0x000000009d006420        0x8 c:/program files/microchip/xc32/v4.20/bin/bin/../../lib/gcc/pic32mx/8.3.1/../../../../pic32mx/lib\libpic32.a(vector17.o)
                0x000000009d006420                __vector_dispatch_17
                0x0000000000000001                ASSERT (((_vector_spacing == 0x0) || (SIZEOF (.vector_17) <= (_vector_spacing << 0x5))), function at exception vector 17 too large)

.vector_18      0x000000009d006440        0x8
 *(.vector_18)
 .vector_18     0x000000009d006440        0x8 c:/program files/microchip/xc32/v4.20/bin/bin/../../lib/gcc/pic32mx/8.3.1/../../../../pic32mx/lib\libpic32.a(vector18.o)
                0x000000009d006440                __vector_dispatch_18
                0x0000000000000001                ASSERT (((_vector_spacing == 0x0) || (SIZEOF (.vector_18) <= (_vector_spacing << 0x5))), function at exception vector 18 too large)

.vector_19      0x000000009d006460        0x8
 *(.vector_19)
 .vector_19     0x000000009d006460        0x8 output\isr.o
                0x000000009d006460                __vector_dispatch_19
                0x0000000000000001                ASSERT (((_vector_spacing == 0x0) || (SIZEOF (.vector_19) <= (_vector_spacing << 0x5))), function at exception vector 19 too large)

.vector_20      0x000000009d006480        0x8
 *(.vector_20)
 .vector_20     0x000000009d006480        0x8 output\isr.o
                0x000000009d006480                __vector_dispatch_20
                0x0000000000000001                ASSERT (((_vector_spacing == 0x0) || (SIZEOF (.vector_20) <= (_vector_spacing << 0x5))), function at exception vector 20 too large)

.vector_21      0x000000009d0064a0        0x8
 *(.vector_21)
 .vector_21     0x000000009d0064a0        0x8 c:/program files/microchip/xc32/v4.20/bin/bin/../../lib/gcc/pic32mx/8.3.1/../../../../pic32mx/lib\libpic32.a(vector21.o)
                0x000000009d0064a0                __vector_dispatch_21
                0x0000000000000001                ASSERT (((_vector_spacing == 0x0) || (SIZEOF (.vector_21) <= (_vector_spacing << 0x5))), function at exception vector 21 too large)

.vector_22      0x000000009d0064c0        0x8
 *(.vector_22)
 .vector_22     0x000000009d0064c0        0x8 c:/program files/microchip/xc32/v4.20/bin/bin/../../lib/gcc/pic32mx/8.3.1/../../../../pic32mx/lib\libpic32.a(vector22.o)
                0x000000009d0064c0                __vector_dispatch_22
                0x0000000000000001                ASSERT (((_vector_spacing == 0x0) || (SIZEOF (.vector_22) <= (_vector_spacing << 0x5))), function at exception vector 22 too large)

.vector_23      0x000000009d0064e0        0x8
 *(.vector_23)
 .vector_23     0x000000009d0064e0        0x8 c:/program files/microchip/xc32/v4.20/bin/bin/../../lib/gcc/pic32mx/8.3.1/../../../../pic32mx/lib\libpic32.a(vector23.o)
                0x000000009d0064e0                __vector_dispatch_23
                0x0000000000000001                ASSERT (((_vector_spacing == 0x0) || (SIZEOF (.vector_23) <= (_vector_spacing << 0x5))), function at exception vector 23 too large)

.vector_24      0x000000009d006500        0x8
 *(.vector_24)
 .vector_24     0x000000009d006500        0x8 output\isr.o
                0x000000009d006500                __vector_dispatch_24
                0x0000000000000001                ASSERT (((_vector_spacing == 0x0) || (SIZEOF (.vector_24) <= (_vector_spacing << 0x5))), function at exception vector 24 too large)

.vector_25      0x000000009d006520        0x8
 *(.vector_25)
 .vector_25     0x000000009d006520        0x8 output\isr.o
                0x000000009d006520                __vector_dispatch_25
                0x0000000000000001                ASSERT (((_vector_spacing == 0x0) || (SIZEOF (.vector_25) <= (_vector_spacing << 0x5))), function at exception vector 25 too large)

.vector_26      0x000000009d006540        0x8
 *(.vector_26)
 .vector_26     0x000000009d006540        0x8 output\isr.o
                0x000000009d006540                __vector_dispatch_26
                0x0000000000000001                ASSERT (((_vector_spacing == 0x0) || (SIZEOF (.vector_26) <= (_vector_spacing << 0x5))), function at exception vector 26 too large)

.vector_27      0x000000009d006560        0x8
 *(.vector_27)
 .vector_27     0x000000009d006560        0x8 c:/program files/microchip/xc32/v4.20/bin/bin/../../lib/gcc/pic32mx/8.3.1/../../../../pic32mx/lib\libpic32.a(vector27.o)
                0x000000009d006560                __vector_dispatch_27
                0x0000000000000001                ASSERT (((_vector_spacing == 0x0) || (SIZEOF (.vector_27) <= (_vector_spacing << 0x5))), function at exception vector 27 too large)

.vector_28      0x000000009d006580        0x8
 *(.vector_28)
 .vector_28     0x000000009d006580        0x8 c:/program files/microchip/xc32/v4.20/bin/bin/../../lib/gcc/pic32mx/8.3.1/../../../../pic32mx/lib\libpic32.a(vector28.o)
                0x000000009d006580                __vector_dispatch_28
                0x0000000000000001                ASSERT (((_vector_spacing == 0x0) || (SIZEOF (.vector_28) <= (_vector_spacing << 0x5))), function at exception vector 28 too large)

.vector_29      0x000000009d0065a0        0x8
 *(.vector_29)
 .vector_29     0x000000009d0065a0        0x8 c:/program files/microchip/xc32/v4.20/bin/bin/../../lib/gcc/pic32mx/8.3.1/../../../../pic32mx/lib\libpic32.a(vector29.o)
                0x000000009d0065a0                __vector_dispatch_29
                0x0000000000000001                ASSERT (((_vector_spacing == 0x0) || (SIZEOF (.vector_29) <= (_vector_spacing << 0x5))), function at exception vector 29 too large)

.vector_30      0x000000009d0065c0        0x8
 *(.vector_30)
 .vector_30     0x000000009d0065c0        0x8 c:/program files/microchip/xc32/v4.20/bin/bin/../../lib/gcc/pic32mx/8.3.1/../../../../pic32mx/lib\libpic32.a(vector30.o)
                0x000000009d0065c0                __vector_dispatch_30
                0x0000000000000001                ASSERT (((_vector_spacing == 0x0) || (SIZEOF (.vector_30) <= (_vector_spacing << 0x5))), function at exception vector 30 too large)

.vector_31      0x000000009d0065e0        0x8
 *(.vector_31)
 .vector_31     0x000000009d0065e0        0x8 output\isr.o
                0x000000009d0065e0                __vector_dispatch_31
                0x0000000000000001                ASSERT (((_vector_spacing == 0x0) || (SIZEOF (.vector_31) <= (_vector_spacing << 0x5))), function at exception vector 31 too large)

.vector_32      0x000000009d006600        0x8
 *(.vector_32)
 .vector_32     0x000000009d006600        0x8 output\isr.o
                0x000000009d006600                __vector_dispatch_32
                0x0000000000000001                ASSERT (((_vector_spacing == 0x0) || (SIZEOF (.vector_32) <= (_vector_spacing << 0x5))), function at exception vector 32 too large)

.vector_33      0x000000009d006620        0x8
 *(.vector_33)
 .vector_33     0x000000009d006620        0x8 output\isr.o
                0x000000009d006620                __vector_dispatch_33
                0x0000000000000001                ASSERT (((_vector_spacing == 0x0) || (SIZEOF (.vector_33) <= (_vector_spacing << 0x5))), function at exception vector 33 too large)

.vector_34      0x000000009d006640        0x8
 *(.vector_34)
 .vector_34     0x000000009d006640        0x8 c:/program files/microchip/xc32/v4.20/bin/bin/../../lib/gcc/pic32mx/8.3.1/../../../../pic32mx/lib\libpic32.a(vector34.o)
                0x000000009d006640                __vector_dispatch_34
                0x0000000000000001                ASSERT (((_vector_spacing == 0x0) || (SIZEOF (.vector_34) <= (_vector_spacing << 0x5))), function at exception vector 34 too large)

.vector_35      0x000000009d006660        0x8
 *(.vector_35)
 .vector_35     0x000000009d006660        0x8 c:/program files/microchip/xc32/v4.20/bin/bin/../../lib/gcc/pic32mx/8.3.1/../../../../pic32mx/lib\libpic32.a(vector35.o)
                0x000000009d006660                __vector_dispatch_35
                0x0000000000000001                ASSERT (((_vector_spacing == 0x0) || (SIZEOF (.vector_35) <= (_vector_spacing << 0x5))), function at exception vector 35 too large)

.vector_36      0x000000009d006680        0x8
 *(.vector_36)
 .vector_36     0x000000009d006680        0x8 output\isr.o
                0x000000009d006680                __vector_dispatch_36
                0x0000000000000001                ASSERT (((_vector_spacing == 0x0) || (SIZEOF (.vector_36) <= (_vector_spacing << 0x5))), function at exception vector 36 too large)

.vector_37      0x000000009d0066a0        0x8
 *(.vector_37)
 .vector_37     0x000000009d0066a0        0x8 output\isr.o
                0x000000009d0066a0                __vector_dispatch_37
                0x0000000000000001                ASSERT (((_vector_spacing == 0x0) || (SIZEOF (.vector_37) <= (_vector_spacing << 0x5))), function at exception vector 37 too large)

.vector_38      0x000000009d0066c0        0x8
 *(.vector_38)
 .vector_38     0x000000009d0066c0        0x8 output\isr.o
                0x000000009d0066c0                __vector_dispatch_38
                0x0000000000000001                ASSERT (((_vector_spacing == 0x0) || (SIZEOF (.vector_38) <= (_vector_spacing << 0x5))), function at exception vector 38 too large)

.vector_39      0x000000009d0066e0        0x8
 *(.vector_39)
 .vector_39     0x000000009d0066e0        0x8 output\isr.o
                0x000000009d0066e0                __vector_dispatch_39
                0x0000000000000001                ASSERT (((_vector_spacing == 0x0) || (SIZEOF (.vector_39) <= (_vector_spacing << 0x5))), function at exception vector 39 too large)

.vector_40      0x000000009d006700        0x8
 *(.vector_40)
 .vector_40     0x000000009d006700        0x8 c:/program files/microchip/xc32/v4.20/bin/bin/../../lib/gcc/pic32mx/8.3.1/../../../../pic32mx/lib\libpic32.a(vector40.o)
                0x000000009d006700                __vector_dispatch_40
                0x0000000000000001                ASSERT (((_vector_spacing == 0x0) || (SIZEOF (.vector_40) <= (_vector_spacing << 0x5))), function at exception vector 40 too large)

.vector_41      0x000000009d006720        0x8
 *(.vector_41)
 .vector_41     0x000000009d006720        0x8 c:/program files/microchip/xc32/v4.20/bin/bin/../../lib/gcc/pic32mx/8.3.1/../../../../pic32mx/lib\libpic32.a(vector41.o)
                0x000000009d006720                __vector_dispatch_41
                0x0000000000000001                ASSERT (((_vector_spacing == 0x0) || (SIZEOF (.vector_41) <= (_vector_spacing << 0x5))), function at exception vector 41 too large)

.vector_42      0x000000009d006740        0x8
 *(.vector_42)
 .vector_42     0x000000009d006740        0x8 c:/program files/microchip/xc32/v4.20/bin/bin/../../lib/gcc/pic32mx/8.3.1/../../../../pic32mx/lib\libpic32.a(vector42.o)
                0x000000009d006740                __vector_dispatch_42
                0x0000000000000001                ASSERT (((_vector_spacing == 0x0) || (SIZEOF (.vector_42) <= (_vector_spacing << 0x5))), function at exception vector 42 too large)

.vector_43      0x000000009d006760        0x8
 *(.vector_43)
 .vector_43     0x000000009d006760        0x8 c:/program files/microchip/xc32/v4.20/bin/bin/../../lib/gcc/pic32mx/8.3.1/../../../../pic32mx/lib\libpic32.a(vector43.o)
                0x000000009d006760                __vector_dispatch_43
                0x0000000000000001                ASSERT (((_vector_spacing == 0x0) || (SIZEOF (.vector_43) <= (_vector_spacing << 0x5))), function at exception vector 43 too large)

.vector_44      0x000000009d006780        0x8
 *(.vector_44)
 .vector_44     0x000000009d006780        0x8 c:/program files/microchip/xc32/v4.20/bin/bin/../../lib/gcc/pic32mx/8.3.1/../../../../pic32mx/lib\libpic32.a(vector44.o)
                0x000000009d006780                __vector_dispatch_44
                0x0000000000000001                ASSERT (((_vector_spacing == 0x0) || (SIZEOF (.vector_44) <= (_vector_spacing << 0x5))), function at exception vector 44 too large)

.vector_45      0x000000009d0067a0        0x8
 *(.vector_45)
 .vector_45     0x000000009d0067a0        0x8 output\isr.o
                0x000000009d0067a0                __vector_dispatch_45
                0x0000000000000001                ASSERT (((_vector_spacing == 0x0) || (SIZEOF (.vector_45) <= (_vector_spacing << 0x5))), function at exception vector 45 too large)

.vector_46      0x000000009d0067c0        0x0
 *(.vector_46)
                0x0000000000000001                ASSERT (((_vector_spacing == 0x0) || (SIZEOF (.vector_46) <= (_vector_spacing << 0x5))), function at exception vector 46 too large)

.vector_47      0x000000009d0067e0        0x0
 *(.vector_47)
                0x0000000000000001                ASSERT (((_vector_spacing == 0x0) || (SIZEOF (.vector_47) <= (_vector_spacing << 0x5))), function at exception vector 47 too large)

.vector_48      0x000000009d006800        0x0
 *(.vector_48)
                0x0000000000000001                ASSERT (((_vector_spacing == 0x0) || (SIZEOF (.vector_48) <= (_vector_spacing << 0x5))), function at exception vector 48 too large)

.vector_49      0x000000009d006820        0x0
 *(.vector_49)
                0x0000000000000001                ASSERT (((_vector_spacing == 0x0) || (SIZEOF (.vector_49) <= (_vector_spacing << 0x5))), function at exception vector 49 too large)

.vector_50      0x000000009d006840        0x0
 *(.vector_50)
                0x0000000000000001                ASSERT (((_vector_spacing == 0x0) || (SIZEOF (.vector_50) <= (_vector_spacing << 0x5))), function at exception vector 50 too large)

.vector_51      0x000000009d006860        0x0
 *(.vector_51)
                0x0000000000000001                ASSERT (((_vector_spacing == 0x0) || (SIZEOF (.vector_51) <= (_vector_spacing << 0x5))), function at exception vector 51 too large)

.vector_52      0x000000009d006880        0x0
 *(.vector_52)
                0x0000000000000001                ASSERT (((_vector_spacing == 0x0) || (SIZEOF (.vector_52) <= (_vector_spacing << 0x5))), function at exception vector 52 too large)

.vector_53      0x000000009d0068a0        0x0
 *(.vector_53)
                0x0000000000000001                ASSERT (((_vector_spacing == 0x0) || (SIZEOF (.vector_53) <= (_vector_spacing << 0x5))), function at exception vector 53 too large)

.vector_54      0x000000009d0068c0        0x0
 *(.vector_54)
                0x0000000000000001                ASSERT (((_vector_spacing == 0x0) || (SIZEOF (.vector_54) <= (_vector_spacing << 0x5))), function at exception vector 54 too large)

.vector_55      0x000000009d0068e0        0x0
 *(.vector_55)
                0x0000000000000001                ASSERT (((_vector_spacing == 0x0) || (SIZEOF (.vector_55) <= (_vector_spacing << 0x5))), function at exception vector 55 too large)

.vector_56      0x000000009d006900        0x0
 *(.vector_56)
                0x0000000000000001                ASSERT (((_vector_spacing == 0x0) || (SIZEOF (.vector_56) <= (_vector_spacing << 0x5))), function at exception vector 56 too large)

.vector_57      0x000000009d006920        0x0
 *(.vector_57)
                0x0000000000000001                ASSERT (((_vector_spacing == 0x0) || (SIZEOF (.vector_57) <= (_vector_spacing << 0x5))), function at exception vector 57 too large)

.vector_58      0x000000009d006940        0x0
 *(.vector_58)
                0x0000000000000001                ASSERT (((_vector_spacing == 0x0) || (SIZEOF (.vector_58) <= (_vector_spacing << 0x5))), function at exception vector 58 too large)

.vector_59      0x000000009d006960        0x0
 *(.vector_59)
                0x0000000000000001                ASSERT (((_vector_spacing == 0x0) || (SIZEOF (.vector_59) <= (_vector_spacing << 0x5))), function at exception vector 59 too large)

.vector_60      0x000000009d006980        0x0
 *(.vector_60)
                0x0000000000000001                ASSERT (((_vector_spacing == 0x0) || (SIZEOF (.vector_60) <= (_vector_spacing << 0x5))), function at exception vector 60 too large)

.vector_61      0x000000009d0069a0        0x0
 *(.vector_61)
                0x0000000000000001                ASSERT (((_vector_spacing == 0x0) || (SIZEOF (.vector_61) <= (_vector_spacing << 0x5))), function at exception vector 61 too large)

.vector_62      0x000000009d0069c0        0x0
 *(.vector_62)
                0x0000000000000001                ASSERT (((_vector_spacing == 0x0) || (SIZEOF (.vector_62) <= (_vector_spacing << 0x5))), function at exception vector 62 too large)

.vector_63      0x000000009d0069e0        0x0
 *(.vector_63)
                0x0000000000000001                ASSERT (((_vector_spacing == 0x0) || (SIZEOF (.vector_63) <= (_vector_spacing << 0x5))), function at exception vector 63 too large)

.startup
 *(.startup)

.text           0x000000009d007490        0x0
 *(.stub .gnu.linkonce.t.*)
 *(.text.*personality*)
 *(.mips16.fn.*)
 *(.mips16.call.*)
 *(.gnu.warning)
                0x000000009d007490                . = ALIGN (0x4)

.init           0x000000009d007490        0x0
 *crti.o(.init)
 *crtbegin.o(.init)
 *(EXCLUDE_FILE(*crtn.o *crtend?.o *crtend.o) .init)
 *crtend.o(.init)
 *crtn.o(.init)
                0x000000009d007490                . = ALIGN (0x4)

.fini           0x000000009d007490        0x0
 *(.fini)
                0x000000009d007490                . = ALIGN (0x4)

.preinit_array  0x000000009d007490        0x0
                [!provide]                        PROVIDE (__preinit_array_start = .)
 *(.preinit_array)
                [!provide]                        PROVIDE (__preinit_array_end = .)
                0x000000009d007490                . = ALIGN (0x4)

.init_array     0x000000009d007490        0x0
                [!provide]                        PROVIDE (__init_array_start = .)
 *(SORT_BY_NAME(.init_array.*))
 *(.init_array)
                [!provide]                        PROVIDE (__init_array_end = .)
                0x000000009d007490                . = ALIGN (0x4)

.fini_array     0x000000009d007490        0x0
                [!provide]                        PROVIDE (__fini_array_start = .)
 *(SORT_BY_NAME(.fini_array.*))
 *(.fini_array)
                [!provide]                        PROVIDE (__fini_array_end = .)
                0x000000009d007490                . = ALIGN (0x4)

.ctors          0x000000009d007490        0x0
 *crtbegin.o(.ctors)
 *crtbegin?.o(.ctors)
 *(EXCLUDE_FILE(*crtend?.o *crtend.o) .ctors)
 *(SORT_BY_NAME(.ctors.*))
 *(.ctors)
                0x000000009d007490                . = ALIGN (0x4)

.dtors          0x000000009d007490        0x0
 *crtbegin.o(.dtors)
 *crtbegin?.o(.dtors)
 *(EXCLUDE_FILE(*crtend?.o *crtend.o) .dtors)
 *(SORT_BY_NAME(.dtors.*))
 *(.dtors)
                0x000000009d007490                . = ALIGN (0x4)

.rodata         0x000000009d007490        0x0
 *(.gnu.linkonce.r.*)
 *(.rodata1)
                0x000000009d007490                . = ALIGN (0x4)

.sdata2         0x000000009d007490        0x0
 *(.sdata2 .sdata2.* .gnu.linkonce.s2.*)
                0x000000009d007490                . = ALIGN (0x4)

.sbss2          0x000000009d007490        0x0
 *(.sbss2 .sbss2.* .gnu.linkonce.sb2.*)
                0x000000009d007490                . = ALIGN (0x4)

.eh_frame_hdr
 *(.eh_frame_hdr)
                0x000000009d007490                . = ALIGN (0x4)

.eh_frame
 *(.eh_frame)
                0x000000009d007490                . = ALIGN (0x4)

.gcc_except_table
 *(.gcc_except_table .gcc_except_table.*)
                0x000000009d007490                . = ALIGN (0x4)

.dbg_data       0x00000000a0001000        0x0
                0x00000000a0001000                . = (. + DEFINED (_DEBUGGER)?0x200:0x0)

.jcr            0x00000000a0001000        0x0
 *(.jcr)
                0x00000000a0001000                . = ALIGN (0x4)

.eh_frame
 *(.eh_frame)
                0x00000000a0001000                . = ALIGN (0x4)

.gcc_except_table
 *(.gcc_except_table .gcc_except_table.*)
                0x00000000a0001000                . = ALIGN (0x4)

.persist        0x00000000a0001000        0x4
                0x00000000a0001000                _persist_begin = .
 *(.persist .persist.*)
 *(.pbss .pbss.*)
 .pbss          0x00000000a0001000        0x2 output\UDP.o
 .pbss          0x00000000a0001002        0x2 output\TCP.o
                0x00000000a0001004                . = ALIGN (0x4)
                0x00000000a0001004                _persist_end = .

.data           0x00000000a0001004        0x0
 *(.gnu.linkonce.d.*)
 *(.data1)
                0x00000000a0001004                . = ALIGN (0x4)
                0x00000000a0001004                . = .
                0x00000000a0009000                _gp = (ALIGN (0x10) + 0x7ff0)

.got            0x00000000a0001004        0x0
 *(.got.plt)
 *(.got)
                0x00000000a0001004                . = ALIGN (0x4)

.sdata          0x00000000a0001004       0x58
                0x00000000a0001004                _sdata_begin = .
 *(.sdata .sdata.* .gnu.linkonce.s.*)
 .sdata         0x00000000a0001004        0x1 output\sleep.o
                0x00000000a0001004                sleepGetMainLoopRun_result
 *fill*         0x00000000a0001005        0x3 
 .sdata         0x00000000a0001008        0x4 output\eep_manager.o
 .sdata         0x00000000a000100c        0x8 output\grbl_limits.o
                0x00000000a000100c                limits_disabled
                0x00000000a0001010                pl_data
 .sdata         0x00000000a0001014        0x8 output\pwm.o
                0x00000000a0001014                maxFreq
                0x00000000a0001018                maxDuty
 .sdata         0x00000000a000101c        0x4 output\dee.o
                0x00000000a000101f                dee_debug_enable
 .sdata         0x00000000a0001020        0x8 output\stepper_enable.o
                0x00000000a0001020                stepper_enable_delayed_enabling_single_shoot
                0x00000000a0001024                stepper_enable_emergency_stop_active
 .sdata         0x00000000a0001028        0x3 output\grbl_eeprom.o
                0x00000000a0001028                grbl_eeprom_trigger_prev
                0x00000000a0001029                backup_eep_error_single_shoot
                0x00000000a000102a                master_eep_error_single_shoot
 *fill*         0x00000000a000102b        0x1 
 .sdata         0x00000000a000102c        0x8 output\stackmeasure.o
                0x00000000a000102c                stackmeasure_to
                0x00000000a0001030                stackmeasure_from
 .sdata         0x00000000a0001034        0x1 output\grbl_running.o
                0x00000000a0001034                grbl_running_appSingleShoot
 *fill*         0x00000000a0001035        0x3 
 .sdata         0x00000000a0001038        0x6 output\ethernet.o
                0x00000000a0001038                SerializedMACAddress
 *fill*         0x00000000a000103e        0x2 
 .sdata         0x00000000a0001040        0x4 output\Helpers.o
 .sdata         0x00000000a0001044        0x2 output\UDP.o
 *fill*         0x00000000a0001046        0x2 
 .sdata         0x00000000a0001048        0x8 output\ethernet_grbl_multi.o
                0x00000000a0001048                addrlen
                0x00000000a000104c                serverPort
 .sdata         0x00000000a0001050        0x1 output\Reboot.o
 .sdata         0x00000000a0001051        0x2 output\TCP.o
 *fill*         0x00000000a0001053        0x1 
 .sdata         0x00000000a0001054        0x6 output\BerkeleyAPI.o
                0x00000000a000105c                . = ALIGN (0x4)
 *fill*         0x00000000a000105a        0x2 
                0x00000000a000105c                _sdata_end = .

.lit8
 *(.lit8)

.lit4
 *(.lit4)
                0x00000000a000105c                . = ALIGN (0x4)
                0x00000000a000105c                _data_end = .
                0x00000000a000105c                _bss_begin = .

.sbss           0x00000000a000105c      0x474
                0x00000000a000105c                _sbss_begin = .
 *(.dynsbss)
 *(.sbss .sbss.* .gnu.linkonce.sb.*)
 .sbss          0x00000000a000105c       0x14 output\tmr.o
                0x00000000a0001068                globalTimeUs
                0x00000000a000106c                globalTime
 .sbss          0x00000000a0001070       0x14 output\mal.o
                0x00000000a0001070                mal_reset_counter
                0x00000000a0001074                isrLockCnt
                0x00000000a0001078                gieTemp
                0x00000000a000107c                mal_RCON_temp
                0x00000000a0001080                mal_resetReason_temp
 .sbss          0x00000000a0001084        0xc output\task.o
                0x00000000a0001084                taskListsPtr
                0x00000000a0001088                doTaskListGuard
                0x00000000a0001089                doTaskList1ms
                0x00000000a000108c                tasksTotalTime
 .sbss          0x00000000a0001090       0x1c output\sleep.o
                0x00000000a0001090                do_isr_sleep_1ms
                0x00000000a0001094                sleep_stay_in_loop_value
                0x00000000a0001095                sleepPointOfNoReturn
                0x00000000a0001096                sleepEdgeDetector
                0x00000000a0001098                sleepDriverRequest_delay
                0x00000000a000109c                sleepAppRequest_delay
                0x00000000a00010a0                sleepRequestDriver
                0x00000000a00010a4                sleepRequestApp
                0x00000000a00010a8                sleepTime
 .sbss          0x00000000a00010ac        0xc output\eeprom.o
                0x00000000a00010ac                do_eeprom_1ms
                0x00000000a00010b0                eeprom_write_buffer_read_cnt
                0x00000000a00010b4                eeprom_write_buffer_write_cnt
 .sbss          0x00000000a00010b8       0x20 output\eep_manager.o
                0x00000000a00010c9                do_eep_manager_1ms
                0x00000000a00010cc                eep_manager_persistent_eeprom_2
                0x00000000a00010d0                eep_manager_persistent_eeprom
                0x00000000a00010d4                eep_manager_persistent_config
 .sbss          0x00000000a00010d8        0x2 output\usb.o
 *fill*         0x00000000a00010da        0x2 
 .sbss          0x00000000a00010dc        0x8 output\exceptions.o
                0x00000000a00010dc                generateException
                0x00000000a00010e0                exceptionCounter
 .sbss          0x00000000a00010e4       0x21 output\main.o
                0x00000000a00010f0                loopCntHistoryCnt
                0x00000000a00010f4                loopCntHistoryLast
                0x00000000a00010f8                tick_count
                0x00000000a00010fc                loopCnt
                0x00000000a0001100                loopCntTemp
                0x00000000a0001104                do_loopCnt
 *fill*         0x00000000a0001105        0x3 
 .sbss          0x00000000a0001108        0x8 output\app.o
                0x00000000a0001108                do_app_1ms
                0x00000000a000110c                app_State
 .sbss          0x00000000a0001110        0x2 output\ad.o
                0x00000000a0001111                doAd100ms
 *fill*         0x00000000a0001112        0x2 
 .sbss          0x00000000a0001114        0x8 output\grbl_gcode.o
                0x00000000a0001114                grbl_Tool_Length_2
                0x00000000a0001118                grbl_Tool_Length_1
 .sbss          0x00000000a000111c       0x26 output\grbl_limits.o
                0x00000000a000111c                logger_limits_get_state_prev
                0x00000000a000111d                limit_flag_for_homeing_EXEC_CYCLE_STOP
                0x00000000a000111e                limit_delay_home
                0x00000000a0001120                limits_get_state_debug
                0x00000000a0001121                limits_get_state_current
                0x00000000a0001122                limits_get_state_last
                0x00000000a0001124                do_limits_polling
                0x00000000a0001128                do_limits_1ms
                0x00000000a000112c                homing_rate
                0x00000000a0001130                approach
                0x00000000a0001131                n_active_axis
                0x00000000a0001132                axislock
                0x00000000a0001133                limit_state
                0x00000000a0001134                max_travel
                0x00000000a0001138                n_cycle
                0x00000000a000113c                limit_go_home_state
                0x00000000a0001140                cycle_mask_asynch
                0x00000000a0001141                do_limits_go_home
 *fill*         0x00000000a0001142        0x2 
 .sbss          0x00000000a0001144        0x7 output\motion_control.o
                0x00000000a0001144                mc_homing_state_machine
                0x00000000a0001148                do_mc_homing_cycle
                0x00000000a0001149                count
                0x00000000a000114a                do_ArcGenerating
 .sbss          0x00000000a000114b        0x3 output\nuts_bolts.o
                0x00000000a000114b                grbl_not_existing_lat
                0x00000000a000114c                grbl_not_existing_port
                0x00000000a000114d                grbl_not_existing_tris
 *fill*         0x00000000a000114e        0x2 
 .sbss          0x00000000a0001150       0x34 output\report.o
                0x00000000a0001158                do_grbl_report_50ms_cnt
                0x00000000a000115c                grbl_report_sys_log_1_state
                0x00000000a0001160                grbl_report_sys_log_0_state
                0x00000000a0001164                grbl_report_xterm
                0x00000000a0001168                grbl_report_add_term
                0x00000000a000116c                grbl_report_eeprom_dump_state
                0x00000000a0001170                buffer_missed_char_logger_cnt
                0x00000000a0001174                do_grbl_report_50ms
                0x00000000a0001178                grbl_report_eeprom_dump
                0x00000000a000117c                grbl_report_sys_log_1
                0x00000000a0001180                grbl_report_sys_log_0
 .sbss          0x00000000a0001184        0x1 output\settings.o
                0x00000000a0001184                eep_settings_version
 .sbss          0x00000000a0001185        0x7 output\stepper.o
                0x00000000a0001185                isStepperRunning
                0x00000000a0001186                stepper_busy
                0x00000000a0001187                dir_port_invert_mask
                0x00000000a0001188                step_port_invert_mask
                0x00000000a0001189                segment_next_head
                0x00000000a000118a                segment_buffer_head
                0x00000000a000118b                segment_buffer_tail
 .sbss          0x00000000a000118c       0x10 output\system.o
                0x00000000a000118c                system_lastState
                0x00000000a000118d                restore_condition
                0x00000000a0001190                restore_spindle_speed
                0x00000000a0001194                sys_rt_exec_accessory_override
                0x00000000a0001195                sys_rt_exec_motion_override
                0x00000000a0001198                grbl_system_sm
 .sbss          0x00000000a000119c        0x4 output\grbl.o
                0x00000000a000119c                grbl_reset_asyn_execute
 .sbss          0x00000000a00011a0       0x38 output\dee.o
                0x00000000a00011b4                PackEE_async_state_prev
                0x00000000a00011b8                do_dee_1ms
                0x00000000a00011bc                dee_pack_triggered
                0x00000000a00011bd                dee_pack_running
                0x00000000a00011c0                dee_debug_init_dee
                0x00000000a00011c4                do_dee_debug
                0x00000000a00011c8                dee_addr_cache
                0x00000000a00011cc                dee_data_cache
                0x00000000a00011d0                dee_cache_valid
                0x00000000a00011d4                dee_debug_last_return_value
 .sbss          0x00000000a00011d8        0xc output\system_control.o
                0x00000000a00011d8                system_control_get_state_debug
                0x00000000a00011d9                system_control_get_state_last_SAFETY_DOOR
                0x00000000a00011da                system_control_get_state_last_CYCLE_START
                0x00000000a00011db                system_control_get_state_last_FEED_HOLD
                0x00000000a00011dc                system_control_get_state_last_ABORT
                0x00000000a00011dd                system_control_get_state_current_SAFETY_DOOR
                0x00000000a00011de                system_control_get_state_current_CYCLE_START
                0x00000000a00011df                system_control_get_state_current_FEED_HOLD
                0x00000000a00011e0                system_control_get_state_current_ABORT
                0x00000000a00011e1                do_system_poll_control_pins
                0x00000000a00011e2                do_system_control_1ms
                0x00000000a00011e3                system_reset_debug
 .sbss          0x00000000a00011e4       0x12 output\stepper_enable.o
                0x00000000a00011e4                stepper_logger_single_shoot
                0x00000000a00011e5                stepper_enable_abort_cnt
                0x00000000a00011e8                stepper_enable_emergency_stop_delay_cnt
                0x00000000a00011ec                stepper_enable_emergency_stop_delay
                0x00000000a00011f0                stepper_enable_delayed_enabling_cnt
                0x00000000a00011f4                stepper_enable_delayed_enabling
                0x00000000a00011f5                do_stepper_enable_1ms
 .sbss          0x00000000a00011f6        0x2 output\system_exec.o
                0x00000000a00011f6                sys_rt_exec_state
 .sbss          0x00000000a00011f8        0x2 output\system_alarm.o
                0x00000000a00011f8                sys_rt_exec_alarm
 .sbss          0x00000000a00011fa        0xc output\grbl_eeprom.o
                0x00000000a00011fa                doTriggerWriteSettingsCnt
                0x00000000a00011fc                doTriggerWriteAllCnt
                0x00000000a00011fe                grbl_eeprom_trigger_current
                0x00000000a00011ff                gc_main_eeprom_trigger
                0x00000000a0001200                grbl_critical_eep_error
                0x00000000a0001201                grbl_backup_eep_error
                0x00000000a0001202                grbl_master_eep_error
                0x00000000a0001203                grbl_eeprom_triggerWriteSettings
                0x00000000a0001204                grbl_eeprom_triggerWriteAll
                0x00000000a0001205                do_grbl_eeprom_1ms
 *fill*         0x00000000a0001206        0x2 
 .sbss          0x00000000a0001208        0xc output\grbl_toolchange.o
                0x00000000a0001208                do_grbl_toolchange_1ms
                0x00000000a0001209                grbl_toolchange_load_or_load_and_change
                0x00000000a000120a                grbl_toolchange_toolNumber
                0x00000000a000120c                grbl_toolchange_isRunning
                0x00000000a0001210                GRBL_Toolchange_SM_State
 .sbss          0x00000000a0001214        0x8 output\stackmeasure.o
                0x00000000a0001214                stackmeasure_maxfillness
                0x00000000a0001218                stackmeasure_current_pos
 .sbss          0x00000000a000121c       0x20 output\grbl_protocol.o
                0x00000000a000121c                grbl_protocol_char_counter
                0x00000000a000121d                grbl_protocol_line_flags
                0x00000000a0001220                missedRxChar_Grbl_Protocol
                0x00000000a0001224                protocol_set_requestDwell_dwellTime
                0x00000000a0001228                protocol_execute_line_status
                0x00000000a000122c                jog_line_number
                0x00000000a0001230                gc_execute_line_number
                0x00000000a0001234                gc_execute_line_result
                0x00000000a0001235                requestSynchMotion
                0x00000000a0001238                lineStateMachine
 .sbss          0x00000000a000123c       0x2c output\grbl_running.o
                0x00000000a000123c                do_grbl_running_1s_cnt
                0x00000000a0001240                do_grbl_running_1min_cnt
                0x00000000a0001244                do_grbl_running_1h_cnt
                0x00000000a0001248                do_grbl_running_1h
                0x00000000a0001249                do_grbl_running_1min
                0x00000000a000124a                do_grbl_running_1s
                0x00000000a000124c                grbl_running_running_hours_eep_trigger
                0x00000000a0001250                grbl_running_spindle_running_minutes_eep_trigger
                0x00000000a0001254                grbl_running_running_minutes_eep_trigger
                0x00000000a0001258                grbl_running_spindle_running_minutes
                0x00000000a000125c                grbl_running_startup_cnt
                0x00000000a0001260                grbl_running_running_hours
                0x00000000a0001264                grbl_running_running_minutes
 .sbss          0x00000000a0001268        0x4 output\grbl_bootloader.o
                0x00000000a0001268                grbl_bootloader_state
                0x00000000a0001269                grbl_bootloader_triggered_value
                0x00000000a000126a                grbl_bootloader_triggered
                0x00000000a000126b                do_grbl_bootloader_1ms
 .sbss          0x00000000a000126c        0x6 output\grbl_probe.o
                0x00000000a000126c                probe_is_no_error
                0x00000000a000126d                do_mc_probe_cycle
                0x00000000a000126e                sys_probe_state
                0x00000000a000126f                do_probe_1ms
                0x00000000a0001270                probe_pin_state
                0x00000000a0001271                probe_invert_mask
 *fill*         0x00000000a0001272        0x2 
 .sbss          0x00000000a0001274        0x5 output\ethernet.o
                0x00000000a0001278                ethernet_is_initialized_value
 *fill*         0x00000000a0001279        0x3 
 .sbss          0x00000000a000127c       0x42 output\ENC28J60.o
                0x00000000a000128c                enc28j60_Dummy
                0x00000000a0001290                enc28j60_spi_corruption_reinit_state
                0x00000000a0001294                enc28j60_spi_corruption2_cnt
                0x00000000a0001298                enc28j60_spi_corruption1_cnt
                0x00000000a000129c                enc28j60_spi_corruption_reinit
                0x00000000a00012a0                ENC28J60_MACON4
                0x00000000a00012a1                ENC28J60_MACON3
                0x00000000a00012a2                ENC28J60_MACON1
                0x00000000a00012a3                ENC28J60_EFLOCON
                0x00000000a00012a4                ENC28J60_ECOCON
                0x00000000a00012a5                ENC28J60_MISTAT
                0x00000000a00012a6                ENC28J60_EBSTCON
                0x00000000a00012a7                ENC28J60_MICMD
                0x00000000a00012a8                ENC28J60_ERXFCON
                0x00000000a00012a9                ENC28J60_ECON1
                0x00000000a00012aa                ENC28J60_ECON2
                0x00000000a00012ab                ENC28J60_ESTAT
                0x00000000a00012ac                ENC28J60_EIR
                0x00000000a00012ad                ENC28J60_EIE
                0x00000000a00012ae                do_enc28j60_100ms
                0x00000000a00012af                do_enc28j60_1ms
 *fill*         0x00000000a00012be        0x2 
 .sbss          0x00000000a00012c0        0x4 output\DHCP.o
                0x00000000a00012c0                DHCPClientInitializedOnce
 .sbss          0x00000000a00012c4        0x8 output\ARP.o
                0x00000000a00012c8                ARPResolve_null_ptr
 .sbss          0x00000000a00012cc        0x8 output\Announce.o
 .sbss          0x00000000a00012d4        0x4 output\IP.o
 .sbss          0x00000000a00012d8       0x10 output\StackTsk.o
 .sbss          0x00000000a00012e8        0xa output\UDP.o
                0x00000000a00012e8                do_udp_1ms
 *fill*         0x00000000a00012f2        0x2 
 .sbss          0x00000000a00012f4        0x8 output\usb_grbl_multi.o
                0x00000000a00012f4                missedRxCharHID
                0x00000000a00012f8                missedTxCharHID
 .sbss          0x00000000a00012fc       0x1c output\ethernet_grbl_multi.o
                0x00000000a0001300                do_serial_grbl_ethernet_multi_100ms
                0x00000000a0001304                do_serial_grbl_ethernet_multi_1ms
                0x00000000a0001308                ToSendDataBuffer_grbl_ethernet_multi_filled
                0x00000000a000130c                missedRxCharEthernet
                0x00000000a0001310                missedTxCharEthernet
                0x00000000a0001314                bsdServerState
 .sbss          0x00000000a0001318        0x4 output\grbl_multi.o
                0x00000000a0001318                grbl_multi_source
 .sbss          0x00000000a000131c        0x4 output\TCP.o
                0x00000000a000131c                do_tcp_1ms
 .sbss          0x00000000a0001320        0x4 output\BerkeleyAPI.o
                0x00000000a0001320                do_berkeleyapi_1ms
 .sbss          0x00000000a0001324        0x4 output\noinitram.o
                0x00000000a0001324                noinitram_valid_block
 *(.scommon)
 .scommon       0x00000000a0001328       0x5c output\usb_device.o
                0x00000000a0001328                pDst
                0x00000000a000132c                USBDeferINDataStagePackets
                0x00000000a0001330                CtrlTrfData
                0x00000000a0001338                USBDeferOUTDataStagePackets
                0x00000000a000133c                USBDeviceState
                0x00000000a0001340                controlTransferState
                0x00000000a0001341                endpoint_number
                0x00000000a0001344                ep_data_out
                0x00000000a0001348                USBStatusStageEnabledFlag1
                0x00000000a000134c                USBStatusStageEnabledFlag2
                0x00000000a0001350                BothEP0OutUOWNsSet
                0x00000000a0001354                pBDTEntryEP0OutNext
                0x00000000a0001358                USBBusIsSuspended
                0x00000000a000135c                USBStatusStageTimeoutCounter
                0x00000000a0001360                SetupPkt
                0x00000000a0001368                ep_data_in
                0x00000000a000136b                shortPacketStatus
                0x00000000a000136c                pBDTEntryEP0OutCurrent
                0x00000000a0001370                USBActiveConfiguration
                0x00000000a0001374                RemoteWakeup
                0x00000000a0001378                USTATcopy
                0x00000000a000137c                USBAlternateInterface
                0x00000000a0001380                USBDeferStatusStagePacket
 .scommon       0x00000000a0001384       0x18 output\exceptions.o
                0x00000000a0001384                _return_addr
                0x00000000a0001388                tempB
                0x00000000a000138c                tempA
                0x00000000a0001390                _excep_code
                0x00000000a0001394                tempResult
                0x00000000a0001398                _excep_addr
 .scommon       0x00000000a000139c        0x2 output\ad.o
                0x00000000a000139c                adResults
 *fill*         0x00000000a000139e        0x2 
 .scommon       0x00000000a00013a0        0xb output\grbl_limits.o
                0x00000000a00013a0                limit_filter_state
                0x00000000a00013a4                limits_set_state_filtered_currentState
                0x00000000a00013a8                step_pin
 *fill*         0x00000000a00013ab        0x1 
 .scommon       0x00000000a00013ac       0x4a output\motion_control.o
                0x00000000a00013ac                axis_1_buffer
                0x00000000a00013b0                center_axis0
                0x00000000a00013b4                linear_per_segment
                0x00000000a00013b8                r_axisi
                0x00000000a00013bc                theta_per_segment
                0x00000000a00013c0                sin_Ti
                0x00000000a00013c4                axis_linear_buffer
                0x00000000a00013c8                cos_T
                0x00000000a00013cc                r_axis0
                0x00000000a00013d0                axis_0_buffer
                0x00000000a00013d4                r_axis1
                0x00000000a00013d8                sin_T
                0x00000000a00013dc                cycle_mask_buffer
                0x00000000a00013e0                radius_buffer
                0x00000000a00013e4                is_clockwise_arc_buffer
                0x00000000a00013e8                center_axis1
                0x00000000a00013ec                segments_buffer
                0x00000000a00013f0                cos_Ti
                0x00000000a00013f4                i_buffer
 .scommon       0x00000000a00013f6        0x4 output\planner.o
                0x00000000a00013f6                block_buffer_head
                0x00000000a00013f7                next_buffer_head
                0x00000000a00013f8                block_buffer_tail
                0x00000000a00013f9                block_buffer_planned
 *fill*         0x00000000a00013fa        0x2 
 .scommon       0x00000000a00013fc        0xc output\stepper.o
                0x00000000a00013fc                pl_block
                0x00000000a0001400                st_prep_block
                0x00000000a0001404                stepper_idle_lock_timer
 .scommon       0x00000000a0001408        0x4 output\system.o
                0x00000000a0001408                system_suspendTime
 .scommon       0x00000000a000140c       0x54 output\grbl.o
                0x00000000a000140c                dummyTRIS6
                0x00000000a0001410                dummyLAT4
                0x00000000a0001414                dummyPORT1
                0x00000000a0001418                dummyPORT4
                0x00000000a000141c                dummyTRIS1
                0x00000000a0001420                dummyLAT1
                0x00000000a0001424                dummyTRIS3
                0x00000000a0001428                dummyPORT7
                0x00000000a000142c                dummyTRIS5
                0x00000000a0001430                dummyPORT2
                0x00000000a0001434                dummyLAT3
                0x00000000a0001438                dummyTRIS4
                0x00000000a000143c                dummyLAT5
                0x00000000a0001440                dummyLAT7
                0x00000000a0001444                dummyLAT2
                0x00000000a0001448                dummyPORT5
                0x00000000a000144c                dummyTRIS7
                0x00000000a0001450                dummyLAT6
                0x00000000a0001454                dummyTRIS2
                0x00000000a0001458                dummyPORT3
                0x00000000a000145c                dummyPORT6
 .scommon       0x00000000a0001460       0x38 output\usb_function_cdc.o
                0x00000000a0001460                control_signal_bitmap
                0x00000000a0001464                cdc_tx_len
                0x00000000a0001468                pCDCSrc
                0x00000000a000146c                CDCDataOutHandle
                0x00000000a0001470                cdc_rx_len
                0x00000000a0001474                line_coding
                0x00000000a000147c                BaudRateGen
                0x00000000a0001480                CDCDataInHandle
                0x00000000a0001484                cdc_trf_state
                0x00000000a0001488                pCDCDst
                0x00000000a000148c                cdc_mem_type
                0x00000000a0001490                dummy_encapsulated_cmd_response
 .scommon       0x00000000a0001498        0x4 output\dee.o
                0x00000000a0001498                dataEEFlags
 .scommon       0x00000000a000149c        0xc output\dee_page.o
                0x00000000a000149c                read_dee_page_size
                0x00000000a00014a0                read_dee_page
                0x00000000a00014a4                read_dee_page_startaddress
 .scommon       0x00000000a00014a8        0x8 output\grbl_eeprom.o
                0x00000000a00014a8                gcodePositionSave
                0x00000000a00014ac                check_is_delay
 .scommon       0x00000000a00014b0        0x4 output\grbl_toolchange.o
                0x00000000a00014b0                grbl_toolchange_failsafe_timeout
 .scommon       0x00000000a00014b4        0x4 output\grbl_protocol.o
                0x00000000a00014b4                protocol_dwellTime
 .scommon       0x00000000a00014b8        0x4 output\grbl_bootloader.o
                0x00000000a00014b8                grbl_bootloader_timer
 .scommon       0x00000000a00014bc        0x4 output\ENC28J60.o
                0x00000000a00014bc                enc28j60_timer
 .scommon       0x00000000a00014c0        0x4 output\StackTsk.o
                0x00000000a00014c0                StackTsk_Announce_autonomous
 .scommon       0x00000000a00014c4        0x6 output\UDP.o
                0x00000000a00014c4                UDPTxCount
                0x00000000a00014c6                activeUDPSocket
                0x00000000a00014c8                UDPRxCount
 *fill*         0x00000000a00014ca        0x2 
 .scommon       0x00000000a00014cc        0x2 output\ethernet_grbl_multi.o
                0x00000000a00014cc                ClientSock
                0x00000000a00014cd                bsdServerSocket
                0x00000000a00014ce                _sbss_end = .
                0x00000000a00014d0                . = ALIGN (0x4)
 *fill*         0x00000000a00014ce        0x2 

.bss            0x00000000a0001600     0x2cb0
 *(.dynbss)
 *(COMMON)
 COMMON         0x00000000a0001600      0x480 output\task.o
                0x00000000a0001600                taskLists
 COMMON         0x00000000a0001a80      0x400 output\eeprom.o
                0x00000000a0001a80                eeprom_write_buffer
 COMMON         0x00000000a0001e80       0x78 output\eep_manager.o
                0x00000000a0001e80                eep_manager_write_all_trigger
                0x00000000a0001ebc                eep_manager_debug_address
 *fill*         0x00000000a0001ef8      0x108 
 COMMON         0x00000000a0002000       0x93 output\usb_device.o
                0x00000000a0002000                BDT
                0x00000000a0002060                inPipes
                0x00000000a0002070                pBDTEntryIn
                0x00000000a000207c                pBDTEntryOut
                0x00000000a0002088                outPipes
 *fill*         0x00000000a0002093        0x1 
 COMMON         0x00000000a0002094       0xf0 output\main.o
                0x00000000a0002094                loopCntHistory
 COMMON         0x00000000a0002184       0x9c output\grbl_gcode.o
                0x00000000a0002184                coord_offset_eep
                0x00000000a0002190                gc_state
                0x00000000a00021d4                gc_block
                0x00000000a0002214                coord_system_eep
 COMMON         0x00000000a0002220       0x18 output\grbl_limits.o
                0x00000000a0002220                plan_data
                0x00000000a000222c                target
 COMMON         0x00000000a0002238       0x30 output\motion_control.o
                0x00000000a0002238                target_buffer
                0x00000000a0002244                offset_buffer
                0x00000000a0002250                pl_data_buffer
                0x00000000a000225c                position_buffer
 COMMON         0x00000000a0002268      0xd1c output\planner.o
                0x00000000a0002268                pl
                0x00000000a0002284                block_buffer
 COMMON         0x00000000a0002f84      0x1d4 output\settings.o
                0x00000000a0002f84                eep_coord_data
                0x00000000a0002ffc                settings
                0x00000000a000306c                eep_coord_teached
                0x00000000a0003078                eep_settings_backup
                0x00000000a00030e8                eep_settings
 COMMON         0x00000000a0003158      0x34c output\stepper.o
                0x00000000a0003158                stepper_st
                0x00000000a0003180                prep
                0x00000000a00031b8                segment_buffer
                0x00000000a00032d8                st_block_buffer
 COMMON         0x00000000a00034a4      0x1ac output\system.o
                0x00000000a00034a4                sys
                0x00000000a00034b8                sys_probe_position
                0x00000000a00034c4                sys_position
                0x00000000a00034d0                grbl_system_logger
 COMMON         0x00000000a0003650       0x40 output\pwm.o
                0x00000000a0003650                pwm_duty
 COMMON         0x00000000a0003690       0x8a output\usb_function_cdc.o
                0x00000000a0003690                cdc_data_tx
                0x00000000a00036d0                cdc_data_rx
                0x00000000a0003710                cdc_notice
 *fill*         0x00000000a000371a        0x2 
 COMMON         0x00000000a000371c        0xc output\dee_page.o
                0x00000000a000371c                dee_debug_page_status
 COMMON         0x00000000a0003728       0xe8 output\grbl_protocol.o
                0x00000000a0003728                myRingBuffer_grbl_protocol_rx
                0x00000000a0003740                line_buffer
                0x00000000a0003790                grbl_protocol_rx
 COMMON         0x00000000a0003810       0x33 output\ethernet.o
                0x00000000a0003810                AppConfig
 *fill*         0x00000000a0003843        0x1 
 COMMON         0x00000000a0003844        0xa output\StackTsk.o
                0x00000000a0003844                remoteNode
 *fill*         0x00000000a000384e        0x2 
 COMMON         0x00000000a0003850       0xe0 output\UDP.o
                0x00000000a0003850                UDPSocketInfo
 COMMON         0x00000000a0003930      0x4b0 output\usb_grbl_multi.o
                0x00000000a0003930                myRingBuffer_hid_rx
                0x00000000a0003948                myRingBuffer_hid_tx
                0x00000000a0003960                ReceivedDataBuffer
                0x00000000a00039a0                ToSendDataBuffer
                0x00000000a00039e0                hid_rx
                0x00000000a0003be0                hid_tx
 COMMON         0x00000000a0003de0      0x4d0 output\ethernet_grbl_multi.o
                0x00000000a0003de0                ReceivedDataBuffer_grbl_ethernet_multi
                0x00000000a0003e20                eth_tx
                0x00000000a0004020                myRingBuffer_eth_rx
                0x00000000a0004038                addr
                0x00000000a0004048                ToSendDataBuffer_grbl_ethernet_multi
                0x00000000a0004088                eth_rx
                0x00000000a0004288                myRingBuffer_eth_tx
                0x00000000a00042a0                addRemote
                0x00000000a00042b0                . = ALIGN ((. != 0x0)?0x4:0x1)
                0x00000000a00042b0                . = ALIGN (0x4)
                0x00000000a00042b0                _end = .
                0x00000000a00042b0                _bss_end = .
                0x0000000000007000                _bmxdudba_address = LENGTH (kseg1_data_mem)
                0x0000000000007000                _bmxdupba_address = LENGTH (kseg1_data_mem)

/DISCARD/
 *(.pdr)
 *(.rel.dyn)
 *(.note.GNU-stack)
 *(.note.GNU-stack)
 *(.gnu_debuglink)
 *(.gnu.lto_*)
 *(.discard)
 *(._debug_exception)

.gptab.sdata
 *(.gptab.data)
 *(.gptab.sdata)

.gptab.sbss
 *(.gptab.bss)
 *(.gptab.sbss)

.mdebug.abi32   0x00000000a0000000        0x0
 *(.mdebug.abi32)
 .mdebug.abi32  0x00000000a0000000        0x0 output\tmr.o
 .mdebug.abi32  0x00000000a0000000        0x0 output\mal.o
 .mdebug.abi32  0x00000000a0000000        0x0 output\ringBuffer.o
 .mdebug.abi32  0x00000000a0000000        0x0 output\task.o
 .mdebug.abi32  0x00000000a0000000        0x0 output\sleep.o
 .mdebug.abi32  0x00000000a0000000        0x0 output\eeprom.o
 .mdebug.abi32  0x00000000a0000000        0x0 output\eep_manager.o
 .mdebug.abi32  0x00000000a0000000        0x0 output\usb.o
 .mdebug.abi32  0x00000000a0000000        0x0 output\usb_descriptors.o
 .mdebug.abi32  0x00000000a0000000        0x0 output\usb_device.o
 .mdebug.abi32  0x00000000a0000000        0x0 output\exceptions.o
 .mdebug.abi32  0x00000000a0000000        0x0 output\isr.o
 .mdebug.abi32  0x00000000a0000000        0x0 output\main.o
 .mdebug.abi32  0x00000000a0000000        0x0 output\c_eep_manager.o
 .mdebug.abi32  0x00000000a0000000        0x0 output\app.o
 .mdebug.abi32  0x00000000a0000000        0x0 output\ad.o
 .mdebug.abi32  0x00000000a0000000        0x0 output\grbl_gcode.o
 .mdebug.abi32  0x00000000a0000000        0x0 output\grbl_limits.o
 .mdebug.abi32  0x00000000a0000000        0x0 output\coolant_control.o
 .mdebug.abi32  0x00000000a0000000        0x0 output\motion_control.o
 .mdebug.abi32  0x00000000a0000000        0x0 output\nuts_bolts.o
 .mdebug.abi32  0x00000000a0000000        0x0 output\planner.o
 .mdebug.abi32  0x00000000a0000000        0x0 output\print.o
 .mdebug.abi32  0x00000000a0000000        0x0 output\report.o
 .mdebug.abi32  0x00000000a0000000        0x0 output\settings.o
 .mdebug.abi32  0x00000000a0000000        0x0 output\spindle_control.o
 .mdebug.abi32  0x00000000a0000000        0x0 output\stepper.o
 .mdebug.abi32  0x00000000a0000000        0x0 output\system.o
 .mdebug.abi32  0x00000000a0000000        0x0 output\grbl.o
 .mdebug.abi32  0x00000000a0000000        0x0 output\pwm.o
 .mdebug.abi32  0x00000000a0000000        0x0 output\jog.o
 .mdebug.abi32  0x00000000a0000000        0x0 output\usb_function_cdc.o
 .mdebug.abi32  0x00000000a0000000        0x0 output\dee.o
 .mdebug.abi32  0x00000000a0000000        0x0 output\dee_page.o
 .mdebug.abi32  0x00000000a0000000        0x0 output\dee_page_helper.o
 .mdebug.abi32  0x00000000a0000000        0x0 output\eep_manager_crc.o
 .mdebug.abi32  0x00000000a0000000        0x0 output\system_control.o
 .mdebug.abi32  0x00000000a0000000        0x0 output\stepper_enable.o
 .mdebug.abi32  0x00000000a0000000        0x0 output\system_exec.o
 .mdebug.abi32  0x00000000a0000000        0x0 output\system_alarm.o
 .mdebug.abi32  0x00000000a0000000        0x0 output\grbl_eeprom.o
 .mdebug.abi32  0x00000000a0000000        0x0 output\bootloader_interface.o
 .mdebug.abi32  0x00000000a0000000        0x0 output\grbl_toolchange.o
 .mdebug.abi32  0x00000000a0000000        0x0 output\stackmeasure.o
 .mdebug.abi32  0x00000000a0000000        0x0 output\grbl_protocol.o
 .mdebug.abi32  0x00000000a0000000        0x0 output\grbl_running.o
 .mdebug.abi32  0x00000000a0000000        0x0 output\grbl_bootloader.o
 .mdebug.abi32  0x00000000a0000000        0x0 output\grbl_probe.o
 .mdebug.abi32  0x00000000a0000000        0x0 output\ethernet.o
 .mdebug.abi32  0x00000000a0000000        0x0 output\ENC28J60.o
 .mdebug.abi32  0x00000000a0000000        0x0 output\DHCP.o
 .mdebug.abi32  0x00000000a0000000        0x0 output\ARP.o
 .mdebug.abi32  0x00000000a0000000        0x0 output\Announce.o
 .mdebug.abi32  0x00000000a0000000        0x0 output\Helpers.o
 .mdebug.abi32  0x00000000a0000000        0x0 output\ICMP.o
 .mdebug.abi32  0x00000000a0000000        0x0 output\IP.o
 .mdebug.abi32  0x00000000a0000000        0x0 output\StackTsk.o
 .mdebug.abi32  0x00000000a0000000        0x0 output\UDP.o
 .mdebug.abi32  0x00000000a0000000        0x0 output\usb_grbl_multi.o
 .mdebug.abi32  0x00000000a0000000        0x0 output\ethernet_grbl_multi.o
 .mdebug.abi32  0x00000000a0000000        0x0 output\grbl_multi.o
 .mdebug.abi32  0x00000000a0000000        0x0 output\Reboot.o
 .mdebug.abi32  0x00000000a0000000        0x0 output\TCP.o
 .mdebug.abi32  0x00000000a0000000        0x0 output\BerkeleyAPI.o
 .mdebug.abi32  0x00000000a0000000        0x0 output\noinitram.o
 .mdebug.abi32  0x00000000a0000000        0x0 c:/program files/microchip/xc32/v4.20/bin/bin/../../lib/gcc/pic32mx/8.3.1\libgcc.a(_fixunssfdi.o)
 .mdebug.abi32  0x00000000a0000000        0x0 c:/program files/microchip/xc32/v4.20/bin/bin/../../lib/gcc/pic32mx/8.3.1\libgcc.a(_floatundidf.o)
 .mdebug.abi32  0x00000000a0000000        0x0 c:/program files/microchip/xc32/v4.20/bin/bin/../../lib/gcc/pic32mx/8.3.1\libgcc.a(floatunsisf.o)
 .mdebug.abi32  0x00000000a0000000        0x0 c:/program files/microchip/xc32/v4.20/bin/bin/../../lib/gcc/pic32mx/8.3.1\libgcc.a(floatunsidf.o)
 .mdebug.abi32  0x00000000a0000000        0x0 c:/program files/microchip/xc32/v4.20/bin/bin/../../lib/gcc/pic32mx/8.3.1/../../../../pic32mx/lib\libpic32.a(default-bootstrap-exception-handler.o)
 .mdebug.abi32  0x00000000a0000000        0x0 c:/program files/microchip/xc32/v4.20/bin/bin/../../lib/gcc/pic32mx/8.3.1/../../../../pic32mx/lib\libpic32.a(default-on-reset.o)
 .mdebug.abi32  0x00000000a0000000        0x0 c:/program files/microchip/xc32/v4.20/bin/bin/../../lib/gcc/pic32mx/8.3.1/../../../../pic32mx/lib\libpic32.a(default-on-bootstrap.o)
 .mdebug.abi32  0x00000000a0000000        0x0 c:/program files/microchip/xc32/v4.20/bin/bin/../../lib/gcc/pic32mx/8.3.1/../../../../pic32mx/lib\libpic32.a(defaultinterrupt.o)
 .mdebug.abi32  0x00000000a0000000        0x0 c:/program files/microchip/xc32/v4.20/bin/bin/../../lib/gcc/pic32mx/8.3.1/../../../../pic32mx/lib\libc-musl.a(strncmp.o)
 .mdebug.abi32  0x00000000a0000000        0x0 c:/program files/microchip/xc32/v4.20/bin/bin/../../lib/gcc/pic32mx/8.3.1/../../../../pic32mx/lib\libc-musl.a(strncpy.o)
 .mdebug.abi32  0x00000000a0000000        0x0 c:/program files/microchip/xc32/v4.20/bin/bin/../../lib/gcc/pic32mx/8.3.1/../../../../pic32mx/lib\libc-musl.a(stpncpy.o)
 .mdebug.abi32  0x00000000a0000000        0x0 c:/program files/microchip/xc32/v4.20/bin/bin/../../lib/gcc/pic32mx/8.3.1/../../../../pic32mx/lib\libm.a(atan2.o)
 .mdebug.abi32  0x00000000a0000000        0x0 c:/program files/microchip/xc32/v4.20/bin/bin/../../lib/gcc/pic32mx/8.3.1/../../../../pic32mx/lib\libm.a(w_sqrt.o)
 .mdebug.abi32  0x00000000a0000000        0x0 c:/program files/microchip/xc32/v4.20/bin/bin/../../lib/gcc/pic32mx/8.3.1/../../../../pic32mx/lib\libm.a(support.o)
 .mdebug.abi32  0x00000000a0000000        0x0 c:/program files/microchip/xc32/v4.20/bin/bin/../../lib/gcc/pic32mx/8.3.1/../../../../pic32mx/lib\libm.a(w_ldexp.o)
 .mdebug.abi32  0x00000000a0000000        0x0 c:/program files/microchip/xc32/v4.20/bin/bin/../../lib/gcc/pic32mx/8.3.1/../../../../pic32mx/lib\libm.a(s_lib_ver.o)
 .mdebug.abi32  0x00000000a0000000        0x0 c:/program files/microchip/xc32/v4.20/bin/bin/../../lib/gcc/pic32mx/8.3.1/../../../../pic32mx/lib\libpic32.a(errno.o)
 .mdebug.abi32  0x00000000a0000000        0x0 c:/program files/microchip/xc32/v4.20/bin/bin/../../lib/gcc/pic32mx/8.3.1/../../../../pic32mx/lib\libpic32.a(isinf.o)
 .mdebug.abi32  0x00000000a0000000        0x0 c:/program files/microchip/xc32/v4.20/bin/bin/../../lib/gcc/pic32mx/8.3.1/../../../../pic32mx/lib\libe.a(_unorddf2.o)

.mdebug.abiN32
 *(.mdebug.abiN32)

.mdebug.abi64
 *(.mdebug.abi64)

.mdebug.abiO64
 *(.mdebug.abiO64)

.mdebug.eabi32
 *(.mdebug.eabi32)

.mdebug.eabi64
 *(.mdebug.eabi64)

.gcc_compiled_long32
 *(.gcc_compiled_long32)

.gcc_compiled_long64
 *(.gcc_compiled_long64)

.stab
 *(.stab)

.stabstr
 *(.stabstr)

.stab.excl
 *(.stab.excl)

.stab.exclstr
 *(.stab.exclstr)

.stab.index
 *(.stab.index)

.stab.indexstr
 *(.stab.indexstr)

.comment        0x0000000000000000       0xdb
 *(.comment)
 .comment       0x0000000000000000       0x2b output\tmr.o
                                         0x2c (size before relaxing)
 .comment       0x000000000000002b       0x2c output\mal.o
 .comment       0x000000000000002b       0x2c output\ringBuffer.o
 .comment       0x000000000000002b       0x2c output\task.o
 .comment       0x000000000000002b       0x2c output\sleep.o
 .comment       0x000000000000002b       0x2c output\eeprom.o
 .comment       0x000000000000002b       0x2c output\eep_manager.o
 .comment       0x000000000000002b       0x2c output\usb.o
 .comment       0x000000000000002b       0x2c output\usb_descriptors.o
 .comment       0x000000000000002b       0x2c output\usb_device.o
 .comment       0x000000000000002b       0x2c output\exceptions.o
 .comment       0x000000000000002b       0x2c output\isr.o
 .comment       0x000000000000002b       0x2c output\main.o
 .comment       0x000000000000002b       0x2c output\c_eep_manager.o
 .comment       0x000000000000002b       0x2c output\app.o
 .comment       0x000000000000002b       0x2c output\ad.o
 .comment       0x000000000000002b       0x2c output\grbl_gcode.o
 .comment       0x000000000000002b       0x2c output\grbl_limits.o
 .comment       0x000000000000002b       0x2c output\coolant_control.o
 .comment       0x000000000000002b       0x2c output\motion_control.o
 .comment       0x000000000000002b       0x2c output\nuts_bolts.o
 .comment       0x000000000000002b       0x2c output\planner.o
 .comment       0x000000000000002b       0x2c output\print.o
 .comment       0x000000000000002b       0x2c output\report.o
 .comment       0x000000000000002b       0x2c output\settings.o
 .comment       0x000000000000002b       0x2c output\spindle_control.o
 .comment       0x000000000000002b       0x2c output\stepper.o
 .comment       0x000000000000002b       0x2c output\system.o
 .comment       0x000000000000002b       0x2c output\grbl.o
 .comment       0x000000000000002b       0x2c output\pwm.o
 .comment       0x000000000000002b       0x2c output\jog.o
 .comment       0x000000000000002b       0x2c output\usb_function_cdc.o
 .comment       0x000000000000002b       0x2c output\dee.o
 .comment       0x000000000000002b       0x2c output\dee_page.o
 .comment       0x000000000000002b       0x2c output\dee_page_helper.o
 .comment       0x000000000000002b       0x2c output\eep_manager_crc.o
 .comment       0x000000000000002b       0x2c output\system_control.o
 .comment       0x000000000000002b       0x2c output\stepper_enable.o
 .comment       0x000000000000002b       0x2c output\system_exec.o
 .comment       0x000000000000002b       0x2c output\system_alarm.o
 .comment       0x000000000000002b       0x2c output\grbl_eeprom.o
 .comment       0x000000000000002b       0x2c output\bootloader_interface.o
 .comment       0x000000000000002b       0x2c output\grbl_toolchange.o
 .comment       0x000000000000002b       0x2c output\stackmeasure.o
 .comment       0x000000000000002b       0x2c output\grbl_protocol.o
 .comment       0x000000000000002b       0x2c output\grbl_running.o
 .comment       0x000000000000002b       0x2c output\grbl_bootloader.o
 .comment       0x000000000000002b       0x2c output\grbl_probe.o
 .comment       0x000000000000002b       0x2c output\ethernet.o
 .comment       0x000000000000002b       0x2c output\ENC28J60.o
 .comment       0x000000000000002b       0x2c output\DHCP.o
 .comment       0x000000000000002b       0x2c output\ARP.o
 .comment       0x000000000000002b       0x2c output\Announce.o
 .comment       0x000000000000002b       0x2c output\Helpers.o
 .comment       0x000000000000002b       0x2c output\ICMP.o
 .comment       0x000000000000002b       0x2c output\IP.o
 .comment       0x000000000000002b       0x2c output\StackTsk.o
 .comment       0x000000000000002b       0x2c output\UDP.o
 .comment       0x000000000000002b       0x2c output\usb_grbl_multi.o
 .comment       0x000000000000002b       0x2c output\ethernet_grbl_multi.o
 .comment       0x000000000000002b       0x2c output\grbl_multi.o
 .comment       0x000000000000002b       0x2c output\Reboot.o
 .comment       0x000000000000002b       0x2c output\TCP.o
 .comment       0x000000000000002b       0x2c output\BerkeleyAPI.o
 .comment       0x000000000000002b       0x2c output\noinitram.o
 .comment       0x000000000000002b       0x2c c:/program files/microchip/xc32/v4.20/bin/bin/../../lib/gcc/pic32mx/8.3.1\libgcc.a(_fixunssfdi.o)
 .comment       0x000000000000002b       0x2c c:/program files/microchip/xc32/v4.20/bin/bin/../../lib/gcc/pic32mx/8.3.1\libgcc.a(_floatundidf.o)
 .comment       0x000000000000002b       0x2c c:/program files/microchip/xc32/v4.20/bin/bin/../../lib/gcc/pic32mx/8.3.1\libgcc.a(floatunsisf.o)
 .comment       0x000000000000002b       0x2c c:/program files/microchip/xc32/v4.20/bin/bin/../../lib/gcc/pic32mx/8.3.1\libgcc.a(floatunsidf.o)
 .comment       0x000000000000002b       0x18 c:/program files/microchip/xc32/v4.20/bin/bin/../../lib/gcc/pic32mx/8.3.1/../../../../pic32mx/lib\libpic32.a(memcmp.o)
                                         0x19 (size before relaxing)
 .comment       0x0000000000000043       0x18 c:/program files/microchip/xc32/v4.20/bin/bin/../../lib/gcc/pic32mx/8.3.1/../../../../pic32mx/lib\libpic32.a(memset.o)
                                         0x19 (size before relaxing)
 .comment       0x000000000000005b       0x19 c:/program files/microchip/xc32/v4.20/bin/bin/../../lib/gcc/pic32mx/8.3.1/../../../../pic32mx/lib\libpic32.a(strcmp.o)
                                         0x1a (size before relaxing)
 .comment       0x0000000000000074       0x19 c:/program files/microchip/xc32/v4.20/bin/bin/../../lib/gcc/pic32mx/8.3.1/../../../../pic32mx/lib\libpic32.a(strlen.o)
                                         0x1a (size before relaxing)
 .comment       0x000000000000008d       0x2c c:/program files/microchip/xc32/v4.20/bin/bin/../../lib/gcc/pic32mx/8.3.1/../../../../pic32mx/lib\libpic32.a(default-bootstrap-exception-handler.o)
 .comment       0x000000000000008d       0x2c c:/program files/microchip/xc32/v4.20/bin/bin/../../lib/gcc/pic32mx/8.3.1/../../../../pic32mx/lib\libpic32.a(default-on-reset.o)
 .comment       0x000000000000008d       0x2c c:/program files/microchip/xc32/v4.20/bin/bin/../../lib/gcc/pic32mx/8.3.1/../../../../pic32mx/lib\libpic32.a(default-on-bootstrap.o)
 .comment       0x000000000000008d       0x2c c:/program files/microchip/xc32/v4.20/bin/bin/../../lib/gcc/pic32mx/8.3.1/../../../../pic32mx/lib\libpic32.a(defaultinterrupt.o)
 .comment       0x000000000000008d       0x2c c:/program files/microchip/xc32/v4.20/bin/bin/../../lib/gcc/pic32mx/8.3.1/../../../../pic32mx/lib\libc-musl.a(strncmp.o)
 .comment       0x000000000000008d       0x2c c:/program files/microchip/xc32/v4.20/bin/bin/../../lib/gcc/pic32mx/8.3.1/../../../../pic32mx/lib\libc-musl.a(strncpy.o)
 .comment       0x000000000000008d       0x2c c:/program files/microchip/xc32/v4.20/bin/bin/../../lib/gcc/pic32mx/8.3.1/../../../../pic32mx/lib\libc-musl.a(stpncpy.o)
 .comment       0x000000000000008d       0x2c c:/program files/microchip/xc32/v4.20/bin/bin/../../lib/gcc/pic32mx/8.3.1/../../../../pic32mx/lib\libm.a(atan2.o)
 .comment       0x000000000000008d       0x2c c:/program files/microchip/xc32/v4.20/bin/bin/../../lib/gcc/pic32mx/8.3.1/../../../../pic32mx/lib\libm.a(w_sqrt.o)
 .comment       0x000000000000008d       0x2c c:/program files/microchip/xc32/v4.20/bin/bin/../../lib/gcc/pic32mx/8.3.1/../../../../pic32mx/lib\libm.a(support.o)
 .comment       0x000000000000008d       0x2c c:/program files/microchip/xc32/v4.20/bin/bin/../../lib/gcc/pic32mx/8.3.1/../../../../pic32mx/lib\libm.a(w_ldexp.o)
 .comment       0x000000000000008d       0x2c c:/program files/microchip/xc32/v4.20/bin/bin/../../lib/gcc/pic32mx/8.3.1/../../../../pic32mx/lib\libm.a(s_lib_ver.o)
 .comment       0x000000000000008d       0x2c c:/program files/microchip/xc32/v4.20/bin/bin/../../lib/gcc/pic32mx/8.3.1/../../../../pic32mx/lib\libpic32.a(errno.o)
 .comment       0x000000000000008d       0x2c c:/program files/microchip/xc32/v4.20/bin/bin/../../lib/gcc/pic32mx/8.3.1/../../../../pic32mx/lib\libpic32.a(isinf.o)
 .comment       0x000000000000008d       0x4e c:/program files/microchip/xc32/v4.20/bin/bin/../../lib/gcc/pic32mx/8.3.1/../../../../pic32mx/lib\libe.a(_unorddf2.o)
                                         0x7a (size before relaxing)

.debug
 *(.debug)

.line
 *(.line)

.debug_srcinfo
 *(.debug_srcinfo)

.debug_sfnames
 *(.debug_sfnames)

.debug_aranges  0x0000000000000000      0xab0
 *(.debug_aranges)
 .debug_aranges
                0x0000000000000000       0x20 output\tmr.o
 .debug_aranges
                0x0000000000000020       0x20 output\mal.o
 .debug_aranges
                0x0000000000000040       0x20 output\ringBuffer.o
 .debug_aranges
                0x0000000000000060       0x20 output\task.o
 .debug_aranges
                0x0000000000000080       0x20 output\sleep.o
 .debug_aranges
                0x00000000000000a0       0x20 output\eeprom.o
 .debug_aranges
                0x00000000000000c0       0x20 output\eep_manager.o
 .debug_aranges
                0x00000000000000e0       0x20 output\usb.o
 .debug_aranges
                0x0000000000000100       0x18 output\usb_descriptors.o
 .debug_aranges
                0x0000000000000118       0x20 output\usb_device.o
 .debug_aranges
                0x0000000000000138       0x20 output\exceptions.o
 .debug_aranges
                0x0000000000000158       0x20 output\isr.o
 .debug_aranges
                0x0000000000000178       0x20 output\main.o
 .debug_aranges
                0x0000000000000198       0x18 output\c_eep_manager.o
 .debug_aranges
                0x00000000000001b0       0x20 output\app.o
 .debug_aranges
                0x00000000000001d0       0x20 output\ad.o
 .debug_aranges
                0x00000000000001f0       0x20 output\grbl_gcode.o
 .debug_aranges
                0x0000000000000210       0x20 output\grbl_limits.o
 .debug_aranges
                0x0000000000000230       0x20 output\coolant_control.o
 .debug_aranges
                0x0000000000000250       0x20 output\motion_control.o
 .debug_aranges
                0x0000000000000270       0x20 output\nuts_bolts.o
 .debug_aranges
                0x0000000000000290       0x20 output\planner.o
 .debug_aranges
                0x00000000000002b0       0x20 output\print.o
 .debug_aranges
                0x00000000000002d0       0x20 output\report.o
 .debug_aranges
                0x00000000000002f0       0x20 output\settings.o
 .debug_aranges
                0x0000000000000310       0x20 output\spindle_control.o
 .debug_aranges
                0x0000000000000330       0x20 output\stepper.o
 .debug_aranges
                0x0000000000000350       0x20 output\system.o
 .debug_aranges
                0x0000000000000370       0x20 output\grbl.o
 .debug_aranges
                0x0000000000000390       0x20 output\pwm.o
 .debug_aranges
                0x00000000000003b0       0x20 output\jog.o
 .debug_aranges
                0x00000000000003d0       0x20 output\usb_function_cdc.o
 .debug_aranges
                0x00000000000003f0       0x20 output\dee.o
 .debug_aranges
                0x0000000000000410       0x20 output\dee_page.o
 .debug_aranges
                0x0000000000000430       0x20 output\dee_page_helper.o
 .debug_aranges
                0x0000000000000450       0x20 output\eep_manager_crc.o
 .debug_aranges
                0x0000000000000470       0x20 output\system_control.o
 .debug_aranges
                0x0000000000000490       0x20 output\stepper_enable.o
 .debug_aranges
                0x00000000000004b0       0x20 output\system_exec.o
 .debug_aranges
                0x00000000000004d0       0x20 output\system_alarm.o
 .debug_aranges
                0x00000000000004f0       0x20 output\grbl_eeprom.o
 .debug_aranges
                0x0000000000000510       0x20 output\bootloader_interface.o
 .debug_aranges
                0x0000000000000530       0x20 output\grbl_toolchange.o
 .debug_aranges
                0x0000000000000550       0x20 output\stackmeasure.o
 .debug_aranges
                0x0000000000000570       0x20 output\grbl_protocol.o
 .debug_aranges
                0x0000000000000590       0x20 output\grbl_running.o
 .debug_aranges
                0x00000000000005b0       0x20 output\grbl_bootloader.o
 .debug_aranges
                0x00000000000005d0       0x20 output\grbl_probe.o
 .debug_aranges
                0x00000000000005f0       0x20 output\ethernet.o
 .debug_aranges
                0x0000000000000610       0x20 output\ENC28J60.o
 .debug_aranges
                0x0000000000000630       0x20 output\DHCP.o
 .debug_aranges
                0x0000000000000650       0x20 output\ARP.o
 .debug_aranges
                0x0000000000000670       0x20 output\Announce.o
 .debug_aranges
                0x0000000000000690       0x20 output\Helpers.o
 .debug_aranges
                0x00000000000006b0       0x20 output\ICMP.o
 .debug_aranges
                0x00000000000006d0       0x20 output\IP.o
 .debug_aranges
                0x00000000000006f0       0x20 output\StackTsk.o
 .debug_aranges
                0x0000000000000710       0x20 output\UDP.o
 .debug_aranges
                0x0000000000000730       0x20 output\usb_grbl_multi.o
 .debug_aranges
                0x0000000000000750       0x20 output\ethernet_grbl_multi.o
 .debug_aranges
                0x0000000000000770       0x20 output\grbl_multi.o
 .debug_aranges
                0x0000000000000790       0x20 output\Reboot.o
 .debug_aranges
                0x00000000000007b0       0x20 output\TCP.o
 .debug_aranges
                0x00000000000007d0       0x20 output\BerkeleyAPI.o
 .debug_aranges
                0x00000000000007f0       0x20 output\noinitram.o
 .debug_aranges
                0x0000000000000810       0x20 c:/program files/microchip/xc32/v4.20/bin/bin/../../lib/gcc/pic32mx/8.3.1\libgcc.a(_fixunssfdi.o)
 .debug_aranges
                0x0000000000000830       0x20 c:/program files/microchip/xc32/v4.20/bin/bin/../../lib/gcc/pic32mx/8.3.1\libgcc.a(_floatundidf.o)
 .debug_aranges
                0x0000000000000850       0x20 c:/program files/microchip/xc32/v4.20/bin/bin/../../lib/gcc/pic32mx/8.3.1\libgcc.a(floatunsisf.o)
 .debug_aranges
                0x0000000000000870       0x20 c:/program files/microchip/xc32/v4.20/bin/bin/../../lib/gcc/pic32mx/8.3.1\libgcc.a(floatunsidf.o)
 .debug_aranges
                0x0000000000000890       0x20 c:/program files/microchip/xc32/v4.20/bin/bin/../../lib/gcc/pic32mx/8.3.1/../../../../pic32mx/lib\libpic32.a(default-bootstrap-exception-handler.o)
 .debug_aranges
                0x00000000000008b0       0x20 c:/program files/microchip/xc32/v4.20/bin/bin/../../lib/gcc/pic32mx/8.3.1/../../../../pic32mx/lib\libpic32.a(default-on-reset.o)
 .debug_aranges
                0x00000000000008d0       0x20 c:/program files/microchip/xc32/v4.20/bin/bin/../../lib/gcc/pic32mx/8.3.1/../../../../pic32mx/lib\libpic32.a(default-on-bootstrap.o)
 .debug_aranges
                0x00000000000008f0       0x20 c:/program files/microchip/xc32/v4.20/bin/bin/../../lib/gcc/pic32mx/8.3.1/../../../../pic32mx/lib\libpic32.a(defaultinterrupt.o)
 .debug_aranges
                0x0000000000000910       0x20 c:/program files/microchip/xc32/v4.20/bin/bin/../../lib/gcc/pic32mx/8.3.1/../../../../pic32mx/lib\libc-musl.a(strncmp.o)
 .debug_aranges
                0x0000000000000930       0x20 c:/program files/microchip/xc32/v4.20/bin/bin/../../lib/gcc/pic32mx/8.3.1/../../../../pic32mx/lib\libc-musl.a(strncpy.o)
 .debug_aranges
                0x0000000000000950       0x20 c:/program files/microchip/xc32/v4.20/bin/bin/../../lib/gcc/pic32mx/8.3.1/../../../../pic32mx/lib\libc-musl.a(stpncpy.o)
 .debug_aranges
                0x0000000000000970       0x20 c:/program files/microchip/xc32/v4.20/bin/bin/../../lib/gcc/pic32mx/8.3.1/../../../../pic32mx/lib\libm.a(atan2.o)
 .debug_aranges
                0x0000000000000990       0x20 c:/program files/microchip/xc32/v4.20/bin/bin/../../lib/gcc/pic32mx/8.3.1/../../../../pic32mx/lib\libm.a(w_sqrt.o)
 .debug_aranges
                0x00000000000009b0       0x78 c:/program files/microchip/xc32/v4.20/bin/bin/../../lib/gcc/pic32mx/8.3.1/../../../../pic32mx/lib\libm.a(support.o)
 .debug_aranges
                0x0000000000000a28       0x20 c:/program files/microchip/xc32/v4.20/bin/bin/../../lib/gcc/pic32mx/8.3.1/../../../../pic32mx/lib\libm.a(w_ldexp.o)
 .debug_aranges
                0x0000000000000a48       0x48 c:/program files/microchip/xc32/v4.20/bin/bin/../../lib/gcc/pic32mx/8.3.1/../../../../pic32mx/lib\libpic32.a(isinf.o)
 .debug_aranges
                0x0000000000000a90       0x20 c:/program files/microchip/xc32/v4.20/bin/bin/../../lib/gcc/pic32mx/8.3.1/../../../../pic32mx/lib\libe.a(_unorddf2.o)

.debug_pubnames
 *(.debug_pubnames)

.debug_info     0x0000000000000000    0x328eb
 *(.debug_info .gnu.linkonce.wi.*)
 .debug_info    0x0000000000000000      0x6c6 output\tmr.o
 .debug_info    0x00000000000006c6      0xb28 output\mal.o
 .debug_info    0x00000000000011ee      0x4f7 output\ringBuffer.o
 .debug_info    0x00000000000016e5      0x7aa output\task.o
 .debug_info    0x0000000000001e8f      0x6df output\sleep.o
 .debug_info    0x000000000000256e      0x4b4 output\eeprom.o
 .debug_info    0x0000000000002a22      0xdfd output\eep_manager.o
 .debug_info    0x000000000000381f      0x8f2 output\usb.o
 .debug_info    0x0000000000004111      0x428 output\usb_descriptors.o
 .debug_info    0x0000000000004539     0x21ed output\usb_device.o
 .debug_info    0x0000000000006726      0x447 output\exceptions.o
 .debug_info    0x0000000000006b6d      0xb99 output\isr.o
 .debug_info    0x0000000000007706      0x86e output\main.o
 .debug_info    0x0000000000007f74      0x621 output\c_eep_manager.o
 .debug_info    0x0000000000008595      0x216 output\app.o
 .debug_info    0x00000000000087ab      0x813 output\ad.o
 .debug_info    0x0000000000008fbe     0x10cf output\grbl_gcode.o
 .debug_info    0x000000000000a08d     0x14b4 output\grbl_limits.o
 .debug_info    0x000000000000b541      0x227 output\coolant_control.o
 .debug_info    0x000000000000b768      0xe8e output\motion_control.o
 .debug_info    0x000000000000c5f6      0x692 output\nuts_bolts.o
 .debug_info    0x000000000000cc88      0xdd6 output\planner.o
 .debug_info    0x000000000000da5e      0x6da output\print.o
 .debug_info    0x000000000000e138     0x2cc6 output\report.o
 .debug_info    0x0000000000010dfe      0x737 output\settings.o
 .debug_info    0x0000000000011535      0x9dd output\spindle_control.o
 .debug_info    0x0000000000011f12     0x1239 output\stepper.o
 .debug_info    0x000000000001314b     0x1e4e output\system.o
 .debug_info    0x0000000000014f99     0x11ef output\grbl.o
 .debug_info    0x0000000000016188      0xa7d output\pwm.o
 .debug_info    0x0000000000016c05      0x651 output\jog.o
 .debug_info    0x0000000000017256     0x1791 output\usb_function_cdc.o
 .debug_info    0x00000000000189e7     0x14f9 output\dee.o
 .debug_info    0x0000000000019ee0      0xdd7 output\dee_page.o
 .debug_info    0x000000000001acb7      0x61e output\dee_page_helper.o
 .debug_info    0x000000000001b2d5      0x3d0 output\eep_manager_crc.o
 .debug_info    0x000000000001b6a5      0x657 output\system_control.o
 .debug_info    0x000000000001bcfc      0x5af output\stepper_enable.o
 .debug_info    0x000000000001c2ab      0x175 output\system_exec.o
 .debug_info    0x000000000001c420      0x156 output\system_alarm.o
 .debug_info    0x000000000001c576      0xce8 output\grbl_eeprom.o
 .debug_info    0x000000000001d25e      0x1cc output\bootloader_interface.o
 .debug_info    0x000000000001d42a      0x4dc output\grbl_toolchange.o
 .debug_info    0x000000000001d906      0x140 output\stackmeasure.o
 .debug_info    0x000000000001da46     0x10b3 output\grbl_protocol.o
 .debug_info    0x000000000001eaf9      0x311 output\grbl_running.o
 .debug_info    0x000000000001ee0a      0x2bc output\grbl_bootloader.o
 .debug_info    0x000000000001f0c6      0x9b3 output\grbl_probe.o
 .debug_info    0x000000000001fa79      0xcb3 output\ethernet.o
 .debug_info    0x000000000002072c     0x433a output\ENC28J60.o
 .debug_info    0x0000000000024a66     0x15b6 output\DHCP.o
 .debug_info    0x000000000002601c      0xbfb output\ARP.o
 .debug_info    0x0000000000026c17      0xbf5 output\Announce.o
 .debug_info    0x000000000002780c      0xcac output\Helpers.o
 .debug_info    0x00000000000284b8      0x7e4 output\ICMP.o
 .debug_info    0x0000000000028c9c      0xaf1 output\IP.o
 .debug_info    0x000000000002978d      0xd50 output\StackTsk.o
 .debug_info    0x000000000002a4dd     0x14ff output\UDP.o
 .debug_info    0x000000000002b9dc      0x723 output\usb_grbl_multi.o
 .debug_info    0x000000000002c0ff      0xa3a output\ethernet_grbl_multi.o
 .debug_info    0x000000000002cb39      0x23a output\grbl_multi.o
 .debug_info    0x000000000002cd73      0xa5c output\Reboot.o
 .debug_info    0x000000000002d7cf     0x2b3e output\TCP.o
 .debug_info    0x000000000003030d     0x16e6 output\BerkeleyAPI.o
 .debug_info    0x00000000000319f3      0x466 output\noinitram.o
 .debug_info    0x0000000000031e59      0x12d c:/program files/microchip/xc32/v4.20/bin/bin/../../lib/gcc/pic32mx/8.3.1\libgcc.a(_fixunssfdi.o)
 .debug_info    0x0000000000031f86       0xed c:/program files/microchip/xc32/v4.20/bin/bin/../../lib/gcc/pic32mx/8.3.1\libgcc.a(_floatundidf.o)
 .debug_info    0x0000000000032073       0x9d c:/program files/microchip/xc32/v4.20/bin/bin/../../lib/gcc/pic32mx/8.3.1\libgcc.a(floatunsisf.o)
 .debug_info    0x0000000000032110       0xaf c:/program files/microchip/xc32/v4.20/bin/bin/../../lib/gcc/pic32mx/8.3.1\libgcc.a(floatunsidf.o)
 .debug_info    0x00000000000321bf       0x41 c:/program files/microchip/xc32/v4.20/bin/bin/../../lib/gcc/pic32mx/8.3.1/../../../../pic32mx/lib\libpic32.a(default-bootstrap-exception-handler.o)
 .debug_info    0x0000000000032200       0x3f c:/program files/microchip/xc32/v4.20/bin/bin/../../lib/gcc/pic32mx/8.3.1/../../../../pic32mx/lib\libpic32.a(default-on-reset.o)
 .debug_info    0x000000000003223f       0x3f c:/program files/microchip/xc32/v4.20/bin/bin/../../lib/gcc/pic32mx/8.3.1/../../../../pic32mx/lib\libpic32.a(default-on-bootstrap.o)
 .debug_info    0x000000000003227e       0x40 c:/program files/microchip/xc32/v4.20/bin/bin/../../lib/gcc/pic32mx/8.3.1/../../../../pic32mx/lib\libpic32.a(defaultinterrupt.o)
 .debug_info    0x00000000000322be       0xdd c:/program files/microchip/xc32/v4.20/bin/bin/../../lib/gcc/pic32mx/8.3.1/../../../../pic32mx/lib\libc-musl.a(strncmp.o)
 .debug_info    0x000000000003239b       0xdc c:/program files/microchip/xc32/v4.20/bin/bin/../../lib/gcc/pic32mx/8.3.1/../../../../pic32mx/lib\libc-musl.a(strncpy.o)
 .debug_info    0x0000000000032477       0xdf c:/program files/microchip/xc32/v4.20/bin/bin/../../lib/gcc/pic32mx/8.3.1/../../../../pic32mx/lib\libc-musl.a(stpncpy.o)
 .debug_info    0x0000000000032556       0x50 c:/program files/microchip/xc32/v4.20/bin/bin/../../lib/gcc/pic32mx/8.3.1/../../../../pic32mx/lib\libm.a(atan2.o)
 .debug_info    0x00000000000325a6       0x40 c:/program files/microchip/xc32/v4.20/bin/bin/../../lib/gcc/pic32mx/8.3.1/../../../../pic32mx/lib\libm.a(w_sqrt.o)
 .debug_info    0x00000000000325e6      0x1ac c:/program files/microchip/xc32/v4.20/bin/bin/../../lib/gcc/pic32mx/8.3.1/../../../../pic32mx/lib\libm.a(support.o)
 .debug_info    0x0000000000032792       0x40 c:/program files/microchip/xc32/v4.20/bin/bin/../../lib/gcc/pic32mx/8.3.1/../../../../pic32mx/lib\libm.a(w_ldexp.o)
 .debug_info    0x00000000000327d2       0xac c:/program files/microchip/xc32/v4.20/bin/bin/../../lib/gcc/pic32mx/8.3.1/../../../../pic32mx/lib\libpic32.a(isinf.o)
 .debug_info    0x000000000003287e       0x6d c:/program files/microchip/xc32/v4.20/bin/bin/../../lib/gcc/pic32mx/8.3.1/../../../../pic32mx/lib\libe.a(_unorddf2.o)

.debug_abbrev   0x0000000000000000     0x9d85
 *(.debug_abbrev)
 .debug_abbrev  0x0000000000000000      0x249 output\tmr.o
 .debug_abbrev  0x0000000000000249      0x2bb output\mal.o
 .debug_abbrev  0x0000000000000504      0x13e output\ringBuffer.o
 .debug_abbrev  0x0000000000000642      0x2df output\task.o
 .debug_abbrev  0x0000000000000921      0x201 output\sleep.o
 .debug_abbrev  0x0000000000000b22      0x1b6 output\eeprom.o
 .debug_abbrev  0x0000000000000cd8      0x296 output\eep_manager.o
 .debug_abbrev  0x0000000000000f6e      0x261 output\usb.o
 .debug_abbrev  0x00000000000011cf      0x123 output\usb_descriptors.o
 .debug_abbrev  0x00000000000012f2      0x4e8 output\usb_device.o
 .debug_abbrev  0x00000000000017da      0x190 output\exceptions.o
 .debug_abbrev  0x000000000000196a      0x139 output\isr.o
 .debug_abbrev  0x0000000000001aa3      0x1dc output\main.o
 .debug_abbrev  0x0000000000001c7f       0xca output\c_eep_manager.o
 .debug_abbrev  0x0000000000001d49      0x184 output\app.o
 .debug_abbrev  0x0000000000001ecd      0x17a output\ad.o
 .debug_abbrev  0x0000000000002047      0x2b4 output\grbl_gcode.o
 .debug_abbrev  0x00000000000022fb      0x42d output\grbl_limits.o
 .debug_abbrev  0x0000000000002728      0x110 output\coolant_control.o
 .debug_abbrev  0x0000000000002838      0x2b9 output\motion_control.o
 .debug_abbrev  0x0000000000002af1      0x16e output\nuts_bolts.o
 .debug_abbrev  0x0000000000002c5f      0x365 output\planner.o
 .debug_abbrev  0x0000000000002fc4      0x1b8 output\print.o
 .debug_abbrev  0x000000000000317c      0x465 output\report.o
 .debug_abbrev  0x00000000000035e1      0x22c output\settings.o
 .debug_abbrev  0x000000000000380d      0x2e4 output\spindle_control.o
 .debug_abbrev  0x0000000000003af1      0x323 output\stepper.o
 .debug_abbrev  0x0000000000003e14      0x3ce output\system.o
 .debug_abbrev  0x00000000000041e2      0x285 output\grbl.o
 .debug_abbrev  0x0000000000004467      0x1cc output\pwm.o
 .debug_abbrev  0x0000000000004633      0x126 output\jog.o
 .debug_abbrev  0x0000000000004759      0x345 output\usb_function_cdc.o
 .debug_abbrev  0x0000000000004a9e      0x2a8 output\dee.o
 .debug_abbrev  0x0000000000004d46      0x33e output\dee_page.o
 .debug_abbrev  0x0000000000005084      0x1e7 output\dee_page_helper.o
 .debug_abbrev  0x000000000000526b      0x113 output\eep_manager_crc.o
 .debug_abbrev  0x000000000000537e      0x1d9 output\system_control.o
 .debug_abbrev  0x0000000000005557      0x1f8 output\stepper_enable.o
 .debug_abbrev  0x000000000000574f       0xe2 output\system_exec.o
 .debug_abbrev  0x0000000000005831       0xdf output\system_alarm.o
 .debug_abbrev  0x0000000000005910      0x21b output\grbl_eeprom.o
 .debug_abbrev  0x0000000000005b2b      0x126 output\bootloader_interface.o
 .debug_abbrev  0x0000000000005c51      0x183 output\grbl_toolchange.o
 .debug_abbrev  0x0000000000005dd4       0xcf output\stackmeasure.o
 .debug_abbrev  0x0000000000005ea3      0x328 output\grbl_protocol.o
 .debug_abbrev  0x00000000000061cb      0x111 output\grbl_running.o
 .debug_abbrev  0x00000000000062dc       0xfe output\grbl_bootloader.o
 .debug_abbrev  0x00000000000063da      0x257 output\grbl_probe.o
 .debug_abbrev  0x0000000000006631      0x2f6 output\ethernet.o
 .debug_abbrev  0x0000000000006927      0x503 output\ENC28J60.o
 .debug_abbrev  0x0000000000006e2a      0x3a2 output\DHCP.o
 .debug_abbrev  0x00000000000071cc      0x2d6 output\ARP.o
 .debug_abbrev  0x00000000000074a2      0x247 output\Announce.o
 .debug_abbrev  0x00000000000076e9      0x296 output\Helpers.o
 .debug_abbrev  0x000000000000797f      0x1aa output\ICMP.o
 .debug_abbrev  0x0000000000007b29      0x2a1 output\IP.o
 .debug_abbrev  0x0000000000007dca      0x2a7 output\StackTsk.o
 .debug_abbrev  0x0000000000008071      0x400 output\UDP.o
 .debug_abbrev  0x0000000000008471      0x259 output\usb_grbl_multi.o
 .debug_abbrev  0x00000000000086ca      0x2d3 output\ethernet_grbl_multi.o
 .debug_abbrev  0x000000000000899d      0x17b output\grbl_multi.o
 .debug_abbrev  0x0000000000008b18      0x238 output\Reboot.o
 .debug_abbrev  0x0000000000008d50      0x449 output\TCP.o
 .debug_abbrev  0x0000000000009199      0x3cf output\BerkeleyAPI.o
 .debug_abbrev  0x0000000000009568      0x170 output\noinitram.o
 .debug_abbrev  0x00000000000096d8       0x84 c:/program files/microchip/xc32/v4.20/bin/bin/../../lib/gcc/pic32mx/8.3.1\libgcc.a(_fixunssfdi.o)
 .debug_abbrev  0x000000000000975c       0x7d c:/program files/microchip/xc32/v4.20/bin/bin/../../lib/gcc/pic32mx/8.3.1\libgcc.a(_floatundidf.o)
 .debug_abbrev  0x00000000000097d9       0x7d c:/program files/microchip/xc32/v4.20/bin/bin/../../lib/gcc/pic32mx/8.3.1\libgcc.a(floatunsisf.o)
 .debug_abbrev  0x0000000000009856       0x7d c:/program files/microchip/xc32/v4.20/bin/bin/../../lib/gcc/pic32mx/8.3.1\libgcc.a(floatunsidf.o)
 .debug_abbrev  0x00000000000098d3       0x31 c:/program files/microchip/xc32/v4.20/bin/bin/../../lib/gcc/pic32mx/8.3.1/../../../../pic32mx/lib\libpic32.a(default-bootstrap-exception-handler.o)
 .debug_abbrev  0x0000000000009904       0x2e c:/program files/microchip/xc32/v4.20/bin/bin/../../lib/gcc/pic32mx/8.3.1/../../../../pic32mx/lib\libpic32.a(default-on-reset.o)
 .debug_abbrev  0x0000000000009932       0x2e c:/program files/microchip/xc32/v4.20/bin/bin/../../lib/gcc/pic32mx/8.3.1/../../../../pic32mx/lib\libpic32.a(default-on-bootstrap.o)
 .debug_abbrev  0x0000000000009960       0x31 c:/program files/microchip/xc32/v4.20/bin/bin/../../lib/gcc/pic32mx/8.3.1/../../../../pic32mx/lib\libpic32.a(defaultinterrupt.o)
 .debug_abbrev  0x0000000000009991       0xa2 c:/program files/microchip/xc32/v4.20/bin/bin/../../lib/gcc/pic32mx/8.3.1/../../../../pic32mx/lib\libc-musl.a(strncmp.o)
 .debug_abbrev  0x0000000000009a33       0x9d c:/program files/microchip/xc32/v4.20/bin/bin/../../lib/gcc/pic32mx/8.3.1/../../../../pic32mx/lib\libc-musl.a(strncpy.o)
 .debug_abbrev  0x0000000000009ad0       0xa5 c:/program files/microchip/xc32/v4.20/bin/bin/../../lib/gcc/pic32mx/8.3.1/../../../../pic32mx/lib\libc-musl.a(stpncpy.o)
 .debug_abbrev  0x0000000000009b75       0x35 c:/program files/microchip/xc32/v4.20/bin/bin/../../lib/gcc/pic32mx/8.3.1/../../../../pic32mx/lib\libm.a(atan2.o)
 .debug_abbrev  0x0000000000009baa       0x2e c:/program files/microchip/xc32/v4.20/bin/bin/../../lib/gcc/pic32mx/8.3.1/../../../../pic32mx/lib\libm.a(w_sqrt.o)
 .debug_abbrev  0x0000000000009bd8       0xe9 c:/program files/microchip/xc32/v4.20/bin/bin/../../lib/gcc/pic32mx/8.3.1/../../../../pic32mx/lib\libm.a(support.o)
 .debug_abbrev  0x0000000000009cc1       0x2e c:/program files/microchip/xc32/v4.20/bin/bin/../../lib/gcc/pic32mx/8.3.1/../../../../pic32mx/lib\libm.a(w_ldexp.o)
 .debug_abbrev  0x0000000000009cef       0x46 c:/program files/microchip/xc32/v4.20/bin/bin/../../lib/gcc/pic32mx/8.3.1/../../../../pic32mx/lib\libpic32.a(isinf.o)
 .debug_abbrev  0x0000000000009d35       0x50 c:/program files/microchip/xc32/v4.20/bin/bin/../../lib/gcc/pic32mx/8.3.1/../../../../pic32mx/lib\libe.a(_unorddf2.o)

.debug_line     0x0000000000000000    0x199b3
 *(.debug_line)
 .debug_line    0x0000000000000000      0x54a output\tmr.o
 .debug_line    0x000000000000054a      0x591 output\mal.o
 .debug_line    0x0000000000000adb      0x2f0 output\ringBuffer.o
 .debug_line    0x0000000000000dcb      0x44c output\task.o
 .debug_line    0x0000000000001217      0x498 output\sleep.o
 .debug_line    0x00000000000016af      0x29c output\eeprom.o
 .debug_line    0x000000000000194b      0x8d5 output\eep_manager.o
 .debug_line    0x0000000000002220      0x2e0 output\usb.o
 .debug_line    0x0000000000002500      0x112 output\usb_descriptors.o
 .debug_line    0x0000000000002612     0x135d output\usb_device.o
 .debug_line    0x000000000000396f      0x235 output\exceptions.o
 .debug_line    0x0000000000003ba4      0x4a3 output\isr.o
 .debug_line    0x0000000000004047      0x429 output\main.o
 .debug_line    0x0000000000004470      0x206 output\c_eep_manager.o
 .debug_line    0x0000000000004676      0x178 output\app.o
 .debug_line    0x00000000000047ee      0x213 output\ad.o
 .debug_line    0x0000000000004a01     0x12d3 output\grbl_gcode.o
 .debug_line    0x0000000000005cd4      0x97b output\grbl_limits.o
 .debug_line    0x000000000000664f      0x115 output\coolant_control.o
 .debug_line    0x0000000000006764      0x824 output\motion_control.o
 .debug_line    0x0000000000006f88      0x4de output\nuts_bolts.o
 .debug_line    0x0000000000007466      0x923 output\planner.o
 .debug_line    0x0000000000007d89      0x429 output\print.o
 .debug_line    0x00000000000081b2      0xec4 output\report.o
 .debug_line    0x0000000000009076      0x630 output\settings.o
 .debug_line    0x00000000000096a6      0x4c9 output\spindle_control.o
 .debug_line    0x0000000000009b6f     0x10af output\stepper.o
 .debug_line    0x000000000000ac1e      0xdee output\system.o
 .debug_line    0x000000000000ba0c      0x57e output\grbl.o
 .debug_line    0x000000000000bf8a      0x49a output\pwm.o
 .debug_line    0x000000000000c424      0x1d3 output\jog.o
 .debug_line    0x000000000000c5f7      0x5d4 output\usb_function_cdc.o
 .debug_line    0x000000000000cbcb      0xd44 output\dee.o
 .debug_line    0x000000000000d90f      0x3e9 output\dee_page.o
 .debug_line    0x000000000000dcf8      0x31c output\dee_page_helper.o
 .debug_line    0x000000000000e014      0x1ef output\eep_manager_crc.o
 .debug_line    0x000000000000e203      0x3f5 output\system_control.o
 .debug_line    0x000000000000e5f8      0x3f0 output\stepper_enable.o
 .debug_line    0x000000000000e9e8      0x161 output\system_exec.o
 .debug_line    0x000000000000eb49      0x161 output\system_alarm.o
 .debug_line    0x000000000000ecaa      0x76e output\grbl_eeprom.o
 .debug_line    0x000000000000f418      0x169 output\bootloader_interface.o
 .debug_line    0x000000000000f581      0x23e output\grbl_toolchange.o
 .debug_line    0x000000000000f7bf      0x131 output\stackmeasure.o
 .debug_line    0x000000000000f8f0      0xac0 output\grbl_protocol.o
 .debug_line    0x00000000000103b0      0x321 output\grbl_running.o
 .debug_line    0x00000000000106d1      0x211 output\grbl_bootloader.o
 .debug_line    0x00000000000108e2      0x44b output\grbl_probe.o
 .debug_line    0x0000000000010d2d      0x43d output\ethernet.o
 .debug_line    0x000000000001116a     0x1549 output\ENC28J60.o
 .debug_line    0x00000000000126b3      0x81c output\DHCP.o
 .debug_line    0x0000000000012ecf      0x3ae output\ARP.o
 .debug_line    0x000000000001327d      0x276 output\Announce.o
 .debug_line    0x00000000000134f3      0x640 output\Helpers.o
 .debug_line    0x0000000000013b33      0x191 output\ICMP.o
 .debug_line    0x0000000000013cc4      0x275 output\IP.o
 .debug_line    0x0000000000013f39      0x43a output\StackTsk.o
 .debug_line    0x0000000000014373      0x800 output\UDP.o
 .debug_line    0x0000000000014b73      0x37d output\usb_grbl_multi.o
 .debug_line    0x0000000000014ef0      0x4bd output\ethernet_grbl_multi.o
 .debug_line    0x00000000000153ad      0x12b output\grbl_multi.o
 .debug_line    0x00000000000154d8      0x30b output\Reboot.o
 .debug_line    0x00000000000157e3     0x21ce output\TCP.o
 .debug_line    0x00000000000179b1      0xa7e output\BerkeleyAPI.o
 .debug_line    0x000000000001842f      0x2ac output\noinitram.o
 .debug_line    0x00000000000186db       0xd3 c:/program files/microchip/xc32/v4.20/bin/bin/../../lib/gcc/pic32mx/8.3.1\libgcc.a(_fixunssfdi.o)
 .debug_line    0x00000000000187ae       0xc8 c:/program files/microchip/xc32/v4.20/bin/bin/../../lib/gcc/pic32mx/8.3.1\libgcc.a(_floatundidf.o)
 .debug_line    0x0000000000018876       0xb7 c:/program files/microchip/xc32/v4.20/bin/bin/../../lib/gcc/pic32mx/8.3.1\libgcc.a(floatunsisf.o)
 .debug_line    0x000000000001892d       0xbb c:/program files/microchip/xc32/v4.20/bin/bin/../../lib/gcc/pic32mx/8.3.1\libgcc.a(floatunsidf.o)
 .debug_line    0x00000000000189e8       0xca c:/program files/microchip/xc32/v4.20/bin/bin/../../lib/gcc/pic32mx/8.3.1/../../../../pic32mx/lib\libpic32.a(default-bootstrap-exception-handler.o)
 .debug_line    0x0000000000018ab2       0xa6 c:/program files/microchip/xc32/v4.20/bin/bin/../../lib/gcc/pic32mx/8.3.1/../../../../pic32mx/lib\libpic32.a(default-on-reset.o)
 .debug_line    0x0000000000018b58       0xaa c:/program files/microchip/xc32/v4.20/bin/bin/../../lib/gcc/pic32mx/8.3.1/../../../../pic32mx/lib\libpic32.a(default-on-bootstrap.o)
 .debug_line    0x0000000000018c02       0xc9 c:/program files/microchip/xc32/v4.20/bin/bin/../../lib/gcc/pic32mx/8.3.1/../../../../pic32mx/lib\libpic32.a(defaultinterrupt.o)
 .debug_line    0x0000000000018ccb      0x13a c:/program files/microchip/xc32/v4.20/bin/bin/../../lib/gcc/pic32mx/8.3.1/../../../../pic32mx/lib\libc-musl.a(strncmp.o)
 .debug_line    0x0000000000018e05      0x123 c:/program files/microchip/xc32/v4.20/bin/bin/../../lib/gcc/pic32mx/8.3.1/../../../../pic32mx/lib\libc-musl.a(strncpy.o)
 .debug_line    0x0000000000018f28      0x150 c:/program files/microchip/xc32/v4.20/bin/bin/../../lib/gcc/pic32mx/8.3.1/../../../../pic32mx/lib\libc-musl.a(stpncpy.o)
 .debug_line    0x0000000000019078      0x222 c:/program files/microchip/xc32/v4.20/bin/bin/../../lib/gcc/pic32mx/8.3.1/../../../../pic32mx/lib\libm.a(atan2.o)
 .debug_line    0x000000000001929a       0xba c:/program files/microchip/xc32/v4.20/bin/bin/../../lib/gcc/pic32mx/8.3.1/../../../../pic32mx/lib\libm.a(w_sqrt.o)
 .debug_line    0x0000000000019354      0x389 c:/program files/microchip/xc32/v4.20/bin/bin/../../lib/gcc/pic32mx/8.3.1/../../../../pic32mx/lib\libm.a(support.o)
 .debug_line    0x00000000000196dd       0xb3 c:/program files/microchip/xc32/v4.20/bin/bin/../../lib/gcc/pic32mx/8.3.1/../../../../pic32mx/lib\libm.a(w_ldexp.o)
 .debug_line    0x0000000000019790        0x0 c:/program files/microchip/xc32/v4.20/bin/bin/../../lib/gcc/pic32mx/8.3.1/../../../../pic32mx/lib\libm.a(s_lib_ver.o)
 .debug_line    0x0000000000019790        0x0 c:/program files/microchip/xc32/v4.20/bin/bin/../../lib/gcc/pic32mx/8.3.1/../../../../pic32mx/lib\libpic32.a(errno.o)
 .debug_line    0x0000000000019790      0x153 c:/program files/microchip/xc32/v4.20/bin/bin/../../lib/gcc/pic32mx/8.3.1/../../../../pic32mx/lib\libpic32.a(isinf.o)
 .debug_line    0x00000000000198e3       0xd0 c:/program files/microchip/xc32/v4.20/bin/bin/../../lib/gcc/pic32mx/8.3.1/../../../../pic32mx/lib\libe.a(_unorddf2.o)

.debug_frame    0x0000000000000000     0x5310
 *(.debug_frame)
 .debug_frame   0x0000000000000000      0x138 output\tmr.o
 .debug_frame   0x0000000000000138      0x170 output\mal.o
 .debug_frame   0x00000000000002a8       0xb4 output\ringBuffer.o
 .debug_frame   0x000000000000035c      0x18c output\task.o
 .debug_frame   0x00000000000004e8      0x164 output\sleep.o
 .debug_frame   0x000000000000064c      0x13c output\eeprom.o
 .debug_frame   0x0000000000000788      0x20c output\eep_manager.o
 .debug_frame   0x0000000000000994       0xfc output\usb.o
 .debug_frame   0x0000000000000a90       0xf0 output\usb_device.o
 .debug_frame   0x0000000000000b80       0x70 output\exceptions.o
 .debug_frame   0x0000000000000bf0      0x5c0 output\isr.o
 .debug_frame   0x00000000000011b0       0xb8 output\main.o
 .debug_frame   0x0000000000001268       0x9c output\app.o
 .debug_frame   0x0000000000001304       0x50 output\ad.o
 .debug_frame   0x0000000000001354       0xe0 output\grbl_gcode.o
 .debug_frame   0x0000000000001434      0x178 output\grbl_limits.o
 .debug_frame   0x00000000000015ac       0x60 output\coolant_control.o
 .debug_frame   0x000000000000160c      0x178 output\motion_control.o
 .debug_frame   0x0000000000001784      0x184 output\nuts_bolts.o
 .debug_frame   0x0000000000001908      0x1f0 output\planner.o
 .debug_frame   0x0000000000001af8      0x18c output\print.o
 .debug_frame   0x0000000000001c84      0x384 output\report.o
 .debug_frame   0x0000000000002008       0xf0 output\settings.o
 .debug_frame   0x00000000000020f8       0xa4 output\spindle_control.o
 .debug_frame   0x000000000000219c      0x184 output\stepper.o
 .debug_frame   0x0000000000002320      0x444 output\system.o
 .debug_frame   0x0000000000002764      0x138 output\grbl.o
 .debug_frame   0x000000000000289c       0xa4 output\pwm.o
 .debug_frame   0x0000000000002940       0x34 output\jog.o
 .debug_frame   0x0000000000002974       0xc8 output\usb_function_cdc.o
 .debug_frame   0x0000000000002a3c      0x254 output\dee.o
 .debug_frame   0x0000000000002c90      0x160 output\dee_page.o
 .debug_frame   0x0000000000002df0       0xe0 output\dee_page_helper.o
 .debug_frame   0x0000000000002ed0       0x60 output\eep_manager_crc.o
 .debug_frame   0x0000000000002f30       0xdc output\system_control.o
 .debug_frame   0x000000000000300c       0xd8 output\stepper_enable.o
 .debug_frame   0x00000000000030e4       0x50 output\system_exec.o
 .debug_frame   0x0000000000003134       0x50 output\system_alarm.o
 .debug_frame   0x0000000000003184      0x13c output\grbl_eeprom.o
 .debug_frame   0x00000000000032c0       0x6c output\bootloader_interface.o
 .debug_frame   0x000000000000332c       0x88 output\grbl_toolchange.o
 .debug_frame   0x00000000000033b4       0x50 output\stackmeasure.o
 .debug_frame   0x0000000000003404      0x174 output\grbl_protocol.o
 .debug_frame   0x0000000000003578       0x54 output\grbl_running.o
 .debug_frame   0x00000000000035cc       0x5c output\grbl_bootloader.o
 .debug_frame   0x0000000000003628       0xec output\grbl_probe.o
 .debug_frame   0x0000000000003714       0xcc output\ethernet.o
 .debug_frame   0x00000000000037e0      0x3ec output\ENC28J60.o
 .debug_frame   0x0000000000003bcc      0x130 output\DHCP.o
 .debug_frame   0x0000000000003cfc       0xdc output\ARP.o
 .debug_frame   0x0000000000003dd8       0x58 output\Announce.o
 .debug_frame   0x0000000000003e30      0x150 output\Helpers.o
 .debug_frame   0x0000000000003f80       0x30 output\ICMP.o
 .debug_frame   0x0000000000003fb0       0x84 output\IP.o
 .debug_frame   0x0000000000004034       0xb8 output\StackTsk.o
 .debug_frame   0x00000000000040ec      0x24c output\UDP.o
 .debug_frame   0x0000000000004338       0xd4 output\usb_grbl_multi.o
 .debug_frame   0x000000000000440c      0x128 output\ethernet_grbl_multi.o
 .debug_frame   0x0000000000004534      0x144 output\grbl_multi.o
 .debug_frame   0x0000000000004678       0x3c output\Reboot.o
 .debug_frame   0x00000000000046b4      0x48c output\TCP.o
 .debug_frame   0x0000000000004b40      0x250 output\BerkeleyAPI.o
 .debug_frame   0x0000000000004d90       0xc4 output\noinitram.o
 .debug_frame   0x0000000000004e54       0x30 c:/program files/microchip/xc32/v4.20/bin/bin/../../lib/gcc/pic32mx/8.3.1\libgcc.a(_fixunssfdi.o)
 .debug_frame   0x0000000000004e84       0x34 c:/program files/microchip/xc32/v4.20/bin/bin/../../lib/gcc/pic32mx/8.3.1\libgcc.a(_floatundidf.o)
 .debug_frame   0x0000000000004eb8       0x2c c:/program files/microchip/xc32/v4.20/bin/bin/../../lib/gcc/pic32mx/8.3.1\libgcc.a(floatunsisf.o)
 .debug_frame   0x0000000000004ee4       0x2c c:/program files/microchip/xc32/v4.20/bin/bin/../../lib/gcc/pic32mx/8.3.1\libgcc.a(floatunsidf.o)
 .debug_frame   0x0000000000004f10       0x2c c:/program files/microchip/xc32/v4.20/bin/bin/../../lib/gcc/pic32mx/8.3.1/../../../../pic32mx/lib\libpic32.a(default-bootstrap-exception-handler.o)
 .debug_frame   0x0000000000004f3c       0x20 c:/program files/microchip/xc32/v4.20/bin/bin/../../lib/gcc/pic32mx/8.3.1/../../../../pic32mx/lib\libpic32.a(default-on-reset.o)
 .debug_frame   0x0000000000004f5c       0x20 c:/program files/microchip/xc32/v4.20/bin/bin/../../lib/gcc/pic32mx/8.3.1/../../../../pic32mx/lib\libpic32.a(default-on-bootstrap.o)
 .debug_frame   0x0000000000004f7c       0x20 c:/program files/microchip/xc32/v4.20/bin/bin/../../lib/gcc/pic32mx/8.3.1/../../../../pic32mx/lib\libpic32.a(defaultinterrupt.o)
 .debug_frame   0x0000000000004f9c       0x20 c:/program files/microchip/xc32/v4.20/bin/bin/../../lib/gcc/pic32mx/8.3.1/../../../../pic32mx/lib\libc-musl.a(strncmp.o)
 .debug_frame   0x0000000000004fbc       0x2c c:/program files/microchip/xc32/v4.20/bin/bin/../../lib/gcc/pic32mx/8.3.1/../../../../pic32mx/lib\libc-musl.a(strncpy.o)
 .debug_frame   0x0000000000004fe8       0x20 c:/program files/microchip/xc32/v4.20/bin/bin/../../lib/gcc/pic32mx/8.3.1/../../../../pic32mx/lib\libc-musl.a(stpncpy.o)
 .debug_frame   0x0000000000005008       0x50 c:/program files/microchip/xc32/v4.20/bin/bin/../../lib/gcc/pic32mx/8.3.1/../../../../pic32mx/lib\libm.a(atan2.o)
 .debug_frame   0x0000000000005058       0x34 c:/program files/microchip/xc32/v4.20/bin/bin/../../lib/gcc/pic32mx/8.3.1/../../../../pic32mx/lib\libm.a(w_sqrt.o)
 .debug_frame   0x000000000000508c      0x184 c:/program files/microchip/xc32/v4.20/bin/bin/../../lib/gcc/pic32mx/8.3.1/../../../../pic32mx/lib\libm.a(support.o)
 .debug_frame   0x0000000000005210       0x30 c:/program files/microchip/xc32/v4.20/bin/bin/../../lib/gcc/pic32mx/8.3.1/../../../../pic32mx/lib\libm.a(w_ldexp.o)
 .debug_frame   0x0000000000005240       0xb0 c:/program files/microchip/xc32/v4.20/bin/bin/../../lib/gcc/pic32mx/8.3.1/../../../../pic32mx/lib\libpic32.a(isinf.o)
 .debug_frame   0x00000000000052f0       0x20 c:/program files/microchip/xc32/v4.20/bin/bin/../../lib/gcc/pic32mx/8.3.1/../../../../pic32mx/lib\libe.a(_unorddf2.o)

.debug_str      0x0000000000000000    0x2225f
 *(.debug_str)
 .debug_str     0x0000000000000000      0x651 output\tmr.o
 .debug_str     0x0000000000000651      0x753 output\mal.o
 .debug_str     0x0000000000000da4      0x35f output\ringBuffer.o
 .debug_str     0x0000000000001103      0x496 output\task.o
 .debug_str     0x0000000000001599      0x6a9 output\sleep.o
 .debug_str     0x0000000000001c42      0x3a2 output\eeprom.o
 .debug_str     0x0000000000001fe4      0x8fa output\eep_manager.o
 .debug_str     0x00000000000028de      0x8a9 output\usb.o
 .debug_str     0x0000000000003187      0x5cd output\usb_descriptors.o
 .debug_str     0x0000000000003754     0x10de output\usb_device.o
 .debug_str     0x0000000000004832      0x69f output\exceptions.o
 .debug_str     0x0000000000004ed1      0x694 output\isr.o
 .debug_str     0x0000000000005565      0xb82 output\main.o
 .debug_str     0x00000000000060e7      0x8e2 output\c_eep_manager.o
 .debug_str     0x00000000000069c9      0x327 output\app.o
 .debug_str     0x0000000000006cf0      0x488 output\ad.o
 .debug_str     0x0000000000007178      0xba5 output\grbl_gcode.o
 .debug_str     0x0000000000007d1d      0xc04 output\grbl_limits.o
 .debug_str     0x0000000000008921      0x340 output\coolant_control.o
 .debug_str     0x0000000000008c61      0x9af output\motion_control.o
 .debug_str     0x0000000000009610      0x4d3 output\nuts_bolts.o
 .debug_str     0x0000000000009ae3      0x97a output\planner.o
 .debug_str     0x000000000000a45d      0x4c3 output\print.o
 .debug_str     0x000000000000a920     0x1656 output\report.o
 .debug_str     0x000000000000bf76      0x61c output\settings.o
 .debug_str     0x000000000000c592      0x661 output\spindle_control.o
 .debug_str     0x000000000000cbf3      0xcd4 output\stepper.o
 .debug_str     0x000000000000d8c7     0x127e output\system.o
 .debug_str     0x000000000000eb45      0xeba output\grbl.o
 .debug_str     0x000000000000f9ff      0x3cf output\pwm.o
 .debug_str     0x000000000000fdce      0x5f7 output\jog.o
 .debug_str     0x00000000000103c5      0xab1 output\usb_function_cdc.o
 .debug_str     0x0000000000010e76      0x9be output\dee.o
 .debug_str     0x0000000000011834      0x5f6 output\dee_page.o
 .debug_str     0x0000000000011e2a      0x3f1 output\dee_page_helper.o
 .debug_str     0x000000000001221b      0x4cc output\eep_manager_crc.o
 .debug_str     0x00000000000126e7      0x596 output\system_control.o
 .debug_str     0x0000000000012c7d      0x575 output\stepper_enable.o
 .debug_str     0x00000000000131f2      0x2b2 output\system_exec.o
 .debug_str     0x00000000000134a4      0x2a5 output\system_alarm.o
 .debug_str     0x0000000000013749      0xbef output\grbl_eeprom.o
 .debug_str     0x0000000000014338      0x311 output\bootloader_interface.o
 .debug_str     0x0000000000014649      0x66d output\grbl_toolchange.o
 .debug_str     0x0000000000014cb6      0x230 output\stackmeasure.o
 .debug_str     0x0000000000014ee6      0xd52 output\grbl_protocol.o
 .debug_str     0x0000000000015c38      0x609 output\grbl_running.o
 .debug_str     0x0000000000016241      0x560 output\grbl_bootloader.o
 .debug_str     0x00000000000167a1      0x7cc output\grbl_probe.o
 .debug_str     0x0000000000016f6d      0x7a3 output\ethernet.o
 .debug_str     0x0000000000017710     0x10fd output\ENC28J60.o
 .debug_str     0x000000000001880d      0x7e3 output\DHCP.o
 .debug_str     0x0000000000018ff0      0x4d9 output\ARP.o
 .debug_str     0x00000000000194c9      0x558 output\Announce.o
 .debug_str     0x0000000000019a21      0x405 output\Helpers.o
 .debug_str     0x0000000000019e26      0x2fd output\ICMP.o
 .debug_str     0x000000000001a123      0x4a1 output\IP.o
 .debug_str     0x000000000001a5c4      0x622 output\StackTsk.o
 .debug_str     0x000000000001abe6      0x7d9 output\UDP.o
 .debug_str     0x000000000001b3bf      0x7cb output\usb_grbl_multi.o
 .debug_str     0x000000000001bb8a      0x75b output\ethernet_grbl_multi.o
 .debug_str     0x000000000001c2e5      0x35c output\grbl_multi.o
 .debug_str     0x000000000001c641      0x440 output\Reboot.o
 .debug_str     0x000000000001ca81      0xe78 output\TCP.o
 .debug_str     0x000000000001d8f9      0x88c output\BerkeleyAPI.o
 .debug_str     0x000000000001e185      0x507 output\noinitram.o
 .debug_str     0x000000000001e68c      0x35d c:/program files/microchip/xc32/v4.20/bin/bin/../../lib/gcc/pic32mx/8.3.1\libgcc.a(_fixunssfdi.o)
 .debug_str     0x000000000001e9e9      0x357 c:/program files/microchip/xc32/v4.20/bin/bin/../../lib/gcc/pic32mx/8.3.1\libgcc.a(_floatundidf.o)
 .debug_str     0x000000000001ed40      0x2c9 c:/program files/microchip/xc32/v4.20/bin/bin/../../lib/gcc/pic32mx/8.3.1\libgcc.a(floatunsisf.o)
 .debug_str     0x000000000001f009      0x2ca c:/program files/microchip/xc32/v4.20/bin/bin/../../lib/gcc/pic32mx/8.3.1\libgcc.a(floatunsidf.o)
 .debug_str     0x000000000001f2d3      0x373 c:/program files/microchip/xc32/v4.20/bin/bin/../../lib/gcc/pic32mx/8.3.1/../../../../pic32mx/lib\libpic32.a(default-bootstrap-exception-handler.o)
 .debug_str     0x000000000001f646      0x34d c:/program files/microchip/xc32/v4.20/bin/bin/../../lib/gcc/pic32mx/8.3.1/../../../../pic32mx/lib\libpic32.a(default-on-reset.o)
 .debug_str     0x000000000001f993      0x355 c:/program files/microchip/xc32/v4.20/bin/bin/../../lib/gcc/pic32mx/8.3.1/../../../../pic32mx/lib\libpic32.a(default-on-bootstrap.o)
 .debug_str     0x000000000001fce8      0x367 c:/program files/microchip/xc32/v4.20/bin/bin/../../lib/gcc/pic32mx/8.3.1/../../../../pic32mx/lib\libpic32.a(defaultinterrupt.o)
 .debug_str     0x000000000002004f      0x314 c:/program files/microchip/xc32/v4.20/bin/bin/../../lib/gcc/pic32mx/8.3.1/../../../../pic32mx/lib\libc-musl.a(strncmp.o)
 .debug_str     0x0000000000020363      0x310 c:/program files/microchip/xc32/v4.20/bin/bin/../../lib/gcc/pic32mx/8.3.1/../../../../pic32mx/lib\libc-musl.a(strncpy.o)
 .debug_str     0x0000000000020673      0x32a c:/program files/microchip/xc32/v4.20/bin/bin/../../lib/gcc/pic32mx/8.3.1/../../../../pic32mx/lib\libc-musl.a(stpncpy.o)
 .debug_str     0x000000000002099d      0x2f5 c:/program files/microchip/xc32/v4.20/bin/bin/../../lib/gcc/pic32mx/8.3.1/../../../../pic32mx/lib\libm.a(atan2.o)
 .debug_str     0x0000000000020c92      0x2f6 c:/program files/microchip/xc32/v4.20/bin/bin/../../lib/gcc/pic32mx/8.3.1/../../../../pic32mx/lib\libm.a(w_sqrt.o)
 .debug_str     0x0000000000020f88      0x345 c:/program files/microchip/xc32/v4.20/bin/bin/../../lib/gcc/pic32mx/8.3.1/../../../../pic32mx/lib\libm.a(support.o)
 .debug_str     0x00000000000212cd      0x2ff c:/program files/microchip/xc32/v4.20/bin/bin/../../lib/gcc/pic32mx/8.3.1/../../../../pic32mx/lib\libm.a(w_ldexp.o)
 .debug_str     0x00000000000215cc      0x2f3 c:/program files/microchip/xc32/v4.20/bin/bin/../../lib/gcc/pic32mx/8.3.1/../../../../pic32mx/lib\libm.a(s_lib_ver.o)
 .debug_str     0x00000000000218bf      0x338 c:/program files/microchip/xc32/v4.20/bin/bin/../../lib/gcc/pic32mx/8.3.1/../../../../pic32mx/lib\libpic32.a(errno.o)
 .debug_str     0x0000000000021bf7      0x360 c:/program files/microchip/xc32/v4.20/bin/bin/../../lib/gcc/pic32mx/8.3.1/../../../../pic32mx/lib\libpic32.a(isinf.o)
 .debug_str     0x0000000000021f57      0x308 c:/program files/microchip/xc32/v4.20/bin/bin/../../lib/gcc/pic32mx/8.3.1/../../../../pic32mx/lib\libe.a(_unorddf2.o)

.debug_loc      0x0000000000000000    0x114e0
 *(.debug_loc)
 .debug_loc     0x0000000000000000      0x198 output\tmr.o
 .debug_loc     0x0000000000000198      0x33a output\mal.o
 .debug_loc     0x00000000000004d2      0x4b3 output\ringBuffer.o
 .debug_loc     0x0000000000000985      0x3c4 output\task.o
 .debug_loc     0x0000000000000d49      0x240 output\sleep.o
 .debug_loc     0x0000000000000f89      0x36d output\eeprom.o
 .debug_loc     0x00000000000012f6      0x97c output\eep_manager.o
 .debug_loc     0x0000000000001c72      0x11d output\usb.o
 .debug_loc     0x0000000000001d8f      0x47a output\usb_device.o
 .debug_loc     0x0000000000002209       0xf2 output\exceptions.o
 .debug_loc     0x00000000000022fb       0x97 output\isr.o
 .debug_loc     0x0000000000002392       0x4a output\app.o
 .debug_loc     0x00000000000023dc       0x23 output\ad.o
 .debug_loc     0x00000000000023ff      0xe86 output\grbl_gcode.o
 .debug_loc     0x0000000000003285      0x393 output\grbl_limits.o
 .debug_loc     0x0000000000003618      0x8eb output\motion_control.o
 .debug_loc     0x0000000000003f03      0x92d output\nuts_bolts.o
 .debug_loc     0x0000000000004830      0x6d1 output\planner.o
 .debug_loc     0x0000000000004f01      0x661 output\print.o
 .debug_loc     0x0000000000005562      0x6a9 output\report.o
 .debug_loc     0x0000000000005c0b      0x431 output\settings.o
 .debug_loc     0x000000000000603c      0x40d output\spindle_control.o
 .debug_loc     0x0000000000006449      0x7d1 output\stepper.o
 .debug_loc     0x0000000000006c1a      0x918 output\system.o
 .debug_loc     0x0000000000007532       0x74 output\grbl.o
 .debug_loc     0x00000000000075a6      0x1af output\pwm.o
 .debug_loc     0x0000000000007755       0xa9 output\jog.o
 .debug_loc     0x00000000000077fe      0x2ac output\usb_function_cdc.o
 .debug_loc     0x0000000000007aaa      0xcdf output\dee.o
 .debug_loc     0x0000000000008789      0xbc9 output\dee_page.o
 .debug_loc     0x0000000000009352      0x555 output\dee_page_helper.o
 .debug_loc     0x00000000000098a7      0x47a output\eep_manager_crc.o
 .debug_loc     0x0000000000009d21      0x126 output\stepper_enable.o
 .debug_loc     0x0000000000009e47       0x6d output\system_exec.o
 .debug_loc     0x0000000000009eb4       0x23 output\system_alarm.o
 .debug_loc     0x0000000000009ed7      0x1bc output\grbl_eeprom.o
 .debug_loc     0x000000000000a093       0x54 output\bootloader_interface.o
 .debug_loc     0x000000000000a0e7       0xa5 output\grbl_toolchange.o
 .debug_loc     0x000000000000a18c       0x64 output\stackmeasure.o
 .debug_loc     0x000000000000a1f0      0x757 output\grbl_protocol.o
 .debug_loc     0x000000000000a947      0x1b6 output\grbl_probe.o
 .debug_loc     0x000000000000aafd      0x106 output\ethernet.o
 .debug_loc     0x000000000000ac03      0xbcf output\ENC28J60.o
 .debug_loc     0x000000000000b7d2      0x1e3 output\DHCP.o
 .debug_loc     0x000000000000b9b5      0x169 output\ARP.o
 .debug_loc     0x000000000000bb1e       0x2b output\Announce.o
 .debug_loc     0x000000000000bb49      0x96c output\Helpers.o
 .debug_loc     0x000000000000c4b5       0x57 output\ICMP.o
 .debug_loc     0x000000000000c50c      0x1e6 output\IP.o
 .debug_loc     0x000000000000c6f2       0x90 output\StackTsk.o
 .debug_loc     0x000000000000c782      0x803 output\UDP.o
 .debug_loc     0x000000000000cf85      0x12b output\usb_grbl_multi.o
 .debug_loc     0x000000000000d0b0      0x29e output\ethernet_grbl_multi.o
 .debug_loc     0x000000000000d34e       0x56 output\grbl_multi.o
 .debug_loc     0x000000000000d3a4       0x72 output\Reboot.o
 .debug_loc     0x000000000000d416     0x22a0 output\TCP.o
 .debug_loc     0x000000000000f6b6     0x12f4 output\BerkeleyAPI.o
 .debug_loc     0x00000000000109aa      0x3b5 output\noinitram.o
 .debug_loc     0x0000000000010d5f       0xc2 c:/program files/microchip/xc32/v4.20/bin/bin/../../lib/gcc/pic32mx/8.3.1\libgcc.a(_fixunssfdi.o)
 .debug_loc     0x0000000000010e21       0x86 c:/program files/microchip/xc32/v4.20/bin/bin/../../lib/gcc/pic32mx/8.3.1\libgcc.a(_floatundidf.o)
 .debug_loc     0x0000000000010ea7       0x84 c:/program files/microchip/xc32/v4.20/bin/bin/../../lib/gcc/pic32mx/8.3.1\libgcc.a(floatunsisf.o)
 .debug_loc     0x0000000000010f2b       0x90 c:/program files/microchip/xc32/v4.20/bin/bin/../../lib/gcc/pic32mx/8.3.1\libgcc.a(floatunsidf.o)
 .debug_loc     0x0000000000010fbb       0x2c c:/program files/microchip/xc32/v4.20/bin/bin/../../lib/gcc/pic32mx/8.3.1/../../../../pic32mx/lib\libpic32.a(default-bootstrap-exception-handler.o)
 .debug_loc     0x0000000000010fe7       0xec c:/program files/microchip/xc32/v4.20/bin/bin/../../lib/gcc/pic32mx/8.3.1/../../../../pic32mx/lib\libc-musl.a(strncmp.o)
 .debug_loc     0x00000000000110d3       0x79 c:/program files/microchip/xc32/v4.20/bin/bin/../../lib/gcc/pic32mx/8.3.1/../../../../pic32mx/lib\libc-musl.a(strncpy.o)
 .debug_loc     0x000000000001114c       0xea c:/program files/microchip/xc32/v4.20/bin/bin/../../lib/gcc/pic32mx/8.3.1/../../../../pic32mx/lib\libc-musl.a(stpncpy.o)
 .debug_loc     0x0000000000011236       0x21 c:/program files/microchip/xc32/v4.20/bin/bin/../../lib/gcc/pic32mx/8.3.1/../../../../pic32mx/lib\libm.a(atan2.o)
 .debug_loc     0x0000000000011257       0x2c c:/program files/microchip/xc32/v4.20/bin/bin/../../lib/gcc/pic32mx/8.3.1/../../../../pic32mx/lib\libm.a(w_sqrt.o)
 .debug_loc     0x0000000000011283      0x181 c:/program files/microchip/xc32/v4.20/bin/bin/../../lib/gcc/pic32mx/8.3.1/../../../../pic32mx/lib\libm.a(support.o)
 .debug_loc     0x0000000000011404       0x2c c:/program files/microchip/xc32/v4.20/bin/bin/../../lib/gcc/pic32mx/8.3.1/../../../../pic32mx/lib\libm.a(w_ldexp.o)
 .debug_loc     0x0000000000011430       0xb0 c:/program files/microchip/xc32/v4.20/bin/bin/../../lib/gcc/pic32mx/8.3.1/../../../../pic32mx/lib\libpic32.a(isinf.o)

.debug_macinfo
 *(.debug_macinfo)

.debug_weaknames
 *(.debug_weaknames)

.debug_funcnames
 *(.debug_funcnames)

.debug_typenames
 *(.debug_typenames)

.debug_varnames
 *(.debug_varnames)

.debug_pubtypes
 *(.debug_pubtypes)

.debug_ranges   0x0000000000000000     0x1638
 *(.debug_ranges)
 .debug_ranges  0x0000000000000000       0x30 output\mal.o
 .debug_ranges  0x0000000000000030       0x18 output\task.o
 .debug_ranges  0x0000000000000048       0x20 output\sleep.o
 .debug_ranges  0x0000000000000068       0x18 output\eeprom.o
 .debug_ranges  0x0000000000000080      0x160 output\eep_manager.o
 .debug_ranges  0x00000000000001e0      0x520 output\usb_device.o
 .debug_ranges  0x0000000000000700       0x18 output\exceptions.o
 .debug_ranges  0x0000000000000718       0x18 output\app.o
 .debug_ranges  0x0000000000000730       0x78 output\grbl_gcode.o
 .debug_ranges  0x00000000000007a8       0x88 output\grbl_limits.o
 .debug_ranges  0x0000000000000830       0xe0 output\planner.o
 .debug_ranges  0x0000000000000910      0x218 output\report.o
 .debug_ranges  0x0000000000000b28       0xa8 output\settings.o
 .debug_ranges  0x0000000000000bd0       0x50 output\spindle_control.o
 .debug_ranges  0x0000000000000c20      0x150 output\stepper.o
 .debug_ranges  0x0000000000000d70       0x18 output\system.o
 .debug_ranges  0x0000000000000d88      0x1a8 output\dee.o
 .debug_ranges  0x0000000000000f30       0x28 output\dee_page.o
 .debug_ranges  0x0000000000000f58       0x90 output\dee_page_helper.o
 .debug_ranges  0x0000000000000fe8       0x60 output\system_control.o
 .debug_ranges  0x0000000000001048       0x30 output\stepper_enable.o
 .debug_ranges  0x0000000000001078       0x18 output\grbl_eeprom.o
 .debug_ranges  0x0000000000001090       0x48 output\grbl_protocol.o
 .debug_ranges  0x00000000000010d8       0x18 output\grbl_probe.o
 .debug_ranges  0x00000000000010f0       0xb0 output\ENC28J60.o
 .debug_ranges  0x00000000000011a0       0x48 output\UDP.o
 .debug_ranges  0x00000000000011e8       0x98 output\ethernet_grbl_multi.o
 .debug_ranges  0x0000000000001280       0x60 output\Reboot.o
 .debug_ranges  0x00000000000012e0      0x160 output\TCP.o
 .debug_ranges  0x0000000000001440       0x10 c:/program files/microchip/xc32/v4.20/bin/bin/../../lib/gcc/pic32mx/8.3.1/../../../../pic32mx/lib\libpic32.a(default-bootstrap-exception-handler.o)
 .debug_ranges  0x0000000000001450       0x10 c:/program files/microchip/xc32/v4.20/bin/bin/../../lib/gcc/pic32mx/8.3.1/../../../../pic32mx/lib\libpic32.a(default-on-reset.o)
 .debug_ranges  0x0000000000001460       0x10 c:/program files/microchip/xc32/v4.20/bin/bin/../../lib/gcc/pic32mx/8.3.1/../../../../pic32mx/lib\libpic32.a(default-on-bootstrap.o)
 .debug_ranges  0x0000000000001470       0x10 c:/program files/microchip/xc32/v4.20/bin/bin/../../lib/gcc/pic32mx/8.3.1/../../../../pic32mx/lib\libpic32.a(defaultinterrupt.o)
 .debug_ranges  0x0000000000001480       0x10 c:/program files/microchip/xc32/v4.20/bin/bin/../../lib/gcc/pic32mx/8.3.1/../../../../pic32mx/lib\libc-musl.a(strncmp.o)
 .debug_ranges  0x0000000000001490       0x10 c:/program files/microchip/xc32/v4.20/bin/bin/../../lib/gcc/pic32mx/8.3.1/../../../../pic32mx/lib\libc-musl.a(strncpy.o)
 .debug_ranges  0x00000000000014a0       0x10 c:/program files/microchip/xc32/v4.20/bin/bin/../../lib/gcc/pic32mx/8.3.1/../../../../pic32mx/lib\libc-musl.a(stpncpy.o)
 .debug_ranges  0x00000000000014b0       0x70 c:/program files/microchip/xc32/v4.20/bin/bin/../../lib/gcc/pic32mx/8.3.1/../../../../pic32mx/lib\libm.a(atan2.o)
 .debug_ranges  0x0000000000001520       0x10 c:/program files/microchip/xc32/v4.20/bin/bin/../../lib/gcc/pic32mx/8.3.1/../../../../pic32mx/lib\libm.a(w_sqrt.o)
 .debug_ranges  0x0000000000001530       0xb0 c:/program files/microchip/xc32/v4.20/bin/bin/../../lib/gcc/pic32mx/8.3.1/../../../../pic32mx/lib\libm.a(support.o)
 .debug_ranges  0x00000000000015e0       0x10 c:/program files/microchip/xc32/v4.20/bin/bin/../../lib/gcc/pic32mx/8.3.1/../../../../pic32mx/lib\libm.a(w_ldexp.o)
 .debug_ranges  0x00000000000015f0       0x38 c:/program files/microchip/xc32/v4.20/bin/bin/../../lib/gcc/pic32mx/8.3.1/../../../../pic32mx/lib\libpic32.a(isinf.o)
 .debug_ranges  0x0000000000001628       0x10 c:/program files/microchip/xc32/v4.20/bin/bin/../../lib/gcc/pic32mx/8.3.1/../../../../pic32mx/lib\libe.a(_unorddf2.o)

.gnu.attributes
                0x0000000000000000       0x10
 *(.gnu.attributes)
 .gnu.attributes
                0x0000000000000000       0x10 c:/program files/microchip/xc32/v4.20/bin/bin/../../lib/gcc/pic32mx/8.3.1/../../../../pic32mx/lib\debug-exception-return.o
 .gnu.attributes
                0x0000000000000010       0x10 output\tmr.o
 .gnu.attributes
                0x0000000000000020       0x10 output\mal.o
 .gnu.attributes
                0x0000000000000030       0x10 output\ringBuffer.o
 .gnu.attributes
                0x0000000000000040       0x10 output\task.o
 .gnu.attributes
                0x0000000000000050       0x10 output\sleep.o
 .gnu.attributes
                0x0000000000000060       0x10 output\eeprom.o
 .gnu.attributes
                0x0000000000000070       0x10 output\eep_manager.o
 .gnu.attributes
                0x0000000000000080       0x10 output\usb.o
 .gnu.attributes
                0x0000000000000090       0x10 output\usb_descriptors.o
 .gnu.attributes
                0x00000000000000a0       0x10 output\usb_device.o
 .gnu.attributes
                0x00000000000000b0       0x10 output\exceptions.o
 .gnu.attributes
                0x00000000000000c0       0x10 output\isr.o
 .gnu.attributes
                0x00000000000000d0       0x10 output\main.o
 .gnu.attributes
                0x00000000000000e0       0x10 output\c_eep_manager.o
 .gnu.attributes
                0x00000000000000f0       0x10 output\app.o
 .gnu.attributes
                0x0000000000000100       0x10 output\ad.o
 .gnu.attributes
                0x0000000000000110       0x10 output\grbl_gcode.o
 .gnu.attributes
                0x0000000000000120       0x10 output\grbl_limits.o
 .gnu.attributes
                0x0000000000000130       0x10 output\coolant_control.o
 .gnu.attributes
                0x0000000000000140       0x10 output\motion_control.o
 .gnu.attributes
                0x0000000000000150       0x10 output\nuts_bolts.o
 .gnu.attributes
                0x0000000000000160       0x10 output\planner.o
 .gnu.attributes
                0x0000000000000170       0x10 output\print.o
 .gnu.attributes
                0x0000000000000180       0x10 output\report.o
 .gnu.attributes
                0x0000000000000190       0x10 output\settings.o
 .gnu.attributes
                0x00000000000001a0       0x10 output\spindle_control.o
 .gnu.attributes
                0x00000000000001b0       0x10 output\stepper.o
 .gnu.attributes
                0x00000000000001c0       0x10 output\system.o
 .gnu.attributes
                0x00000000000001d0       0x10 output\grbl.o
 .gnu.attributes
                0x00000000000001e0       0x10 output\pwm.o
 .gnu.attributes
                0x00000000000001f0       0x10 output\jog.o
 .gnu.attributes
                0x0000000000000200       0x10 output\usb_function_cdc.o
 .gnu.attributes
                0x0000000000000210       0x10 output\dee.o
 .gnu.attributes
                0x0000000000000220       0x10 output\dee_page.o
 .gnu.attributes
                0x0000000000000230       0x10 output\dee_page_helper.o
 .gnu.attributes
                0x0000000000000240       0x10 output\eep_manager_crc.o
 .gnu.attributes
                0x0000000000000250       0x10 output\system_control.o
 .gnu.attributes
                0x0000000000000260       0x10 output\stepper_enable.o
 .gnu.attributes
                0x0000000000000270       0x10 output\system_exec.o
 .gnu.attributes
                0x0000000000000280       0x10 output\system_alarm.o
 .gnu.attributes
                0x0000000000000290       0x10 output\grbl_eeprom.o
 .gnu.attributes
                0x00000000000002a0       0x10 output\bootloader_interface.o
 .gnu.attributes
                0x00000000000002b0       0x10 output\grbl_toolchange.o
 .gnu.attributes
                0x00000000000002c0       0x10 output\stackmeasure.o
 .gnu.attributes
                0x00000000000002d0       0x10 output\stackmeasure_helper.o
 .gnu.attributes
                0x00000000000002e0       0x10 output\grbl_protocol.o
 .gnu.attributes
                0x00000000000002f0       0x10 output\grbl_running.o
 .gnu.attributes
                0x0000000000000300       0x10 output\grbl_bootloader.o
 .gnu.attributes
                0x0000000000000310       0x10 output\grbl_probe.o
 .gnu.attributes
                0x0000000000000320       0x10 output\ethernet.o
 .gnu.attributes
                0x0000000000000330       0x10 output\ENC28J60.o
 .gnu.attributes
                0x0000000000000340       0x10 output\DHCP.o
 .gnu.attributes
                0x0000000000000350       0x10 output\ARP.o
 .gnu.attributes
                0x0000000000000360       0x10 output\Announce.o
 .gnu.attributes
                0x0000000000000370       0x10 output\Helpers.o
 .gnu.attributes
                0x0000000000000380       0x10 output\ICMP.o
 .gnu.attributes
                0x0000000000000390       0x10 output\IP.o
 .gnu.attributes
                0x00000000000003a0       0x10 output\StackTsk.o
 .gnu.attributes
                0x00000000000003b0       0x10 output\UDP.o
 .gnu.attributes
                0x00000000000003c0       0x10 output\usb_grbl_multi.o
 .gnu.attributes
                0x00000000000003d0       0x10 output\ethernet_grbl_multi.o
 .gnu.attributes
                0x00000000000003e0       0x10 output\grbl_multi.o
 .gnu.attributes
                0x00000000000003f0       0x10 output\Reboot.o
 .gnu.attributes
                0x0000000000000400       0x10 output\TCP.o
 .gnu.attributes
                0x0000000000000410       0x10 output\BerkeleyAPI.o
 .gnu.attributes
                0x0000000000000420       0x10 output\noinitram.o
 .gnu.attributes
                0x0000000000000430       0x10 c:/program files/microchip/xc32/v4.20/bin/bin/../../lib/gcc/pic32mx/8.3.1/../../../../pic32mx/lib/./proc/32MX440F256H\processor.o
 .gnu.attributes
                0x0000000000000440       0x10 C:\Users\kyrk\AppData\Local\Temp\ccC6iq7L.o
 .gnu.attributes
                0x0000000000000450       0x10 C:\Users\kyrk\AppData\Local\Temp\ccgwFKT5.o
 .gnu.attributes
                0x0000000000000460       0x10 C:\Users\kyrk\AppData\Local\Temp\ccMtDgJu.o
 .gnu.attributes
                0x0000000000000470       0x10 c:/program files/microchip/xc32/v4.20/bin/bin/../../lib/gcc/pic32mx/8.3.1/../../../../pic32mx/lib/./proc/32MX440F256H\default_isr_vectors.o
 .gnu.attributes
                0x0000000000000480       0x10 c:/program files/microchip/xc32/v4.20/bin/bin/../../lib/gcc/pic32mx/8.3.1/../../../../pic32mx/lib\pic32_software_reset.o
 .gnu.attributes
                0x0000000000000490       0x10 c:/program files/microchip/xc32/v4.20/bin/bin/../../lib/gcc/pic32mx/8.3.1\libgcc.a(_fixunssfdi.o)
 .gnu.attributes
                0x00000000000004a0       0x10 c:/program files/microchip/xc32/v4.20/bin/bin/../../lib/gcc/pic32mx/8.3.1\libgcc.a(_floatundidf.o)
 .gnu.attributes
                0x00000000000004b0       0x10 c:/program files/microchip/xc32/v4.20/bin/bin/../../lib/gcc/pic32mx/8.3.1\libgcc.a(floatunsisf.o)
 .gnu.attributes
                0x00000000000004c0       0x10 c:/program files/microchip/xc32/v4.20/bin/bin/../../lib/gcc/pic32mx/8.3.1\libgcc.a(floatunsidf.o)
 .gnu.attributes
                0x00000000000004d0       0x10 c:/program files/microchip/xc32/v4.20/bin/bin/../../lib/gcc/pic32mx/8.3.1/../../../../pic32mx/lib\libpic32.a(memcmp.o)
 .gnu.attributes
                0x00000000000004e0       0x10 c:/program files/microchip/xc32/v4.20/bin/bin/../../lib/gcc/pic32mx/8.3.1/../../../../pic32mx/lib\libpic32.a(memcpy.o)
 .gnu.attributes
                0x00000000000004f0       0x10 c:/program files/microchip/xc32/v4.20/bin/bin/../../lib/gcc/pic32mx/8.3.1/../../../../pic32mx/lib\libpic32.a(memset.o)
 .gnu.attributes
                0x0000000000000500       0x10 c:/program files/microchip/xc32/v4.20/bin/bin/../../lib/gcc/pic32mx/8.3.1/../../../../pic32mx/lib\libpic32.a(strcmp.o)
 .gnu.attributes
                0x0000000000000510       0x10 c:/program files/microchip/xc32/v4.20/bin/bin/../../lib/gcc/pic32mx/8.3.1/../../../../pic32mx/lib\libpic32.a(strlen.o)
 .gnu.attributes
                0x0000000000000520       0x10 c:/program files/microchip/xc32/v4.20/bin/bin/../../lib/gcc/pic32mx/8.3.1/../../../../pic32mx/lib\libpic32.a(default-bootstrap-exception-handler.o)
 .gnu.attributes
                0x0000000000000530       0x10 c:/program files/microchip/xc32/v4.20/bin/bin/../../lib/gcc/pic32mx/8.3.1/../../../../pic32mx/lib\libpic32.a(default-on-reset.o)
 .gnu.attributes
                0x0000000000000540       0x10 c:/program files/microchip/xc32/v4.20/bin/bin/../../lib/gcc/pic32mx/8.3.1/../../../../pic32mx/lib\libpic32.a(default-on-bootstrap.o)
 .gnu.attributes
                0x0000000000000550       0x10 c:/program files/microchip/xc32/v4.20/bin/bin/../../lib/gcc/pic32mx/8.3.1/../../../../pic32mx/lib\libpic32.a(default-nmi-handler.o)
 .gnu.attributes
                0x0000000000000560       0x10 c:/program files/microchip/xc32/v4.20/bin/bin/../../lib/gcc/pic32mx/8.3.1/../../../../pic32mx/lib\libpic32.a(pic32_data_init_wrapper.o)
 .gnu.attributes
                0x0000000000000570       0x10 c:/program files/microchip/xc32/v4.20/bin/bin/../../lib/gcc/pic32mx/8.3.1/../../../../pic32mx/lib\libpic32.a(pic32_data_init_0_1.o)
 .gnu.attributes
                0x0000000000000580       0x10 c:/program files/microchip/xc32/v4.20/bin/bin/../../lib/gcc/pic32mx/8.3.1/../../../../pic32mx/lib\libpic32.a(general-exception.o)
 .gnu.attributes
                0x0000000000000590       0x10 c:/program files/microchip/xc32/v4.20/bin/bin/../../lib/gcc/pic32mx/8.3.1/../../../../pic32mx/lib\libpic32.a(vector1.o)
 .gnu.attributes
                0x00000000000005a0       0x10 c:/program files/microchip/xc32/v4.20/bin/bin/../../lib/gcc/pic32mx/8.3.1/../../../../pic32mx/lib\libpic32.a(vector2.o)
 .gnu.attributes
                0x00000000000005b0       0x10 c:/program files/microchip/xc32/v4.20/bin/bin/../../lib/gcc/pic32mx/8.3.1/../../../../pic32mx/lib\libpic32.a(vector3.o)
 .gnu.attributes
                0x00000000000005c0       0x10 c:/program files/microchip/xc32/v4.20/bin/bin/../../lib/gcc/pic32mx/8.3.1/../../../../pic32mx/lib\libpic32.a(vector5.o)
 .gnu.attributes
                0x00000000000005d0       0x10 c:/program files/microchip/xc32/v4.20/bin/bin/../../lib/gcc/pic32mx/8.3.1/../../../../pic32mx/lib\libpic32.a(vector6.o)
 .gnu.attributes
                0x00000000000005e0       0x10 c:/program files/microchip/xc32/v4.20/bin/bin/../../lib/gcc/pic32mx/8.3.1/../../../../pic32mx/lib\libpic32.a(vector7.o)
 .gnu.attributes
                0x00000000000005f0       0x10 c:/program files/microchip/xc32/v4.20/bin/bin/../../lib/gcc/pic32mx/8.3.1/../../../../pic32mx/lib\libpic32.a(vector9.o)
 .gnu.attributes
                0x0000000000000600       0x10 c:/program files/microchip/xc32/v4.20/bin/bin/../../lib/gcc/pic32mx/8.3.1/../../../../pic32mx/lib\libpic32.a(vector10.o)
 .gnu.attributes
                0x0000000000000610       0x10 c:/program files/microchip/xc32/v4.20/bin/bin/../../lib/gcc/pic32mx/8.3.1/../../../../pic32mx/lib\libpic32.a(vector11.o)
 .gnu.attributes
                0x0000000000000620       0x10 c:/program files/microchip/xc32/v4.20/bin/bin/../../lib/gcc/pic32mx/8.3.1/../../../../pic32mx/lib\libpic32.a(vector13.o)
 .gnu.attributes
                0x0000000000000630       0x10 c:/program files/microchip/xc32/v4.20/bin/bin/../../lib/gcc/pic32mx/8.3.1/../../../../pic32mx/lib\libpic32.a(vector14.o)
 .gnu.attributes
                0x0000000000000640       0x10 c:/program files/microchip/xc32/v4.20/bin/bin/../../lib/gcc/pic32mx/8.3.1/../../../../pic32mx/lib\libpic32.a(vector17.o)
 .gnu.attributes
                0x0000000000000650       0x10 c:/program files/microchip/xc32/v4.20/bin/bin/../../lib/gcc/pic32mx/8.3.1/../../../../pic32mx/lib\libpic32.a(vector18.o)
 .gnu.attributes
                0x0000000000000660       0x10 c:/program files/microchip/xc32/v4.20/bin/bin/../../lib/gcc/pic32mx/8.3.1/../../../../pic32mx/lib\libpic32.a(vector21.o)
 .gnu.attributes
                0x0000000000000670       0x10 c:/program files/microchip/xc32/v4.20/bin/bin/../../lib/gcc/pic32mx/8.3.1/../../../../pic32mx/lib\libpic32.a(vector22.o)
 .gnu.attributes
                0x0000000000000680       0x10 c:/program files/microchip/xc32/v4.20/bin/bin/../../lib/gcc/pic32mx/8.3.1/../../../../pic32mx/lib\libpic32.a(vector23.o)
 .gnu.attributes
                0x0000000000000690       0x10 c:/program files/microchip/xc32/v4.20/bin/bin/../../lib/gcc/pic32mx/8.3.1/../../../../pic32mx/lib\libpic32.a(vector27.o)
 .gnu.attributes
                0x00000000000006a0       0x10 c:/program files/microchip/xc32/v4.20/bin/bin/../../lib/gcc/pic32mx/8.3.1/../../../../pic32mx/lib\libpic32.a(vector28.o)
 .gnu.attributes
                0x00000000000006b0       0x10 c:/program files/microchip/xc32/v4.20/bin/bin/../../lib/gcc/pic32mx/8.3.1/../../../../pic32mx/lib\libpic32.a(vector29.o)
 .gnu.attributes
                0x00000000000006c0       0x10 c:/program files/microchip/xc32/v4.20/bin/bin/../../lib/gcc/pic32mx/8.3.1/../../../../pic32mx/lib\libpic32.a(vector30.o)
 .gnu.attributes
                0x00000000000006d0       0x10 c:/program files/microchip/xc32/v4.20/bin/bin/../../lib/gcc/pic32mx/8.3.1/../../../../pic32mx/lib\libpic32.a(vector34.o)
 .gnu.attributes
                0x00000000000006e0       0x10 c:/program files/microchip/xc32/v4.20/bin/bin/../../lib/gcc/pic32mx/8.3.1/../../../../pic32mx/lib\libpic32.a(vector35.o)
 .gnu.attributes
                0x00000000000006f0       0x10 c:/program files/microchip/xc32/v4.20/bin/bin/../../lib/gcc/pic32mx/8.3.1/../../../../pic32mx/lib\libpic32.a(vector40.o)
 .gnu.attributes
                0x0000000000000700       0x10 c:/program files/microchip/xc32/v4.20/bin/bin/../../lib/gcc/pic32mx/8.3.1/../../../../pic32mx/lib\libpic32.a(vector41.o)
 .gnu.attributes
                0x0000000000000710       0x10 c:/program files/microchip/xc32/v4.20/bin/bin/../../lib/gcc/pic32mx/8.3.1/../../../../pic32mx/lib\libpic32.a(vector42.o)
 .gnu.attributes
                0x0000000000000720       0x10 c:/program files/microchip/xc32/v4.20/bin/bin/../../lib/gcc/pic32mx/8.3.1/../../../../pic32mx/lib\libpic32.a(vector43.o)
 .gnu.attributes
                0x0000000000000730       0x10 c:/program files/microchip/xc32/v4.20/bin/bin/../../lib/gcc/pic32mx/8.3.1/../../../../pic32mx/lib\libpic32.a(vector44.o)
 .gnu.attributes
                0x0000000000000740       0x10 c:/program files/microchip/xc32/v4.20/bin/bin/../../lib/gcc/pic32mx/8.3.1/../../../../pic32mx/lib\libpic32.a(defaultinterrupt.o)
 .gnu.attributes
                0x0000000000000750       0x10 c:/program files/microchip/xc32/v4.20/bin/bin/../../lib/gcc/pic32mx/8.3.1/../../../../pic32mx/lib\libc-musl.a(strncmp.o)
 .gnu.attributes
                0x0000000000000760       0x10 c:/program files/microchip/xc32/v4.20/bin/bin/../../lib/gcc/pic32mx/8.3.1/../../../../pic32mx/lib\libc-musl.a(strncpy.o)
 .gnu.attributes
                0x0000000000000770       0x10 c:/program files/microchip/xc32/v4.20/bin/bin/../../lib/gcc/pic32mx/8.3.1/../../../../pic32mx/lib\libc-musl.a(stpncpy.o)
 .gnu.attributes
                0x0000000000000780       0x10 c:/program files/microchip/xc32/v4.20/bin/bin/../../lib/gcc/pic32mx/8.3.1/../../../../pic32mx/lib\libm.a(floor32.o)
 .gnu.attributes
                0x0000000000000790       0x10 c:/program files/microchip/xc32/v4.20/bin/bin/../../lib/gcc/pic32mx/8.3.1/../../../../pic32mx/lib\libm.a(ceil32.o)
 .gnu.attributes
                0x00000000000007a0       0x10 c:/program files/microchip/xc32/v4.20/bin/bin/../../lib/gcc/pic32mx/8.3.1/../../../../pic32mx/lib\libm.a(cos32.o)
 .gnu.attributes
                0x00000000000007b0       0x10 c:/program files/microchip/xc32/v4.20/bin/bin/../../lib/gcc/pic32mx/8.3.1/../../../../pic32mx/lib\libm.a(dp32div.o)
 .gnu.attributes
                0x00000000000007c0       0x10 c:/program files/microchip/xc32/v4.20/bin/bin/../../lib/gcc/pic32mx/8.3.1/../../../../pic32mx/lib\libm.a(dp32mul.o)
 .gnu.attributes
                0x00000000000007d0       0x10 c:/program files/microchip/xc32/v4.20/bin/bin/../../lib/gcc/pic32mx/8.3.1/../../../../pic32mx/lib\libm.a(dp32subadd.o)
 .gnu.attributes
                0x00000000000007e0       0x10 c:/program files/microchip/xc32/v4.20/bin/bin/../../lib/gcc/pic32mx/8.3.1/../../../../pic32mx/lib\libm.a(dpcmp.o)
 .gnu.attributes
                0x00000000000007f0       0x10 c:/program files/microchip/xc32/v4.20/bin/bin/../../lib/gcc/pic32mx/8.3.1/../../../../pic32mx/lib\libm.a(dpcmplt.o)
 .gnu.attributes
                0x0000000000000800       0x10 c:/program files/microchip/xc32/v4.20/bin/bin/../../lib/gcc/pic32mx/8.3.1/../../../../pic32mx/lib\libm.a(dpsqrt.o)
 .gnu.attributes
                0x0000000000000810       0x10 c:/program files/microchip/xc32/v4.20/bin/bin/../../lib/gcc/pic32mx/8.3.1/../../../../pic32mx/lib\libm.a(dptofp.o)
 .gnu.attributes
                0x0000000000000820       0x10 c:/program files/microchip/xc32/v4.20/bin/bin/../../lib/gcc/pic32mx/8.3.1/../../../../pic32mx/lib\libm.a(dptoul.o)
 .gnu.attributes
                0x0000000000000830       0x10 c:/program files/microchip/xc32/v4.20/bin/bin/../../lib/gcc/pic32mx/8.3.1/../../../../pic32mx/lib\libm.a(exmul.o)
 .gnu.attributes
                0x0000000000000840       0x10 c:/program files/microchip/xc32/v4.20/bin/bin/../../lib/gcc/pic32mx/8.3.1/../../../../pic32mx/lib\libm.a(exsqrt.o)
 .gnu.attributes
                0x0000000000000850       0x10 c:/program files/microchip/xc32/v4.20/bin/bin/../../lib/gcc/pic32mx/8.3.1/../../../../pic32mx/lib\libm.a(fp32div.o)
 .gnu.attributes
                0x0000000000000860       0x10 c:/program files/microchip/xc32/v4.20/bin/bin/../../lib/gcc/pic32mx/8.3.1/../../../../pic32mx/lib\libm.a(fp32mul.o)
 .gnu.attributes
                0x0000000000000870       0x10 c:/program files/microchip/xc32/v4.20/bin/bin/../../lib/gcc/pic32mx/8.3.1/../../../../pic32mx/lib\libm.a(fp32subadd.o)
 .gnu.attributes
                0x0000000000000880       0x10 c:/program files/microchip/xc32/v4.20/bin/bin/../../lib/gcc/pic32mx/8.3.1/../../../../pic32mx/lib\libm.a(fpcmp.o)
 .gnu.attributes
                0x0000000000000890       0x10 c:/program files/microchip/xc32/v4.20/bin/bin/../../lib/gcc/pic32mx/8.3.1/../../../../pic32mx/lib\libm.a(fpcmplt.o)
 .gnu.attributes
                0x00000000000008a0       0x10 c:/program files/microchip/xc32/v4.20/bin/bin/../../lib/gcc/pic32mx/8.3.1/../../../../pic32mx/lib\libm.a(fpexsqrt32.o)
 .gnu.attributes
                0x00000000000008b0       0x10 c:/program files/microchip/xc32/v4.20/bin/bin/../../lib/gcc/pic32mx/8.3.1/../../../../pic32mx/lib\libm.a(fptodp.o)
 .gnu.attributes
                0x00000000000008c0       0x10 c:/program files/microchip/xc32/v4.20/bin/bin/../../lib/gcc/pic32mx/8.3.1/../../../../pic32mx/lib\libm.a(fptoli.o)
 .gnu.attributes
                0x00000000000008d0       0x10 c:/program files/microchip/xc32/v4.20/bin/bin/../../lib/gcc/pic32mx/8.3.1/../../../../pic32mx/lib\libm.a(fptoul.o)
 .gnu.attributes
                0x00000000000008e0       0x10 c:/program files/microchip/xc32/v4.20/bin/bin/../../lib/gcc/pic32mx/8.3.1/../../../../pic32mx/lib\libm.a(litodp.o)
 .gnu.attributes
                0x00000000000008f0       0x10 c:/program files/microchip/xc32/v4.20/bin/bin/../../lib/gcc/pic32mx/8.3.1/../../../../pic32mx/lib\libm.a(reduct32.o)
 .gnu.attributes
                0x0000000000000900       0x10 c:/program files/microchip/xc32/v4.20/bin/bin/../../lib/gcc/pic32mx/8.3.1/../../../../pic32mx/lib\libm.a(sigmax.o)
 .gnu.attributes
                0x0000000000000910       0x10 c:/program files/microchip/xc32/v4.20/bin/bin/../../lib/gcc/pic32mx/8.3.1/../../../../pic32mx/lib\libm.a(sin32.o)
 .gnu.attributes
                0x0000000000000920       0x10 c:/program files/microchip/xc32/v4.20/bin/bin/../../lib/gcc/pic32mx/8.3.1/../../../../pic32mx/lib\libm.a(sincos32.o)
 .gnu.attributes
                0x0000000000000930       0x10 c:/program files/microchip/xc32/v4.20/bin/bin/../../lib/gcc/pic32mx/8.3.1/../../../../pic32mx/lib\libm.a(sitofp.o)
 .gnu.attributes
                0x0000000000000940       0x10 c:/program files/microchip/xc32/v4.20/bin/bin/../../lib/gcc/pic32mx/8.3.1/../../../../pic32mx/lib\libm.a(atan2.o)
 .gnu.attributes
                0x0000000000000950       0x10 c:/program files/microchip/xc32/v4.20/bin/bin/../../lib/gcc/pic32mx/8.3.1/../../../../pic32mx/lib\libm.a(w_sqrt.o)
 .gnu.attributes
                0x0000000000000960       0x10 c:/program files/microchip/xc32/v4.20/bin/bin/../../lib/gcc/pic32mx/8.3.1/../../../../pic32mx/lib\libm.a(support.o)
 .gnu.attributes
                0x0000000000000970       0x10 c:/program files/microchip/xc32/v4.20/bin/bin/../../lib/gcc/pic32mx/8.3.1/../../../../pic32mx/lib\libm.a(w_ldexp.o)
 .gnu.attributes
                0x0000000000000980       0x10 c:/program files/microchip/xc32/v4.20/bin/bin/../../lib/gcc/pic32mx/8.3.1/../../../../pic32mx/lib\libm.a(dpldexp.o)
 .gnu.attributes
                0x0000000000000990       0x10 c:/program files/microchip/xc32/v4.20/bin/bin/../../lib/gcc/pic32mx/8.3.1/../../../../pic32mx/lib\libm.a(dptoli.o)
 .gnu.attributes
                0x00000000000009a0       0x10 c:/program files/microchip/xc32/v4.20/bin/bin/../../lib/gcc/pic32mx/8.3.1/../../../../pic32mx/lib\libm.a(s_lib_ver.o)
 .gnu.attributes
                0x00000000000009b0       0x10 c:/program files/microchip/xc32/v4.20/bin/bin/../../lib/gcc/pic32mx/8.3.1/../../../../pic32mx/lib\libpic32.a(errno.o)
 .gnu.attributes
                0x00000000000009c0       0x10 c:/program files/microchip/xc32/v4.20/bin/bin/../../lib/gcc/pic32mx/8.3.1/../../../../pic32mx/lib\libpic32.a(isinf.o)
 .gnu.attributes
                0x00000000000009d0       0x10 c:/program files/microchip/xc32/v4.20/bin/bin/../../lib/gcc/pic32mx/8.3.1/../../../../pic32mx/lib\libe.a(_unorddf2.o)
                0x0000000000000001                __MPLAB_BUILD = 0x1
                0x0000000000001000                _min_heap_size = 0x1000
LOAD C:\Users\kyrk\AppData\Local\Temp\ccC6iq7L.o
LOAD C:\Users\kyrk\AppData\Local\Temp\ccgwFKT5.o
LOAD C:\Users\kyrk\AppData\Local\Temp\ccMtDgJu.o
LOAD c:/program files/microchip/xc32/v4.20/bin/bin/../../lib/gcc/pic32mx/8.3.1/../../../../pic32mx/lib/./proc/32MX440F256H\default_isr_vectors.o
LOAD c:/program files/microchip/xc32/v4.20/bin/bin/../../lib/gcc/pic32mx/8.3.1/../../../../pic32mx/lib\pic32_software_reset.o
LOAD c:/program files/microchip/xc32/v4.20/bin/bin/../../lib/gcc/pic32mx/8.3.1\libgcc.a
START GROUP
LOAD c:/program files/microchip/xc32/v4.20/bin/bin/../../lib/gcc/pic32mx/8.3.1/../../../../pic32mx/lib\libpic32.a
LOAD c:/program files/microchip/xc32/v4.20/bin/bin/../../lib/gcc/pic32mx/8.3.1/../../../../pic32mx/lib\libdebug.a
LOAD c:/program files/microchip/xc32/v4.20/bin/bin/../../lib/gcc/pic32mx/8.3.1/../../../../pic32mx/lib\libc-musl.a
LOAD c:/program files/microchip/xc32/v4.20/bin/bin/../../lib/gcc/pic32mx/8.3.1/../../../../pic32mx/lib\libm.a
LOAD c:/program files/microchip/xc32/v4.20/bin/bin/../../lib/gcc/pic32mx/8.3.1/../../../../pic32mx/lib\libe.a
LOAD c:/program files/microchip/xc32/v4.20/bin/bin/../../lib/gcc/pic32mx/8.3.1/../../../../pic32mx/lib\libm-musl.a
LOAD c:/program files/microchip/xc32/v4.20/bin/bin/../../lib/gcc/pic32mx/8.3.1/../../../../pic32mx/lib\libdsp.a
LOAD c:/program files/microchip/xc32/v4.20/bin/bin/../../lib/gcc/pic32mx/8.3.1\libgcc.a
END GROUP
LOAD c:/program files/microchip/xc32/v4.20/bin/bin/../../lib/gcc/pic32mx/8.3.1\libgcc.a
OUTPUT(.\output\cnc_1_0_0.elf elf32-tradlittlemips)
LOAD stack
LOAD data_init

.reginfo        0x0000000000000000       0x18
 .reginfo       0x0000000000000000       0x18 c:/program files/microchip/xc32/v4.20/bin/bin/../../lib/gcc/pic32mx/8.3.1/../../../../pic32mx/lib\debug-exception-return.o

.stack          0x00000000a00055e0      0x400
 .stack         0x00000000a00055e0      0x400 stack

.exceptionLog   0x00000000a0000200       0xc0
 .exceptionLog  0x00000000a0000200       0xc0 output\exceptions.o
                0x00000000a0000200                exceptionLog

.noinitram_2    0x00000000a00003a0       0x80
 .noinitram_2   0x00000000a00003a0       0x80 output\noinitram.o
                0x00000000a00003a0                noinitram_2

.noinitram_1    0x00000000a0000310       0x80
 .noinitram_1   0x00000000a0000310       0x80 output\noinitram.o
                0x00000000a0000310                noinitram_1

.grbl_eeprom_sys_position_3
                0x00000000a0000460       0x10
 .grbl_eeprom_sys_position_3
                0x00000000a0000460       0x10 output\grbl_eeprom.o
                0x00000000a0000460                grbl_eeprom_sys_position_3

.grbl_eeprom_sys_position_2
                0x00000000a0000450       0x10
 .grbl_eeprom_sys_position_2
                0x00000000a0000450       0x10 output\grbl_eeprom.o
                0x00000000a0000450                grbl_eeprom_sys_position_2

.grbl_eeprom_sys_position_1
                0x00000000a0000440       0x10
 .grbl_eeprom_sys_position_1
                0x00000000a0000440       0x10 output\grbl_eeprom.o
                0x00000000a0000440                grbl_eeprom_sys_position_1

.bootloader_MAC
                0x00000000a0000f30        0x8
 .bootloader_MAC
                0x00000000a0000f30        0x8 output\bootloader_interface.o
                0x00000000a0000f30                bootloader_MAC

.noinitram_crc_2
                0x00000000a0000390        0x8
 .noinitram_crc_2
                0x00000000a0000390        0x8 output\noinitram.o
                0x00000000a0000390                noinitram_crc_2

.noinitram_crc_1
                0x00000000a0000300        0x8
 .noinitram_crc_1
                0x00000000a0000300        0x8 output\noinitram.o
                0x00000000a0000300                noinitram_crc_1

.bootloader_was_reset_called
                0x00000000a0000f20        0x4
 .bootloader_was_reset_called
                0x00000000a0000f20        0x4 output\bootloader_interface.o
                0x00000000a0000f20                bootloader_was_reset_called

.bootloader_request_B
                0x00000000a0000f10        0x4
 .bootloader_request_B
                0x00000000a0000f10        0x4 output\bootloader_interface.o
                0x00000000a0000f10                bootloader_request_B

.bootloader_request_A
                0x00000000a0000f00        0x4
 .bootloader_request_A
                0x00000000a0000f00        0x4 output\bootloader_interface.o
                0x00000000a0000f00                bootloader_request_A

.data           0x00000000a00014d0      0x12c
 .data          0x00000000a00014d0      0x12c output\c_eep_manager.o
                0x00000000a00014d0                eepManager_ItemTable

.data           0x00000000a00042b0       0x88
 .data          0x00000000a00042b0       0x70 c:/program files/microchip/xc32/v4.20/bin/bin/../../lib/gcc/pic32mx/8.3.1/../../../../pic32mx/lib\libm.a(sincos32.o)
                0x00000000a00042b0                sincon
                0x00000000a00042e8                coscon
 .data          0x00000000a0004320       0x18 output\main.o
                0x00000000a0004320                VERSION_ID
                0x00000000a000432c                softwareIdentification

.data.math_errhandling_flag
                0x00000000a00015fc        0x4
 .data.math_errhandling_flag
                0x00000000a00015fc        0x4 c:/program files/microchip/xc32/v4.20/bin/bin/../../lib/gcc/pic32mx/8.3.1/../../../../pic32mx/lib\libm.a(s_lib_ver.o)
                0x00000000a00015fc                math_errhandling

.data%z1        0x0000000000000000        0x0
 .data          0x0000000000000000        0x0 c:/program files/microchip/xc32/v4.20/bin/bin/../../lib/gcc/pic32mx/8.3.1/../../../../pic32mx/lib\libe.a(_unorddf2.o)

.data%z2        0x0000000000000000        0x0
 .data          0x0000000000000000        0x0 c:/program files/microchip/xc32/v4.20/bin/bin/../../lib/gcc/pic32mx/8.3.1/../../../../pic32mx/lib\libpic32.a(isinf.o)

.data%z3        0x0000000000000000        0x0
 .data          0x0000000000000000        0x0 c:/program files/microchip/xc32/v4.20/bin/bin/../../lib/gcc/pic32mx/8.3.1/../../../../pic32mx/lib\libpic32.a(errno.o)

.data%z4        0x0000000000000000        0x0
 .data          0x0000000000000000        0x0 c:/program files/microchip/xc32/v4.20/bin/bin/../../lib/gcc/pic32mx/8.3.1/../../../../pic32mx/lib\libm.a(s_lib_ver.o)

.data%z5        0x0000000000000000        0x0
 .data          0x0000000000000000        0x0 c:/program files/microchip/xc32/v4.20/bin/bin/../../lib/gcc/pic32mx/8.3.1/../../../../pic32mx/lib\libm.a(dptoli.o)

.data%z6        0x0000000000000000        0x0
 .data          0x0000000000000000        0x0 c:/program files/microchip/xc32/v4.20/bin/bin/../../lib/gcc/pic32mx/8.3.1/../../../../pic32mx/lib\libm.a(dpldexp.o)

.data%z7        0x0000000000000000        0x0
 .data          0x0000000000000000        0x0 c:/program files/microchip/xc32/v4.20/bin/bin/../../lib/gcc/pic32mx/8.3.1/../../../../pic32mx/lib\libm.a(w_ldexp.o)

.data%z8        0x0000000000000000        0x0
 .data          0x0000000000000000        0x0 c:/program files/microchip/xc32/v4.20/bin/bin/../../lib/gcc/pic32mx/8.3.1/../../../../pic32mx/lib\libm.a(support.o)

.data%z9        0x0000000000000000        0x0
 .data          0x0000000000000000        0x0 c:/program files/microchip/xc32/v4.20/bin/bin/../../lib/gcc/pic32mx/8.3.1/../../../../pic32mx/lib\libm.a(w_sqrt.o)

.data%z10       0x0000000000000000        0x0
 .data          0x0000000000000000        0x0 c:/program files/microchip/xc32/v4.20/bin/bin/../../lib/gcc/pic32mx/8.3.1/../../../../pic32mx/lib\libm.a(atan2.o)

.data%z11       0x0000000000000000        0x0
 .data          0x0000000000000000        0x0 c:/program files/microchip/xc32/v4.20/bin/bin/../../lib/gcc/pic32mx/8.3.1/../../../../pic32mx/lib\libm.a(sitofp.o)

.data%z12       0x0000000000000000        0x0
 .data          0x0000000000000000        0x0 c:/program files/microchip/xc32/v4.20/bin/bin/../../lib/gcc/pic32mx/8.3.1/../../../../pic32mx/lib\libm.a(sin32.o)

.data%z13       0x0000000000000000        0x0
 .data          0x0000000000000000        0x0 c:/program files/microchip/xc32/v4.20/bin/bin/../../lib/gcc/pic32mx/8.3.1/../../../../pic32mx/lib\libm.a(sigmax.o)

.data%z14       0x0000000000000000        0x0
 .data          0x0000000000000000        0x0 c:/program files/microchip/xc32/v4.20/bin/bin/../../lib/gcc/pic32mx/8.3.1/../../../../pic32mx/lib\libm.a(reduct32.o)

.data%z15       0x0000000000000000        0x0
 .data          0x0000000000000000        0x0 c:/program files/microchip/xc32/v4.20/bin/bin/../../lib/gcc/pic32mx/8.3.1/../../../../pic32mx/lib\libm.a(litodp.o)

.data%z16       0x0000000000000000        0x0
 .data          0x0000000000000000        0x0 c:/program files/microchip/xc32/v4.20/bin/bin/../../lib/gcc/pic32mx/8.3.1/../../../../pic32mx/lib\libm.a(fptoul.o)

.data%z17       0x0000000000000000        0x0
 .data          0x0000000000000000        0x0 c:/program files/microchip/xc32/v4.20/bin/bin/../../lib/gcc/pic32mx/8.3.1/../../../../pic32mx/lib\libm.a(fptoli.o)

.data%z18       0x0000000000000000        0x0
 .data          0x0000000000000000        0x0 c:/program files/microchip/xc32/v4.20/bin/bin/../../lib/gcc/pic32mx/8.3.1/../../../../pic32mx/lib\libm.a(fptodp.o)

.data%z19       0x0000000000000000        0x0
 .data          0x0000000000000000        0x0 c:/program files/microchip/xc32/v4.20/bin/bin/../../lib/gcc/pic32mx/8.3.1/../../../../pic32mx/lib\libm.a(fpexsqrt32.o)

.data%z20       0x0000000000000000        0x0
 .data          0x0000000000000000        0x0 c:/program files/microchip/xc32/v4.20/bin/bin/../../lib/gcc/pic32mx/8.3.1/../../../../pic32mx/lib\libm.a(fpcmplt.o)

.data%z21       0x0000000000000000        0x0
 .data          0x0000000000000000        0x0 c:/program files/microchip/xc32/v4.20/bin/bin/../../lib/gcc/pic32mx/8.3.1/../../../../pic32mx/lib\libm.a(fpcmp.o)

.data%z22       0x0000000000000000        0x0
 .data          0x0000000000000000        0x0 c:/program files/microchip/xc32/v4.20/bin/bin/../../lib/gcc/pic32mx/8.3.1/../../../../pic32mx/lib\libm.a(fp32subadd.o)

.data%z23       0x0000000000000000        0x0
 .data          0x0000000000000000        0x0 c:/program files/microchip/xc32/v4.20/bin/bin/../../lib/gcc/pic32mx/8.3.1/../../../../pic32mx/lib\libm.a(fp32mul.o)

.data%z24       0x0000000000000000        0x0
 .data          0x0000000000000000        0x0 c:/program files/microchip/xc32/v4.20/bin/bin/../../lib/gcc/pic32mx/8.3.1/../../../../pic32mx/lib\libm.a(fp32div.o)

.data%z25       0x0000000000000000        0x0
 .data          0x0000000000000000        0x0 c:/program files/microchip/xc32/v4.20/bin/bin/../../lib/gcc/pic32mx/8.3.1/../../../../pic32mx/lib\libm.a(exsqrt.o)

.data%z26       0x0000000000000000        0x0
 .data          0x0000000000000000        0x0 c:/program files/microchip/xc32/v4.20/bin/bin/../../lib/gcc/pic32mx/8.3.1/../../../../pic32mx/lib\libm.a(exmul.o)

.data%z27       0x0000000000000000        0x0
 .data          0x0000000000000000        0x0 c:/program files/microchip/xc32/v4.20/bin/bin/../../lib/gcc/pic32mx/8.3.1/../../../../pic32mx/lib\libm.a(dptoul.o)

.data%z28       0x0000000000000000        0x0
 .data          0x0000000000000000        0x0 c:/program files/microchip/xc32/v4.20/bin/bin/../../lib/gcc/pic32mx/8.3.1/../../../../pic32mx/lib\libm.a(dptofp.o)

.data%z29       0x0000000000000000        0x0
 .data          0x0000000000000000        0x0 c:/program files/microchip/xc32/v4.20/bin/bin/../../lib/gcc/pic32mx/8.3.1/../../../../pic32mx/lib\libm.a(dpsqrt.o)

.data%z30       0x0000000000000000        0x0
 .data          0x0000000000000000        0x0 c:/program files/microchip/xc32/v4.20/bin/bin/../../lib/gcc/pic32mx/8.3.1/../../../../pic32mx/lib\libm.a(dpcmplt.o)

.data%z31       0x0000000000000000        0x0
 .data          0x0000000000000000        0x0 c:/program files/microchip/xc32/v4.20/bin/bin/../../lib/gcc/pic32mx/8.3.1/../../../../pic32mx/lib\libm.a(dpcmp.o)

.data%z32       0x0000000000000000        0x0
 .data          0x0000000000000000        0x0 c:/program files/microchip/xc32/v4.20/bin/bin/../../lib/gcc/pic32mx/8.3.1/../../../../pic32mx/lib\libm.a(dp32subadd.o)

.data%z33       0x0000000000000000        0x0
 .data          0x0000000000000000        0x0 c:/program files/microchip/xc32/v4.20/bin/bin/../../lib/gcc/pic32mx/8.3.1/../../../../pic32mx/lib\libm.a(dp32mul.o)

.data%z34       0x0000000000000000        0x0
 .data          0x0000000000000000        0x0 c:/program files/microchip/xc32/v4.20/bin/bin/../../lib/gcc/pic32mx/8.3.1/../../../../pic32mx/lib\libm.a(dp32div.o)

.data%z35       0x0000000000000000        0x0
 .data          0x0000000000000000        0x0 c:/program files/microchip/xc32/v4.20/bin/bin/../../lib/gcc/pic32mx/8.3.1/../../../../pic32mx/lib\libm.a(cos32.o)

.data%z36       0x0000000000000000        0x0
 .data          0x0000000000000000        0x0 c:/program files/microchip/xc32/v4.20/bin/bin/../../lib/gcc/pic32mx/8.3.1/../../../../pic32mx/lib\libm.a(ceil32.o)

.data%z37       0x0000000000000000        0x0
 .data          0x0000000000000000        0x0 c:/program files/microchip/xc32/v4.20/bin/bin/../../lib/gcc/pic32mx/8.3.1/../../../../pic32mx/lib\libm.a(floor32.o)

.data%z38       0x0000000000000000        0x0
 .data          0x0000000000000000        0x0 c:/program files/microchip/xc32/v4.20/bin/bin/../../lib/gcc/pic32mx/8.3.1/../../../../pic32mx/lib\libc-musl.a(stpncpy.o)

.data%z39       0x0000000000000000        0x0
 .data          0x0000000000000000        0x0 c:/program files/microchip/xc32/v4.20/bin/bin/../../lib/gcc/pic32mx/8.3.1/../../../../pic32mx/lib\libc-musl.a(strncpy.o)

.data%z40       0x0000000000000000        0x0
 .data          0x0000000000000000        0x0 c:/program files/microchip/xc32/v4.20/bin/bin/../../lib/gcc/pic32mx/8.3.1/../../../../pic32mx/lib\libc-musl.a(strncmp.o)

.data%z41       0x0000000000000000        0x0
 .data          0x0000000000000000        0x0 c:/program files/microchip/xc32/v4.20/bin/bin/../../lib/gcc/pic32mx/8.3.1/../../../../pic32mx/lib\libpic32.a(defaultinterrupt.o)

.data%z42       0x0000000000000000        0x0
 .data          0x0000000000000000        0x0 c:/program files/microchip/xc32/v4.20/bin/bin/../../lib/gcc/pic32mx/8.3.1/../../../../pic32mx/lib\libpic32.a(vector44.o)

.data%z43       0x0000000000000000        0x0
 .data          0x0000000000000000        0x0 c:/program files/microchip/xc32/v4.20/bin/bin/../../lib/gcc/pic32mx/8.3.1/../../../../pic32mx/lib\libpic32.a(vector43.o)

.data%z44       0x0000000000000000        0x0
 .data          0x0000000000000000        0x0 c:/program files/microchip/xc32/v4.20/bin/bin/../../lib/gcc/pic32mx/8.3.1/../../../../pic32mx/lib\libpic32.a(vector42.o)

.data%z45       0x0000000000000000        0x0
 .data          0x0000000000000000        0x0 c:/program files/microchip/xc32/v4.20/bin/bin/../../lib/gcc/pic32mx/8.3.1/../../../../pic32mx/lib\libpic32.a(vector41.o)

.data%z46       0x0000000000000000        0x0
 .data          0x0000000000000000        0x0 c:/program files/microchip/xc32/v4.20/bin/bin/../../lib/gcc/pic32mx/8.3.1/../../../../pic32mx/lib\libpic32.a(vector40.o)

.data%z47       0x0000000000000000        0x0
 .data          0x0000000000000000        0x0 c:/program files/microchip/xc32/v4.20/bin/bin/../../lib/gcc/pic32mx/8.3.1/../../../../pic32mx/lib\libpic32.a(vector35.o)

.data%z48       0x0000000000000000        0x0
 .data          0x0000000000000000        0x0 c:/program files/microchip/xc32/v4.20/bin/bin/../../lib/gcc/pic32mx/8.3.1/../../../../pic32mx/lib\libpic32.a(vector34.o)

.data%z49       0x0000000000000000        0x0
 .data          0x0000000000000000        0x0 c:/program files/microchip/xc32/v4.20/bin/bin/../../lib/gcc/pic32mx/8.3.1/../../../../pic32mx/lib\libpic32.a(vector30.o)

.data%z50       0x0000000000000000        0x0
 .data          0x0000000000000000        0x0 c:/program files/microchip/xc32/v4.20/bin/bin/../../lib/gcc/pic32mx/8.3.1/../../../../pic32mx/lib\libpic32.a(vector29.o)

.data%z51       0x0000000000000000        0x0
 .data          0x0000000000000000        0x0 c:/program files/microchip/xc32/v4.20/bin/bin/../../lib/gcc/pic32mx/8.3.1/../../../../pic32mx/lib\libpic32.a(vector28.o)

.data%z52       0x0000000000000000        0x0
 .data          0x0000000000000000        0x0 c:/program files/microchip/xc32/v4.20/bin/bin/../../lib/gcc/pic32mx/8.3.1/../../../../pic32mx/lib\libpic32.a(vector27.o)

.data%z53       0x0000000000000000        0x0
 .data          0x0000000000000000        0x0 c:/program files/microchip/xc32/v4.20/bin/bin/../../lib/gcc/pic32mx/8.3.1/../../../../pic32mx/lib\libpic32.a(vector23.o)

.data%z54       0x0000000000000000        0x0
 .data          0x0000000000000000        0x0 c:/program files/microchip/xc32/v4.20/bin/bin/../../lib/gcc/pic32mx/8.3.1/../../../../pic32mx/lib\libpic32.a(vector22.o)

.data%z55       0x0000000000000000        0x0
 .data          0x0000000000000000        0x0 c:/program files/microchip/xc32/v4.20/bin/bin/../../lib/gcc/pic32mx/8.3.1/../../../../pic32mx/lib\libpic32.a(vector21.o)

.data%z56       0x0000000000000000        0x0
 .data          0x0000000000000000        0x0 c:/program files/microchip/xc32/v4.20/bin/bin/../../lib/gcc/pic32mx/8.3.1/../../../../pic32mx/lib\libpic32.a(vector18.o)

.data%z57       0x0000000000000000        0x0
 .data          0x0000000000000000        0x0 c:/program files/microchip/xc32/v4.20/bin/bin/../../lib/gcc/pic32mx/8.3.1/../../../../pic32mx/lib\libpic32.a(vector17.o)

.data%z58       0x0000000000000000        0x0
 .data          0x0000000000000000        0x0 c:/program files/microchip/xc32/v4.20/bin/bin/../../lib/gcc/pic32mx/8.3.1/../../../../pic32mx/lib\libpic32.a(vector14.o)

.data%z59       0x0000000000000000        0x0
 .data          0x0000000000000000        0x0 c:/program files/microchip/xc32/v4.20/bin/bin/../../lib/gcc/pic32mx/8.3.1/../../../../pic32mx/lib\libpic32.a(vector13.o)

.data%z60       0x0000000000000000        0x0
 .data          0x0000000000000000        0x0 c:/program files/microchip/xc32/v4.20/bin/bin/../../lib/gcc/pic32mx/8.3.1/../../../../pic32mx/lib\libpic32.a(vector11.o)

.data%z61       0x0000000000000000        0x0
 .data          0x0000000000000000        0x0 c:/program files/microchip/xc32/v4.20/bin/bin/../../lib/gcc/pic32mx/8.3.1/../../../../pic32mx/lib\libpic32.a(vector10.o)

.data%z62       0x0000000000000000        0x0
 .data          0x0000000000000000        0x0 c:/program files/microchip/xc32/v4.20/bin/bin/../../lib/gcc/pic32mx/8.3.1/../../../../pic32mx/lib\libpic32.a(vector9.o)

.data%z63       0x0000000000000000        0x0
 .data          0x0000000000000000        0x0 c:/program files/microchip/xc32/v4.20/bin/bin/../../lib/gcc/pic32mx/8.3.1/../../../../pic32mx/lib\libpic32.a(vector7.o)

.data%z64       0x0000000000000000        0x0
 .data          0x0000000000000000        0x0 c:/program files/microchip/xc32/v4.20/bin/bin/../../lib/gcc/pic32mx/8.3.1/../../../../pic32mx/lib\libpic32.a(vector6.o)

.data%z65       0x0000000000000000        0x0
 .data          0x0000000000000000        0x0 c:/program files/microchip/xc32/v4.20/bin/bin/../../lib/gcc/pic32mx/8.3.1/../../../../pic32mx/lib\libpic32.a(vector5.o)

.data%z66       0x0000000000000000        0x0
 .data          0x0000000000000000        0x0 c:/program files/microchip/xc32/v4.20/bin/bin/../../lib/gcc/pic32mx/8.3.1/../../../../pic32mx/lib\libpic32.a(vector3.o)

.data%z67       0x0000000000000000        0x0
 .data          0x0000000000000000        0x0 c:/program files/microchip/xc32/v4.20/bin/bin/../../lib/gcc/pic32mx/8.3.1/../../../../pic32mx/lib\libpic32.a(vector2.o)

.data%z68       0x0000000000000000        0x0
 .data          0x0000000000000000        0x0 c:/program files/microchip/xc32/v4.20/bin/bin/../../lib/gcc/pic32mx/8.3.1/../../../../pic32mx/lib\libpic32.a(vector1.o)

.data%z69       0x0000000000000000        0x0
 .data          0x0000000000000000        0x0 c:/program files/microchip/xc32/v4.20/bin/bin/../../lib/gcc/pic32mx/8.3.1/../../../../pic32mx/lib\libpic32.a(general-exception.o)

.data%z70       0x0000000000000000        0x0
 .data          0x0000000000000000        0x0 c:/program files/microchip/xc32/v4.20/bin/bin/../../lib/gcc/pic32mx/8.3.1/../../../../pic32mx/lib\libpic32.a(pic32_data_init_0_1.o)

.data%z71       0x0000000000000000        0x0
 .data          0x0000000000000000        0x0 c:/program files/microchip/xc32/v4.20/bin/bin/../../lib/gcc/pic32mx/8.3.1/../../../../pic32mx/lib\libpic32.a(pic32_data_init_wrapper.o)

.data%z72       0x0000000000000000        0x0
 .data          0x0000000000000000        0x0 c:/program files/microchip/xc32/v4.20/bin/bin/../../lib/gcc/pic32mx/8.3.1/../../../../pic32mx/lib\libpic32.a(default-nmi-handler.o)

.data%z73       0x0000000000000000        0x0
 .data          0x0000000000000000        0x0 c:/program files/microchip/xc32/v4.20/bin/bin/../../lib/gcc/pic32mx/8.3.1/../../../../pic32mx/lib\libpic32.a(default-on-bootstrap.o)

.data%z74       0x0000000000000000        0x0
 .data          0x0000000000000000        0x0 c:/program files/microchip/xc32/v4.20/bin/bin/../../lib/gcc/pic32mx/8.3.1/../../../../pic32mx/lib\libpic32.a(default-on-reset.o)

.data%z75       0x0000000000000000        0x0
 .data          0x0000000000000000        0x0 c:/program files/microchip/xc32/v4.20/bin/bin/../../lib/gcc/pic32mx/8.3.1/../../../../pic32mx/lib\libpic32.a(default-bootstrap-exception-handler.o)

.data%z76       0x0000000000000000        0x0
 .data          0x0000000000000000        0x0 c:/program files/microchip/xc32/v4.20/bin/bin/../../lib/gcc/pic32mx/8.3.1/../../../../pic32mx/lib\libpic32.a(strlen.o)

.data%z77       0x0000000000000000        0x0
 .data          0x0000000000000000        0x0 c:/program files/microchip/xc32/v4.20/bin/bin/../../lib/gcc/pic32mx/8.3.1/../../../../pic32mx/lib\libpic32.a(strcmp.o)

.data%z78       0x0000000000000000        0x0
 .data          0x0000000000000000        0x0 c:/program files/microchip/xc32/v4.20/bin/bin/../../lib/gcc/pic32mx/8.3.1/../../../../pic32mx/lib\libpic32.a(memset.o)

.data%z79       0x0000000000000000        0x0
 .data          0x0000000000000000        0x0 c:/program files/microchip/xc32/v4.20/bin/bin/../../lib/gcc/pic32mx/8.3.1/../../../../pic32mx/lib\libpic32.a(memcpy.o)

.data%z80       0x0000000000000000        0x0
 .data          0x0000000000000000        0x0 c:/program files/microchip/xc32/v4.20/bin/bin/../../lib/gcc/pic32mx/8.3.1/../../../../pic32mx/lib\libpic32.a(memcmp.o)

.data%z81       0x0000000000000000        0x0
 .data          0x0000000000000000        0x0 c:/program files/microchip/xc32/v4.20/bin/bin/../../lib/gcc/pic32mx/8.3.1\libgcc.a(floatunsidf.o)

.data%z82       0x0000000000000000        0x0
 .data          0x0000000000000000        0x0 c:/program files/microchip/xc32/v4.20/bin/bin/../../lib/gcc/pic32mx/8.3.1\libgcc.a(floatunsisf.o)

.data%z83       0x0000000000000000        0x0
 .data          0x0000000000000000        0x0 c:/program files/microchip/xc32/v4.20/bin/bin/../../lib/gcc/pic32mx/8.3.1\libgcc.a(_floatundidf.o)

.data%z84       0x0000000000000000        0x0
 .data          0x0000000000000000        0x0 c:/program files/microchip/xc32/v4.20/bin/bin/../../lib/gcc/pic32mx/8.3.1\libgcc.a(_fixunssfdi.o)

.data%z85       0x0000000000000000        0x0
 .data          0x0000000000000000        0x0 c:/program files/microchip/xc32/v4.20/bin/bin/../../lib/gcc/pic32mx/8.3.1/../../../../pic32mx/lib\pic32_software_reset.o

.data%z86       0x0000000000000000        0x0
 .data          0x0000000000000000        0x0 c:/program files/microchip/xc32/v4.20/bin/bin/../../lib/gcc/pic32mx/8.3.1/../../../../pic32mx/lib/./proc/32MX440F256H\default_isr_vectors.o

.data%z87       0x0000000000000000        0x0
 .data          0x0000000000000000        0x0 C:\Users\kyrk\AppData\Local\Temp\ccMtDgJu.o

.data%z88       0x0000000000000000        0x0
 .data          0x0000000000000000        0x0 C:\Users\kyrk\AppData\Local\Temp\ccgwFKT5.o

.data%z89       0x0000000000000000        0x0
 .data          0x0000000000000000        0x0 C:\Users\kyrk\AppData\Local\Temp\ccC6iq7L.o

.data%z90       0x0000000000000000        0x0
 .data          0x0000000000000000        0x0 c:/program files/microchip/xc32/v4.20/bin/bin/../../lib/gcc/pic32mx/8.3.1/../../../../pic32mx/lib/./proc/32MX440F256H\processor.o

.data%z91       0x0000000000000000        0x0
 .data          0x0000000000000000        0x0 output\noinitram.o

.data%z92       0x0000000000000000        0x0
 .data          0x0000000000000000        0x0 output\BerkeleyAPI.o

.data%z93       0x0000000000000000        0x0
 .data          0x0000000000000000        0x0 output\TCP.o

.data%z94       0x0000000000000000        0x0
 .data          0x0000000000000000        0x0 output\Reboot.o

.data%z95       0x0000000000000000        0x0
 .data          0x0000000000000000        0x0 output\grbl_multi.o

.data%z96       0x0000000000000000        0x0
 .data          0x0000000000000000        0x0 output\ethernet_grbl_multi.o

.data%z97       0x0000000000000000        0x0
 .data          0x0000000000000000        0x0 output\usb_grbl_multi.o

.data%z98       0x0000000000000000        0x0
 .data          0x0000000000000000        0x0 output\UDP.o

.data%z99       0x0000000000000000        0x0
 .data          0x0000000000000000        0x0 output\StackTsk.o

.data%z100      0x0000000000000000        0x0
 .data          0x0000000000000000        0x0 output\IP.o

.data%z101      0x0000000000000000        0x0
 .data          0x0000000000000000        0x0 output\ICMP.o

.data%z102      0x0000000000000000        0x0
 .data          0x0000000000000000        0x0 output\Helpers.o

.data%z103      0x0000000000000000        0x0
 .data          0x0000000000000000        0x0 output\Announce.o

.data%z104      0x0000000000000000        0x0
 .data          0x0000000000000000        0x0 output\ARP.o

.data%z105      0x0000000000000000        0x0
 .data          0x0000000000000000        0x0 output\DHCP.o

.data%z106      0x0000000000000000        0x0
 .data          0x0000000000000000        0x0 output\ENC28J60.o

.data%z107      0x0000000000000000        0x0
 .data          0x0000000000000000        0x0 output\ethernet.o

.data%z108      0x0000000000000000        0x0
 .data          0x0000000000000000        0x0 output\grbl_probe.o

.data%z109      0x0000000000000000        0x0
 .data          0x0000000000000000        0x0 output\grbl_bootloader.o

.data%z110      0x0000000000000000        0x0
 .data          0x0000000000000000        0x0 output\grbl_running.o

.data%z111      0x0000000000000000        0x0
 .data          0x0000000000000000        0x0 output\grbl_protocol.o

.data%z112      0x0000000000000000        0x0
 .data          0x0000000000000000        0x0 output\stackmeasure_helper.o

.data%z113      0x0000000000000000        0x0
 .data          0x0000000000000000        0x0 output\stackmeasure.o

.data%z114      0x0000000000000000        0x0
 .data          0x0000000000000000        0x0 output\grbl_toolchange.o

.data%z115      0x0000000000000000        0x0
 .data          0x0000000000000000        0x0 output\bootloader_interface.o

.data%z116      0x0000000000000000        0x0
 .data          0x0000000000000000        0x0 output\grbl_eeprom.o

.data%z117      0x0000000000000000        0x0
 .data          0x0000000000000000        0x0 output\system_alarm.o

.data%z118      0x0000000000000000        0x0
 .data          0x0000000000000000        0x0 output\system_exec.o

.data%z119      0x0000000000000000        0x0
 .data          0x0000000000000000        0x0 output\stepper_enable.o

.data%z120      0x0000000000000000        0x0
 .data          0x0000000000000000        0x0 output\system_control.o

.data%z121      0x0000000000000000        0x0
 .data          0x0000000000000000        0x0 output\eep_manager_crc.o

.data%z122      0x0000000000000000        0x0
 .data          0x0000000000000000        0x0 output\dee_page_helper.o

.data%z123      0x0000000000000000        0x0
 .data          0x0000000000000000        0x0 output\dee_page.o

.data%z124      0x0000000000000000        0x0
 .data          0x0000000000000000        0x0 output\dee.o

.data%z125      0x0000000000000000        0x0
 .data          0x0000000000000000        0x0 output\usb_function_cdc.o

.data%z126      0x0000000000000000        0x0
 .data          0x0000000000000000        0x0 output\jog.o

.data%z127      0x0000000000000000        0x0
 .data          0x0000000000000000        0x0 output\pwm.o

.data%z128      0x0000000000000000        0x0
 .data          0x0000000000000000        0x0 output\grbl.o

.data%z129      0x0000000000000000        0x0
 .data          0x0000000000000000        0x0 output\system.o

.data%z130      0x0000000000000000        0x0
 .data          0x0000000000000000        0x0 output\stepper.o

.data%z131      0x0000000000000000        0x0
 .data          0x0000000000000000        0x0 output\spindle_control.o

.data%z132      0x0000000000000000        0x0
 .data          0x0000000000000000        0x0 output\settings.o

.data%z133      0x0000000000000000        0x0
 .data          0x0000000000000000        0x0 output\report.o

.data%z134      0x0000000000000000        0x0
 .data          0x0000000000000000        0x0 output\print.o

.data%z135      0x0000000000000000        0x0
 .data          0x0000000000000000        0x0 output\planner.o

.data%z136      0x0000000000000000        0x0
 .data          0x0000000000000000        0x0 output\nuts_bolts.o

.data%z137      0x0000000000000000        0x0
 .data          0x0000000000000000        0x0 output\motion_control.o

.data%z138      0x0000000000000000        0x0
 .data          0x0000000000000000        0x0 output\coolant_control.o

.data%z139      0x0000000000000000        0x0
 .data          0x0000000000000000        0x0 output\grbl_limits.o

.data%z140      0x0000000000000000        0x0
 .data          0x0000000000000000        0x0 output\grbl_gcode.o

.data%z141      0x0000000000000000        0x0
 .data          0x0000000000000000        0x0 output\ad.o

.data%z142      0x0000000000000000        0x0
 .data          0x0000000000000000        0x0 output\app.o

.data%z143      0x0000000000000000        0x0
 .data          0x0000000000000000        0x0 output\isr.o

.data%z144      0x0000000000000000        0x0
 .data          0x0000000000000000        0x0 output\exceptions.o

.data%z145      0x0000000000000000        0x0
 .data          0x0000000000000000        0x0 output\usb_device.o

.data%z146      0x0000000000000000        0x0
 .data          0x0000000000000000        0x0 output\usb_descriptors.o

.data%z147      0x0000000000000000        0x0
 .data          0x0000000000000000        0x0 output\usb.o

.data%z148      0x0000000000000000        0x0
 .data          0x0000000000000000        0x0 output\eep_manager.o

.data%z149      0x0000000000000000        0x0
 .data          0x0000000000000000        0x0 output\eeprom.o

.data%z150      0x0000000000000000        0x0
 .data          0x0000000000000000        0x0 output\sleep.o

.data%z151      0x0000000000000000        0x0
 .data          0x0000000000000000        0x0 output\task.o

.data%z152      0x0000000000000000        0x0
 .data          0x0000000000000000        0x0 output\ringBuffer.o

.data%z153      0x0000000000000000        0x0
 .data          0x0000000000000000        0x0 output\mal.o

.data%z154      0x0000000000000000        0x0
 .data          0x0000000000000000        0x0 output\tmr.o

.data%z155      0x0000000000000000        0x0
 .data          0x0000000000000000        0x0 c:/program files/microchip/xc32/v4.20/bin/bin/../../lib/gcc/pic32mx/8.3.1/../../../../pic32mx/lib\debug-exception-return.o

.bss            0x00000000a0004338      0x1f0
 .bss           0x00000000a0004338      0x164 output\TCP.o
 .bss           0x00000000a000449c       0x8c output\BerkeleyAPI.o

.bss            0x00000000a0004528       0x54
 .bss           0x00000000a0004528       0x2c output\DHCP.o
 .bss           0x00000000a0004554       0x28 output\tmr.o

.bss            0x00000000a000457c       0x36
 .bss           0x00000000a000457c       0x20 output\report.o
                0x00000000a000457c                buffer_missed_char_logger
 .bss           0x00000000a000459c       0x16 output\ARP.o

.bss            0x00000000a00045b4        0xc
 .bss           0x00000000a00045b4        0xc output\dee.o
                0x00000000a00045b4                GetIndexOfEmptyDataElement_LastFoundHere

.bss.errno      0x00000000a00045c0        0x4
 .bss.errno     0x00000000a00045c0        0x4 c:/program files/microchip/xc32/v4.20/bin/bin/../../lib/gcc/pic32mx/8.3.1/../../../../pic32mx/lib\libpic32.a(errno.o)
                0x00000000a00045c0                errno

.bss%z156       0x0000000000000000        0x0
 .bss           0x0000000000000000        0x0 c:/program files/microchip/xc32/v4.20/bin/bin/../../lib/gcc/pic32mx/8.3.1/../../../../pic32mx/lib\libe.a(_unorddf2.o)

.bss%z157       0x0000000000000000        0x0
 .bss           0x0000000000000000        0x0 c:/program files/microchip/xc32/v4.20/bin/bin/../../lib/gcc/pic32mx/8.3.1/../../../../pic32mx/lib\libpic32.a(isinf.o)

.bss%z158       0x0000000000000000        0x0
 .bss           0x0000000000000000        0x0 c:/program files/microchip/xc32/v4.20/bin/bin/../../lib/gcc/pic32mx/8.3.1/../../../../pic32mx/lib\libpic32.a(errno.o)

.bss%z159       0x0000000000000000        0x0
 .bss           0x0000000000000000        0x0 c:/program files/microchip/xc32/v4.20/bin/bin/../../lib/gcc/pic32mx/8.3.1/../../../../pic32mx/lib\libm.a(s_lib_ver.o)

.bss%z160       0x0000000000000000        0x0
 .bss           0x0000000000000000        0x0 c:/program files/microchip/xc32/v4.20/bin/bin/../../lib/gcc/pic32mx/8.3.1/../../../../pic32mx/lib\libm.a(dptoli.o)

.bss%z161       0x0000000000000000        0x0
 .bss           0x0000000000000000        0x0 c:/program files/microchip/xc32/v4.20/bin/bin/../../lib/gcc/pic32mx/8.3.1/../../../../pic32mx/lib\libm.a(dpldexp.o)

.bss%z162       0x0000000000000000        0x0
 .bss           0x0000000000000000        0x0 c:/program files/microchip/xc32/v4.20/bin/bin/../../lib/gcc/pic32mx/8.3.1/../../../../pic32mx/lib\libm.a(w_ldexp.o)

.bss%z163       0x0000000000000000        0x0
 .bss           0x0000000000000000        0x0 c:/program files/microchip/xc32/v4.20/bin/bin/../../lib/gcc/pic32mx/8.3.1/../../../../pic32mx/lib\libm.a(support.o)

.bss%z164       0x0000000000000000        0x0
 .bss           0x0000000000000000        0x0 c:/program files/microchip/xc32/v4.20/bin/bin/../../lib/gcc/pic32mx/8.3.1/../../../../pic32mx/lib\libm.a(w_sqrt.o)

.bss%z165       0x0000000000000000        0x0
 .bss           0x0000000000000000        0x0 c:/program files/microchip/xc32/v4.20/bin/bin/../../lib/gcc/pic32mx/8.3.1/../../../../pic32mx/lib\libm.a(atan2.o)

.bss%z166       0x0000000000000000        0x0
 .bss           0x0000000000000000        0x0 c:/program files/microchip/xc32/v4.20/bin/bin/../../lib/gcc/pic32mx/8.3.1/../../../../pic32mx/lib\libm.a(sitofp.o)

.bss%z167       0x0000000000000000        0x0
 .bss           0x0000000000000000        0x0 c:/program files/microchip/xc32/v4.20/bin/bin/../../lib/gcc/pic32mx/8.3.1/../../../../pic32mx/lib\libm.a(sincos32.o)

.bss%z168       0x0000000000000000        0x0
 .bss           0x0000000000000000        0x0 c:/program files/microchip/xc32/v4.20/bin/bin/../../lib/gcc/pic32mx/8.3.1/../../../../pic32mx/lib\libm.a(sin32.o)

.bss%z169       0x0000000000000000        0x0
 .bss           0x0000000000000000        0x0 c:/program files/microchip/xc32/v4.20/bin/bin/../../lib/gcc/pic32mx/8.3.1/../../../../pic32mx/lib\libm.a(sigmax.o)

.bss%z170       0x0000000000000000        0x0
 .bss           0x0000000000000000        0x0 c:/program files/microchip/xc32/v4.20/bin/bin/../../lib/gcc/pic32mx/8.3.1/../../../../pic32mx/lib\libm.a(reduct32.o)

.bss%z171       0x0000000000000000        0x0
 .bss           0x0000000000000000        0x0 c:/program files/microchip/xc32/v4.20/bin/bin/../../lib/gcc/pic32mx/8.3.1/../../../../pic32mx/lib\libm.a(litodp.o)

.bss%z172       0x0000000000000000        0x0
 .bss           0x0000000000000000        0x0 c:/program files/microchip/xc32/v4.20/bin/bin/../../lib/gcc/pic32mx/8.3.1/../../../../pic32mx/lib\libm.a(fptoul.o)

.bss%z173       0x0000000000000000        0x0
 .bss           0x0000000000000000        0x0 c:/program files/microchip/xc32/v4.20/bin/bin/../../lib/gcc/pic32mx/8.3.1/../../../../pic32mx/lib\libm.a(fptoli.o)

.bss%z174       0x0000000000000000        0x0
 .bss           0x0000000000000000        0x0 c:/program files/microchip/xc32/v4.20/bin/bin/../../lib/gcc/pic32mx/8.3.1/../../../../pic32mx/lib\libm.a(fptodp.o)

.bss%z175       0x0000000000000000        0x0
 .bss           0x0000000000000000        0x0 c:/program files/microchip/xc32/v4.20/bin/bin/../../lib/gcc/pic32mx/8.3.1/../../../../pic32mx/lib\libm.a(fpexsqrt32.o)

.bss%z176       0x0000000000000000        0x0
 .bss           0x0000000000000000        0x0 c:/program files/microchip/xc32/v4.20/bin/bin/../../lib/gcc/pic32mx/8.3.1/../../../../pic32mx/lib\libm.a(fpcmplt.o)

.bss%z177       0x0000000000000000        0x0
 .bss           0x0000000000000000        0x0 c:/program files/microchip/xc32/v4.20/bin/bin/../../lib/gcc/pic32mx/8.3.1/../../../../pic32mx/lib\libm.a(fpcmp.o)

.bss%z178       0x0000000000000000        0x0
 .bss           0x0000000000000000        0x0 c:/program files/microchip/xc32/v4.20/bin/bin/../../lib/gcc/pic32mx/8.3.1/../../../../pic32mx/lib\libm.a(fp32subadd.o)

.bss%z179       0x0000000000000000        0x0
 .bss           0x0000000000000000        0x0 c:/program files/microchip/xc32/v4.20/bin/bin/../../lib/gcc/pic32mx/8.3.1/../../../../pic32mx/lib\libm.a(fp32mul.o)

.bss%z180       0x0000000000000000        0x0
 .bss           0x0000000000000000        0x0 c:/program files/microchip/xc32/v4.20/bin/bin/../../lib/gcc/pic32mx/8.3.1/../../../../pic32mx/lib\libm.a(fp32div.o)

.bss%z181       0x0000000000000000        0x0
 .bss           0x0000000000000000        0x0 c:/program files/microchip/xc32/v4.20/bin/bin/../../lib/gcc/pic32mx/8.3.1/../../../../pic32mx/lib\libm.a(exsqrt.o)

.bss%z182       0x0000000000000000        0x0
 .bss           0x0000000000000000        0x0 c:/program files/microchip/xc32/v4.20/bin/bin/../../lib/gcc/pic32mx/8.3.1/../../../../pic32mx/lib\libm.a(exmul.o)

.bss%z183       0x0000000000000000        0x0
 .bss           0x0000000000000000        0x0 c:/program files/microchip/xc32/v4.20/bin/bin/../../lib/gcc/pic32mx/8.3.1/../../../../pic32mx/lib\libm.a(dptoul.o)

.bss%z184       0x0000000000000000        0x0
 .bss           0x0000000000000000        0x0 c:/program files/microchip/xc32/v4.20/bin/bin/../../lib/gcc/pic32mx/8.3.1/../../../../pic32mx/lib\libm.a(dptofp.o)

.bss%z185       0x0000000000000000        0x0
 .bss           0x0000000000000000        0x0 c:/program files/microchip/xc32/v4.20/bin/bin/../../lib/gcc/pic32mx/8.3.1/../../../../pic32mx/lib\libm.a(dpsqrt.o)

.bss%z186       0x0000000000000000        0x0
 .bss           0x0000000000000000        0x0 c:/program files/microchip/xc32/v4.20/bin/bin/../../lib/gcc/pic32mx/8.3.1/../../../../pic32mx/lib\libm.a(dpcmplt.o)

.bss%z187       0x0000000000000000        0x0
 .bss           0x0000000000000000        0x0 c:/program files/microchip/xc32/v4.20/bin/bin/../../lib/gcc/pic32mx/8.3.1/../../../../pic32mx/lib\libm.a(dpcmp.o)

.bss%z188       0x0000000000000000        0x0
 .bss           0x0000000000000000        0x0 c:/program files/microchip/xc32/v4.20/bin/bin/../../lib/gcc/pic32mx/8.3.1/../../../../pic32mx/lib\libm.a(dp32subadd.o)

.bss%z189       0x0000000000000000        0x0
 .bss           0x0000000000000000        0x0 c:/program files/microchip/xc32/v4.20/bin/bin/../../lib/gcc/pic32mx/8.3.1/../../../../pic32mx/lib\libm.a(dp32mul.o)

.bss%z190       0x0000000000000000        0x0
 .bss           0x0000000000000000        0x0 c:/program files/microchip/xc32/v4.20/bin/bin/../../lib/gcc/pic32mx/8.3.1/../../../../pic32mx/lib\libm.a(dp32div.o)

.bss%z191       0x0000000000000000        0x0
 .bss           0x0000000000000000        0x0 c:/program files/microchip/xc32/v4.20/bin/bin/../../lib/gcc/pic32mx/8.3.1/../../../../pic32mx/lib\libm.a(cos32.o)

.bss%z192       0x0000000000000000        0x0
 .bss           0x0000000000000000        0x0 c:/program files/microchip/xc32/v4.20/bin/bin/../../lib/gcc/pic32mx/8.3.1/../../../../pic32mx/lib\libm.a(ceil32.o)

.bss%z193       0x0000000000000000        0x0
 .bss           0x0000000000000000        0x0 c:/program files/microchip/xc32/v4.20/bin/bin/../../lib/gcc/pic32mx/8.3.1/../../../../pic32mx/lib\libm.a(floor32.o)

.bss%z194       0x0000000000000000        0x0
 .bss           0x0000000000000000        0x0 c:/program files/microchip/xc32/v4.20/bin/bin/../../lib/gcc/pic32mx/8.3.1/../../../../pic32mx/lib\libc-musl.a(stpncpy.o)

.bss%z195       0x0000000000000000        0x0
 .bss           0x0000000000000000        0x0 c:/program files/microchip/xc32/v4.20/bin/bin/../../lib/gcc/pic32mx/8.3.1/../../../../pic32mx/lib\libc-musl.a(strncpy.o)

.bss%z196       0x0000000000000000        0x0
 .bss           0x0000000000000000        0x0 c:/program files/microchip/xc32/v4.20/bin/bin/../../lib/gcc/pic32mx/8.3.1/../../../../pic32mx/lib\libc-musl.a(strncmp.o)

.bss%z197       0x0000000000000000        0x0
 .bss           0x0000000000000000        0x0 c:/program files/microchip/xc32/v4.20/bin/bin/../../lib/gcc/pic32mx/8.3.1/../../../../pic32mx/lib\libpic32.a(defaultinterrupt.o)

.bss%z198       0x0000000000000000        0x0
 .bss           0x0000000000000000        0x0 c:/program files/microchip/xc32/v4.20/bin/bin/../../lib/gcc/pic32mx/8.3.1/../../../../pic32mx/lib\libpic32.a(vector44.o)

.bss%z199       0x0000000000000000        0x0
 .bss           0x0000000000000000        0x0 c:/program files/microchip/xc32/v4.20/bin/bin/../../lib/gcc/pic32mx/8.3.1/../../../../pic32mx/lib\libpic32.a(vector43.o)

.bss%z200       0x0000000000000000        0x0
 .bss           0x0000000000000000        0x0 c:/program files/microchip/xc32/v4.20/bin/bin/../../lib/gcc/pic32mx/8.3.1/../../../../pic32mx/lib\libpic32.a(vector42.o)

.bss%z201       0x0000000000000000        0x0
 .bss           0x0000000000000000        0x0 c:/program files/microchip/xc32/v4.20/bin/bin/../../lib/gcc/pic32mx/8.3.1/../../../../pic32mx/lib\libpic32.a(vector41.o)

.bss%z202       0x0000000000000000        0x0
 .bss           0x0000000000000000        0x0 c:/program files/microchip/xc32/v4.20/bin/bin/../../lib/gcc/pic32mx/8.3.1/../../../../pic32mx/lib\libpic32.a(vector40.o)

.bss%z203       0x0000000000000000        0x0
 .bss           0x0000000000000000        0x0 c:/program files/microchip/xc32/v4.20/bin/bin/../../lib/gcc/pic32mx/8.3.1/../../../../pic32mx/lib\libpic32.a(vector35.o)

.bss%z204       0x0000000000000000        0x0
 .bss           0x0000000000000000        0x0 c:/program files/microchip/xc32/v4.20/bin/bin/../../lib/gcc/pic32mx/8.3.1/../../../../pic32mx/lib\libpic32.a(vector34.o)

.bss%z205       0x0000000000000000        0x0
 .bss           0x0000000000000000        0x0 c:/program files/microchip/xc32/v4.20/bin/bin/../../lib/gcc/pic32mx/8.3.1/../../../../pic32mx/lib\libpic32.a(vector30.o)

.bss%z206       0x0000000000000000        0x0
 .bss           0x0000000000000000        0x0 c:/program files/microchip/xc32/v4.20/bin/bin/../../lib/gcc/pic32mx/8.3.1/../../../../pic32mx/lib\libpic32.a(vector29.o)

.bss%z207       0x0000000000000000        0x0
 .bss           0x0000000000000000        0x0 c:/program files/microchip/xc32/v4.20/bin/bin/../../lib/gcc/pic32mx/8.3.1/../../../../pic32mx/lib\libpic32.a(vector28.o)

.bss%z208       0x0000000000000000        0x0
 .bss           0x0000000000000000        0x0 c:/program files/microchip/xc32/v4.20/bin/bin/../../lib/gcc/pic32mx/8.3.1/../../../../pic32mx/lib\libpic32.a(vector27.o)

.bss%z209       0x0000000000000000        0x0
 .bss           0x0000000000000000        0x0 c:/program files/microchip/xc32/v4.20/bin/bin/../../lib/gcc/pic32mx/8.3.1/../../../../pic32mx/lib\libpic32.a(vector23.o)

.bss%z210       0x0000000000000000        0x0
 .bss           0x0000000000000000        0x0 c:/program files/microchip/xc32/v4.20/bin/bin/../../lib/gcc/pic32mx/8.3.1/../../../../pic32mx/lib\libpic32.a(vector22.o)

.bss%z211       0x0000000000000000        0x0
 .bss           0x0000000000000000        0x0 c:/program files/microchip/xc32/v4.20/bin/bin/../../lib/gcc/pic32mx/8.3.1/../../../../pic32mx/lib\libpic32.a(vector21.o)

.bss%z212       0x0000000000000000        0x0
 .bss           0x0000000000000000        0x0 c:/program files/microchip/xc32/v4.20/bin/bin/../../lib/gcc/pic32mx/8.3.1/../../../../pic32mx/lib\libpic32.a(vector18.o)

.bss%z213       0x0000000000000000        0x0
 .bss           0x0000000000000000        0x0 c:/program files/microchip/xc32/v4.20/bin/bin/../../lib/gcc/pic32mx/8.3.1/../../../../pic32mx/lib\libpic32.a(vector17.o)

.bss%z214       0x0000000000000000        0x0
 .bss           0x0000000000000000        0x0 c:/program files/microchip/xc32/v4.20/bin/bin/../../lib/gcc/pic32mx/8.3.1/../../../../pic32mx/lib\libpic32.a(vector14.o)

.bss%z215       0x0000000000000000        0x0
 .bss           0x0000000000000000        0x0 c:/program files/microchip/xc32/v4.20/bin/bin/../../lib/gcc/pic32mx/8.3.1/../../../../pic32mx/lib\libpic32.a(vector13.o)

.bss%z216       0x0000000000000000        0x0
 .bss           0x0000000000000000        0x0 c:/program files/microchip/xc32/v4.20/bin/bin/../../lib/gcc/pic32mx/8.3.1/../../../../pic32mx/lib\libpic32.a(vector11.o)

.bss%z217       0x0000000000000000        0x0
 .bss           0x0000000000000000        0x0 c:/program files/microchip/xc32/v4.20/bin/bin/../../lib/gcc/pic32mx/8.3.1/../../../../pic32mx/lib\libpic32.a(vector10.o)

.bss%z218       0x0000000000000000        0x0
 .bss           0x0000000000000000        0x0 c:/program files/microchip/xc32/v4.20/bin/bin/../../lib/gcc/pic32mx/8.3.1/../../../../pic32mx/lib\libpic32.a(vector9.o)

.bss%z219       0x0000000000000000        0x0
 .bss           0x0000000000000000        0x0 c:/program files/microchip/xc32/v4.20/bin/bin/../../lib/gcc/pic32mx/8.3.1/../../../../pic32mx/lib\libpic32.a(vector7.o)

.bss%z220       0x0000000000000000        0x0
 .bss           0x0000000000000000        0x0 c:/program files/microchip/xc32/v4.20/bin/bin/../../lib/gcc/pic32mx/8.3.1/../../../../pic32mx/lib\libpic32.a(vector6.o)

.bss%z221       0x0000000000000000        0x0
 .bss           0x0000000000000000        0x0 c:/program files/microchip/xc32/v4.20/bin/bin/../../lib/gcc/pic32mx/8.3.1/../../../../pic32mx/lib\libpic32.a(vector5.o)

.bss%z222       0x0000000000000000        0x0
 .bss           0x0000000000000000        0x0 c:/program files/microchip/xc32/v4.20/bin/bin/../../lib/gcc/pic32mx/8.3.1/../../../../pic32mx/lib\libpic32.a(vector3.o)

.bss%z223       0x0000000000000000        0x0
 .bss           0x0000000000000000        0x0 c:/program files/microchip/xc32/v4.20/bin/bin/../../lib/gcc/pic32mx/8.3.1/../../../../pic32mx/lib\libpic32.a(vector2.o)

.bss%z224       0x0000000000000000        0x0
 .bss           0x0000000000000000        0x0 c:/program files/microchip/xc32/v4.20/bin/bin/../../lib/gcc/pic32mx/8.3.1/../../../../pic32mx/lib\libpic32.a(vector1.o)

.bss%z225       0x0000000000000000        0x0
 .bss           0x0000000000000000        0x0 c:/program files/microchip/xc32/v4.20/bin/bin/../../lib/gcc/pic32mx/8.3.1/../../../../pic32mx/lib\libpic32.a(general-exception.o)

.bss%z226       0x0000000000000000        0x0
 .bss           0x0000000000000000        0x0 c:/program files/microchip/xc32/v4.20/bin/bin/../../lib/gcc/pic32mx/8.3.1/../../../../pic32mx/lib\libpic32.a(pic32_data_init_0_1.o)

.bss%z227       0x0000000000000000        0x0
 .bss           0x0000000000000000        0x0 c:/program files/microchip/xc32/v4.20/bin/bin/../../lib/gcc/pic32mx/8.3.1/../../../../pic32mx/lib\libpic32.a(pic32_data_init_wrapper.o)

.bss%z228       0x0000000000000000        0x0
 .bss           0x0000000000000000        0x0 c:/program files/microchip/xc32/v4.20/bin/bin/../../lib/gcc/pic32mx/8.3.1/../../../../pic32mx/lib\libpic32.a(default-nmi-handler.o)

.bss%z229       0x0000000000000000        0x0
 .bss           0x0000000000000000        0x0 c:/program files/microchip/xc32/v4.20/bin/bin/../../lib/gcc/pic32mx/8.3.1/../../../../pic32mx/lib\libpic32.a(default-on-bootstrap.o)

.bss%z230       0x0000000000000000        0x0
 .bss           0x0000000000000000        0x0 c:/program files/microchip/xc32/v4.20/bin/bin/../../lib/gcc/pic32mx/8.3.1/../../../../pic32mx/lib\libpic32.a(default-on-reset.o)

.bss%z231       0x0000000000000000        0x0
 .bss           0x0000000000000000        0x0 c:/program files/microchip/xc32/v4.20/bin/bin/../../lib/gcc/pic32mx/8.3.1/../../../../pic32mx/lib\libpic32.a(default-bootstrap-exception-handler.o)

.bss%z232       0x0000000000000000        0x0
 .bss           0x0000000000000000        0x0 c:/program files/microchip/xc32/v4.20/bin/bin/../../lib/gcc/pic32mx/8.3.1/../../../../pic32mx/lib\libpic32.a(strlen.o)

.bss%z233       0x0000000000000000        0x0
 .bss           0x0000000000000000        0x0 c:/program files/microchip/xc32/v4.20/bin/bin/../../lib/gcc/pic32mx/8.3.1/../../../../pic32mx/lib\libpic32.a(strcmp.o)

.bss%z234       0x0000000000000000        0x0
 .bss           0x0000000000000000        0x0 c:/program files/microchip/xc32/v4.20/bin/bin/../../lib/gcc/pic32mx/8.3.1/../../../../pic32mx/lib\libpic32.a(memset.o)

.bss%z235       0x0000000000000000        0x0
 .bss           0x0000000000000000        0x0 c:/program files/microchip/xc32/v4.20/bin/bin/../../lib/gcc/pic32mx/8.3.1/../../../../pic32mx/lib\libpic32.a(memcpy.o)

.bss%z236       0x0000000000000000        0x0
 .bss           0x0000000000000000        0x0 c:/program files/microchip/xc32/v4.20/bin/bin/../../lib/gcc/pic32mx/8.3.1/../../../../pic32mx/lib\libpic32.a(memcmp.o)

.bss%z237       0x0000000000000000        0x0
 .bss           0x0000000000000000        0x0 c:/program files/microchip/xc32/v4.20/bin/bin/../../lib/gcc/pic32mx/8.3.1\libgcc.a(floatunsidf.o)

.bss%z238       0x0000000000000000        0x0
 .bss           0x0000000000000000        0x0 c:/program files/microchip/xc32/v4.20/bin/bin/../../lib/gcc/pic32mx/8.3.1\libgcc.a(floatunsisf.o)

.bss%z239       0x0000000000000000        0x0
 .bss           0x0000000000000000        0x0 c:/program files/microchip/xc32/v4.20/bin/bin/../../lib/gcc/pic32mx/8.3.1\libgcc.a(_floatundidf.o)

.bss%z240       0x0000000000000000        0x0
 .bss           0x0000000000000000        0x0 c:/program files/microchip/xc32/v4.20/bin/bin/../../lib/gcc/pic32mx/8.3.1\libgcc.a(_fixunssfdi.o)

.bss%z241       0x0000000000000000        0x0
 .bss           0x0000000000000000        0x0 c:/program files/microchip/xc32/v4.20/bin/bin/../../lib/gcc/pic32mx/8.3.1/../../../../pic32mx/lib\pic32_software_reset.o

.bss%z242       0x0000000000000000        0x0
 .bss           0x0000000000000000        0x0 c:/program files/microchip/xc32/v4.20/bin/bin/../../lib/gcc/pic32mx/8.3.1/../../../../pic32mx/lib/./proc/32MX440F256H\default_isr_vectors.o

.bss%z243       0x0000000000000000        0x0
 .bss           0x0000000000000000        0x0 C:\Users\kyrk\AppData\Local\Temp\ccMtDgJu.o

.bss%z244       0x0000000000000000        0x0
 .bss           0x0000000000000000        0x0 C:\Users\kyrk\AppData\Local\Temp\ccgwFKT5.o

.bss%z245       0x0000000000000000        0x0
 .bss           0x0000000000000000        0x0 C:\Users\kyrk\AppData\Local\Temp\ccC6iq7L.o

.bss%z246       0x0000000000000000        0x0
 .bss           0x0000000000000000        0x0 c:/program files/microchip/xc32/v4.20/bin/bin/../../lib/gcc/pic32mx/8.3.1/../../../../pic32mx/lib/./proc/32MX440F256H\processor.o

.bss%z247       0x0000000000000000        0x0
 .bss           0x0000000000000000        0x0 output\noinitram.o

.bss%z248       0x0000000000000000        0x0
 .bss           0x0000000000000000        0x0 output\Reboot.o

.bss%z249       0x0000000000000000        0x0
 .bss           0x0000000000000000        0x0 output\grbl_multi.o

.bss%z250       0x0000000000000000        0x0
 .bss           0x0000000000000000        0x0 output\ethernet_grbl_multi.o

.bss%z251       0x0000000000000000        0x0
 .bss           0x0000000000000000        0x0 output\usb_grbl_multi.o

.bss%z252       0x0000000000000000        0x0
 .bss           0x0000000000000000        0x0 output\UDP.o

.bss%z253       0x0000000000000000        0x0
 .bss           0x0000000000000000        0x0 output\StackTsk.o

.bss%z254       0x0000000000000000        0x0
 .bss           0x0000000000000000        0x0 output\IP.o

.bss%z255       0x0000000000000000        0x0
 .bss           0x0000000000000000        0x0 output\ICMP.o

.bss%z256       0x0000000000000000        0x0
 .bss           0x0000000000000000        0x0 output\Helpers.o

.bss%z257       0x0000000000000000        0x0
 .bss           0x0000000000000000        0x0 output\Announce.o

.bss%z258       0x0000000000000000        0x0
 .bss           0x0000000000000000        0x0 output\ENC28J60.o

.bss%z259       0x0000000000000000        0x0
 .bss           0x0000000000000000        0x0 output\ethernet.o

.bss%z260       0x0000000000000000        0x0
 .bss           0x0000000000000000        0x0 output\grbl_probe.o

.bss%z261       0x0000000000000000        0x0
 .bss           0x0000000000000000        0x0 output\grbl_bootloader.o

.bss%z262       0x0000000000000000        0x0
 .bss           0x0000000000000000        0x0 output\grbl_running.o

.bss%z263       0x0000000000000000        0x0
 .bss           0x0000000000000000        0x0 output\grbl_protocol.o

.bss%z264       0x0000000000000000        0x0
 .bss           0x0000000000000000        0x0 output\stackmeasure_helper.o

.bss%z265       0x0000000000000000        0x0
 .bss           0x0000000000000000        0x0 output\stackmeasure.o

.bss%z266       0x0000000000000000        0x0
 .bss           0x0000000000000000        0x0 output\grbl_toolchange.o

.bss%z267       0x0000000000000000        0x0
 .bss           0x0000000000000000        0x0 output\bootloader_interface.o

.bss%z268       0x0000000000000000        0x0
 .bss           0x0000000000000000        0x0 output\grbl_eeprom.o

.bss%z269       0x0000000000000000        0x0
 .bss           0x0000000000000000        0x0 output\system_alarm.o

.bss%z270       0x0000000000000000        0x0
 .bss           0x0000000000000000        0x0 output\system_exec.o

.bss%z271       0x0000000000000000        0x0
 .bss           0x0000000000000000        0x0 output\stepper_enable.o

.bss%z272       0x0000000000000000        0x0
 .bss           0x0000000000000000        0x0 output\system_control.o

.bss%z273       0x0000000000000000        0x0
 .bss           0x0000000000000000        0x0 output\eep_manager_crc.o

.bss%z274       0x0000000000000000        0x0
 .bss           0x0000000000000000        0x0 output\dee_page_helper.o

.bss%z275       0x0000000000000000        0x0
 .bss           0x0000000000000000        0x0 output\dee_page.o

.bss%z276       0x0000000000000000        0x0
 .bss           0x0000000000000000        0x0 output\usb_function_cdc.o

.bss%z277       0x0000000000000000        0x0
 .bss           0x0000000000000000        0x0 output\jog.o

.bss%z278       0x0000000000000000        0x0
 .bss           0x0000000000000000        0x0 output\pwm.o

.bss%z279       0x0000000000000000        0x0
 .bss           0x0000000000000000        0x0 output\grbl.o

.bss%z280       0x0000000000000000        0x0
 .bss           0x0000000000000000        0x0 output\system.o

.bss%z281       0x0000000000000000        0x0
 .bss           0x0000000000000000        0x0 output\stepper.o

.bss%z282       0x0000000000000000        0x0
 .bss           0x0000000000000000        0x0 output\spindle_control.o

.bss%z283       0x0000000000000000        0x0
 .bss           0x0000000000000000        0x0 output\settings.o

.bss%z284       0x0000000000000000        0x0
 .bss           0x0000000000000000        0x0 output\print.o

.bss%z285       0x0000000000000000        0x0
 .bss           0x0000000000000000        0x0 output\planner.o

.bss%z286       0x0000000000000000        0x0
 .bss           0x0000000000000000        0x0 output\nuts_bolts.o

.bss%z287       0x0000000000000000        0x0
 .bss           0x0000000000000000        0x0 output\motion_control.o

.bss%z288       0x0000000000000000        0x0
 .bss           0x0000000000000000        0x0 output\coolant_control.o

.bss%z289       0x0000000000000000        0x0
 .bss           0x0000000000000000        0x0 output\grbl_limits.o

.bss%z290       0x0000000000000000        0x0
 .bss           0x0000000000000000        0x0 output\grbl_gcode.o

.bss%z291       0x0000000000000000        0x0
 .bss           0x0000000000000000        0x0 output\ad.o

.bss%z292       0x0000000000000000        0x0
 .bss           0x0000000000000000        0x0 output\app.o

.bss%z293       0x0000000000000000        0x0
 .bss           0x0000000000000000        0x0 output\c_eep_manager.o

.bss%z294       0x0000000000000000        0x0
 .bss           0x0000000000000000        0x0 output\main.o

.bss%z295       0x0000000000000000        0x0
 .bss           0x0000000000000000        0x0 output\isr.o

.bss%z296       0x0000000000000000        0x0
 .bss           0x0000000000000000        0x0 output\exceptions.o

.bss%z297       0x0000000000000000        0x0
 .bss           0x0000000000000000        0x0 output\usb_device.o

.bss%z298       0x0000000000000000        0x0
 .bss           0x0000000000000000        0x0 output\usb_descriptors.o

.bss%z299       0x0000000000000000        0x0
 .bss           0x0000000000000000        0x0 output\usb.o

.bss%z300       0x0000000000000000        0x0
 .bss           0x0000000000000000        0x0 output\eep_manager.o

.bss%z301       0x0000000000000000        0x0
 .bss           0x0000000000000000        0x0 output\eeprom.o

.bss%z302       0x0000000000000000        0x0
 .bss           0x0000000000000000        0x0 output\sleep.o

.bss%z303       0x0000000000000000        0x0
 .bss           0x0000000000000000        0x0 output\task.o

.bss%z304       0x0000000000000000        0x0
 .bss           0x0000000000000000        0x0 output\ringBuffer.o

.bss%z305       0x0000000000000000        0x0
 .bss           0x0000000000000000        0x0 output\mal.o

.bss%z306       0x0000000000000000        0x0
 .bss           0x0000000000000000        0x0 c:/program files/microchip/xc32/v4.20/bin/bin/../../lib/gcc/pic32mx/8.3.1/../../../../pic32mx/lib\debug-exception-return.o

_037bd36065ac0260
                0x000000009d030000     0x9000
 _037bd36065ac0260
                0x000000009d030000     0x9000 output\dee_page.o
                0x000000009d030000                dee_page

_038005a065ac025f
                0x000000009d008160       0x14
 _038005a065ac025f
                0x000000009d008160       0x14 output\main.o
                0x000000009d008160                VERSION_MAKEFILE_NAME

_03fe5f3065ac025f
                0x000000009d008190        0xc
 _03fe5f3065ac025f
                0x000000009d008190        0xc output\main.o
                0x000000009d008190                FILE_CRC

_0380051065ac025f
                0x000000009d008140        0xc
 _0380051065ac025f
                0x000000009d008140        0xc output\main.o
                0x000000009d008140                VERSION_ID_FIX

_0380048065ac025f
                0x000000009d008120        0xc
 _0380048065ac025f
                0x000000009d008120        0xc output\main.o
                0x000000009d008120                VERSION_TIME

_038003f065ac025f
                0x000000009d008100        0xc
 _038003f065ac025f
                0x000000009d008100        0xc output\main.o
                0x000000009d008100                VERSION_DATE

.text           0x000000009d039000     0x523c
 .text          0x000000009d039000     0x3400 output\TCP.o
                0x000000009d0399b8                init_tcp
                0x000000009d0399c0                do_tcp
                0x000000009d039a44                isr_tcp_1ms
                0x000000009d039a54                deinit_tcp
                0x000000009d039a5c                TCPInit
                0x000000009d039bb8                TCPdeInit
                0x000000009d039bc0                TCPOpen
                0x000000009d039db8                TCPWasReset
                0x000000009d039e04                TCPIsConnected
                0x000000009d039e3c                TCPDisconnect
                0x000000009d039fdc                TCPClose
                0x000000009d03a014                TCPGetRemoteInfo
                0x000000009d03a074                TCPFlush
                0x000000009d03a0e0                TCPIsPutReady
                0x000000009d03a158                TCPPut
                0x000000009d03a2d4                TCPPutArray
                0x000000009d03a4d4                TCPPutString
                0x000000009d03a51c                TCPGetTxFIFOFull
                0x000000009d03a578                TCPIsGetReady
                0x000000009d03a5e0                TCPDiscard
                0x000000009d03a634                TCPGet
                0x000000009d03a730                TCPGetArray
                0x000000009d03a8c8                TCPGetRxFIFOFree
                0x000000009d03a920                TCPPeekArray
                0x000000009d03aa64                TCPPeek
                0x000000009d03aa8c                TCPFindArrayEx
                0x000000009d03adb0                TCPFindEx
                0x000000009d03ade4                TCPTick
                0x000000009d03b3d8                TCPProcess
                0x000000009d03c1ac                TCPAdjustFIFOSize
 .text          0x000000009d03c400     0x1e3c output\ENC28J60.o
                0x000000009d03c788                init_enc28j60
                0x000000009d03c7a8                isr_enc28j60_1ms
                0x000000009d03c7e0                deinit_enc28j60
                0x000000009d03c7e8                MACdeInit
                0x000000009d03c7f0                ENC28J60_CalculateBRG
                0x000000009d03c84c                MACIsTxReady
                0x000000009d03c878                MACDiscardRx
                0x000000009d03c8e4                MACGetFreeRxSize
                0x000000009d03c9c8                MACSetReadPtrInRx
                0x000000009d03ca14                MACSetWritePtr
                0x000000009d03ca74                MACSetReadPtr
                0x000000009d03cad4                MACIsMemCopyDone
                0x000000009d03cb00                MACGet
                0x000000009d03cb7c                MACGetArray
                0x000000009d03ccfc                MACGetHeader
                0x000000009d03ce9c                MACFlush
                0x000000009d03d098                CalcIPBufferChecksum
                0x000000009d03d17c                MACCalcRxChecksum
                0x000000009d03d218                MACPut
                0x000000009d03d2ac                MACMemCopyAsync
                0x000000009d03d540                MACPutArray
                0x000000009d03d700                MACPutHeader
                0x000000009d03d788                ReadPHYReg
                0x000000009d03d830                MACIsLinked
                0x000000009d03d858                WritePHYReg
                0x000000009d03d8cc                do_enc28j60
                0x000000009d03dd8c                MACInit_Async
                0x000000009d03e0fc                MACInit
                0x000000009d03e11c                MACPowerDown
                0x000000009d03e178                MACPowerUp
                0x000000009d03e1b8                SetCLKOUT
                0x000000009d03e1e8                GetCLKOUT
                0x000000009d03e220                get_enc28j60_spi_corruption1_cnt
                0x000000009d03e228                get_enc28j60_spi_corruption2_cnt
                0x000000009d03e230                MACIsAvailable

.text           0x000000009d03e23c     0x1c28
 .text          0x000000009d03e23c     0x1c28 output\report.o
                0x000000009d03e24c                report_util_setting_prefix
                0x000000009d03e280                report_util_line_feed
                0x000000009d03e28c                report_util_feedback_line_feed
                0x000000009d03e2a8                report_util_gcode_modes_G
                0x000000009d03e2b4                report_util_gcode_modes_M
                0x000000009d03e2c0                system_get_external_power
                0x000000009d03e2c8                report_util_axis_values
                0x000000009d03e310                report_util_uint8_setting
                0x000000009d03e33c                report_util_float_setting
                0x000000009d03e378                init_grbl_report
                0x000000009d03e3d0                isr_grbl_report_1ms
                0x000000009d03e400                grbl_report_dump_eeprom
                0x000000009d03e40c                report_status_message
                0x000000009d03e454                report_alarm_message
                0x000000009d03e488                report_feedback_message
                0x000000009d03e5e4                report_init_message
                0x000000009d03e5f0                report_grbl_help
                0x000000009d03e5fc                report_grbl_debug_0
                0x000000009d03e608                report_grbl_debug_1
                0x000000009d03e614                report_grbl_settings
                0x000000009d03e8c8                report_probe_parameters
                0x000000009d03e91c                report_ngc_parameters
                0x000000009d03ea34                report_gcode_modes
                0x000000009d03ec08                report_build_info
                0x000000009d03ec94                report_echo_line_received
                0x000000009d03ecd8                report_stack_usage
                0x000000009d03ed34                report_mac_address
                0x000000009d03edb8                report_realtime_status
                0x000000009d03f25c                debug_missed_char_logger
                0x000000009d03f28c                report_print_pins_helper
                0x000000009d03f49c                do_grbl_report

.text           0x000000009d00819c     0x330c
 .text          0x000000009d00819c     0x1b00 output\grbl_gcode.o
                0x000000009d00819c                gc_init
                0x000000009d008278                gc_soft_init
                0x000000009d0082b4                gc_sync_position
                0x000000009d0082c8                gc_main
                0x000000009d0082d0                gc_check_for_sync_needed
                0x000000009d0083d0                gc_execute_line
                0x000000009d009c70                gcode_probe_update_pos
 .text          0x000000009d009c9c     0x180c output\usb_device.o
                0x000000009d009da0                USBDeviceInit
                0x000000009d009f5c                USBEnableEndpoint
                0x000000009d00a020                USBTransferOnePacket
                0x000000009d00a0e4                USBStallEndpoint
                0x000000009d00a190                USBCancelIO
                0x000000009d00a258                USBDeviceDetach
                0x000000009d00a270                USBDeviceAttach
                0x000000009d00a2ec                USBCtrlEPAllowStatusStage
                0x000000009d00a3d8                USBCtrlEPAllowDataStage
                0x000000009d00a494                USBDeviceTasks

.text           0x000000009d00b4a8     0x2a54
 .text          0x000000009d00b4a8     0x17a4 output\stepper.o
                0x000000009d00b4a8                init_stepper
                0x000000009d00b588                do_stepper
                0x000000009d00b590                st_wake_up
                0x000000009d00b5d0                st_go_idle
                0x000000009d00b64c                TIMER1_COMPA_vect
                0x000000009d00ba38                TIMER0_OVF_vect
                0x000000009d00babc                st_generate_step_dir_invert_masks
                0x000000009d00bb60                st_reset
                0x000000009d00bce0                st_update_plan_block_parameters
                0x000000009d00bd2c                st_next_block_index
                0x000000009d00bd48                st_prep_buffer
                0x000000009d00cc00                st_get_realtime_rate
                0x000000009d00cc24                st_isRunning
                0x000000009d00cc2c                st_isDelayRunning
 .text          0x000000009d00cc4c     0x12b0 output\system.o
                0x000000009d00cc4c                system_init_exteral_power
                0x000000009d00cc54                do_system_exteral_power
                0x000000009d00cc5c                isr_system_exteral_power_1ms
                0x000000009d00cc64                system_get_external_power_disengage_alarm
                0x000000009d00cc6c                isr_system_1ms
                0x000000009d00cc74                system_check_safety_door_ajar
                0x000000009d00cc7c                system_flag_wco_change
                0x000000009d00cc88                system_convert_axis_steps_to_mpos
                0x000000009d00ccd0                system_convert_array_steps_to_mpos
                0x000000009d00cd34                system_check_travel_limits
                0x000000009d00cdc8                system_set_exec_motion_override_flag
                0x000000009d00ce14                system_set_exec_accessory_override_flag
                0x000000009d00ce60                system_clear_exec_motion_overrides
                0x000000009d00cea4                system_clear_exec_accessory_overrides
                0x000000009d00cee8                system_set_requestSuspendTime
                0x000000009d00cef4                system_get_requestSuspendTime
                0x000000009d00cf14                system_exec_rt_system_override
                0x000000009d00d158                protocol_exec_rt_suspend_preapare
                0x000000009d00d1cc                system_log_add_event
                0x000000009d00d228                system_log_unlock
                0x000000009d00d234                system_log_sm_abort_input
                0x000000009d00d240                system_log_internal_stepper_enable
                0x000000009d00d24c                system_log_internal_stepper_disable
                0x000000009d00d258                system_log_home
                0x000000009d00d264                system_log_limit_x
                0x000000009d00d270                system_log_limit_y
                0x000000009d00d27c                system_log_limit_z
                0x000000009d00d288                system_log_home_finished
                0x000000009d00d294                system_log_spindle_on
                0x000000009d00d2a0                system_log_spindle_off
                0x000000009d00d2ac                protocol_exec_rt_suspend_async
                0x000000009d00d580                system_log_probe_start
                0x000000009d00d58c                system_log_probe_touch
                0x000000009d00d598                system_log_st_reset
                0x000000009d00d5a4                system_log_sm_plan_reset
                0x000000009d00d5b0                system_log_st_go_idle
                0x000000009d00d5bc                system_log_st_wake_up
                0x000000009d00d5c8                system_log_sm_g28
                0x000000009d00d5d4                system_log_st_update_plan_block_parameters
                0x000000009d00d5e0                system_log_EXEC_MOTION_CANCEL
                0x000000009d00d5ec                system_log_sm_init_log
                0x000000009d00d5f8                system_log_sm_idle_log
                0x000000009d00d604                system_log_sm_suspend_log
                0x000000009d00d610                system_log_sm_suspend_delay_log
                0x000000009d00d61c                system_log_sm_sys_state
                0x000000009d00d628                system_set_sys_state
                0x000000009d00d654                system_init
                0x000000009d00d744                system_exec_rt_system_alarm
                0x000000009d00d7f0                system_log_sm_sys_suspend
                0x000000009d00d7fc                system_set_sys_suspend
                0x000000009d00d828                system_exec_rt_system_state
                0x000000009d00dd08                do_system

.text.atan2     0x000000009d00defc     0x1254
 .text.atan2    0x000000009d00defc     0x1254 c:/program files/microchip/xc32/v4.20/bin/bin/../../lib/gcc/pic32mx/8.3.1/../../../../pic32mx/lib\libm.a(atan2.o)
                0x000000009d00defc                atan2

.text           0x000000009d00f150     0x2030
 .text          0x000000009d00f150     0x1030 output\isr.o
                0x000000009d00f150                Timer1Handler
                0x000000009d00f2a0                Timer2Handler
                0x000000009d00f3f0                Timer3Handler
                0x000000009d00f540                Timer4Handler
                0x000000009d00f690                Timer5Handler
                0x000000009d00f71c                __SPI2Interrupt
                0x000000009d00f78c                __EINT3Interrupt
                0x000000009d00f7fc                __EINT4nterrupt
                0x000000009d00f86c                DmaHandler0
                0x000000009d00f8dc                DmaHandler1
                0x000000009d00f94c                DmaHandler2
                0x000000009d00f9bc                DmaHandler3
                0x000000009d00fa2c                ChangeNotification
                0x000000009d00fb98                IntUart1Handler
                0x000000009d00fc78                IntUart2Handler
                0x000000009d00fd24                IntUSBHandler
                0x000000009d00fe4c                CoreTimerHandler
                0x000000009d00fed8                IntI2C1Handler
                0x000000009d00ffbc                IntI2C2Handler
                0x000000009d0100a4                init_isr
                0x000000009d01011c                deinit_isr
 .text          0x000000009d010180     0x1000 output\dee.o
                0x000000009d010180                deinit_dee
                0x000000009d010188                isr_dee_1ms
                0x000000009d0101b4                GetIndexOfEmptyDataElement
                0x000000009d0102a0                ErasePage
                0x000000009d010374                MassErasePage
                0x000000009d0103fc                DataEERead
                0x000000009d0106bc                dee_read_eeprom
                0x000000009d010744                dee_is_pack_running
                0x000000009d01074c                Dee_CloseCurrentPage
                0x000000009d0107ec                DataEEWrite
                0x000000009d010a94                dee_write_eeprom
                0x000000009d010af8                PackEE_async
                0x000000009d010dbc                do_dee
                0x000000009d010e20                PackEE_synch
                0x000000009d010e4c                init_dee
                0x000000009d01108c                _NVMOperation
                0x000000009d011150                NVMWriteWord
                0x000000009d01116c                NVMErasePage

.text           0x000000009d011180     0x1b0c
 .text          0x000000009d011180      0xe50 output\BerkeleyAPI.o
                0x000000009d01124c                init_berkeleyapi
                0x000000009d011254                do_berkeleyapi
                0x000000009d011278                isr_berkeleyapi_1ms
                0x000000009d011288                deinit_berkeleyapi
                0x000000009d011290                BerkeleySocketInit
                0x000000009d0112c8                BerkeleySocketdeInit
                0x000000009d0112d0                socket
                0x000000009d011368                bind
                0x000000009d011470                listen
                0x000000009d0115bc                accept
                0x000000009d011740                connect
                0x000000009d011914                sendto
                0x000000009d011b34                send
                0x000000009d011b58                recv
                0x000000009d011c34                recvfrom
                0x000000009d011dc4                gethostname
                0x000000009d011e3c                closesocket
 .text          0x000000009d011fd0      0xcbc output\grbl_protocol.o
                0x000000009d011fd0                init_protocol_main_loop
                0x000000009d012034                isr_protocol_main_loop_1ms
                0x000000009d01203c                protocol_set_requestSynchMotion
                0x000000009d012048                protocol_get_requestSynchMotion
                0x000000009d012050                protocol_clear_requestSynchMotion
                0x000000009d012058                protocol_set_requestDwell
                0x000000009d012060                protocol_update_requestDwell
                0x000000009d012090                protocol_get_requestDwell
                0x000000009d0120c8                process_single_char_command
                0x000000009d0122d8                process_multi_char_command
                0x000000009d0125c8                protocol_execute_line
                0x000000009d012974                getChar_grbl_protocol
                0x000000009d0129ac                putChar_grbl_protocol
                0x000000009d0129e4                do_protocol_main_loop

.text           0x000000009d007490      0xc64
 .text          0x000000009d007490      0xc64 output\planner.o
                0x000000009d007490                init_planner
                0x000000009d0074c8                plan_next_block_index
                0x000000009d0074e4                plan_prev_block_index
                0x000000009d0074f8                planner_recalculate
                0x000000009d007798                plan_reset_buffer
                0x000000009d0077d4                plan_reset
                0x000000009d0077fc                plan_discard_current_block
                0x000000009d007834                plan_get_system_motion_block
                0x000000009d007850                plan_get_current_block
                0x000000009d00787c                plan_get_exec_block_exit_speed_sqr
                0x000000009d0078c0                plan_check_full_buffer
                0x000000009d0078d4                plan_compute_profile_nominal_speed
                0x000000009d007a10                plan_compute_profile_parameters
                0x000000009d007a90                plan_update_velocity_profile_parameters
                0x000000009d007b44                plan_buffer_line
                0x000000009d008058                plan_sync_position
                0x000000009d008084                plan_get_block_buffer_available
                0x000000009d0080a8                plan_get_block_buffer_count
                0x000000009d0080c8                plan_cycle_reinitialize

.text           0x000000009d012c8c     0x17fc
 .text          0x000000009d012c8c      0xc20 output\DHCP.o
                0x000000009d0132ac                DHCPInit
                0x000000009d013320                DHCPdeInit
                0x000000009d013328                DHCPDisable
                0x000000009d01336c                DHCPEnable
                0x000000009d0133a0                DHCPIsEnabled
                0x000000009d0133b0                DHCPIsBound
                0x000000009d0133c0                DHCPStateChanged
                0x000000009d0133ec                DHCPIsServerDetected
                0x000000009d0133fc                DHCPTempIPAddr
                0x000000009d013418                DHCPTask
 .text          0x000000009d0138ac      0xbdc output\motion_control.o
                0x000000009d0138ac                init_motion_control
                0x000000009d013960                isArcGeneratingRunning
                0x000000009d013970                isMc_homing_cycleRunning
                0x000000009d01397c                mc_line
                0x000000009d0139d0                mc_arc_pre
                0x000000009d013eac                mc_arc
                0x000000009d013f90                mc_arc_async
                0x000000009d0141f0                do_motion_control
                0x000000009d014348                mc_dwell_ms
                0x000000009d0143a8                mc_dwell
                0x000000009d0143b0                mc_dwell_s
                0x000000009d0143d4                mc_homing_cycle
                0x000000009d0143e4                mc_stop

.text           0x000000009d014488      0xafc
 .text          0x000000009d014488      0xafc output\eep_manager.o
                0x000000009d014488                deinit_eep_manager
                0x000000009d014490                isr_eep_manager_1ms
                0x000000009d0144a0                eep_manager_WriteAll_Trigger
                0x000000009d0144f0                eep_manager_WriteItem_Trigger
                0x000000009d014520                eep_manager_IsBusy
                0x000000009d014554                eepManagerFindAddr
                0x000000009d014598                eepManagerReadVarBackup
                0x000000009d0146f0                eepManagerReadVar
                0x000000009d014878                eepManagerValid
                0x000000009d0148f4                eepManagerUpdate
                0x000000009d014950                eepManagerWriteVar_Asynch
                0x000000009d014bb4                do_eep_manager
                0x000000009d014cac                eepManagerEmpty
                0x000000009d014d90                eep_manager_WriteAllDefault
                0x000000009d014d98                eepManagerConfigPersistentValue
                0x000000009d014e14                eep_manager_ReadAll
                0x000000009d014f30                init_eep_manager

.rodata.str1.4  0x000000009d014f84      0xa30
 .rodata.str1.4
                0x000000009d014f84      0xa30 output\report.o

.text           0x000000009d0159b4     0x12ec
 .text          0x000000009d0159b4      0x9b0 output\grbl_limits.o
                0x000000009d0159b4                isr_limits_1ms
                0x000000009d0159c4                LIMIT_INT_vect
                0x000000009d0159dc                limits_disable
                0x000000009d0159e8                limits_enable
                0x000000009d015a00                limits_get_state_non_filtered
                0x000000009d015ab8                limits_init
                0x000000009d015bc0                limits_get_state_filtered
                0x000000009d015bc8                limits_set_state_filtered
                0x000000009d015bd0                isLimits_go_homeRunning
                0x000000009d015be0                limits_go_home
                0x000000009d015bf0                limits_EXEC_CYCLE_STOP_event
                0x000000009d015c18                limits_EXEC_SAFETY_DOOR_event
                0x000000009d015c4c                limits_soft_check
                0x000000009d015cac                grbl_limit_calculate_set_axis_position
                0x000000009d015d44                do_limits
 .text          0x000000009d016364      0x93c output\UDP.o
                0x000000009d016364                init_udp
                0x000000009d01636c                do_udp
                0x000000009d0163a8                isr_udp_1ms
                0x000000009d0163b8                deinit_udp
                0x000000009d0163c0                UDPdeInit
                0x000000009d0163c8                UDPOpenEx
                0x000000009d0164c8                UDPTask
                0x000000009d0165a0                UDPIsOpened
                0x000000009d0165c4                UDPClose
                0x000000009d0165f8                UDPInit
                0x000000009d016638                UDPSetTxBuffer
                0x000000009d016664                UDPSetRxBuffer
                0x000000009d016694                UDPIsPutReady
                0x000000009d016700                UDPPut
                0x000000009d01675c                UDPPutArray
                0x000000009d0167f0                UDPPutString
                0x000000009d016838                UDPFlush
                0x000000009d016988                UDPIsGetReady
                0x000000009d0169d8                UDPGet
                0x000000009d016a34                UDPGetArray
                0x000000009d016abc                UDPDiscard
                0x000000009d016b00                UDPProcess

.text           0x000000009d016ca0      0xe50
 .text          0x000000009d016ca0      0x774 output\settings.o
                0x000000009d016ca0                settings_write_coord_data
                0x000000009d016cf0                write_global_settings
                0x000000009d016d24                settings_restore
                0x000000009d016eb0                settings_read_coord_data
                0x000000009d016efc                read_global_settings
                0x000000009d016f3c                settings_init
                0x000000009d016f90                settings_store_global_setting
                0x000000009d0173ec                get_step_pin_mask
                0x000000009d01740c                get_direction_pin_mask
 .text          0x000000009d017414      0x6dc output\nuts_bolts.o
                0x000000009d017414                init_nuts_bolts
                0x000000009d01741c                do_nuts_bolts
                0x000000009d017424                isr_nuts_bolts_1ms
                0x000000009d01742c                read_float
                0x000000009d017654                hypot_f
                0x000000009d0176c0                convert_delta_vector_to_unit_vector
                0x000000009d0177b4                limit_value_by_axis_maximum
                0x000000009d01785c                trunc_my
                0x000000009d0178d4                round_my
                0x000000009d017904                lround_my
                0x000000009d017974                isequal_position_vector
                0x000000009d017a34                nuts_bolts_tooth_load_rpm_to_feed

.dinit          0x000000009d017af0      0x690
 .dinit         0x000000009d017af0      0x690 data_init

.text           0x000000009d018180      0xc20
 .text          0x000000009d018180      0x634 output\grbl_eeprom.o
                0x000000009d018180                isr_grbl_eeprom_1ms
                0x000000009d018190                grbl_eeprom_trigger
                0x000000009d01819c                grbl_eeprom_trigger_settings
                0x000000009d0181a8                grbl_NotifyUserFailedRead
                0x000000009d0181d4                grbl_reset_eep_messages
                0x000000009d0181e4                grbl_eeprom_checkIs
                0x000000009d0182d8                do_grbl_eeprom
                0x000000009d0184fc                grbl_eeprom_storePositionToNoInit
                0x000000009d018560                grbl_eeprom_restorePositionFromNoInit
                0x000000009d01863c                init_grbl_eeprom
                0x000000009d0186d4                grbl_eeprom_get_eeprom
                0x000000009d01873c                grbl_eeprom_set_eeprom
 .text          0x000000009d0187b4      0x5ec output\usb_function_cdc.o
                0x000000009d0187b4                USBCheckCDCRequest
                0x000000009d018924                CDCInitEP
                0x000000009d018990                USBCDCEventHandler
                0x000000009d0189fc                getsUSBUSART
                0x000000009d018aa4                putUSBUSART
                0x000000009d018ae8                putsUSBUSART
                0x000000009d018b78                putrsUSBUSART
                0x000000009d018c08                CDCTxService

.text           0x000000009d018da0      0xb8c
 .text          0x000000009d018da0      0x5e8 output\pwm.o
                0x000000009d018da0                init_pwm
                0x000000009d018f2c                do_pwm
                0x000000009d018f34                setPwmFreq
                0x000000009d01914c                getPwmDuty
                0x000000009d019164                setPWMRaw
                0x000000009d0192e4                setPwmDuty
 .text          0x000000009d019388      0x5a4 output\Helpers.o
                0x000000009d019388                LFSRRand
                0x000000009d0193c4                LFSRSeedRand
                0x000000009d019400                GenerateRandomDWORD
                0x000000009d01941c                StringToIPAddress
                0x000000009d019568                uitoa
                0x000000009d0195e4                hexatob
                0x000000009d01964c                btohexa_high
                0x000000009d019668                btohexa_low
                0x000000009d019684                stricmppgm2ram
                0x000000009d0196fc                swaps
                0x000000009d019708                swapl
                0x000000009d01972c                CalcIPChecksum
                0x000000009d0197a0                strupr
                0x000000009d0197d8                FormatNetBIOSName
                0x000000009d01983c                strnchr
                0x000000009d019870                strncpy_m

.text           0x000000009d01992c      0xb20
 .text          0x000000009d01992c      0x594 output\mal.o
                0x000000009d019934                mal_get_reset_reason
                0x000000009d01994c                mal_reset_reason
                0x000000009d019a94                mal_DmaSuspend
                0x000000009d019ac8                mal_DmaResume
                0x000000009d019ae8                mal_clockswitch_slowdown
                0x000000009d019ba0                mal_clockswitch
                0x000000009d019c6c                hexStringToChar
                0x000000009d019ce0                hexStringToInt
                0x000000009d019d50                SoftReset
                0x000000009d019da4                mal_reset
                0x000000009d019db4                CheKseg0CacheOff
                0x000000009d019dc8                CheKseg0CacheOn
                0x000000009d019ddc                init_mal
                0x000000009d019e8c                INTDisableInterrupts
                0x000000009d019e98                INTRestoreInterrupts
                0x000000009d019eb4                mal_get_reset_counter
 .text          0x000000009d019ec0      0x58c output\print.o
                0x000000009d019ec0                printString
                0x000000009d019efc                printPgmString
                0x000000009d019f04                print_uint8_base10
                0x000000009d019fb4                print_uint8_base2_ndigit
                0x000000009d01a044                print_uint32_base10
                0x000000009d01a0d0                print_uint32_base16
                0x000000009d01a130                print_uint16_base16
                0x000000009d01a190                print_uint8_base16
                0x000000009d01a1e4                printInteger
                0x000000009d01a21c                printFloat
                0x000000009d01a38c                printFloat_CoordValue
                0x000000009d01a3ec                printFloat_RateValue

.text.dp32mul   0x000000009d01a44c      0x4b8
 .text.dp32mul  0x000000009d01a44c      0x4b8 c:/program files/microchip/xc32/v4.20/bin/bin/../../lib/gcc/pic32mx/8.3.1/../../../../pic32mx/lib\libm.a(dp32div.o)
                0x000000009d01a44c                __divdf3
                0x000000009d01a44c                dpdiv

.text           0x000000009d01a904      0x92c
 .text          0x000000009d01a904      0x4a0 output\tmr.o
                0x000000009d01a904                init_tmr
                0x000000009d01a978                deinit_tmr
                0x000000009d01a9b4                do_tmr
                0x000000009d01a9bc                delayms
                0x000000009d01a9f4                add_timer
                0x000000009d01aa70                remove_timer
                0x000000009d01aaec                read_timer
                0x000000009d01ab38                write_timer
                0x000000009d01ab88                init_timer
                0x000000009d01abb0                setTimer
                0x000000009d01abc8                getTimer
                0x000000009d01abe0                isr_tmr4
                0x000000009d01abe8                isr_tmr3
                0x000000009d01abf0                isr_tmr2
                0x000000009d01ac00                isr_tmr1
                0x000000009d01ad24                getGlobalTime
                0x000000009d01ad64                getGlobalTimeUs
 .text          0x000000009d01ada4      0x48c output\ethernet_grbl_multi.o
                0x000000009d01ada4                init_serial_grbl_ethernet_multi
                0x000000009d01ade4                isr_serial_grbl_ethernet_multi_1ms
                0x000000009d01ae14                ethernet_grbl_multi_loadbufferRx
                0x000000009d01aee8                isCharInBuffer_grbl_ethernet_multi
                0x000000009d01af10                isCharOutBuffer_grbl_ethernet_multi
                0x000000009d01af38                ethernet_grbl_multi_loadbufferTx
                0x000000009d01b04c                do_serial_grbl_ethernet_multi
                0x000000009d01b1a0                getChar_grbl_ethernet_multi
                0x000000009d01b1d8                putChar_grbl_ethernet_multi

.text           0x000000009d01b230      0x8ec
 .text          0x000000009d01b230      0x488 output\task.o
                0x000000009d01b230                isr_task_1ms
                0x000000009d01b240                clearTaskItem
                0x000000009d01b27c                init_task
                0x000000009d01b2a8                deinit_task
                0x000000009d01b2b0                findFreeTaskList
                0x000000009d01b2e4                addTask
                0x000000009d01b334                addTriggerTask
                0x000000009d01b344                addSingleShootTimedTask
                0x000000009d01b380                removeTask
                0x000000009d01b3c0                suspendTask
                0x000000009d01b3dc                resumeTask
                0x000000009d01b3fc                scheduleTask
                0x000000009d01b41c                changeActivationCycleTask
                0x000000009d01b438                triggerTask
                0x000000009d01b49c                addSingleShootTask
                0x000000009d01b4d0                taskHelperActivator
                0x000000009d01b5a4                do_task
                0x000000009d01b69c                setTaskName
 .text          0x000000009d01b6b8      0x464 output\dee_page.o
                0x000000009d01b6b8                GetEraseCounter
                0x000000009d01b6d4                dee_page_update_debug_status
                0x000000009d01b708                init_dee_page
                0x000000009d01b72c                do_dee_page
                0x000000009d01b734                dee_page_mass_erase_page
                0x000000009d01b794                dee_page_erase_page
                0x000000009d01b830                dee_page_read_raw
                0x000000009d01b850                dee_page_read_status
                0x000000009d01b870                dee_page_read_address
                0x000000009d01b894                dee_page_read_data
                0x000000009d01b8b4                dee_page_read_crc
                0x000000009d01b8d8                dee_page_write_status
                0x000000009d01b8f0                dee_page_write_address
                0x000000009d01b918                dee_page_write_data
                0x000000009d01b940                dee_page_write_crc
                0x000000009d01b968                dee_page_read_element
                0x000000009d01ba00                dee_page_write_element

.text.dreml     0x000000009d01bb1c      0x454
 .text.dreml    0x000000009d01bb1c      0x454 c:/program files/microchip/xc32/v4.20/bin/bin/../../lib/gcc/pic32mx/8.3.1/../../../../pic32mx/lib\libm.a(support.o)
                0x000000009d01bb1c                dreml

.text.dp32subadd
                0x000000009d01bf70      0x430
 .text.dp32subadd
                0x000000009d01bf70      0x430 c:/program files/microchip/xc32/v4.20/bin/bin/../../lib/gcc/pic32mx/8.3.1/../../../../pic32mx/lib\libm.a(dp32subadd.o)
                0x000000009d01bf70                __subdf3
                0x000000009d01bf70                dpsub
                0x000000009d01bf78                dpadd
                0x000000009d01bf78                __adddf3

.text           0x000000009d01c3a0      0x7d0
 .text          0x000000009d01c3a0      0x3ec output\spindle_control.o
                0x000000009d01c3a0                do_spindle
                0x000000009d01c3a8                spindle_get_state
                0x000000009d01c3f8                spindle_compute_pwm_value
                0x000000009d01c67c                spindle_set_state
                0x000000009d01c728                spindle_init
 .text          0x000000009d01c78c      0x3e4 output\grbl.o
                0x000000009d01c7a4                init_grbl
                0x000000009d01c860                do_grbl
                0x000000009d01ca10                isr_grbl_1ms
                0x000000009d01ca84                isr_grbl_tmr_stepper_delay
                0x000000009d01cab4                set_grbl_tmr0_trigger
                0x000000009d01cad8                set_grbl_tmr0_trigger_Step_Pulse_Delay
                0x000000009d01cae0                isr_grbl_tmr_stepper
                0x000000009d01cae8                set_grbl_tmr1_period
                0x000000009d01cb18                set_grbl_tmr1_enabled
                0x000000009d01cb34                set_grbl_tmr1_disabled
                0x000000009d01cb4c                isr_grbl_cn
                0x000000009d01cb68                grlb_notify_new_connection

.text           0x000000009d01cb70      0x760
 .text          0x000000009d01cb70      0x3bc output\sleep.o
                0x000000009d01cb70                init_sleep
                0x000000009d01cbc4                deinit_sleep
                0x000000009d01cbcc                isr_sleep_1ms
                0x000000009d01cbdc                sleep_SetRequestRunApp
                0x000000009d01cc18                sleep_ClearRequestRunApp
                0x000000009d01cc40                sleep_GetRequestRunApp
                0x000000009d01cc4c                sleep_SetRequestRunDriver
                0x000000009d01cc78                sleep_ClearRequestRunDriver
                0x000000009d01cca0                sleep_GetRequestRunDriver
                0x000000009d01ccac                do_sleep
                0x000000009d01cd94                sleep_GetMainLoopRun
                0x000000009d01cd9c                sleep_Request
                0x000000009d01cda4                PowerSaveSleep
                0x000000009d01ce38                sleep_ExecuteSleep
                0x000000009d01cf08                sleep_stay_in_loop
                0x000000009d01cf10                sleep_after_deinit
 .text          0x000000009d01cf2c      0x3a4 output\StackTsk.o
                0x000000009d01cf2c                StackInit_Async
                0x000000009d01d028                StackInit
                0x000000009d01d048                StackTask
                0x000000009d01d218                StackApplications
                0x000000009d01d280                StackdeInit

.text           0x000000009d01d2d0      0x6d0
 .text          0x000000009d01d2d0      0x384 output\ARP.o
                0x000000009d01d2d0                ARPInit
                0x000000009d01d2ec                ARPdeInit
                0x000000009d01d2f4                ARPIsResolved
                0x000000009d01d374                SwapARPPacket
                0x000000009d01d470                ARPSendPkt
                0x000000009d01d4ac                ARPResolve
                0x000000009d01d530                ARPProcess
 .text          0x000000009d01d654      0x34c output\dee_page_helper.o
                0x000000009d01d654                GetUnexpiredPage
                0x000000009d01d6bc                GetActiveCurrentPage
                0x000000009d01d740                GetActiveCurrentPageCount
                0x000000009d01d7a4                GetNextPage
                0x000000009d01d7d0                GetPreviousPage
                0x000000009d01d7f4                GetPageStatus
                0x000000009d01d84c                SetPageStatus

.text           0x000000009d01d9a0      0x33c
 .text          0x000000009d01d9a0      0x33c output\grbl_probe.o
                0x000000009d01d9a0                isr_probe_1ms
                0x000000009d01d9b0                probe_configure_invert_mask
                0x000000009d01d9e0                probe_init
                0x000000009d01da2c                probe_get_state
                0x000000009d01da44                probe_state_monitor
                0x000000009d01daac                isProbing_cycleRunning
                0x000000009d01dabc                mc_probe_cycle
                0x000000009d01db5c                mc_probe_cycle_async
                0x000000009d01dc40                do_probe

.text.dp32mul   0x000000009d01dcdc      0x32c
 .text.dp32mul  0x000000009d01dcdc      0x32c c:/program files/microchip/xc32/v4.20/bin/bin/../../lib/gcc/pic32mx/8.3.1/../../../../pic32mx/lib\libm.a(dp32mul.o)
                0x000000009d01dcdc                __muldf3
                0x000000009d01dcdc                dpmul

.text.libm      0x000000009d01e008      0x328
 .text.libm     0x000000009d01e008      0x328 c:/program files/microchip/xc32/v4.20/bin/bin/../../lib/gcc/pic32mx/8.3.1/../../../../pic32mx/lib\libm.a(dpsqrt.o)
                0x000000009d01e008                __mchp_sqrt
                0x000000009d01e008                dpsqrt
                0x000000009d01e008                sqrt

.text           0x000000009d01e330      0x5e8
 .text          0x000000009d01e330      0x300 output\eeprom.o
                0x000000009d01e330                init_eeprom
                0x000000009d01e338                isr_eeprom_1ms
                0x000000009d01e348                deinit_eeprom
                0x000000009d01e350                is_eeprom_write_protected
                0x000000009d01e370                write_eeprom_char
                0x000000009d01e420                do_eeprom
                0x000000009d01e490                read_eeprom_char
                0x000000009d01e4c4                write_eeprom_float
                0x000000009d01e51c                read_eeprom_float
                0x000000009d01e57c                write_eeprom_int
                0x000000009d01e5d4                read_eeprom_int
 .text          0x000000009d01e630      0x2e8 output\stepper_enable.o
                0x000000009d01e630                isr_stepper_enable_1ms
                0x000000009d01e640                get_stepper_enable_emergency_stop_active
                0x000000009d01e648                stepper_enable_emergency_stop
                0x000000009d01e664                stepper_enable_enable
                0x000000009d01e6b8                stepper_enable_emergency_stop_cleared
                0x000000009d01e714                stepper_enable_disable
                0x000000009d01e758                init_stepper_enable
                0x000000009d01e7a8                do_stepper_enable
                0x000000009d01e910                exceptions_user_callout_grbl

.text           0x000000009d01e918      0x2a4
 .text          0x000000009d01e918      0x2a4 output\system_control.o
                0x000000009d01e918                init_system_control
                0x000000009d01e968                isr_system_control_1ms
                0x000000009d01e978                CONTROL_INT_vect
                0x000000009d01e988                system_control_get_state_ABORT
                0x000000009d01e9c0                system_control_get_state_FEED_HOLD
                0x000000009d01e9d4                system_control_get_state_CYCLE_START
                0x000000009d01e9e8                system_control_get_state_SAFETY_DOOR
                0x000000009d01e9fc                system_control_pins
                0x000000009d01eb90                do_system_control

.text.exsqrt    0x000000009d01ebbc      0x29c
 .text.exsqrt   0x000000009d01ebbc      0x29c c:/program files/microchip/xc32/v4.20/bin/bin/../../lib/gcc/pic32mx/8.3.1/../../../../pic32mx/lib\libm.a(exsqrt.o)
                0x000000009d01ebbc                exsqrt

.text           0x000000009d01ee58      0x50c
 .text          0x000000009d01ee58      0x290 output\ethernet.o
                0x000000009d01ee58                init_ethernet
                0x000000009d01ee60                init_ethernet_Asynch
                0x000000009d01ef98                do_ethernet
                0x000000009d01effc                isr_ethernet_1ms
                0x000000009d01f028                deinit_ethernet
                0x000000009d01f068                ethernet_set_mac_address
                0x000000009d01f0e0                ethernet_is_initialized
 .text          0x000000009d01f0e8      0x27c output\noinitram.o
                0x000000009d01f158                noinitram_IsValid
                0x000000009d01f1f4                noinitram_getByte
                0x000000009d01f264                noinitram_getByteArray
                0x000000009d01f2f4                noinitram_setByte
                0x000000009d01f31c                noinitram_setByteArray

.text           0x000000009d01f364      0x278
 .text          0x000000009d01f364      0x278 output\Announce.o
                0x000000009d01f364                AnnounceIP
                0x000000009d01f45c                DiscoveryTask

.text.fpsubadd  0x000000009d01f5dc      0x278
 .text.fpsubadd
                0x000000009d01f5dc      0x278 c:/program files/microchip/xc32/v4.20/bin/bin/../../lib/gcc/pic32mx/8.3.1/../../../../pic32mx/lib\libm.a(fp32subadd.o)
                0x000000009d01f5dc                fpsub
                0x000000009d01f5dc                __subsf3
                0x000000009d01f5e4                __addsf3
                0x000000009d01f5e4                fpadd

.text           0x000000009d01f854      0x260
 .text          0x000000009d01f854      0x260 output\ringBuffer.o
                0x000000009d01f854                ringBuffer_initBuffer
                0x000000009d01f8b8                ringBuffer_getFillness
                0x000000009d01f8e8                ringBuffer_getEmptyness
                0x000000009d01f920                ringBuffer_addItem
                0x000000009d01f964                ringBuffer_getItem
                0x000000009d01f9c8                ringBuffer_readItem
                0x000000009d01fa2c                ringBuffer_addBuffer
                0x000000009d01fa70                ringBuffer_getBuffer

.text.fp32div   0x000000009d01fab4      0x230
 .text.fp32div  0x000000009d01fab4      0x230 c:/program files/microchip/xc32/v4.20/bin/bin/../../lib/gcc/pic32mx/8.3.1/../../../../pic32mx/lib\libm.a(fp32div.o)
                0x000000009d01fab4                fpdiv
                0x000000009d01fab4                __divsf3

.text           0x000000009d01fce4      0x42c
 .text          0x000000009d01fce4      0x22c output\usb_grbl_multi.o
                0x000000009d01fce4                init_serial_grbl_usb_multi
                0x000000009d01fd24                isr_serial_grbl_usb_multi_1ms
                0x000000009d01fd2c                isCharInBuffer_grbl_usb_multi
                0x000000009d01fd54                isCharOutBuffer_grbl_usb_multi
                0x000000009d01fd7c                do_serial_grbl_usb_multi
                0x000000009d01fea0                getChar_grbl_usb_multi
                0x000000009d01fed8                putChar_grbl_usb_multi
 .text          0x000000009d01ff10      0x200 output\IP.o
                0x000000009d01ff58                IPGetHeader
                0x000000009d02003c                IPPutHeader
                0x000000009d020100                IPSetRxBuffer

.text           0x000000009d020110      0x1e8
 .text          0x000000009d020110      0x1e8 output\main.o
                0x000000009d020140                main
                0x000000009d02026c                isr_main_1ms
                0x000000009d0202f0                isr_main_100us

.text.fp32mul   0x000000009d0202f8      0x1bc
 .text.fp32mul  0x000000009d0202f8      0x1bc c:/program files/microchip/xc32/v4.20/bin/bin/../../lib/gcc/pic32mx/8.3.1/../../../../pic32mx/lib\libm.a(fp32mul.o)
                0x000000009d0202f8                fpmul
                0x000000009d0202f8                __mulsf3

.text.libm      0x000000009d0204b4      0x1b8
 .text.libm     0x000000009d0204b4      0x1b8 c:/program files/microchip/xc32/v4.20/bin/bin/../../lib/gcc/pic32mx/8.3.1/../../../../pic32mx/lib\libm.a(reduct32.o)
                0x000000009d0204b4                reduct

.text           0x000000009d02066c      0x1a8
 .text          0x000000009d02066c      0x1a8 output\Reboot.o
                0x000000009d02066c                RebootTask

.text.libm      0x000000009d020814      0x1a4
 .text.libm     0x000000009d020814      0x1a4 c:/program files/microchip/xc32/v4.20/bin/bin/../../lib/gcc/pic32mx/8.3.1/../../../../pic32mx/lib\libm.a(cos32.o)
                0x000000009d020814                dpcos
                0x000000009d020814                cosl
                0x000000009d020814                cos

.text           0x000000009d03fe64      0x19c
 .text          0x000000009d03fe64      0x19c output\grbl_running.o
                0x000000009d03fe64                init_grbl_running
                0x000000009d03fe98                do_grbl_running
                0x000000009d03ffd4                isr_grbl_running_1ms

.text           0x000000009d0209b8      0x30c
 .text          0x000000009d0209b8      0x19c c:/program files/microchip/xc32/v4.20/bin/bin/../../lib/gcc/pic32mx/8.3.1/../../../../pic32mx/lib\libm.a(sin32.o)
                0x000000009d0209b8                sinl
                0x000000009d0209b8                sin
                0x000000009d0209b8                dpsin
 .text          0x000000009d020b54      0x170 output\exceptions.o
                0x000000009d020b54                _general_exception_handler
                0x000000009d020c58                init_exception
                0x000000009d020cac                do_exception_examples
                0x000000009d020cb4                exceptions_clearException
                0x000000009d020cbc                exceptions_getException

.text.libm      0x000000009d020cc4      0x16c
 .text.libm     0x000000009d020cc4      0x16c c:/program files/microchip/xc32/v4.20/bin/bin/../../lib/gcc/pic32mx/8.3.1/../../../../pic32mx/lib\libm.a(dpldexp.o)
                0x000000009d020cc4                ldexp
                0x000000009d020cc4                dpldexp
                0x000000009d020cc4                __mchp_ldexp

.text           0x000000009d020e30      0x2d0
 .text          0x000000009d020e30      0x168 c:/program files/microchip/xc32/v4.20/bin/bin/../../lib/gcc/pic32mx/8.3.1/../../../../pic32mx/lib\libpic32.a(memcpy.o)
                0x000000009d020e30                memcpy
 .text          0x000000009d020f98      0x168 c:/program files/microchip/xc32/v4.20/bin/bin/../../lib/gcc/pic32mx/8.3.1/../../../../pic32mx/lib\libpic32.a(strlen.o)
                0x000000009d020f98                strlen

.text           0x000000009d021100      0x2b4
 .text          0x000000009d021100      0x160 output\usb.o
                0x000000009d021100                init_usb
                0x000000009d021128                do_usb
                0x000000009d021130                isr_usb
                0x000000009d021138                isr_usb_1ms
                0x000000009d021140                deinit_usb
                0x000000009d021174                USBCBSuspend
                0x000000009d02117c                USBCBWakeFromSuspend
                0x000000009d021184                USBCB_SOF_Handler
                0x000000009d02118c                USBCBErrorHandler
                0x000000009d021194                USBCBCheckOtherReq
                0x000000009d02119c                USBCBStdSetDscHandler
                0x000000009d0211a4                USBCBInitEP
                0x000000009d0211ac                USBCBSendResume
                0x000000009d021214                USER_USB_CALLBACK_EVENT_HANDLER
 .text          0x000000009d021260      0x154 output\grbl_toolchange.o
                0x000000009d021260                init_grbl_toolchange
                0x000000009d021280                do_grbl_toolchange
                0x000000009d02136c                isr_grbl_toolchange_1ms
                0x000000009d02137c                setToolChangeRunning
                0x000000009d0213a4                updateToolChangeRunning
                0x000000009d0213ac                isToolChangeRunning

.text           0x000000009d0213b4      0x150
 .text          0x000000009d0213b4      0x150 output\eep_manager_crc.o
                0x000000009d0213b4                calculate_eep_manager_crc
                0x000000009d0213f4                calculate_eep_manager_xor
                0x000000009d021424                calculate_eep_manager_sum
                0x000000009d021458                calculate_eep_manager_crc32
                0x000000009d0214b0                calculate_eep_manager_crc32_special

.rodata         0x000000009d021504      0x13c
 .rodata        0x000000009d021504      0x13c output\c_eep_manager.o
                0x000000009d021504                default_grbl_Tool_Length_2
                0x000000009d021508                default_grbl_Tool_Length_1
                0x000000009d02150c                default_SerializedMACAddress
                0x000000009d021514                default_grbl_running_spindle_running_minutes
                0x000000009d021518                default_grbl_running_startup_cnt
                0x000000009d02151c                default_grbl_running_running_hours
                0x000000009d021520                default_grbl_running_running_minutes
                0x000000009d021524                default_coord_offset_eep
                0x000000009d021530                default_coord_system_eep
                0x000000009d02153c                default_sys_position
                0x000000009d021548                default_eep_coord_teached
                0x000000009d021554                default_eep_coord_data
                0x000000009d0215cc                default_eep_settings
                0x000000009d02163c                default_eep_settings_version

.text           0x000000009d021640      0x138
 .text          0x000000009d021640      0x138 output\grbl_multi.o
                0x000000009d021690                init_serial_grbl
                0x000000009d0216ac                do_serial_grbl
                0x000000009d0216c8                isr_serial_grbl_1ms
                0x000000009d0216e4                getChar_grbl
                0x000000009d02172c                putChar_grbl

.text.dpcmp     0x000000009d021778      0x12c
 .text.dpcmp    0x000000009d021778      0x12c c:/program files/microchip/xc32/v4.20/bin/bin/../../lib/gcc/pic32mx/8.3.1/../../../../pic32mx/lib\libm.a(dpcmp.o)
                0x000000009d021778                __gtdf2
                0x000000009d021778                dpcmp
                0x000000009d021778                __nedf2
                0x000000009d021778                __gedf2
                0x000000009d021778                __eqdf2

.text.dfcmplt   0x000000009d0218a4      0x12c
 .text.dfcmplt  0x000000009d0218a4      0x12c c:/program files/microchip/xc32/v4.20/bin/bin/../../lib/gcc/pic32mx/8.3.1/../../../../pic32mx/lib\libm.a(dpcmplt.o)
                0x000000009d0218a4                __ltdf2
                0x000000009d0218a4                __ledf2
                0x000000009d0218a4                dpcmplt

.text           0x000000009d0219d0      0x120
 .text          0x000000009d0219d0      0x120 c:/program files/microchip/xc32/v4.20/bin/bin/../../lib/gcc/pic32mx/8.3.1/../../../../pic32mx/lib\libpic32.a(strcmp.o)
                0x000000009d0219d0                strcmp

.text.logbl     0x000000009d021af0      0x120
 .text.logbl    0x000000009d021af0      0x120 c:/program files/microchip/xc32/v4.20/bin/bin/../../lib/gcc/pic32mx/8.3.1/../../../../pic32mx/lib\libm.a(support.o)
                0x000000009d021af0                logbl

.text.libm      0x000000009d021c10      0x10c
 .text.libm     0x000000009d021c10      0x10c c:/program files/microchip/xc32/v4.20/bin/bin/../../lib/gcc/pic32mx/8.3.1/../../../../pic32mx/lib\libm.a(sigmax.o)
                0x000000009d021c10                sigmax

.text           0x000000009d021d1c      0x108
 .text          0x000000009d021d1c      0x108 c:/program files/microchip/xc32/v4.20/bin/bin/../../lib/gcc/pic32mx/8.3.1/../../../../pic32mx/lib\libm.a(floor32.o)
                0x000000009d021d1c                floor
                0x000000009d021d1c                floorl
                0x000000009d021d1c                dpfloor

.rodata         0x000000009d021e24      0x100
 .rodata        0x000000009d021e24      0x100 output\eep_manager_crc.o
                0x000000009d021e24                crcTableEepManager

.text.libm      0x000000009d021f24      0x100
 .text.libm     0x000000009d021f24      0x100 c:/program files/microchip/xc32/v4.20/bin/bin/../../lib/gcc/pic32mx/8.3.1/../../../../pic32mx/lib\libm.a(ceil32.o)
                0x000000009d021f24                dpceil
                0x000000009d021f24                ceill
                0x000000009d021f24                ceil

.text.dptofp    0x000000009d022024      0x100
 .text.dptofp   0x000000009d022024      0x100 c:/program files/microchip/xc32/v4.20/bin/bin/../../lib/gcc/pic32mx/8.3.1/../../../../pic32mx/lib\libm.a(dptofp.o)
                0x000000009d022024                __truncdfsf2
                0x000000009d022024                dptofp

.text.libm.fpexsqrt
                0x000000009d022124       0xfc
 .text.libm.fpexsqrt
                0x000000009d022124       0xfc c:/program files/microchip/xc32/v4.20/bin/bin/../../lib/gcc/pic32mx/8.3.1/../../../../pic32mx/lib\libm.a(fpexsqrt32.o)
                0x000000009d022124                fpexsqrt

.text           0x000000009d022220      0x1e0
 .text          0x000000009d022220       0xf4 output\ad.o
                0x000000009d022220                init_ad
                0x000000009d02228c                do_ad
                0x000000009d0222d4                isr_ad_1ms
                0x000000009d022300                getAd
 .text          0x000000009d022314       0xec output\system_exec.o
                0x000000009d022314                init_system_exec
                0x000000009d022320                system_set_exec_state_flag
                0x000000009d02236c                system_clear_exec_state_flag
                0x000000009d0223bc                system_get_exec_state_flag

.text           0x000000009d022400      0x1d0
 .text          0x000000009d022400       0xec output\ICMP.o
                0x000000009d022400                ICMPProcess
 .text          0x000000009d0224ec       0xe4 output\grbl_bootloader.o
                0x000000009d0224ec                init_grbl_bootloader
                0x000000009d0224f8                do_grbl_bootloader
                0x000000009d0225b0                isr_grbl_bootloader_1ms
                0x000000009d0225c0                grbl_bootloader_trigger

.text.general_exception
                0x000000009d0225d0       0xdc
 .text.general_exception
                0x000000009d0225d0       0xdc c:/program files/microchip/xc32/v4.20/bin/bin/../../lib/gcc/pic32mx/8.3.1/../../../../pic32mx/lib\libpic32.a(general-exception.o)
                0x000000009d0225d0                _general_exception_context

.text           0x000000009d0226ac       0xd8
 .text          0x000000009d0226ac       0xd8 output\system_alarm.o
                0x000000009d0226ac                init_system_alarm
                0x000000009d0226b8                system_set_exec_alarm
                0x000000009d0226fc                system_get_exec_alarm
                0x000000009d022740                system_clear_exec_alarm

.rodata         0x000000009d022784       0xd4
 .rodata        0x000000009d022784       0xd4 output\usb_descriptors.o
                0x000000009d022784                USB_SD_Ptr
                0x000000009d022790                USB_CD_Ptr
                0x000000009d022794                sd002
                0x000000009d0227c8                sd001
                0x000000009d0227fc                sd000
                0x000000009d022800                configDescriptor1
                0x000000009d022844                device_dsc

.text.libm      0x000000009d022858       0xd0
 .text.libm     0x000000009d022858       0xd0 c:/program files/microchip/xc32/v4.20/bin/bin/../../lib/gcc/pic32mx/8.3.1/../../../../pic32mx/lib\libm.a(exmul.o)
                0x000000009d022858                exmul

.text           0x000000009d022928       0xc8
 .text          0x000000009d022928       0xc8 output\jog.o
                0x000000009d022928                jog_execute

.rodata.cst8    0x000000009d0229f0       0xc8
 .rodata.cst8   0x000000009d0229f0       0xc8 c:/program files/microchip/xc32/v4.20/bin/bin/../../lib/gcc/pic32mx/8.3.1/../../../../pic32mx/lib\libm.a(atan2.o)

.text           0x000000009d022ab8       0xbc
 .text          0x000000009d022ab8       0xbc output\bootloader_interface.o
                0x000000009d022ab8                bootloader_interface_clearRequest
                0x000000009d022ad0                bootloader_interface_setRequest
                0x000000009d022af4                bootloader_get_bootloader_was_reset_called
                0x000000009d022b08                bootloader_reset
                0x000000009d022b20                bootloader_write_mac

.text.fptodp    0x000000009d022b74       0xac
 .text.fptodp   0x000000009d022b74       0xac c:/program files/microchip/xc32/v4.20/bin/bin/../../lib/gcc/pic32mx/8.3.1/../../../../pic32mx/lib\libm.a(fptodp.o)
                0x000000009d022b74                fptodp
                0x000000009d022b74                __extendsfdf2

.text           0x000000009d022c20      0x14c
 .text          0x000000009d022c20       0xa8 c:/program files/microchip/xc32/v4.20/bin/bin/../../lib/gcc/pic32mx/8.3.1/../../../../pic32mx/lib\libpic32.a(memset.o)
                0x000000009d022c20                memset
 .text          0x000000009d022cc8       0xa4 c:/program files/microchip/xc32/v4.20/bin/bin/../../lib/gcc/pic32mx/8.3.1\libgcc.a(_fixunssfdi.o)
                0x000000009d022cc8                __fixunssfdi

.text.fpcmp     0x000000009d022d6c       0x9c
 .text.fpcmp    0x000000009d022d6c       0x9c c:/program files/microchip/xc32/v4.20/bin/bin/../../lib/gcc/pic32mx/8.3.1/../../../../pic32mx/lib\libm.a(fpcmp.o)
                0x000000009d022d6c                __gtsf2
                0x000000009d022d6c                __eqsf2
                0x000000009d022d6c                fpcmp
                0x000000009d022d6c                __gesf2
                0x000000009d022d6c                __nesf2

.text.fpcmplt   0x000000009d022e08       0x9c
 .text.fpcmplt  0x000000009d022e08       0x9c c:/program files/microchip/xc32/v4.20/bin/bin/../../lib/gcc/pic32mx/8.3.1/../../../../pic32mx/lib\libm.a(fpcmplt.o)
                0x000000009d022e08                fpcmplt
                0x000000009d022e08                __ltsf2
                0x000000009d022e08                __lesf2

.text           0x000000009d022ea4      0x130
 .text          0x000000009d022ea4       0x98 output\stackmeasure.o
                0x000000009d022ea4                init_stackmeasure
                0x000000009d022ed0                do_stackmeasure
                0x000000009d022f24                getStackFillnessMax
                0x000000009d022f2c                getStackSize
 .text          0x000000009d022f3c       0x98 c:/program files/microchip/xc32/v4.20/bin/bin/../../lib/gcc/pic32mx/8.3.1/../../../../pic32mx/lib\libpic32.a(memcmp.o)
                0x000000009d022f3c                memcmp

.text.dptoli    0x000000009d022fd4       0x90
 .text.dptoli   0x000000009d022fd4       0x90 c:/program files/microchip/xc32/v4.20/bin/bin/../../lib/gcc/pic32mx/8.3.1/../../../../pic32mx/lib\libm.a(dptoli.o)
                0x000000009d022fd4                dptoli
                0x000000009d022fd4                __fixdfsi

.text.dptoul    0x000000009d023064       0x8c
 .text.dptoul   0x000000009d023064       0x8c c:/program files/microchip/xc32/v4.20/bin/bin/../../lib/gcc/pic32mx/8.3.1/../../../../pic32mx/lib\libm.a(dptoul.o)
                0x000000009d023064                dptoul
                0x000000009d023064                __fixunsdfsi

.text.copysignf
                0x000000009d0230f0       0x8c
 .text.copysignf
                0x000000009d0230f0       0x8c c:/program files/microchip/xc32/v4.20/bin/bin/../../lib/gcc/pic32mx/8.3.1/../../../../pic32mx/lib\libm.a(support.o)
                0x000000009d0230f0                copysignf

.text.isinff    0x000000009d02317c       0x88
 .text.isinff   0x000000009d02317c       0x88 c:/program files/microchip/xc32/v4.20/bin/bin/../../lib/gcc/pic32mx/8.3.1/../../../../pic32mx/lib\libpic32.a(isinf.o)
                0x000000009d02317c                isinff

.text.sqrtl     0x000000009d023204       0x84
 .text.sqrtl    0x000000009d023204       0x84 c:/program files/microchip/xc32/v4.20/bin/bin/../../lib/gcc/pic32mx/8.3.1/../../../../pic32mx/lib\libm.a(w_sqrt.o)
                0x000000009d023204                sqrtl

.text.dinit.startup
                0x000000009d023288       0x80
 .text.dinit.startup
                0x000000009d023288       0x80 c:/program files/microchip/xc32/v4.20/bin/bin/../../lib/gcc/pic32mx/8.3.1/../../../../pic32mx/lib\libpic32.a(pic32_data_init_0_1.o)
                0x000000009d023288                __copy_needed
                0x000000009d023288                __pic32_data_init_impl

.text.fptoli    0x000000009d023308       0x80
 .text.fptoli   0x000000009d023308       0x80 c:/program files/microchip/xc32/v4.20/bin/bin/../../lib/gcc/pic32mx/8.3.1/../../../../pic32mx/lib\libm.a(fptoli.o)
                0x000000009d023308                fptoli
                0x000000009d023308                fptosi
                0x000000009d023308                __fixsfsi

.text.dremf     0x000000009d023388       0x80
 .text.dremf    0x000000009d023388       0x80 c:/program files/microchip/xc32/v4.20/bin/bin/../../lib/gcc/pic32mx/8.3.1/../../../../pic32mx/lib\libm.a(support.o)
                0x000000009d023388                dremf

.text.isinf     0x000000009d023408       0x80
 .text.isinf    0x000000009d023408       0x80 c:/program files/microchip/xc32/v4.20/bin/bin/../../lib/gcc/pic32mx/8.3.1/../../../../pic32mx/lib\libpic32.a(isinf.o)
                0x000000009d023408                isinf

.text.fptoul    0x000000009d023488       0x7c
 .text.fptoul   0x000000009d023488       0x7c c:/program files/microchip/xc32/v4.20/bin/bin/../../lib/gcc/pic32mx/8.3.1/../../../../pic32mx/lib\libm.a(fptoul.o)
                0x000000009d023488                __fixunssfsi
                0x000000009d023488                fptoul
                0x000000009d023488                fptoui

.text.litodp    0x000000009d023504       0x78
 .text.litodp   0x000000009d023504       0x78 c:/program files/microchip/xc32/v4.20/bin/bin/../../lib/gcc/pic32mx/8.3.1/../../../../pic32mx/lib\libm.a(litodp.o)
                0x000000009d023504                litodp
                0x000000009d023504                __floatsidf

.text           0x000000009d02357c       0xe8
 .text          0x000000009d02357c       0x74 output\app.o
                0x000000009d02357c                init_app
                0x000000009d023584                do_app
                0x000000009d0235bc                isr_app_1ms
                0x000000009d0235c8                isr_app_100us
                0x000000009d0235d0                isr_app_custom
                0x000000009d0235d8                backToSleep
                0x000000009d0235e0                eepManager_NotifyUserFailedRead
                0x000000009d0235e8                app_get_noinitram_tester
 .text          0x000000009d0235f0       0x74 c:/program files/microchip/xc32/v4.20/bin/bin/../../lib/gcc/pic32mx/8.3.1\libgcc.a(_floatundidf.o)
                0x000000009d0235f0                __floatundidf

.text           0x000000009d023670       0x70
 .text          0x000000009d023670       0x70 output\stackmeasure_helper.o
                0x000000009d023670                fill_stack
                0x000000009d02369c                stack_usage

.text.ldexpl    0x000000009d0236e0       0x6c
 .text.ldexpl   0x000000009d0236e0       0x6c c:/program files/microchip/xc32/v4.20/bin/bin/../../lib/gcc/pic32mx/8.3.1/../../../../pic32mx/lib\libm.a(w_ldexp.o)
                0x000000009d0236e0                ldexpl

.text.__unorddf2
                0x000000009d02374c       0x68
 .text.__unorddf2
                0x000000009d02374c       0x68 c:/program files/microchip/xc32/v4.20/bin/bin/../../lib/gcc/pic32mx/8.3.1/../../../../pic32mx/lib\libe.a(_unorddf2.o)
                0x000000009d02374c                __unorddf2

.text.sitofp    0x000000009d0237b4       0x60
 .text.sitofp   0x000000009d0237b4       0x60 c:/program files/microchip/xc32/v4.20/bin/bin/../../lib/gcc/pic32mx/8.3.1/../../../../pic32mx/lib\libm.a(sitofp.o)
                0x000000009d0237b4                __floatsisf
                0x000000009d0237b4                litofp
                0x000000009d0237b4                sitofp

.text.main_entry
                0x000000009d023814       0x54
 .text.main_entry
                0x000000009d023814       0x54 C:\Users\kyrk\AppData\Local\Temp\ccC6iq7L.o
                0x000000009d023848                __crt0_exit

.text.stpncpy   0x000000009d023868       0x4c
 .text.stpncpy  0x000000009d023868       0x4c c:/program files/microchip/xc32/v4.20/bin/bin/../../lib/gcc/pic32mx/8.3.1/../../../../pic32mx/lib\libc-musl.a(stpncpy.o)
                0x000000009d023868                __stpncpy
                0x000000009d023868                stpncpy

.rodata.cst4    0x000000009d0238b4       0x48
 .rodata.cst4   0x000000009d0238b4       0x48 output\settings.o

.text           0x000000009d0238fc       0x48
 .text          0x000000009d0238fc       0x48 c:/program files/microchip/xc32/v4.20/bin/bin/../../lib/gcc/pic32mx/8.3.1\libgcc.a(floatunsisf.o)
                0x000000009d0238fc                __floatunsisf

.text._bootstrap_exception_handler
                0x000000009d023944       0x48
 .text._bootstrap_exception_handler
                0x000000009d023944       0x48 c:/program files/microchip/xc32/v4.20/bin/bin/../../lib/gcc/pic32mx/8.3.1/../../../../pic32mx/lib\libpic32.a(default-bootstrap-exception-handler.o)
                0x000000009d023944                _bootstrap_exception_handler

.vector_default
                0x000000009d02398c       0x48
 .vector_default
                0x000000009d02398c       0x48 c:/program files/microchip/xc32/v4.20/bin/bin/../../lib/gcc/pic32mx/8.3.1/../../../../pic32mx/lib\libpic32.a(defaultinterrupt.o)
                0x000000009d02398c                _DefaultInterrupt

.text.strncmp   0x000000009d0239d4       0x48
 .text.strncmp  0x000000009d0239d4       0x48 c:/program files/microchip/xc32/v4.20/bin/bin/../../lib/gcc/pic32mx/8.3.1/../../../../pic32mx/lib\libc-musl.a(strncmp.o)
                0x000000009d0239d4                strncmp

.rodata.str1.4  0x000000009d023a1c       0x44
 .rodata.str1.4
                0x000000009d023a1c       0x44 output\grbl_protocol.o

.text           0x000000009d023a60       0x84
 .text          0x000000009d023a60       0x44 c:/program files/microchip/xc32/v4.20/bin/bin/../../lib/gcc/pic32mx/8.3.1/../../../../pic32mx/lib\pic32_software_reset.o
                0x000000009d023a60                __pic32_software_reset
 .text          0x000000009d023aa4       0x40 c:/program files/microchip/xc32/v4.20/bin/bin/../../lib/gcc/pic32mx/8.3.1\libgcc.a(floatunsidf.o)
                0x000000009d023aa4                __floatunsidf

.text.logbf     0x000000009d023ae4       0x3c
 .text.logbf    0x000000009d023ae4       0x3c c:/program files/microchip/xc32/v4.20/bin/bin/../../lib/gcc/pic32mx/8.3.1/../../../../pic32mx/lib\libm.a(support.o)
                0x000000009d023ae4                logbf

.text.finitef   0x000000009d023b20       0x34
 .text.finitef  0x000000009d023b20       0x34 c:/program files/microchip/xc32/v4.20/bin/bin/../../lib/gcc/pic32mx/8.3.1/../../../../pic32mx/lib\libm.a(support.o)
                0x000000009d023b20                finitef

.text.isnanf    0x000000009d023b54       0x34
 .text.isnanf   0x000000009d023b54       0x34 c:/program files/microchip/xc32/v4.20/bin/bin/../../lib/gcc/pic32mx/8.3.1/../../../../pic32mx/lib\libpic32.a(isinf.o)
                0x000000009d023b54                isnanf

.text           0x000000009d023b88       0x30
 .text          0x000000009d023b88       0x30 output\coolant_control.o
                0x000000009d023b88                coolant_init
                0x000000009d023b90                coolant_get_state
                0x000000009d023b98                coolant_stop
                0x000000009d023ba0                coolant_set_state
                0x000000009d023bac                coolant_sync

.rodata.cst8    0x000000009d023bb8       0x30
 .rodata.cst8   0x000000009d023bb8       0x30 output\motion_control.o

.text.copysign  0x000000009d023be8       0x30
 .text.copysign
                0x000000009d023be8       0x30 c:/program files/microchip/xc32/v4.20/bin/bin/../../lib/gcc/pic32mx/8.3.1/../../../../pic32mx/lib\libm.a(support.o)
                0x000000009d023be8                copysign

.text.copysignl
                0x000000009d023c18       0x2c
 .text.copysignl
                0x000000009d023c18       0x2c c:/program files/microchip/xc32/v4.20/bin/bin/../../lib/gcc/pic32mx/8.3.1/../../../../pic32mx/lib\libm.a(support.o)
                0x000000009d023c18                copysignl

.rodata.cst8    0x000000009d023c48       0x28
 .rodata.cst8   0x000000009d023c48       0x28 output\planner.o

.rodata.cst4    0x000000009d023c70       0x28
 .rodata.cst4   0x000000009d023c70       0x28 output\pwm.o

.text.strncpy   0x000000009d023c98       0x28
 .text.strncpy  0x000000009d023c98       0x28 c:/program files/microchip/xc32/v4.20/bin/bin/../../lib/gcc/pic32mx/8.3.1/../../../../pic32mx/lib\libc-musl.a(strncpy.o)
                0x000000009d023c98                strncpy

.text.isnanl    0x000000009d023cc0       0x24
 .text.isnanl   0x000000009d023cc0       0x24 c:/program files/microchip/xc32/v4.20/bin/bin/../../lib/gcc/pic32mx/8.3.1/../../../../pic32mx/lib\libpic32.a(isinf.o)
                0x000000009d023cc0                isnanl

.text.isnan     0x000000009d023ce4       0x24
 .text.isnan    0x000000009d023ce4       0x24 c:/program files/microchip/xc32/v4.20/bin/bin/../../lib/gcc/pic32mx/8.3.1/../../../../pic32mx/lib\libpic32.a(isinf.o)
                0x000000009d023ce4                isnan

.text.isinfl    0x000000009d023d08       0x24
 .text.isinfl   0x000000009d023d08       0x24 c:/program files/microchip/xc32/v4.20/bin/bin/../../lib/gcc/pic32mx/8.3.1/../../../../pic32mx/lib\libpic32.a(isinf.o)
                0x000000009d023d08                isinfl

.rodata         0x000000009d023d2c       0x20
 .rodata        0x000000009d023d2c       0x20 output\TCP.o
                0x000000009d023d2c                TCPSocketInitializer

.text.dinit.startup
                0x000000009d023d4c       0x20
 .text.dinit.startup
                0x000000009d023d4c       0x20 c:/program files/microchip/xc32/v4.20/bin/bin/../../lib/gcc/pic32mx/8.3.1/../../../../pic32mx/lib\libpic32.a(pic32_data_init_wrapper.o)
                0x000000009d023d4c                __pic32_data_init

.rodata.cst8    0x000000009d023d70       0x20
 .rodata.cst8   0x000000009d023d70       0x20 c:/program files/microchip/xc32/v4.20/bin/bin/../../lib/gcc/pic32mx/8.3.1/../../../../pic32mx/lib\libm.a(support.o)

.rodata.str1.4  0x000000009d008174       0x1c
 .rodata.str1.4
                0x000000009d008174       0x1c output\Announce.o

.text.logb      0x000000009d023d90       0x1c
 .text.logb     0x000000009d023d90       0x1c c:/program files/microchip/xc32/v4.20/bin/bin/../../lib/gcc/pic32mx/8.3.1/../../../../pic32mx/lib\libm.a(support.o)
                0x000000009d023d90                logb

.text.drem      0x000000009d023dac       0x1c
 .text.drem     0x000000009d023dac       0x1c c:/program files/microchip/xc32/v4.20/bin/bin/../../lib/gcc/pic32mx/8.3.1/../../../../pic32mx/lib\libm.a(support.o)
                0x000000009d023dac                drem

.MIPS.abiflags  0x000000009d023dc8       0x18
 .MIPS.abiflags
                0x000000009d023dc8       0x18 c:/program files/microchip/xc32/v4.20/bin/bin/../../lib/gcc/pic32mx/8.3.1/../../../../pic32mx/lib\debug-exception-return.o

.rodata.cst8    0x000000009d023de0       0x18
 .rodata.cst8   0x000000009d023de0       0x18 output\nuts_bolts.o

.rodata.cst4    0x000000009d023df8       0x18
 .rodata.cst4   0x000000009d023df8       0x18 output\nuts_bolts.o

.rodata.str1.4  0x000000009d023e10       0x18
 .rodata.str1.4
                0x000000009d023e10       0x18 output\grbl_eeprom.o

.text           0x000000009d023e28       0x18
 .text          0x000000009d023e28       0x18 c:/program files/microchip/xc32/v4.20/bin/bin/../../lib/gcc/pic32mx/8.3.1/../../../../pic32mx/lib\libpic32.a(default-nmi-handler.o)
                0x000000009d023e28                _nmi_handler

.rodata.cst4    0x000000009d00814c       0x14
 .rodata.cst4   0x000000009d00814c       0x14 output\motion_control.o

.rodata.cst4    0x000000009d00812c       0x14
 .rodata.cst4   0x000000009d00812c       0x14 output\stepper.o

.text.finitel   0x000000009d00810c       0x14
 .text.finitel  0x000000009d00810c       0x14 c:/program files/microchip/xc32/v4.20/bin/bin/../../lib/gcc/pic32mx/8.3.1/../../../../pic32mx/lib\libm.a(support.o)
                0x000000009d00810c                finitel

.text.finite    0x000000009d023e40       0x14
 .text.finite   0x000000009d023e40       0x14 c:/program files/microchip/xc32/v4.20/bin/bin/../../lib/gcc/pic32mx/8.3.1/../../../../pic32mx/lib\libm.a(support.o)
                0x000000009d023e40                finite

.rodata         0x000000009d023e54       0x10
 .rodata        0x000000009d023e54       0x10 output\exceptions.o

.rodata.cst8    0x000000009d023e68       0x20
 .rodata.cst8   0x000000009d023e68       0x10 output\grbl_gcode.o
 .rodata.cst8   0x000000009d023e78       0x10 output\stepper.o

.rodata.cst8    0x000000009d023e88       0x10
 .rodata.cst8   0x000000009d023e88       0x10 c:/program files/microchip/xc32/v4.20/bin/bin/../../lib/gcc/pic32mx/8.3.1\libgcc.a(_fixunssfdi.o)

.rodata.cst4    0x000000009d0080f4        0xc
 .rodata.cst4   0x000000009d0080f4        0xc output\grbl_gcode.o

.rodata.cst4    0x000000009d023664        0xc
 .rodata.cst4   0x000000009d023664        0xc output\print.o

.rodata.cst4    0x000000009d023e98        0xc
 .rodata.cst4   0x000000009d023e98        0xc output\spindle_control.o

.rodata.str1.4  0x000000009d023ea4        0xc
 .rodata.str1.4
                0x000000009d023ea4        0xc output\ethernet.o

.rodata.cst8    0x000000009d023eb0        0x8
 .rodata.cst8   0x000000009d023eb0        0x8 output\grbl_limits.o

.rodata.cst4    0x000000009d023eb8        0x8
 .rodata.cst4   0x000000009d023eb8        0x8 output\planner.o

.rodata.cst8    0x000000009d023ec0       0x10
 .rodata.cst8   0x000000009d023ec0        0x8 output\print.o
 .rodata.cst8   0x000000009d023ec8        0x8 c:/program files/microchip/xc32/v4.20/bin/bin/../../lib/gcc/pic32mx/8.3.1\libgcc.a(_floatundidf.o)

.rodata.cst8    0x000000009d023ed0        0x8
 .rodata.cst8   0x000000009d023ed0        0x8 c:/program files/microchip/xc32/v4.20/bin/bin/../../lib/gcc/pic32mx/8.3.1\libgcc.a(floatunsidf.o)

.text._on_reset
                0x000000009d023ed8        0x8
 .text._on_reset
                0x000000009d023ed8        0x8 c:/program files/microchip/xc32/v4.20/bin/bin/../../lib/gcc/pic32mx/8.3.1/../../../../pic32mx/lib\libpic32.a(default-on-reset.o)
                0x000000009d023ed8                _on_reset

.text._on_bootstrap
                0x000000009d023ee0        0x8
 .text._on_bootstrap
                0x000000009d023ee0        0x8 c:/program files/microchip/xc32/v4.20/bin/bin/../../lib/gcc/pic32mx/8.3.1/../../../../pic32mx/lib\libpic32.a(default-on-bootstrap.o)
                0x000000009d023ee0                _on_bootstrap

.rodata.cst8    0x000000009d023ee8        0x8
 .rodata.cst8   0x000000009d023ee8        0x8 c:/program files/microchip/xc32/v4.20/bin/bin/../../lib/gcc/pic32mx/8.3.1/../../../../pic32mx/lib\libpic32.a(isinf.o)

.rodata.cst4    0x000000009d023c44        0x4
 .rodata.cst4   0x000000009d023c44        0x4 output\grbl_limits.o

.rodata.cst4    0x000000009d023d6c        0x4
 .rodata.cst4   0x000000009d023d6c        0x4 output\report.o

.rodata.cst4    0x000000009d023e64        0x4
 .rodata.cst4   0x000000009d023e64        0x4 output\grbl_protocol.o

.text%z307      0x0000000000000000        0x0
 .text          0x0000000000000000        0x0 c:/program files/microchip/xc32/v4.20/bin/bin/../../lib/gcc/pic32mx/8.3.1/../../../../pic32mx/lib\libe.a(_unorddf2.o)

.text%z308      0x0000000000000000        0x0
 .text          0x0000000000000000        0x0 c:/program files/microchip/xc32/v4.20/bin/bin/../../lib/gcc/pic32mx/8.3.1/../../../../pic32mx/lib\libpic32.a(isinf.o)

.text%z309      0x0000000000000000        0x0
 .text          0x0000000000000000        0x0 c:/program files/microchip/xc32/v4.20/bin/bin/../../lib/gcc/pic32mx/8.3.1/../../../../pic32mx/lib\libpic32.a(errno.o)

.text%z310      0x0000000000000000        0x0
 .text          0x0000000000000000        0x0 c:/program files/microchip/xc32/v4.20/bin/bin/../../lib/gcc/pic32mx/8.3.1/../../../../pic32mx/lib\libm.a(s_lib_ver.o)

.text%z311      0x0000000000000000        0x0
 .text          0x0000000000000000        0x0 c:/program files/microchip/xc32/v4.20/bin/bin/../../lib/gcc/pic32mx/8.3.1/../../../../pic32mx/lib\libm.a(dptoli.o)

.text%z312      0x0000000000000000        0x0
 .text          0x0000000000000000        0x0 c:/program files/microchip/xc32/v4.20/bin/bin/../../lib/gcc/pic32mx/8.3.1/../../../../pic32mx/lib\libm.a(dpldexp.o)

.text%z313      0x0000000000000000        0x0
 .text          0x0000000000000000        0x0 c:/program files/microchip/xc32/v4.20/bin/bin/../../lib/gcc/pic32mx/8.3.1/../../../../pic32mx/lib\libm.a(w_ldexp.o)

.text%z314      0x0000000000000000        0x0
 .text          0x0000000000000000        0x0 c:/program files/microchip/xc32/v4.20/bin/bin/../../lib/gcc/pic32mx/8.3.1/../../../../pic32mx/lib\libm.a(support.o)

.text%z315      0x0000000000000000        0x0
 .text          0x0000000000000000        0x0 c:/program files/microchip/xc32/v4.20/bin/bin/../../lib/gcc/pic32mx/8.3.1/../../../../pic32mx/lib\libm.a(w_sqrt.o)

.text%z316      0x0000000000000000        0x0
 .text          0x0000000000000000        0x0 c:/program files/microchip/xc32/v4.20/bin/bin/../../lib/gcc/pic32mx/8.3.1/../../../../pic32mx/lib\libm.a(atan2.o)

.text%z317      0x0000000000000000        0x0
 .text          0x0000000000000000        0x0 c:/program files/microchip/xc32/v4.20/bin/bin/../../lib/gcc/pic32mx/8.3.1/../../../../pic32mx/lib\libm.a(sitofp.o)

.text%z318      0x0000000000000000        0x0
 .text          0x0000000000000000        0x0 c:/program files/microchip/xc32/v4.20/bin/bin/../../lib/gcc/pic32mx/8.3.1/../../../../pic32mx/lib\libm.a(sincos32.o)

.text.libm%z319
                0x0000000000000000        0x0
 .text.libm     0x0000000000000000        0x0 c:/program files/microchip/xc32/v4.20/bin/bin/../../lib/gcc/pic32mx/8.3.1/../../../../pic32mx/lib\libm.a(sin32.o)

.text%z320      0x0000000000000000        0x0
 .text          0x0000000000000000        0x0 c:/program files/microchip/xc32/v4.20/bin/bin/../../lib/gcc/pic32mx/8.3.1/../../../../pic32mx/lib\libm.a(sigmax.o)

.text%z321      0x0000000000000000        0x0
 .text          0x0000000000000000        0x0 c:/program files/microchip/xc32/v4.20/bin/bin/../../lib/gcc/pic32mx/8.3.1/../../../../pic32mx/lib\libm.a(reduct32.o)

.text%z322      0x0000000000000000        0x0
 .text          0x0000000000000000        0x0 c:/program files/microchip/xc32/v4.20/bin/bin/../../lib/gcc/pic32mx/8.3.1/../../../../pic32mx/lib\libm.a(litodp.o)

.text%z323      0x0000000000000000        0x0
 .text          0x0000000000000000        0x0 c:/program files/microchip/xc32/v4.20/bin/bin/../../lib/gcc/pic32mx/8.3.1/../../../../pic32mx/lib\libm.a(fptoul.o)

.text%z324      0x0000000000000000        0x0
 .text          0x0000000000000000        0x0 c:/program files/microchip/xc32/v4.20/bin/bin/../../lib/gcc/pic32mx/8.3.1/../../../../pic32mx/lib\libm.a(fptoli.o)

.text%z325      0x0000000000000000        0x0
 .text          0x0000000000000000        0x0 c:/program files/microchip/xc32/v4.20/bin/bin/../../lib/gcc/pic32mx/8.3.1/../../../../pic32mx/lib\libm.a(fptodp.o)

.text%z326      0x0000000000000000        0x0
 .text          0x0000000000000000        0x0 c:/program files/microchip/xc32/v4.20/bin/bin/../../lib/gcc/pic32mx/8.3.1/../../../../pic32mx/lib\libm.a(fpexsqrt32.o)

.text%z327      0x0000000000000000        0x0
 .text          0x0000000000000000        0x0 c:/program files/microchip/xc32/v4.20/bin/bin/../../lib/gcc/pic32mx/8.3.1/../../../../pic32mx/lib\libm.a(fpcmplt.o)

.text%z328      0x0000000000000000        0x0
 .text          0x0000000000000000        0x0 c:/program files/microchip/xc32/v4.20/bin/bin/../../lib/gcc/pic32mx/8.3.1/../../../../pic32mx/lib\libm.a(fpcmp.o)

.text%z329      0x0000000000000000        0x0
 .text          0x0000000000000000        0x0 c:/program files/microchip/xc32/v4.20/bin/bin/../../lib/gcc/pic32mx/8.3.1/../../../../pic32mx/lib\libm.a(fp32subadd.o)

.text%z330      0x0000000000000000        0x0
 .text          0x0000000000000000        0x0 c:/program files/microchip/xc32/v4.20/bin/bin/../../lib/gcc/pic32mx/8.3.1/../../../../pic32mx/lib\libm.a(fp32mul.o)

.text%z331      0x0000000000000000        0x0
 .text          0x0000000000000000        0x0 c:/program files/microchip/xc32/v4.20/bin/bin/../../lib/gcc/pic32mx/8.3.1/../../../../pic32mx/lib\libm.a(fp32div.o)

.text.libm.fpexsqrt%z332
                0x0000000000000000        0x0
 .text.libm.fpexsqrt
                0x0000000000000000        0x0 c:/program files/microchip/xc32/v4.20/bin/bin/../../lib/gcc/pic32mx/8.3.1/../../../../pic32mx/lib\libm.a(exsqrt.o)

.text%z333      0x0000000000000000        0x0
 .text          0x0000000000000000        0x0 c:/program files/microchip/xc32/v4.20/bin/bin/../../lib/gcc/pic32mx/8.3.1/../../../../pic32mx/lib\libm.a(exsqrt.o)

.text%z334      0x0000000000000000        0x0
 .text          0x0000000000000000        0x0 c:/program files/microchip/xc32/v4.20/bin/bin/../../lib/gcc/pic32mx/8.3.1/../../../../pic32mx/lib\libm.a(exmul.o)

.text%z335      0x0000000000000000        0x0
 .text          0x0000000000000000        0x0 c:/program files/microchip/xc32/v4.20/bin/bin/../../lib/gcc/pic32mx/8.3.1/../../../../pic32mx/lib\libm.a(dptoul.o)

.text%z336      0x0000000000000000        0x0
 .text          0x0000000000000000        0x0 c:/program files/microchip/xc32/v4.20/bin/bin/../../lib/gcc/pic32mx/8.3.1/../../../../pic32mx/lib\libm.a(dptofp.o)

.text%z337      0x0000000000000000        0x0
 .text          0x0000000000000000        0x0 c:/program files/microchip/xc32/v4.20/bin/bin/../../lib/gcc/pic32mx/8.3.1/../../../../pic32mx/lib\libm.a(dpsqrt.o)

.text%z338      0x0000000000000000        0x0
 .text          0x0000000000000000        0x0 c:/program files/microchip/xc32/v4.20/bin/bin/../../lib/gcc/pic32mx/8.3.1/../../../../pic32mx/lib\libm.a(dpcmplt.o)

.text%z339      0x0000000000000000        0x0
 .text          0x0000000000000000        0x0 c:/program files/microchip/xc32/v4.20/bin/bin/../../lib/gcc/pic32mx/8.3.1/../../../../pic32mx/lib\libm.a(dpcmp.o)

.text%z340      0x0000000000000000        0x0
 .text          0x0000000000000000        0x0 c:/program files/microchip/xc32/v4.20/bin/bin/../../lib/gcc/pic32mx/8.3.1/../../../../pic32mx/lib\libm.a(dp32subadd.o)

.text%z341      0x0000000000000000        0x0
 .text          0x0000000000000000        0x0 c:/program files/microchip/xc32/v4.20/bin/bin/../../lib/gcc/pic32mx/8.3.1/../../../../pic32mx/lib\libm.a(dp32mul.o)

.text%z342      0x0000000000000000        0x0
 .text          0x0000000000000000        0x0 c:/program files/microchip/xc32/v4.20/bin/bin/../../lib/gcc/pic32mx/8.3.1/../../../../pic32mx/lib\libm.a(dp32div.o)

.text%z343      0x0000000000000000        0x0
 .text          0x0000000000000000        0x0 c:/program files/microchip/xc32/v4.20/bin/bin/../../lib/gcc/pic32mx/8.3.1/../../../../pic32mx/lib\libm.a(cos32.o)

.text%z344      0x0000000000000000        0x0
 .text          0x0000000000000000        0x0 c:/program files/microchip/xc32/v4.20/bin/bin/../../lib/gcc/pic32mx/8.3.1/../../../../pic32mx/lib\libm.a(ceil32.o)

.text%z345      0x0000000000000000        0x0
 .text          0x0000000000000000        0x0 c:/program files/microchip/xc32/v4.20/bin/bin/../../lib/gcc/pic32mx/8.3.1/../../../../pic32mx/lib\libc-musl.a(stpncpy.o)

.text%z346      0x0000000000000000        0x0
 .text          0x0000000000000000        0x0 c:/program files/microchip/xc32/v4.20/bin/bin/../../lib/gcc/pic32mx/8.3.1/../../../../pic32mx/lib\libc-musl.a(strncpy.o)

.text%z347      0x0000000000000000        0x0
 .text          0x0000000000000000        0x0 c:/program files/microchip/xc32/v4.20/bin/bin/../../lib/gcc/pic32mx/8.3.1/../../../../pic32mx/lib\libc-musl.a(strncmp.o)

.text%z348      0x0000000000000000        0x0
 .text          0x0000000000000000        0x0 c:/program files/microchip/xc32/v4.20/bin/bin/../../lib/gcc/pic32mx/8.3.1/../../../../pic32mx/lib\libpic32.a(defaultinterrupt.o)

.text%z349      0x0000000000000000        0x0
 .text          0x0000000000000000        0x0 c:/program files/microchip/xc32/v4.20/bin/bin/../../lib/gcc/pic32mx/8.3.1/../../../../pic32mx/lib\libpic32.a(vector44.o)

.text%z350      0x0000000000000000        0x0
 .text          0x0000000000000000        0x0 c:/program files/microchip/xc32/v4.20/bin/bin/../../lib/gcc/pic32mx/8.3.1/../../../../pic32mx/lib\libpic32.a(vector43.o)

.text%z351      0x0000000000000000        0x0
 .text          0x0000000000000000        0x0 c:/program files/microchip/xc32/v4.20/bin/bin/../../lib/gcc/pic32mx/8.3.1/../../../../pic32mx/lib\libpic32.a(vector42.o)

.text%z352      0x0000000000000000        0x0
 .text          0x0000000000000000        0x0 c:/program files/microchip/xc32/v4.20/bin/bin/../../lib/gcc/pic32mx/8.3.1/../../../../pic32mx/lib\libpic32.a(vector41.o)

.text%z353      0x0000000000000000        0x0
 .text          0x0000000000000000        0x0 c:/program files/microchip/xc32/v4.20/bin/bin/../../lib/gcc/pic32mx/8.3.1/../../../../pic32mx/lib\libpic32.a(vector40.o)

.text%z354      0x0000000000000000        0x0
 .text          0x0000000000000000        0x0 c:/program files/microchip/xc32/v4.20/bin/bin/../../lib/gcc/pic32mx/8.3.1/../../../../pic32mx/lib\libpic32.a(vector35.o)

.text%z355      0x0000000000000000        0x0
 .text          0x0000000000000000        0x0 c:/program files/microchip/xc32/v4.20/bin/bin/../../lib/gcc/pic32mx/8.3.1/../../../../pic32mx/lib\libpic32.a(vector34.o)

.text%z356      0x0000000000000000        0x0
 .text          0x0000000000000000        0x0 c:/program files/microchip/xc32/v4.20/bin/bin/../../lib/gcc/pic32mx/8.3.1/../../../../pic32mx/lib\libpic32.a(vector30.o)

.text%z357      0x0000000000000000        0x0
 .text          0x0000000000000000        0x0 c:/program files/microchip/xc32/v4.20/bin/bin/../../lib/gcc/pic32mx/8.3.1/../../../../pic32mx/lib\libpic32.a(vector29.o)

.text%z358      0x0000000000000000        0x0
 .text          0x0000000000000000        0x0 c:/program files/microchip/xc32/v4.20/bin/bin/../../lib/gcc/pic32mx/8.3.1/../../../../pic32mx/lib\libpic32.a(vector28.o)

.text%z359      0x0000000000000000        0x0
 .text          0x0000000000000000        0x0 c:/program files/microchip/xc32/v4.20/bin/bin/../../lib/gcc/pic32mx/8.3.1/../../../../pic32mx/lib\libpic32.a(vector27.o)

.text%z360      0x0000000000000000        0x0
 .text          0x0000000000000000        0x0 c:/program files/microchip/xc32/v4.20/bin/bin/../../lib/gcc/pic32mx/8.3.1/../../../../pic32mx/lib\libpic32.a(vector23.o)

.text%z361      0x0000000000000000        0x0
 .text          0x0000000000000000        0x0 c:/program files/microchip/xc32/v4.20/bin/bin/../../lib/gcc/pic32mx/8.3.1/../../../../pic32mx/lib\libpic32.a(vector22.o)

.text%z362      0x0000000000000000        0x0
 .text          0x0000000000000000        0x0 c:/program files/microchip/xc32/v4.20/bin/bin/../../lib/gcc/pic32mx/8.3.1/../../../../pic32mx/lib\libpic32.a(vector21.o)

.text%z363      0x0000000000000000        0x0
 .text          0x0000000000000000        0x0 c:/program files/microchip/xc32/v4.20/bin/bin/../../lib/gcc/pic32mx/8.3.1/../../../../pic32mx/lib\libpic32.a(vector18.o)

.text%z364      0x0000000000000000        0x0
 .text          0x0000000000000000        0x0 c:/program files/microchip/xc32/v4.20/bin/bin/../../lib/gcc/pic32mx/8.3.1/../../../../pic32mx/lib\libpic32.a(vector17.o)

.text%z365      0x0000000000000000        0x0
 .text          0x0000000000000000        0x0 c:/program files/microchip/xc32/v4.20/bin/bin/../../lib/gcc/pic32mx/8.3.1/../../../../pic32mx/lib\libpic32.a(vector14.o)

.text%z366      0x0000000000000000        0x0
 .text          0x0000000000000000        0x0 c:/program files/microchip/xc32/v4.20/bin/bin/../../lib/gcc/pic32mx/8.3.1/../../../../pic32mx/lib\libpic32.a(vector13.o)

.text%z367      0x0000000000000000        0x0
 .text          0x0000000000000000        0x0 c:/program files/microchip/xc32/v4.20/bin/bin/../../lib/gcc/pic32mx/8.3.1/../../../../pic32mx/lib\libpic32.a(vector11.o)

.text%z368      0x0000000000000000        0x0
 .text          0x0000000000000000        0x0 c:/program files/microchip/xc32/v4.20/bin/bin/../../lib/gcc/pic32mx/8.3.1/../../../../pic32mx/lib\libpic32.a(vector10.o)

.text%z369      0x0000000000000000        0x0
 .text          0x0000000000000000        0x0 c:/program files/microchip/xc32/v4.20/bin/bin/../../lib/gcc/pic32mx/8.3.1/../../../../pic32mx/lib\libpic32.a(vector9.o)

.text%z370      0x0000000000000000        0x0
 .text          0x0000000000000000        0x0 c:/program files/microchip/xc32/v4.20/bin/bin/../../lib/gcc/pic32mx/8.3.1/../../../../pic32mx/lib\libpic32.a(vector7.o)

.text%z371      0x0000000000000000        0x0
 .text          0x0000000000000000        0x0 c:/program files/microchip/xc32/v4.20/bin/bin/../../lib/gcc/pic32mx/8.3.1/../../../../pic32mx/lib\libpic32.a(vector6.o)

.text%z372      0x0000000000000000        0x0
 .text          0x0000000000000000        0x0 c:/program files/microchip/xc32/v4.20/bin/bin/../../lib/gcc/pic32mx/8.3.1/../../../../pic32mx/lib\libpic32.a(vector5.o)

.text%z373      0x0000000000000000        0x0
 .text          0x0000000000000000        0x0 c:/program files/microchip/xc32/v4.20/bin/bin/../../lib/gcc/pic32mx/8.3.1/../../../../pic32mx/lib\libpic32.a(vector3.o)

.text%z374      0x0000000000000000        0x0
 .text          0x0000000000000000        0x0 c:/program files/microchip/xc32/v4.20/bin/bin/../../lib/gcc/pic32mx/8.3.1/../../../../pic32mx/lib\libpic32.a(vector2.o)

.text%z375      0x0000000000000000        0x0
 .text          0x0000000000000000        0x0 c:/program files/microchip/xc32/v4.20/bin/bin/../../lib/gcc/pic32mx/8.3.1/../../../../pic32mx/lib\libpic32.a(vector1.o)

.text%z376      0x0000000000000000        0x0
 .text          0x0000000000000000        0x0 c:/program files/microchip/xc32/v4.20/bin/bin/../../lib/gcc/pic32mx/8.3.1/../../../../pic32mx/lib\libpic32.a(general-exception.o)

.text%z377      0x0000000000000000        0x0
 .text          0x0000000000000000        0x0 c:/program files/microchip/xc32/v4.20/bin/bin/../../lib/gcc/pic32mx/8.3.1/../../../../pic32mx/lib\libpic32.a(pic32_data_init_0_1.o)

.text%z378      0x0000000000000000        0x0
 .text          0x0000000000000000        0x0 c:/program files/microchip/xc32/v4.20/bin/bin/../../lib/gcc/pic32mx/8.3.1/../../../../pic32mx/lib\libpic32.a(pic32_data_init_wrapper.o)

.text%z379      0x0000000000000000        0x0
 .text          0x0000000000000000        0x0 c:/program files/microchip/xc32/v4.20/bin/bin/../../lib/gcc/pic32mx/8.3.1/../../../../pic32mx/lib\libpic32.a(default-on-bootstrap.o)

.text%z380      0x0000000000000000        0x0
 .text          0x0000000000000000        0x0 c:/program files/microchip/xc32/v4.20/bin/bin/../../lib/gcc/pic32mx/8.3.1/../../../../pic32mx/lib\libpic32.a(default-on-reset.o)

.text%z381      0x0000000000000000        0x0
 .text          0x0000000000000000        0x0 c:/program files/microchip/xc32/v4.20/bin/bin/../../lib/gcc/pic32mx/8.3.1/../../../../pic32mx/lib\libpic32.a(default-bootstrap-exception-handler.o)

.text%z382      0x0000000000000000        0x0
 .text          0x0000000000000000        0x0 c:/program files/microchip/xc32/v4.20/bin/bin/../../lib/gcc/pic32mx/8.3.1/../../../../pic32mx/lib/./proc/32MX440F256H\default_isr_vectors.o

.text%z383      0x0000000000000000        0x0
 .text          0x0000000000000000        0x0 C:\Users\kyrk\AppData\Local\Temp\ccMtDgJu.o

.text%z384      0x0000000000000000        0x0
 .text          0x0000000000000000        0x0 C:\Users\kyrk\AppData\Local\Temp\ccgwFKT5.o

.text%z385      0x0000000000000000        0x0
 .text          0x0000000000000000        0x0 C:\Users\kyrk\AppData\Local\Temp\ccC6iq7L.o

.text%z386      0x0000000000000000        0x0
 .text          0x0000000000000000        0x0 c:/program files/microchip/xc32/v4.20/bin/bin/../../lib/gcc/pic32mx/8.3.1/../../../../pic32mx/lib/./proc/32MX440F256H\processor.o

.text%z387      0x0000000000000000        0x0
 .text          0x0000000000000000        0x0 output\c_eep_manager.o

.text%z388      0x0000000000000000        0x0
 .text          0x0000000000000000        0x0 output\usb_descriptors.o

.text%z389      0x0000000000000000        0x0
 .text          0x0000000000000000        0x0 c:/program files/microchip/xc32/v4.20/bin/bin/../../lib/gcc/pic32mx/8.3.1/../../../../pic32mx/lib\debug-exception-return.o
