Archive member included to satisfy reference by file (symbol)

c:/program files/microchip/xc32/v4.20/bin/bin/../../lib/gcc/pic32mx/8.3.1\libgcc.a(_fixunssfdi.o)
                              output\stepper.o (__fixunssfdi)
c:/program files/microchip/xc32/v4.20/bin/bin/../../lib/gcc/pic32mx/8.3.1\libgcc.a(_floatundidf.o)
                              output\stepper.o (__floatundidf)
c:/program files/microchip/xc32/v4.20/bin/bin/../../lib/gcc/pic32mx/8.3.1\libgcc.a(floatunsisf.o)
                              output\nuts_bolts.o (__floatunsisf)
c:/program files/microchip/xc32/v4.20/bin/bin/../../lib/gcc/pic32mx/8.3.1\libgcc.a(floatunsidf.o)
                              output\grbl_homing.o (__floatunsidf)
c:/program files/microchip/xc32/v4.20/bin/bin/../../lib/gcc/pic32mx/8.3.1/../../../../pic32mx/lib\libpic32.a(memcmp.o)
                              output\grbl_eeprom.o (memcmp)
c:/program files/microchip/xc32/v4.20/bin/bin/../../lib/gcc/pic32mx/8.3.1/../../../../pic32mx/lib\libpic32.a(memcpy.o)
                              output\eep_manager.o (memcpy)
c:/program files/microchip/xc32/v4.20/bin/bin/../../lib/gcc/pic32mx/8.3.1/../../../../pic32mx/lib\libpic32.a(memset.o)
                              output\ringBuffer.o (memset)
c:/program files/microchip/xc32/v4.20/bin/bin/../../lib/gcc/pic32mx/8.3.1/../../../../pic32mx/lib\libpic32.a(strcmp.o)
                              output\grbl_protocol.o (strcmp)
c:/program files/microchip/xc32/v4.20/bin/bin/../../lib/gcc/pic32mx/8.3.1/../../../../pic32mx/lib\libpic32.a(strlen.o)
                              output\grbl_gcode.o (strlen)
c:/program files/microchip/xc32/v4.20/bin/bin/../../lib/gcc/pic32mx/8.3.1/../../../../pic32mx/lib\libpic32.a(default-bootstrap-exception-handler.o)
                              C:\Users\kyrk\AppData\Local\Temp\ccy8KzF8.o (_bootstrap_exception_handler)
c:/program files/microchip/xc32/v4.20/bin/bin/../../lib/gcc/pic32mx/8.3.1/../../../../pic32mx/lib\libpic32.a(default-on-reset.o)
                              C:\Users\kyrk\AppData\Local\Temp\ccy8KzF8.o (_on_reset)
c:/program files/microchip/xc32/v4.20/bin/bin/../../lib/gcc/pic32mx/8.3.1/../../../../pic32mx/lib\libpic32.a(default-on-bootstrap.o)
                              C:\Users\kyrk\AppData\Local\Temp\ccy8KzF8.o (_on_bootstrap)
c:/program files/microchip/xc32/v4.20/bin/bin/../../lib/gcc/pic32mx/8.3.1/../../../../pic32mx/lib\libpic32.a(default-nmi-handler.o)
                              C:\Users\kyrk\AppData\Local\Temp\ccy8KzF8.o (_nmi_handler)
c:/program files/microchip/xc32/v4.20/bin/bin/../../lib/gcc/pic32mx/8.3.1/../../../../pic32mx/lib\libpic32.a(pic32_data_init_wrapper.o)
                              C:\Users\kyrk\AppData\Local\Temp\ccy8KzF8.o (__pic32_data_init)
c:/program files/microchip/xc32/v4.20/bin/bin/../../lib/gcc/pic32mx/8.3.1/../../../../pic32mx/lib\libpic32.a(pic32_data_init_0_1.o)
                              (__copy_needed)
c:/program files/microchip/xc32/v4.20/bin/bin/../../lib/gcc/pic32mx/8.3.1/../../../../pic32mx/lib\libpic32.a(pic32_init_cache.o)
                              C:\Users\kyrk\AppData\Local\Temp\ccy8KzF8.o (__pic32_init_cache)
c:/program files/microchip/xc32/v4.20/bin/bin/../../lib/gcc/pic32mx/8.3.1/../../../../pic32mx/lib\libpic32.a(pic32_init_tlb_ebi_sqi.o)
                              C:\Users\kyrk\AppData\Local\Temp\ccy8KzF8.o (__pic32_tlb_init_ebi_sqi)
c:/program files/microchip/xc32/v4.20/bin/bin/../../lib/gcc/pic32mx/8.3.1/../../../../pic32mx/lib\libpic32.a(general-exception.o)
                              C:\Users\kyrk\AppData\Local\Temp\ccy8KzF8.o (_general_exception_context)
c:/program files/microchip/xc32/v4.20/bin/bin/../../lib/gcc/pic32mx/8.3.1/../../../../pic32mx/lib\libpic32.a(cache-err-exception.o)
                              C:\Users\kyrk\AppData\Local\Temp\ccy8KzF8.o (_cache_err_exception_context)
c:/program files/microchip/xc32/v4.20/bin/bin/../../lib/gcc/pic32mx/8.3.1/../../../../pic32mx/lib\libpic32.a(simple-tlb-refill-exception.o)
                              C:\Users\kyrk\AppData\Local\Temp\ccy8KzF8.o (_simple_tlb_refill_exception_context)
c:/program files/microchip/xc32/v4.20/bin/bin/../../lib/gcc/pic32mx/8.3.1/../../../../pic32mx/lib\libpic32.a(defaultinterrupt.o)
                              C:\Users\kyrk\AppData\Local\Temp\cc4IlKdm.o (_DefaultInterrupt)
c:/program files/microchip/xc32/v4.20/bin/bin/../../lib/gcc/pic32mx/8.3.1/../../../../pic32mx/lib\libpic32.a(default-cache-err-exception-handler.o)
                              c:/program files/microchip/xc32/v4.20/bin/bin/../../lib/gcc/pic32mx/8.3.1/../../../../pic32mx/lib\libpic32.a(cache-err-exception.o) (_cache_err_exception_handler)
c:/program files/microchip/xc32/v4.20/bin/bin/../../lib/gcc/pic32mx/8.3.1/../../../../pic32mx/lib\libpic32.a(default-simple-tlb-refill-exception-handler.o)
                              c:/program files/microchip/xc32/v4.20/bin/bin/../../lib/gcc/pic32mx/8.3.1/../../../../pic32mx/lib\libpic32.a(simple-tlb-refill-exception.o) (_simple_tlb_refill_exception_handler)
c:/program files/microchip/xc32/v4.20/bin/bin/../../lib/gcc/pic32mx/8.3.1/../../../../pic32mx/lib\libc-musl.a(__sio_sprintf_doux.o)
                              output\rtc.o (_sprintf_cdnopuxX)
c:/program files/microchip/xc32/v4.20/bin/bin/../../lib/gcc/pic32mx/8.3.1/../../../../pic32mx/lib\libc-musl.a(__fmt_d.o)
                              c:/program files/microchip/xc32/v4.20/bin/bin/../../lib/gcc/pic32mx/8.3.1/../../../../pic32mx/lib\libc-musl.a(__sio_sprintf_doux.o) (__fmt_d_needed)
c:/program files/microchip/xc32/v4.20/bin/bin/../../lib/gcc/pic32mx/8.3.1/../../../../pic32mx/lib\libc-musl.a(__fmt_o.o)
                              c:/program files/microchip/xc32/v4.20/bin/bin/../../lib/gcc/pic32mx/8.3.1/../../../../pic32mx/lib\libc-musl.a(__sio_sprintf_doux.o) (__fmt_o_needed)
c:/program files/microchip/xc32/v4.20/bin/bin/../../lib/gcc/pic32mx/8.3.1/../../../../pic32mx/lib\libc-musl.a(__fmt_s.o)
                              c:/program files/microchip/xc32/v4.20/bin/bin/../../lib/gcc/pic32mx/8.3.1/../../../../pic32mx/lib\libc-musl.a(__sio_sprintf_doux.o) (__fmt_s_needed)
c:/program files/microchip/xc32/v4.20/bin/bin/../../lib/gcc/pic32mx/8.3.1/../../../../pic32mx/lib\libc-musl.a(__fmt_u.o)
                              c:/program files/microchip/xc32/v4.20/bin/bin/../../lib/gcc/pic32mx/8.3.1/../../../../pic32mx/lib\libc-musl.a(__fmt_d.o) (__cvt_u)
c:/program files/microchip/xc32/v4.20/bin/bin/../../lib/gcc/pic32mx/8.3.1/../../../../pic32mx/lib\libc-musl.a(__fmt_x.o)
                              c:/program files/microchip/xc32/v4.20/bin/bin/../../lib/gcc/pic32mx/8.3.1/../../../../pic32mx/lib\libc-musl.a(__sio_sprintf_doux.o) (__fmt_x_needed)
c:/program files/microchip/xc32/v4.20/bin/bin/../../lib/gcc/pic32mx/8.3.1/../../../../pic32mx/lib\libc-musl.a(__pop_int.o)
                              c:/program files/microchip/xc32/v4.20/bin/bin/../../lib/gcc/pic32mx/8.3.1/../../../../pic32mx/lib\libc-musl.a(__sio_sprintf_doux.o) (__pop_int_needed)
c:/program files/microchip/xc32/v4.20/bin/bin/../../lib/gcc/pic32mx/8.3.1/../../../../pic32mx/lib\libc-musl.a(__pop_ptr.o)
                              c:/program files/microchip/xc32/v4.20/bin/bin/../../lib/gcc/pic32mx/8.3.1/../../../../pic32mx/lib\libc-musl.a(__sio_sprintf_doux.o) (__pop_ptr_needed)
c:/program files/microchip/xc32/v4.20/bin/bin/../../lib/gcc/pic32mx/8.3.1/../../../../pic32mx/lib\libc-musl.a(__printf_core.o)
                              c:/program files/microchip/xc32/v4.20/bin/bin/../../lib/gcc/pic32mx/8.3.1/../../../../pic32mx/lib\libc-musl.a(__fmt_d.o) (__pad)
c:/program files/microchip/xc32/v4.20/bin/bin/../../lib/gcc/pic32mx/8.3.1/../../../../pic32mx/lib\libc-musl.a(atoi.o)
                              c:/program files/microchip/xc32/v4.20/bin/bin/../../lib/gcc/pic32mx/8.3.1/../../../../pic32mx/lib\libc-musl.a(__printf_core.o) (atoi)
c:/program files/microchip/xc32/v4.20/bin/bin/../../lib/gcc/pic32mx/8.3.1/../../../../pic32mx/lib\libc-musl.a(strncmp.o)
                              output\grbl_protocol.o (strncmp)
c:/program files/microchip/xc32/v4.20/bin/bin/../../lib/gcc/pic32mx/8.3.1/../../../../pic32mx/lib\libc-musl.a(strncpy.o)
                              output\Helpers.o (strncpy)
c:/program files/microchip/xc32/v4.20/bin/bin/../../lib/gcc/pic32mx/8.3.1/../../../../pic32mx/lib\libc-musl.a(tolower.o)
                              c:/program files/microchip/xc32/v4.20/bin/bin/../../lib/gcc/pic32mx/8.3.1/../../../../pic32mx/lib\libc-musl.a(__printf_core.o) (tolower)
c:/program files/microchip/xc32/v4.20/bin/bin/../../lib/gcc/pic32mx/8.3.1/../../../../pic32mx/lib\libc-musl.a(toupper.o)
                              c:/program files/microchip/xc32/v4.20/bin/bin/../../lib/gcc/pic32mx/8.3.1/../../../../pic32mx/lib\libc-musl.a(__fmt_x.o) (toupper)
c:/program files/microchip/xc32/v4.20/bin/bin/../../lib/gcc/pic32mx/8.3.1/../../../../pic32mx/lib\libc-musl.a(__int_vsprintf.o)
                              c:/program files/microchip/xc32/v4.20/bin/bin/../../lib/gcc/pic32mx/8.3.1/../../../../pic32mx/lib\libc-musl.a(__sio_sprintf_doux.o) (__vsprintf)
c:/program files/microchip/xc32/v4.20/bin/bin/../../lib/gcc/pic32mx/8.3.1/../../../../pic32mx/lib\libc-musl.a(__pop_float.o)
                              c:/program files/microchip/xc32/v4.20/bin/bin/../../lib/gcc/pic32mx/8.3.1/../../../../pic32mx/lib\libc-musl.a(__printf_core.o) (__pop_float)
c:/program files/microchip/xc32/v4.20/bin/bin/../../lib/gcc/pic32mx/8.3.1/../../../../pic32mx/lib\libc-musl.a(stpncpy.o)
                              c:/program files/microchip/xc32/v4.20/bin/bin/../../lib/gcc/pic32mx/8.3.1/../../../../pic32mx/lib\libc-musl.a(strncpy.o) (__stpncpy)
c:/program files/microchip/xc32/v4.20/bin/bin/../../lib/gcc/pic32mx/8.3.1/../../../../pic32mx/lib\libc-musl.a(__int_vsnprintf.o)
                              c:/program files/microchip/xc32/v4.20/bin/bin/../../lib/gcc/pic32mx/8.3.1/../../../../pic32mx/lib\libc-musl.a(__int_vsprintf.o) (__vsnprintf)
c:/program files/microchip/xc32/v4.20/bin/bin/../../lib/gcc/pic32mx/8.3.1/../../../../pic32mx/lib\libc-musl.a(__int_vfprintf.o)
                              c:/program files/microchip/xc32/v4.20/bin/bin/../../lib/gcc/pic32mx/8.3.1/../../../../pic32mx/lib\libc-musl.a(__int_vsnprintf.o) (__vfprintf)
c:/program files/microchip/xc32/v4.20/bin/bin/../../lib/gcc/pic32mx/8.3.1/../../../../pic32mx/lib\libm.a(floor32.o)
                              output\motion_control.o (floor)
c:/program files/microchip/xc32/v4.20/bin/bin/../../lib/gcc/pic32mx/8.3.1/../../../../pic32mx/lib\libm.a(ceil32.o)
                              output\nuts_bolts.o (ceil)
c:/program files/microchip/xc32/v4.20/bin/bin/../../lib/gcc/pic32mx/8.3.1/../../../../pic32mx/lib\libm.a(cos32.o)
                              output\motion_control.o (cos)
c:/program files/microchip/xc32/v4.20/bin/bin/../../lib/gcc/pic32mx/8.3.1/../../../../pic32mx/lib\libm.a(dp32div.o)
                              output\grbl_gcode.o (__divdf3)
c:/program files/microchip/xc32/v4.20/bin/bin/../../lib/gcc/pic32mx/8.3.1/../../../../pic32mx/lib\libm.a(dp32mul.o)
                              output\grbl_gcode.o (__muldf3)
c:/program files/microchip/xc32/v4.20/bin/bin/../../lib/gcc/pic32mx/8.3.1/../../../../pic32mx/lib\libm.a(dp32subadd.o)
                              output\grbl_gcode.o (__subdf3)
c:/program files/microchip/xc32/v4.20/bin/bin/../../lib/gcc/pic32mx/8.3.1/../../../../pic32mx/lib\libm.a(dpcmp.o)
                              output\planner.o (__gtdf2)
c:/program files/microchip/xc32/v4.20/bin/bin/../../lib/gcc/pic32mx/8.3.1/../../../../pic32mx/lib\libm.a(dpcmplt.o)
                              output\motion_control.o (__ledf2)
c:/program files/microchip/xc32/v4.20/bin/bin/../../lib/gcc/pic32mx/8.3.1/../../../../pic32mx/lib\libm.a(dpsqrt.o)
                              output\grbl_gcode.o (sqrt)
c:/program files/microchip/xc32/v4.20/bin/bin/../../lib/gcc/pic32mx/8.3.1/../../../../pic32mx/lib\libm.a(dptofp.o)
                              output\grbl_gcode.o (__truncdfsf2)
c:/program files/microchip/xc32/v4.20/bin/bin/../../lib/gcc/pic32mx/8.3.1/../../../../pic32mx/lib\libm.a(dptoli.o)
                              output\grbl_print.o (__fixdfsi)
c:/program files/microchip/xc32/v4.20/bin/bin/../../lib/gcc/pic32mx/8.3.1/../../../../pic32mx/lib\libm.a(dptoul.o)
                              output\motion_control.o (__fixunsdfsi)
c:/program files/microchip/xc32/v4.20/bin/bin/../../lib/gcc/pic32mx/8.3.1/../../../../pic32mx/lib\libm.a(exmul.o)
                              c:/program files/microchip/xc32/v4.20/bin/bin/../../lib/gcc/pic32mx/8.3.1/../../../../pic32mx/lib\libm.a(cos32.o) (exmul)
c:/program files/microchip/xc32/v4.20/bin/bin/../../lib/gcc/pic32mx/8.3.1/../../../../pic32mx/lib\libm.a(exsqrt.o)
                              c:/program files/microchip/xc32/v4.20/bin/bin/../../lib/gcc/pic32mx/8.3.1/../../../../pic32mx/lib\libm.a(dpsqrt.o) (exsqrt)
c:/program files/microchip/xc32/v4.20/bin/bin/../../lib/gcc/pic32mx/8.3.1/../../../../pic32mx/lib\libm.a(fp32div.o)
                              output\motion_control.o (__divsf3)
c:/program files/microchip/xc32/v4.20/bin/bin/../../lib/gcc/pic32mx/8.3.1/../../../../pic32mx/lib\libm.a(fp32mul.o)
                              output\grbl_gcode.o (__mulsf3)
c:/program files/microchip/xc32/v4.20/bin/bin/../../lib/gcc/pic32mx/8.3.1/../../../../pic32mx/lib\libm.a(fp32subadd.o)
                              output\grbl_gcode.o (__subsf3)
c:/program files/microchip/xc32/v4.20/bin/bin/../../lib/gcc/pic32mx/8.3.1/../../../../pic32mx/lib\libm.a(fpcmp.o)
                              output\grbl_gcode.o (__eqsf2)
c:/program files/microchip/xc32/v4.20/bin/bin/../../lib/gcc/pic32mx/8.3.1/../../../../pic32mx/lib\libm.a(fpcmplt.o)
                              output\spindle_control.o (__lesf2)
c:/program files/microchip/xc32/v4.20/bin/bin/../../lib/gcc/pic32mx/8.3.1/../../../../pic32mx/lib\libm.a(fpexsqrt32.o)
                              c:/program files/microchip/xc32/v4.20/bin/bin/../../lib/gcc/pic32mx/8.3.1/../../../../pic32mx/lib\libm.a(exsqrt.o) (fpexsqrt)
c:/program files/microchip/xc32/v4.20/bin/bin/../../lib/gcc/pic32mx/8.3.1/../../../../pic32mx/lib\libm.a(fptodp.o)
                              output\grbl_gcode.o (__extendsfdf2)
c:/program files/microchip/xc32/v4.20/bin/bin/../../lib/gcc/pic32mx/8.3.1/../../../../pic32mx/lib\libm.a(fptoli.o)
                              output\grbl_gcode.o (__fixsfsi)
c:/program files/microchip/xc32/v4.20/bin/bin/../../lib/gcc/pic32mx/8.3.1/../../../../pic32mx/lib\libm.a(fptoul.o)
                              output\grbl_gcode.o (__fixunssfsi)
c:/program files/microchip/xc32/v4.20/bin/bin/../../lib/gcc/pic32mx/8.3.1/../../../../pic32mx/lib\libm.a(litodp.o)
                              output\planner.o (__floatsidf)
c:/program files/microchip/xc32/v4.20/bin/bin/../../lib/gcc/pic32mx/8.3.1/../../../../pic32mx/lib\libm.a(reduct32.o)
                              c:/program files/microchip/xc32/v4.20/bin/bin/../../lib/gcc/pic32mx/8.3.1/../../../../pic32mx/lib\libm.a(cos32.o) (reduct)
c:/program files/microchip/xc32/v4.20/bin/bin/../../lib/gcc/pic32mx/8.3.1/../../../../pic32mx/lib\libm.a(sigmax.o)
                              c:/program files/microchip/xc32/v4.20/bin/bin/../../lib/gcc/pic32mx/8.3.1/../../../../pic32mx/lib\libm.a(cos32.o) (sigmax)
c:/program files/microchip/xc32/v4.20/bin/bin/../../lib/gcc/pic32mx/8.3.1/../../../../pic32mx/lib\libm.a(sin32.o)
                              output\motion_control.o (sin)
c:/program files/microchip/xc32/v4.20/bin/bin/../../lib/gcc/pic32mx/8.3.1/../../../../pic32mx/lib\libm.a(sincos32.o)
                              c:/program files/microchip/xc32/v4.20/bin/bin/../../lib/gcc/pic32mx/8.3.1/../../../../pic32mx/lib\libm.a(cos32.o) (sincon)
c:/program files/microchip/xc32/v4.20/bin/bin/../../lib/gcc/pic32mx/8.3.1/../../../../pic32mx/lib\libm.a(sitofp.o)
                              output\grbl_gcode.o (__floatsisf)
c:/program files/microchip/xc32/v4.20/bin/bin/../../lib/gcc/pic32mx/8.3.1/../../../../pic32mx/lib\libm.a(atan2.o)
                              output\motion_control.o (atan2)
c:/program files/microchip/xc32/v4.20/bin/bin/../../lib/gcc/pic32mx/8.3.1/../../../../pic32mx/lib\libm.a(w_sqrt.o)
                              c:/program files/microchip/xc32/v4.20/bin/bin/../../lib/gcc/pic32mx/8.3.1/../../../../pic32mx/lib\libm.a(dpsqrt.o) (sqrtl)
c:/program files/microchip/xc32/v4.20/bin/bin/../../lib/gcc/pic32mx/8.3.1/../../../../pic32mx/lib\libm.a(support.o)
                              c:/program files/microchip/xc32/v4.20/bin/bin/../../lib/gcc/pic32mx/8.3.1/../../../../pic32mx/lib\libm.a(atan2.o) (copysignl)
c:/program files/microchip/xc32/v4.20/bin/bin/../../lib/gcc/pic32mx/8.3.1/../../../../pic32mx/lib\libm.a(w_ldexp.o)
                              c:/program files/microchip/xc32/v4.20/bin/bin/../../lib/gcc/pic32mx/8.3.1/../../../../pic32mx/lib\libm.a(atan2.o) (ldexpl)
c:/program files/microchip/xc32/v4.20/bin/bin/../../lib/gcc/pic32mx/8.3.1/../../../../pic32mx/lib\libm.a(dpldexp.o)
                              c:/program files/microchip/xc32/v4.20/bin/bin/../../lib/gcc/pic32mx/8.3.1/../../../../pic32mx/lib\libm.a(w_ldexp.o) (__mchp_ldexp)
c:/program files/microchip/xc32/v4.20/bin/bin/../../lib/gcc/pic32mx/8.3.1/../../../../pic32mx/lib\libm.a(s_lib_ver.o)
                              c:/program files/microchip/xc32/v4.20/bin/bin/../../lib/gcc/pic32mx/8.3.1/../../../../pic32mx/lib\libm.a(w_sqrt.o) (math_errhandling)
c:/program files/microchip/xc32/v4.20/bin/bin/../../lib/gcc/pic32mx/8.3.1\libgcc.a(_udivdi3.o)
                              c:/program files/microchip/xc32/v4.20/bin/bin/../../lib/gcc/pic32mx/8.3.1/../../../../pic32mx/lib\libc-musl.a(__fmt_u.o) (__udivdi3)
c:/program files/microchip/xc32/v4.20/bin/bin/../../lib/gcc/pic32mx/8.3.1\libgcc.a(_umoddi3.o)
                              c:/program files/microchip/xc32/v4.20/bin/bin/../../lib/gcc/pic32mx/8.3.1/../../../../pic32mx/lib\libc-musl.a(__fmt_u.o) (__umoddi3)
c:/program files/microchip/xc32/v4.20/bin/bin/../../lib/gcc/pic32mx/8.3.1/../../../../pic32mx/lib\libpic32.a(errno.o)
                              c:/program files/microchip/xc32/v4.20/bin/bin/../../lib/gcc/pic32mx/8.3.1/../../../../pic32mx/lib\libc-musl.a(__printf_core.o) (errno)
c:/program files/microchip/xc32/v4.20/bin/bin/../../lib/gcc/pic32mx/8.3.1/../../../../pic32mx/lib\libpic32.a(isinf.o)
                              c:/program files/microchip/xc32/v4.20/bin/bin/../../lib/gcc/pic32mx/8.3.1/../../../../pic32mx/lib\libm.a(w_ldexp.o) (isinfl)
c:/program files/microchip/xc32/v4.20/bin/bin/../../lib/gcc/pic32mx/8.3.1/../../../../pic32mx/lib\libe.a(_unorddf2.o)
                              c:/program files/microchip/xc32/v4.20/bin/bin/../../lib/gcc/pic32mx/8.3.1/../../../../pic32mx/lib\libpic32.a(isinf.o) (__unorddf2)

Allocating common symbols
Common symbol       size              file

is_clockwise_arc_buffer
                    0x1               output\motion_control.o
r_axis0             0x4               output\motion_control.o
r_axis1             0x4               output\motion_control.o
pwm_duty            0x40              output\pwm.o
eth_rx              0x200             output\ethernet_grbl_multi.o
tempResult          0x4               output\exceptions.o
usb_delay_timer     0x4               output\usb.o
gUSBDeviceCDCInstance
                    0x40              output\usb_device_cdc.o
theta_per_segment   0x4               output\motion_control.o
cos_Ti              0x4               output\motion_control.o
coord_offset_eep    0xc               output\grbl_gcode.o
adResults           0x2               output\ad.o
UDPRxCount          0x2               output\UDP.o
check_is_delay      0x4               output\grbl_eeprom.o
center_axis1        0x4               output\motion_control.o
target_global       0xc               output\grbl_homing.o
appData             0x30              output\usb_app.o
dummyPORT5          0x4               output\grbl.o
dummyPORT4          0x4               output\grbl.o
st_prep_block       0x4               output\stepper.o
dummyPORT2          0x4               output\grbl.o
dummyPORT3          0x4               output\grbl.o
dummyPORT1          0x4               output\grbl.o
stepper_st          0x28              output\stepper.o
axis_linear_buffer  0x1               output\motion_control.o
dummyPORT6          0x4               output\grbl.o
eep_manager_write_trigger
                    0x44              output\eep_manager.o
dummyPORT7          0x4               output\grbl.o
gcodePositionSave   0x4               output\grbl_eeprom.o
segments_buffer     0x2               output\motion_control.o
gUSBDeviceCDCIRP    0x6c              output\usb_device_cdc.o
StackTsk_Announce_autonomous
                    0x4               output\StackTsk.o
gDrvUSBEndpoints    0x60              output\drv_usbhs.o
app_timedate        0x10              output\app.o
UDPTxCount          0x2               output\UDP.o
center_axis0        0x4               output\motion_control.o
_return_addr        0x4               output\exceptions.o
aes_KeyHolder       0x1ad0            output\aes_key.o
cos_T               0x4               output\motion_control.o
limits_set_state_filtered_currentState
                    0x1               output\grbl_limits.o
sin_T               0x4               output\motion_control.o
target_buffer       0xc               output\motion_control.o
dataEEFlags         0x4               output\dee.o
eep_settings        0x70              output\settings.o
sysObj              0xc               output\system_init.o
gDrvUSBObj          0xbc              output\drv_usbhs.o
i_buffer            0x2               output\motion_control.o
eep_settings_backup
                    0x70              output\settings.o
axis_1_buffer       0x1               output\motion_control.o
r_axisi             0x4               output\motion_control.o
settings            0x70              output\settings.o
activeUDPSocket     0x1               output\UDP.o
grbl_toolchange_failsafe_timeout
                    0x4               output\grbl_toolchange.o
myRingBuffer_grbl_protocol_rx
                    0x18              output\grbl_protocol.o
block_buffer_planned
                    0x1               output\planner.o
read_dee_page_size  0x4               output\dee_page.o
dee_debug_page_status
                    0xc               output\dee_page.o
pl                  0x1c              output\planner.o
UDPSocketInfo       0xe0              output\UDP.o
myRingBuffer_eth_tx
                    0x18              output\ethernet_grbl_multi.o
myRingBuffer_hid_rx
                    0x18              output\usb_grbl_multi.o
hid_tx              0x200             output\usb_grbl_multi.o
enc28j60_timer      0x4               output\ENC28J60.o
pl_block            0x4               output\stepper.o
bsdServerSocket     0x1               output\ethernet_grbl_multi.o
eth_tx              0x200             output\ethernet_grbl_multi.o
ClientSock          0x1               output\ethernet_grbl_multi.o
myRingBuffer_hid_tx
                    0x18              output\usb_grbl_multi.o
taskLists           0x90              output\task.o
st_block_buffer     0x1cc             output\stepper.o
eeprom_write_buffer
                    0x400             output\eeprom.o
dummyLAT4           0x4               output\grbl.o
dummyLAT5           0x4               output\grbl.o
dummyLAT6           0x4               output\grbl.o
dummyLAT7           0x4               output\grbl.o
next_buffer_head    0x1               output\planner.o
linear_per_segment  0x4               output\motion_control.o
position_buffer     0xc               output\motion_control.o
sin_Ti              0x4               output\motion_control.o
block_buffer_head   0x1               output\planner.o
dummyTRIS3          0x4               output\grbl.o
dummyTRIS4          0x4               output\grbl.o
dummyTRIS7          0x4               output\grbl.o
aes_cmac_handle_store
                    0x24c             output\aes_cmac.o
dummyTRIS2          0x4               output\grbl.o
dummyTRIS1          0x4               output\grbl.o
dummyTRIS6          0x4               output\grbl.o
dummyTRIS5          0x4               output\grbl.o
addr                0x10              output\ethernet_grbl_multi.o
sys                 0x14              output\system.o
coord_system_eep    0xc               output\grbl_gcode.o
stepper_idle_lock_timer
                    0x4               output\stepper.o
sys_probe_position  0xc               output\system.o
remoteNode          0xa               output\StackTsk.o
step_pin            0x3               output\grbl_homing.o
grbl_report_failed_line_buffer
                    0x80              output\grbl_report.o
axis_0_buffer       0x1               output\motion_control.o
eep_coord_teached   0xa               output\settings.o
_excep_code         0x4               output\exceptions.o
protocol_dwellTime  0x4               output\grbl_protocol.o
read_dee_page       0x4               output\dee_page.o
AppConfig           0x33              output\ethernet.o
block_buffer        0xd00             output\planner.o
ReceivedDataBuffer_grbl_ethernet_multi
                    0x40              output\ethernet_grbl_multi.o
loopCntHistory      0x80              output\main.o
aes_KeyHolderNv     0x23c             output\aes_key.o
block_coord_system  0xc               output\grbl_gcode.o
radius_buffer       0x4               output\motion_control.o
gUSBDeviceCdcCommonDataObj
                    0x2               output\usb_device_cdc.o
hid_rx              0x200             output\usb_grbl_multi.o
segment_buffer      0x120             output\stepper.o
tempB               0x4               output\exceptions.o
tempA               0x4               output\exceptions.o
plan_data           0xc               output\grbl_homing.o
line_buffer         0x80              output\grbl_protocol.o
ToSendDataBuffer_grbl_ethernet_multi
                    0x40              output\ethernet_grbl_multi.o
system_suspendTime  0x4               output\system.o
eep_coord_data      0x78              output\settings.o
grbl_protocol_rx    0x100             output\grbl_protocol.o
dummyLAT3           0x4               output\grbl.o
dummyLAT2           0x4               output\grbl.o
dummyLAT1           0x4               output\grbl.o
grbl_system_logger  0x180             output\system.o
read_dee_page_startaddress
                    0x4               output\dee_page.o
prep                0x38              output\stepper.o
addRemote           0x10              output\ethernet_grbl_multi.o
grbl_bootloader_timer
                    0x4               output\grbl_bootloader.o
_excep_addr         0x4               output\exceptions.o
offset_buffer       0xc               output\motion_control.o
block_buffer_tail   0x1               output\planner.o
myRingBuffer_eth_rx
                    0x18              output\ethernet_grbl_multi.o
eep_manager_debug_address
                    0x44              output\eep_manager.o
pl_data_buffer      0xc               output\motion_control.o
limit_filter_state  0x4               output\grbl_limits.o
sys_position        0xc               output\system.o

Microchip PIC32 Memory-Usage Report

kseg0 Program-Memory Usage
section                    address  length [bytes]      (dec)  Description
-------                 ----------  -------------------------  -----------
.simple_tlb_refill_excp 0x9d001000           0x10          16   
.text                   0x9d001010           0xf0         240  App's exec code 
.cache_err_excpt        0x9d001100           0x10          16   
.text                   0x9d001110           0x70         112  App's exec code 
.app_excpt              0x9d001180           0x10          16  General-Exception 
.text.ldexpl            0x9d001190           0x6c         108   
.rodata.cst4            0x9d0011fc            0x4           4   
.vectors                0x9d001200          0x170         368   
.text                   0x9d001370         0x44e0       17632  App's exec code 
.text                   0x9d005850         0x2860       10336  App's exec code 
.text.__pop_float       0x9d0080b0           0x50          80   
_037bd3f0693de8b9       0x9d008100            0xc          12   
.rodata                 0x9d00810c           0x14          20  Read-only const 
_037bd480693de8b9       0x9d008120            0xc          12   
.rodata.cst4            0x9d00812c           0x14          20   
_037bd510693de8b9       0x9d008140            0xc          12   
.rodata.cst4            0x9d00814c           0x14          20   
_037bd5a0693de8b9       0x9d008160           0x18          24   
.MIPS.abiflags          0x9d008178           0x18          24   
_052926c0693de8b9       0x9d008190            0xc          12   
.text                   0x9d00819c         0x5728       22312  App's exec code 
.rodata                 0x9d00d8c4         0x2828       10280  Read-only const 
.text                   0x9d0100ec         0x4808       18440  App's exec code 
.text                   0x9d0148f4         0x3954       14676  App's exec code 
.text                   0x9d018248         0x2f74       12148  App's exec code 
.text                   0x9d01b1bc         0x2614        9748  App's exec code 
.text.atan2             0x9d01d7d0         0x1254        4692   
.text                   0x9d01ea24         0x21cc        8652  App's exec code 
.text                   0x9d020bf0         0x1e0c        7692  App's exec code 
.text                   0x9d0229fc         0x1c24        7204  App's exec code 
.text                   0x9d024620          0xd0c        3340  App's exec code 
.dinit                  0x9d02532c          0xba0        2976   
.rodata.str1.4          0x9d025ecc          0xb18        2840   
.text                   0x9d0269e4         0x1580        5504  App's exec code 
.text                   0x9d027f64         0x1494        5268  App's exec code 
.text                   0x9d0293f8         0x1218        4632  App's exec code 
.text                   0x9d02a610         0x103c        4156  App's exec code 
.text                   0x9d02b64c          0xe48        3656  App's exec code 
.text                   0x9d02c494          0xd7c        3452  App's exec code 
.text                   0x9d02d210          0xcdc        3292  App's exec code 
.text                   0x9d02deec          0xc30        3120  App's exec code 
.text                   0x9d02eb1c          0x4dc        1244  App's exec code 
.rodata.cst4            0x9d02eff8            0x8           8   
_037bd630693de8b9       0x9d02f000           0x10          16   
_037bd6c0693de8b9       0x9d02f010           0x10          16   
_037bd750693de8b9       0x9d02f020           0x10          16   
_037bd7e0693de8b9       0x9d02f030            0x4           4   
_05292b40693de8b9       0x9d02f034            0xc          12   
_05292c60693de8b9       0x9d02f040          0xfc0        4032   
_050fee10693de8bb       0x9d030000        0x18000       98304   
.text.__printf_core     0x9d048000          0x580        1408   
.text                   0x9d048580          0x984        2436  App's exec code 
.text.dp32mul           0x9d048f04          0x4b8        1208   
.text                   0x9d0493bc          0x93c        2364  App's exec code 
.text                   0x9d049cf8          0x8e0        2272  App's exec code 
.text                   0x9d04a5d8          0x458        1112  App's exec code 
.text.dreml             0x9d04aa30          0x454        1108   
.text.dp32subadd        0x9d04ae84          0x430        1072   
.text                   0x9d04b2b4          0x798        1944  App's exec code 
.text                   0x9d04ba4c          0x774        1908  App's exec code 
.text                   0x9d04c1c0          0x6f8        1784  App's exec code 
.text                   0x9d04c8b8          0x33c         828  App's exec code 
.text.dp32mul           0x9d04cbf4          0x32c         812   
.text.libm              0x9d04cf20          0x328         808   
.text                   0x9d04d248          0x5e4        1508  App's exec code 
.text                   0x9d04d82c          0x5c8        1480  App's exec code 
.text                   0x9d04ddf4          0x578        1400  App's exec code 
.text                   0x9d04e36c          0x2ac         684  App's exec code 
.text.exsqrt            0x9d04e618          0x29c         668   
.text                   0x9d04e8b4          0x524        1316  App's exec code 
.text.fpsubadd          0x9d04edd8          0x278         632   
.text.fp32div           0x9d04f050          0x230         560   
.text                   0x9d04f280          0x20c         524  App's exec code 
.text.__fmt_x           0x9d04f48c          0x208         520   
.text                   0x9d04f694          0x3d4         980  App's exec code 
.rodata                 0x9d04fa68          0x1d4         468  Read-only const 
.text                   0x9d04fc3c          0x38c         908  App's exec code 
.text.fp32mul           0x9d04ffc8          0x1bc         444   
.text.libm              0x9d050184          0x1b8         440   
.text                   0x9d05033c          0x35c         860  App's exec code 
.text                   0x9d050698          0x1a8         424  App's exec code 
.text.libm              0x9d050840          0x1a4         420   
.text                   0x9d0509e4          0x19c         412  App's exec code 
.text.__pop_int         0x9d050b80          0x188         392   
.text                   0x9d050d08          0x2e4         740  App's exec code 
.text.libm              0x9d050fec          0x16c         364   
.text                   0x9d051158          0x2d0         720  App's exec code 
.text                   0x9d051428          0x2c8         712  App's exec code 
.text                   0x9d0516f0          0x154         340  App's exec code 
.rodata                 0x9d051844          0x150         336  Read-only const 
.text                   0x9d051994          0x150         336  App's exec code 
.text.__fmt_d           0x9d051ae4          0x150         336   
.text.__cvt_u           0x9d051c34          0x13c         316   
.text                   0x9d051d70          0x264         612  App's exec code 
.text.dpcmp             0x9d051fd4          0x12c         300   
.text.dfcmplt           0x9d052100          0x12c         300   
.text                   0x9d05222c          0x120         288  App's exec code 
.text.logbl             0x9d05234c          0x120         288   
.text.libm              0x9d05246c          0x10c         268   
.text                   0x9d052578          0x20c         524  App's exec code 
.rodata                 0x9d052784          0x200         512  Read-only const 
.text.__pad             0x9d052984          0x100         256   
.text.libm              0x9d052a84          0x100         256   
.text.dptofp            0x9d052b84          0x100         256   
.text.libm.fpexsqrt     0x9d052c84           0xfc         252   
.text.__fmt_o           0x9d052d80           0xf4         244   
.text                   0x9d052e74          0x1d0         464  App's exec code 
.text.__pop_ptr         0x9d053044           0xe4         228   
.text.general_exception 0x9d053128           0xdc         220   
.text._cache_err_except 0x9d053204           0xd8         216   
.text.simple_tlb_refill 0x9d0532dc           0xd8         216   
.text.libm              0x9d0533b4           0xd0         208   
.text                   0x9d053484           0xcc         204  App's exec code 
.rodata.cst8            0x9d053550           0xc8         200   
.text                   0x9d053618           0xc4         196  App's exec code 
.tlb.__pic32_tlb_init_e 0x9d0536dc           0xbc         188   
.text.__fmt_u           0x9d053798           0xbc         188   
.text                   0x9d053854          0x168         360  App's exec code 
.text.fptodp            0x9d0539bc           0xac         172   
.text                   0x9d053a68          0x14c         332  App's exec code 
.text.__fmt_s           0x9d053bb4           0xa4         164   
.text.fpcmp             0x9d053c58           0x9c         156   
.text.fpcmplt           0x9d053cf4           0x9c         156   
.text                   0x9d053d90          0x12c         300  App's exec code 
.text.dptoli            0x9d053ebc           0x90         144   
.text.dptoul            0x9d053f4c           0x8c         140   
.text.copysignf         0x9d053fd8           0x8c         140   
.text                   0x9d054064           0x88         136  App's exec code 
.text.isinff            0x9d0540ec           0x88         136   
.text.sqrtl             0x9d054174           0x84         132   
.text                   0x9d0541f8           0x80         128  App's exec code 
.text.dinit.startup     0x9d054278           0x80         128   
.text.__vsnprintf       0x9d0542f8           0x80         128   
.text.fptoli            0x9d054378           0x80         128   
.text.dremf             0x9d0543f8           0x80         128   
.text.isinf             0x9d054478           0x80         128   
.text                   0x9d0544f8           0x7c         124  App's exec code 
.text.atoi              0x9d054574           0x7c         124   
.text.fptoul            0x9d0545f0           0x7c         124   
.text.litodp            0x9d05466c           0x78         120   
.text                   0x9d0546e4           0x74         116  App's exec code 
.text.__unorddf2        0x9d054758           0x68         104   
.text.sitofp            0x9d0547c0           0x60          96   
.text.__string_out      0x9d054820           0x5c          92   
.rodata.str1.4          0x9d05487c           0x58          88   
.text.__fmt_state       0x9d0548d4           0x58          88   
.text.main_entry        0x9d05492c           0x54          84   
.text.__sio_sprintf_dou 0x9d054980           0x4c          76   
.text.stpncpy           0x9d0549cc           0x4c          76   
.text                   0x9d054a18           0x48          72  App's exec code 
.text._bootstrap_except 0x9d054a60           0x48          72   
.text._cache_err_except 0x9d054aa8           0x48          72   
.text._simple_tlb_refil 0x9d054af0           0x48          72   
.text.strncmp           0x9d054b38           0x48          72   
.text                   0x9d054b80           0x44          68  App's exec code 
.rodata.cst4            0x9d054bc4           0x40          64   
.text                   0x9d054c04           0x7c         124  App's exec code 
.text.__vfprintf        0x9d054c80           0x3c          60   
.text.logbf             0x9d054cbc           0x3c          60   
.rodata                 0x9d054cf8           0x38          56  Read-only const 
.text.finitef           0x9d054d30           0x34          52   
.text.isnanf            0x9d054d64           0x34          52   
.text                   0x9d054d98           0x30          48  App's exec code 
.rodata.cst8            0x9d054dc8           0x30          48   
.text.copysign          0x9d054df8           0x30          48   
.text.copysignl         0x9d054e28           0x2c          44   
.rodata.cst4            0x9d054e54            0x4           4   
.rodata.cst8            0x9d054e58           0x28          40   
.rodata.cst4            0x9d054e80           0x28          40   
.rodata.cst8            0x9d054ea8           0x28          40   
.text.__wrap_sprintf    0x9d054ed0           0x28          40   
.text.strncpy           0x9d054ef8           0x28          40   
.text.__vsprintf        0x9d054f20           0x28          40   
.rodata.str1.4          0x9d054f48           0x24          36   
.text.isnanl            0x9d054f6c           0x24          36   
.text.isnan             0x9d054f90           0x24          36   
.text.isinfl            0x9d054fb4           0x24          36   
.rodata.cst8            0x9d054fd8           0x20          32   
.rodata                 0x9d054ff8           0x20          32  Read-only const 
.text.dinit.startup     0x9d055018           0x20          32   
.rodata.cst8            0x9d055038           0x20          32   
.rodata.str1.4          0x9d055058           0x1c          28   
.text.tolower           0x9d055074           0x1c          28   
.text.__tolower_l       0x9d055090           0x1c          28   
.text.toupper           0x9d0550ac           0x1c          28   
.text.__toupper_l       0x9d0550c8           0x1c          28   
.text.logb              0x9d0550e4           0x1c          28   
.text.drem              0x9d055100           0x1c          28   
.rodata.cst4            0x9d05511c            0x4           4   
.rodata.cst8            0x9d055120           0x18          24   
.rodata.cst4            0x9d055138           0x18          24   
.rodata.str1.4          0x9d055150           0x18          24   
.text                   0x9d055168           0x18          24  App's exec code 
.rodata                 0x9d055180           0x18          24  Read-only const 
.rodata.str1.4          0x9d055198           0x14          20   
.text.finitel           0x9d0551ac           0x14          20   
.text.finite            0x9d0551c0           0x14          20   
.rodata.cst8            0x9d0551d8           0x10          16   
.rodata.str1.4          0x9d0551e8           0x10          16   
.rodata.cst8            0x9d0551f8           0x10          16   
.rodata                 0x9d055208           0x10          16  Read-only const 
.bev_handler            0x9d055218           0x10          16   
.rodata.cst8            0x9d055228           0x10          16   
.rodata.cst4            0x9d055238           0x18          24   
.rodata.cst4            0x9d055250            0xc          12   
.rodata.str1.4          0x9d05525c            0xc          12   
.rodata.cst8            0x9d055268           0x10          16   
.rodata.cst8            0x9d055278            0x8           8   
.text._on_reset         0x9d055280            0x8           8   
.text._on_bootstrap     0x9d055288            0x8           8   
.text.__dummy_fmt3      0x9d055290            0x8           8   
.text.__dummy_fmt4      0x9d055298            0x8           8   
.text.__dummy_fmts      0x9d0552a0            0x8           8   
.rodata.str1.4          0x9d0552a8            0x8           8   
.rodata.cst8            0x9d0552b0            0x8           8   
      Total kseg0_program_mem used  :     0x542b4      344756  16.5% of 0x1ff000

kseg1 Boot-Memory Usage
section                    address  length [bytes]      (dec)  Description
-------                 ----------  -------------------------  -----------
.reset                  0x9d000000          0x1b4         436  Reset handler 
         Total kseg1_boot_mem used  :       0x1b4         436  37.8% of 0x480
        --------------------------------------------------------------------------
         Total Program Memory used  :     0x54468      345192  16.5% of 0x1ff480
        --------------------------------------------------------------------------


Data-Memory Usage
section                    address  length [bytes]      (dec)  Description
-------                 ----------  -------------------------  -----------
.sdata                  0x80000000           0x80         128  Small init data 
.sbss                   0x80000080          0x44c        1100  Small uninit data 
.bss                    0x800004cc         0x47dc       18396  Uninitialized data 
.data.math_errhandling_ 0x80004ca8            0x4           4   
.bss.errno              0x80004cac            0x4           4   
.data                   0x80004cc0          0x1c4         452  Initialized data 
.data                   0x80004e84           0x78         120  Initialized data 
.data                   0x80004efc           0x18          24  Initialized data 
.bss                    0x80004f14            0xc          12  Uninitialized data 
.bss                    0x80005320          0x218         536  Uninitialized data 
.bss                    0x80005538          0x110         272  Uninitialized data 
.bss                    0x80005648           0x6c         108  Uninitialized data 
.bss                    0x800056b4           0x36          54  Uninitialized data 
.bss                    0x800056ec           0x10          16  Uninitialized data 
.COHERENTPERSIST$       0xa0004cb0            0x4           4   
.bss.readBuffer         0xa0004f20          0x200         512   
.bss.writeBuffer        0xa0005120          0x200         512   
         Total kseg0/kseg1 data_mem used  :      0x56ee       22254  4.3% of 0x7f000
        --------------------------------------------------------------------------
            Total Data Memory used  :      0x56ee       22254  4.3% of 0x7f000
        --------------------------------------------------------------------------


Dynamic Data-Memory Reservation
section                    address  length [bytes]      (dec)  Description
-------                 ----------  -------------------------  -----------
heap                    0x80005700         0x1000        4096  Reserved for heap 
stack                   0x80006718        0x788d8      493784  Reserved for stack 

        --------------------------------------------------------------------------

Discarded input sections

 .xc_stack_usage.hdr
                0x0000000000000000        0xe c:/program files/microchip/xc32/v4.20/bin/bin/../../lib/gcc/pic32mx/8.3.1/../../../../pic32mx/lib\debug-exception-return.o
 .xc_stack_usage
                0x0000000000000000       0x1d c:/program files/microchip/xc32/v4.20/bin/bin/../../lib/gcc/pic32mx/8.3.1/../../../../pic32mx/lib\debug-exception-return.o
 .reginfo       0x0000000000000000       0x18 output\tmr.o
 .MIPS.abiflags
                0x0000000000000000       0x18 output\tmr.o
 .reginfo       0x0000000000000000       0x18 output\ringBuffer.o
 .MIPS.abiflags
                0x0000000000000000       0x18 output\ringBuffer.o
 .reginfo       0x0000000000000000       0x18 output\task.o
 .MIPS.abiflags
                0x0000000000000000       0x18 output\task.o
 .reginfo       0x0000000000000000       0x18 output\eeprom.o
 .MIPS.abiflags
                0x0000000000000000       0x18 output\eeprom.o
 .reginfo       0x0000000000000000       0x18 output\eep_manager.o
 .MIPS.abiflags
                0x0000000000000000       0x18 output\eep_manager.o
 .reginfo       0x0000000000000000       0x18 output\main.o
 .MIPS.abiflags
                0x0000000000000000       0x18 output\main.o
 .reginfo       0x0000000000000000       0x18 output\c_eep_manager.o
 .MIPS.abiflags
                0x0000000000000000       0x18 output\c_eep_manager.o
 .reginfo       0x0000000000000000       0x18 output\app.o
 .MIPS.abiflags
                0x0000000000000000       0x18 output\app.o
 .reginfo       0x0000000000000000       0x18 output\ad.o
 .MIPS.abiflags
                0x0000000000000000       0x18 output\ad.o
 .reginfo       0x0000000000000000       0x18 output\grbl_gcode.o
 .MIPS.abiflags
                0x0000000000000000       0x18 output\grbl_gcode.o
 .reginfo       0x0000000000000000       0x18 output\grbl_limits.o
 .MIPS.abiflags
                0x0000000000000000       0x18 output\grbl_limits.o
 .reginfo       0x0000000000000000       0x18 output\coolant_control.o
 .MIPS.abiflags
                0x0000000000000000       0x18 output\coolant_control.o
 .reginfo       0x0000000000000000       0x18 output\motion_control.o
 .MIPS.abiflags
                0x0000000000000000       0x18 output\motion_control.o
 .reginfo       0x0000000000000000       0x18 output\nuts_bolts.o
 .MIPS.abiflags
                0x0000000000000000       0x18 output\nuts_bolts.o
 .reginfo       0x0000000000000000       0x18 output\planner.o
 .MIPS.abiflags
                0x0000000000000000       0x18 output\planner.o
 .reginfo       0x0000000000000000       0x18 output\grbl_print.o
 .MIPS.abiflags
                0x0000000000000000       0x18 output\grbl_print.o
 .reginfo       0x0000000000000000       0x18 output\grbl_report.o
 .MIPS.abiflags
                0x0000000000000000       0x18 output\grbl_report.o
 .reginfo       0x0000000000000000       0x18 output\settings.o
 .MIPS.abiflags
                0x0000000000000000       0x18 output\settings.o
 .reginfo       0x0000000000000000       0x18 output\spindle_control.o
 .MIPS.abiflags
                0x0000000000000000       0x18 output\spindle_control.o
 .reginfo       0x0000000000000000       0x18 output\stepper.o
 .MIPS.abiflags
                0x0000000000000000       0x18 output\stepper.o
 .reginfo       0x0000000000000000       0x18 output\system.o
 .MIPS.abiflags
                0x0000000000000000       0x18 output\system.o
 .reginfo       0x0000000000000000       0x18 output\grbl.o
 .MIPS.abiflags
                0x0000000000000000       0x18 output\grbl.o
 .reginfo       0x0000000000000000       0x18 output\grbl_homing.o
 .MIPS.abiflags
                0x0000000000000000       0x18 output\grbl_homing.o
 .reginfo       0x0000000000000000       0x18 output\pwm.o
 .MIPS.abiflags
                0x0000000000000000       0x18 output\pwm.o
 .reginfo       0x0000000000000000       0x18 output\jog.o
 .MIPS.abiflags
                0x0000000000000000       0x18 output\jog.o
 .reginfo       0x0000000000000000       0x18 output\dee.o
 .MIPS.abiflags
                0x0000000000000000       0x18 output\dee.o
 .reginfo       0x0000000000000000       0x18 output\dee_page.o
 .MIPS.abiflags
                0x0000000000000000       0x18 output\dee_page.o
 .reginfo       0x0000000000000000       0x18 output\dee_page_helper.o
 .MIPS.abiflags
                0x0000000000000000       0x18 output\dee_page_helper.o
 .reginfo       0x0000000000000000       0x18 output\eep_manager_crc.o
 .MIPS.abiflags
                0x0000000000000000       0x18 output\eep_manager_crc.o
 .reginfo       0x0000000000000000       0x18 output\system_control.o
 .MIPS.abiflags
                0x0000000000000000       0x18 output\system_control.o
 .reginfo       0x0000000000000000       0x18 output\stepper_enable.o
 .MIPS.abiflags
                0x0000000000000000       0x18 output\stepper_enable.o
 .reginfo       0x0000000000000000       0x18 output\system_exec.o
 .MIPS.abiflags
                0x0000000000000000       0x18 output\system_exec.o
 .reginfo       0x0000000000000000       0x18 output\system_alarm.o
 .MIPS.abiflags
                0x0000000000000000       0x18 output\system_alarm.o
 .reginfo       0x0000000000000000       0x18 output\grbl_eeprom.o
 .MIPS.abiflags
                0x0000000000000000       0x18 output\grbl_eeprom.o
 .reginfo       0x0000000000000000       0x18 output\bootloader_interface.o
 .MIPS.abiflags
                0x0000000000000000       0x18 output\bootloader_interface.o
 .reginfo       0x0000000000000000       0x18 output\grbl_toolchange.o
 .MIPS.abiflags
                0x0000000000000000       0x18 output\grbl_toolchange.o
 .reginfo       0x0000000000000000       0x18 output\grbl_protocol.o
 .MIPS.abiflags
                0x0000000000000000       0x18 output\grbl_protocol.o
 .reginfo       0x0000000000000000       0x18 output\grbl_running.o
 .MIPS.abiflags
                0x0000000000000000       0x18 output\grbl_running.o
 .reginfo       0x0000000000000000       0x18 output\grbl_bootloader.o
 .MIPS.abiflags
                0x0000000000000000       0x18 output\grbl_bootloader.o
 .reginfo       0x0000000000000000       0x18 output\grbl_probe.o
 .MIPS.abiflags
                0x0000000000000000       0x18 output\grbl_probe.o
 .reginfo       0x0000000000000000       0x18 output\ethernet.o
 .MIPS.abiflags
                0x0000000000000000       0x18 output\ethernet.o
 .reginfo       0x0000000000000000       0x18 output\ENC28J60.o
 .MIPS.abiflags
                0x0000000000000000       0x18 output\ENC28J60.o
 .reginfo       0x0000000000000000       0x18 output\DHCP.o
 .MIPS.abiflags
                0x0000000000000000       0x18 output\DHCP.o
 .reginfo       0x0000000000000000       0x18 output\ARP.o
 .MIPS.abiflags
                0x0000000000000000       0x18 output\ARP.o
 .reginfo       0x0000000000000000       0x18 output\Announce.o
 .MIPS.abiflags
                0x0000000000000000       0x18 output\Announce.o
 .reginfo       0x0000000000000000       0x18 output\Helpers.o
 .MIPS.abiflags
                0x0000000000000000       0x18 output\Helpers.o
 .reginfo       0x0000000000000000       0x18 output\ICMP.o
 .MIPS.abiflags
                0x0000000000000000       0x18 output\ICMP.o
 .reginfo       0x0000000000000000       0x18 output\IP.o
 .MIPS.abiflags
                0x0000000000000000       0x18 output\IP.o
 .reginfo       0x0000000000000000       0x18 output\StackTsk.o
 .MIPS.abiflags
                0x0000000000000000       0x18 output\StackTsk.o
 .reginfo       0x0000000000000000       0x18 output\UDP.o
 .MIPS.abiflags
                0x0000000000000000       0x18 output\UDP.o
 .reginfo       0x0000000000000000       0x18 output\ethernet_grbl_multi.o
 .MIPS.abiflags
                0x0000000000000000       0x18 output\ethernet_grbl_multi.o
 .reginfo       0x0000000000000000       0x18 output\grbl_multi.o
 .MIPS.abiflags
                0x0000000000000000       0x18 output\grbl_multi.o
 .reginfo       0x0000000000000000       0x18 output\Reboot.o
 .MIPS.abiflags
                0x0000000000000000       0x18 output\Reboot.o
 .reginfo       0x0000000000000000       0x18 output\TCP.o
 .MIPS.abiflags
                0x0000000000000000       0x18 output\TCP.o
 .reginfo       0x0000000000000000       0x18 output\BerkeleyAPI.o
 .MIPS.abiflags
                0x0000000000000000       0x18 output\BerkeleyAPI.o
 .reginfo       0x0000000000000000       0x18 output\mal.o
 .MIPS.abiflags
                0x0000000000000000       0x18 output\mal.o
 .reginfo       0x0000000000000000       0x18 output\isr.o
 .MIPS.abiflags
                0x0000000000000000       0x18 output\isr.o
 .reginfo       0x0000000000000000       0x18 output\exceptions.o
 .MIPS.abiflags
                0x0000000000000000       0x18 output\exceptions.o
 .reginfo       0x0000000000000000       0x18 output\usb_device_cdc_acm.o
 .MIPS.abiflags
                0x0000000000000000       0x18 output\usb_device_cdc_acm.o
 .reginfo       0x0000000000000000       0x18 output\usb_device_cdc.o
 .MIPS.abiflags
                0x0000000000000000       0x18 output\usb_device_cdc.o
 .reginfo       0x0000000000000000       0x18 output\usb_device.o
 .MIPS.abiflags
                0x0000000000000000       0x18 output\usb_device.o
 .reginfo       0x0000000000000000       0x18 output\usb_app.o
 .MIPS.abiflags
                0x0000000000000000       0x18 output\usb_app.o
 .reginfo       0x0000000000000000       0x18 output\usb.o
 .MIPS.abiflags
                0x0000000000000000       0x18 output\usb.o
 .reginfo       0x0000000000000000       0x18 output\system_tasks.o
 .MIPS.abiflags
                0x0000000000000000       0x18 output\system_tasks.o
 .reginfo       0x0000000000000000       0x18 output\sys_int_pic32.o
 .MIPS.abiflags
                0x0000000000000000       0x18 output\sys_int_pic32.o
 .reginfo       0x0000000000000000       0x18 output\system_init.o
 .MIPS.abiflags
                0x0000000000000000       0x18 output\system_init.o
 .reginfo       0x0000000000000000       0x18 output\peripheral.o
 .MIPS.abiflags
                0x0000000000000000       0x18 output\peripheral.o
 .reginfo       0x0000000000000000       0x18 output\drv_usbhs_device.o
 .MIPS.abiflags
                0x0000000000000000       0x18 output\drv_usbhs_device.o
 .reginfo       0x0000000000000000       0x18 output\drv_usbhs.o
 .MIPS.abiflags
                0x0000000000000000       0x18 output\drv_usbhs.o
 .reginfo       0x0000000000000000       0x18 output\bsp_sys_init.o
 .MIPS.abiflags
                0x0000000000000000       0x18 output\bsp_sys_init.o
 .reginfo       0x0000000000000000       0x18 output\stackmeasure.o
 .MIPS.abiflags
                0x0000000000000000       0x18 output\stackmeasure.o
 .reginfo       0x0000000000000000       0x18 output\stackmeasure_helper.o
 .MIPS.abiflags
                0x0000000000000000       0x18 output\stackmeasure_helper.o
 .reginfo       0x0000000000000000       0x18 output\noinitram.o
 .MIPS.abiflags
                0x0000000000000000       0x18 output\noinitram.o
 .reginfo       0x0000000000000000       0x18 output\usb_grbl_multi.o
 .MIPS.abiflags
                0x0000000000000000       0x18 output\usb_grbl_multi.o
 .reginfo       0x0000000000000000       0x18 output\sleep.o
 .MIPS.abiflags
                0x0000000000000000       0x18 output\sleep.o
 .reginfo       0x0000000000000000       0x18 output\rtcconverter.o
 .MIPS.abiflags
                0x0000000000000000       0x18 output\rtcconverter.o
 .reginfo       0x0000000000000000       0x18 output\rtc.o
 .MIPS.abiflags
                0x0000000000000000       0x18 output\rtc.o
 .reginfo       0x0000000000000000       0x18 output\daylight.o
 .MIPS.abiflags
                0x0000000000000000       0x18 output\daylight.o
 .reginfo       0x0000000000000000       0x18 output\aes_128.o
 .MIPS.abiflags
                0x0000000000000000       0x18 output\aes_128.o
 .reginfo       0x0000000000000000       0x18 output\aes_block.o
 .MIPS.abiflags
                0x0000000000000000       0x18 output\aes_block.o
 .reginfo       0x0000000000000000       0x18 output\aes_cbc.o
 .MIPS.abiflags
                0x0000000000000000       0x18 output\aes_cbc.o
 .reginfo       0x0000000000000000       0x18 output\aes_cbc_mac.o
 .MIPS.abiflags
                0x0000000000000000       0x18 output\aes_cbc_mac.o
 .reginfo       0x0000000000000000       0x18 output\aes_cmac.o
 .MIPS.abiflags
                0x0000000000000000       0x18 output\aes_cmac.o
 .reginfo       0x0000000000000000       0x18 output\rijndael.o
 .MIPS.abiflags
                0x0000000000000000       0x18 output\rijndael.o
 .reginfo       0x0000000000000000       0x18 output\aes_challenge_response.o
 .MIPS.abiflags
                0x0000000000000000       0x18 output\aes_challenge_response.o
 .reginfo       0x0000000000000000       0x18 output\aes_key.o
 .MIPS.abiflags
                0x0000000000000000       0x18 output\aes_key.o
 .reginfo       0x0000000000000000       0x18 output\aes_ecb.o
 .MIPS.abiflags
                0x0000000000000000       0x18 output\aes_ecb.o
 .reginfo       0x0000000000000000       0x18 output\MQTT.o
 .MIPS.abiflags
                0x0000000000000000       0x18 output\MQTT.o
 .reginfo       0x0000000000000000       0x18 output\MQTTclient.o
 .MIPS.abiflags
                0x0000000000000000       0x18 output\MQTTclient.o
 .reginfo       0x0000000000000000       0x18 output\DNS.o
 .MIPS.abiflags
                0x0000000000000000       0x18 output\DNS.o
 .reginfo       0x0000000000000000       0x18 output\sntp.o
 .MIPS.abiflags
                0x0000000000000000       0x18 output\sntp.o
 .reginfo       0x0000000000000000       0x18 output\random.o
 .MIPS.abiflags
                0x0000000000000000       0x18 output\random.o
 .reginfo       0x0000000000000000       0x18 output\sha256.o
 .MIPS.abiflags
                0x0000000000000000       0x18 output\sha256.o
 .reginfo       0x0000000000000000       0x18 output\spi2.o
 .MIPS.abiflags
                0x0000000000000000       0x18 output\spi2.o
 .reginfo       0x0000000000000000       0x18 output\wget.o
 .MIPS.abiflags
                0x0000000000000000       0x18 output\wget.o
 .reginfo       0x0000000000000000       0x18 c:/program files/microchip/xc32/v4.20/bin/bin/../../lib/gcc/pic32mx/8.3.1/../../../../pic32mx/lib/./proc/32MZ2048ECG144\vector_offset_init.o
 .MIPS.abiflags
                0x0000000000000000       0x18 c:/program files/microchip/xc32/v4.20/bin/bin/../../lib/gcc/pic32mx/8.3.1/../../../../pic32mx/lib/./proc/32MZ2048ECG144\vector_offset_init.o
 .reginfo       0x0000000000000000       0x18 C:\Users\kyrk\AppData\Local\Temp\ccy8KzF8.o
 .MIPS.abiflags
                0x0000000000000000       0x18 C:\Users\kyrk\AppData\Local\Temp\ccy8KzF8.o
 .reginfo       0x0000000000000000       0x18 C:\Users\kyrk\AppData\Local\Temp\ccopN9yJ.o
 .MIPS.abiflags
                0x0000000000000000       0x18 C:\Users\kyrk\AppData\Local\Temp\ccopN9yJ.o
 .reginfo       0x0000000000000000       0x18 C:\Users\kyrk\AppData\Local\Temp\cc4IlKdm.o
 .MIPS.abiflags
                0x0000000000000000       0x18 C:\Users\kyrk\AppData\Local\Temp\cc4IlKdm.o
 .discard       0x0000000000000000        0x4 C:\Users\kyrk\AppData\Local\Temp\cc4IlKdm.o
 .reginfo       0x0000000000000000       0x18 c:/program files/microchip/xc32/v4.20/bin/bin/../../lib/gcc/pic32mx/8.3.1/../../../../pic32mx/lib/./proc/32MZ2048ECG144\default_isr_vectors.o
 .MIPS.abiflags
                0x0000000000000000       0x18 c:/program files/microchip/xc32/v4.20/bin/bin/../../lib/gcc/pic32mx/8.3.1/../../../../pic32mx/lib/./proc/32MZ2048ECG144\default_isr_vectors.o
 .discard       0x0000000000000000        0x4 c:/program files/microchip/xc32/v4.20/bin/bin/../../lib/gcc/pic32mx/8.3.1/../../../../pic32mx/lib/./proc/32MZ2048ECG144\default_isr_vectors.o
 .reginfo       0x0000000000000000       0x18 c:/program files/microchip/xc32/v4.20/bin/bin/../../lib/gcc/pic32mx/8.3.1/../../../../pic32mx/lib\pic32_software_reset.o
 .MIPS.abiflags
                0x0000000000000000       0x18 c:/program files/microchip/xc32/v4.20/bin/bin/../../lib/gcc/pic32mx/8.3.1/../../../../pic32mx/lib\pic32_software_reset.o
 .xc_stack_usage.hdr
                0x0000000000000000        0xe c:/program files/microchip/xc32/v4.20/bin/bin/../../lib/gcc/pic32mx/8.3.1/../../../../pic32mx/lib\pic32_software_reset.o
 .xc_stack_usage
                0x0000000000000000       0x24 c:/program files/microchip/xc32/v4.20/bin/bin/../../lib/gcc/pic32mx/8.3.1/../../../../pic32mx/lib\pic32_software_reset.o
 .reginfo       0x0000000000000000       0x18 c:/program files/microchip/xc32/v4.20/bin/bin/../../lib/gcc/pic32mx/8.3.1\libgcc.a(_fixunssfdi.o)
 .MIPS.abiflags
                0x0000000000000000       0x18 c:/program files/microchip/xc32/v4.20/bin/bin/../../lib/gcc/pic32mx/8.3.1\libgcc.a(_fixunssfdi.o)
 .xc_stack_usage
                0x0000000000000000       0x1a c:/program files/microchip/xc32/v4.20/bin/bin/../../lib/gcc/pic32mx/8.3.1\libgcc.a(_fixunssfdi.o)
 .xc_stack_usage.hdr
                0x0000000000000000        0xe c:/program files/microchip/xc32/v4.20/bin/bin/../../lib/gcc/pic32mx/8.3.1\libgcc.a(_fixunssfdi.o)
 .reginfo       0x0000000000000000       0x18 c:/program files/microchip/xc32/v4.20/bin/bin/../../lib/gcc/pic32mx/8.3.1\libgcc.a(_floatundidf.o)
 .MIPS.abiflags
                0x0000000000000000       0x18 c:/program files/microchip/xc32/v4.20/bin/bin/../../lib/gcc/pic32mx/8.3.1\libgcc.a(_floatundidf.o)
 .xc_stack_usage
                0x0000000000000000       0x1b c:/program files/microchip/xc32/v4.20/bin/bin/../../lib/gcc/pic32mx/8.3.1\libgcc.a(_floatundidf.o)
 .xc_stack_usage.hdr
                0x0000000000000000        0xe c:/program files/microchip/xc32/v4.20/bin/bin/../../lib/gcc/pic32mx/8.3.1\libgcc.a(_floatundidf.o)
 .reginfo       0x0000000000000000       0x18 c:/program files/microchip/xc32/v4.20/bin/bin/../../lib/gcc/pic32mx/8.3.1\libgcc.a(floatunsisf.o)
 .MIPS.abiflags
                0x0000000000000000       0x18 c:/program files/microchip/xc32/v4.20/bin/bin/../../lib/gcc/pic32mx/8.3.1\libgcc.a(floatunsisf.o)
 .xc_stack_usage
                0x0000000000000000       0x1b c:/program files/microchip/xc32/v4.20/bin/bin/../../lib/gcc/pic32mx/8.3.1\libgcc.a(floatunsisf.o)
 .xc_stack_usage.hdr
                0x0000000000000000        0xe c:/program files/microchip/xc32/v4.20/bin/bin/../../lib/gcc/pic32mx/8.3.1\libgcc.a(floatunsisf.o)
 .reginfo       0x0000000000000000       0x18 c:/program files/microchip/xc32/v4.20/bin/bin/../../lib/gcc/pic32mx/8.3.1\libgcc.a(floatunsidf.o)
 .MIPS.abiflags
                0x0000000000000000       0x18 c:/program files/microchip/xc32/v4.20/bin/bin/../../lib/gcc/pic32mx/8.3.1\libgcc.a(floatunsidf.o)
 .xc_stack_usage
                0x0000000000000000       0x1b c:/program files/microchip/xc32/v4.20/bin/bin/../../lib/gcc/pic32mx/8.3.1\libgcc.a(floatunsidf.o)
 .xc_stack_usage.hdr
                0x0000000000000000        0xe c:/program files/microchip/xc32/v4.20/bin/bin/../../lib/gcc/pic32mx/8.3.1\libgcc.a(floatunsidf.o)
 .reginfo       0x0000000000000000       0x18 c:/program files/microchip/xc32/v4.20/bin/bin/../../lib/gcc/pic32mx/8.3.1/../../../../pic32mx/lib\libpic32.a(memcmp.o)
 .MIPS.abiflags
                0x0000000000000000       0x18 c:/program files/microchip/xc32/v4.20/bin/bin/../../lib/gcc/pic32mx/8.3.1/../../../../pic32mx/lib\libpic32.a(memcmp.o)
 .xc_stack_usage.hdr
                0x0000000000000000        0xe c:/program files/microchip/xc32/v4.20/bin/bin/../../lib/gcc/pic32mx/8.3.1/../../../../pic32mx/lib\libpic32.a(memcmp.o)
 .xc_stack_usage
                0x0000000000000000       0x14 c:/program files/microchip/xc32/v4.20/bin/bin/../../lib/gcc/pic32mx/8.3.1/../../../../pic32mx/lib\libpic32.a(memcmp.o)
 .reginfo       0x0000000000000000       0x18 c:/program files/microchip/xc32/v4.20/bin/bin/../../lib/gcc/pic32mx/8.3.1/../../../../pic32mx/lib\libpic32.a(memcpy.o)
 .MIPS.abiflags
                0x0000000000000000       0x18 c:/program files/microchip/xc32/v4.20/bin/bin/../../lib/gcc/pic32mx/8.3.1/../../../../pic32mx/lib\libpic32.a(memcpy.o)
 .xc_stack_usage.hdr
                0x0000000000000000        0xe c:/program files/microchip/xc32/v4.20/bin/bin/../../lib/gcc/pic32mx/8.3.1/../../../../pic32mx/lib\libpic32.a(memcpy.o)
 .xc_stack_usage
                0x0000000000000000       0x14 c:/program files/microchip/xc32/v4.20/bin/bin/../../lib/gcc/pic32mx/8.3.1/../../../../pic32mx/lib\libpic32.a(memcpy.o)
 .reginfo       0x0000000000000000       0x18 c:/program files/microchip/xc32/v4.20/bin/bin/../../lib/gcc/pic32mx/8.3.1/../../../../pic32mx/lib\libpic32.a(memset.o)
 .MIPS.abiflags
                0x0000000000000000       0x18 c:/program files/microchip/xc32/v4.20/bin/bin/../../lib/gcc/pic32mx/8.3.1/../../../../pic32mx/lib\libpic32.a(memset.o)
 .xc_stack_usage.hdr
                0x0000000000000000        0xe c:/program files/microchip/xc32/v4.20/bin/bin/../../lib/gcc/pic32mx/8.3.1/../../../../pic32mx/lib\libpic32.a(memset.o)
 .xc_stack_usage
                0x0000000000000000       0x14 c:/program files/microchip/xc32/v4.20/bin/bin/../../lib/gcc/pic32mx/8.3.1/../../../../pic32mx/lib\libpic32.a(memset.o)
 .reginfo       0x0000000000000000       0x18 c:/program files/microchip/xc32/v4.20/bin/bin/../../lib/gcc/pic32mx/8.3.1/../../../../pic32mx/lib\libpic32.a(strcmp.o)
 .MIPS.abiflags
                0x0000000000000000       0x18 c:/program files/microchip/xc32/v4.20/bin/bin/../../lib/gcc/pic32mx/8.3.1/../../../../pic32mx/lib\libpic32.a(strcmp.o)
 .xc_stack_usage.hdr
                0x0000000000000000        0xe c:/program files/microchip/xc32/v4.20/bin/bin/../../lib/gcc/pic32mx/8.3.1/../../../../pic32mx/lib\libpic32.a(strcmp.o)
 .xc_stack_usage
                0x0000000000000000       0x14 c:/program files/microchip/xc32/v4.20/bin/bin/../../lib/gcc/pic32mx/8.3.1/../../../../pic32mx/lib\libpic32.a(strcmp.o)
 .reginfo       0x0000000000000000       0x18 c:/program files/microchip/xc32/v4.20/bin/bin/../../lib/gcc/pic32mx/8.3.1/../../../../pic32mx/lib\libpic32.a(strlen.o)
 .MIPS.abiflags
                0x0000000000000000       0x18 c:/program files/microchip/xc32/v4.20/bin/bin/../../lib/gcc/pic32mx/8.3.1/../../../../pic32mx/lib\libpic32.a(strlen.o)
 .xc_stack_usage.hdr
                0x0000000000000000        0xe c:/program files/microchip/xc32/v4.20/bin/bin/../../lib/gcc/pic32mx/8.3.1/../../../../pic32mx/lib\libpic32.a(strlen.o)
 .xc_stack_usage
                0x0000000000000000       0x14 c:/program files/microchip/xc32/v4.20/bin/bin/../../lib/gcc/pic32mx/8.3.1/../../../../pic32mx/lib\libpic32.a(strlen.o)
 .reginfo       0x0000000000000000       0x18 c:/program files/microchip/xc32/v4.20/bin/bin/../../lib/gcc/pic32mx/8.3.1/../../../../pic32mx/lib\libpic32.a(default-bootstrap-exception-handler.o)
 .MIPS.abiflags
                0x0000000000000000       0x18 c:/program files/microchip/xc32/v4.20/bin/bin/../../lib/gcc/pic32mx/8.3.1/../../../../pic32mx/lib\libpic32.a(default-bootstrap-exception-handler.o)
 .xc_stack_usage
                0x0000000000000000       0x2a c:/program files/microchip/xc32/v4.20/bin/bin/../../lib/gcc/pic32mx/8.3.1/../../../../pic32mx/lib\libpic32.a(default-bootstrap-exception-handler.o)
 .xc_stack_usage.hdr
                0x0000000000000000        0xe c:/program files/microchip/xc32/v4.20/bin/bin/../../lib/gcc/pic32mx/8.3.1/../../../../pic32mx/lib\libpic32.a(default-bootstrap-exception-handler.o)
 .reginfo       0x0000000000000000       0x18 c:/program files/microchip/xc32/v4.20/bin/bin/../../lib/gcc/pic32mx/8.3.1/../../../../pic32mx/lib\libpic32.a(default-on-reset.o)
 .MIPS.abiflags
                0x0000000000000000       0x18 c:/program files/microchip/xc32/v4.20/bin/bin/../../lib/gcc/pic32mx/8.3.1/../../../../pic32mx/lib\libpic32.a(default-on-reset.o)
 .xc_stack_usage
                0x0000000000000000       0x17 c:/program files/microchip/xc32/v4.20/bin/bin/../../lib/gcc/pic32mx/8.3.1/../../../../pic32mx/lib\libpic32.a(default-on-reset.o)
 .xc_stack_usage.hdr
                0x0000000000000000        0xe c:/program files/microchip/xc32/v4.20/bin/bin/../../lib/gcc/pic32mx/8.3.1/../../../../pic32mx/lib\libpic32.a(default-on-reset.o)
 .reginfo       0x0000000000000000       0x18 c:/program files/microchip/xc32/v4.20/bin/bin/../../lib/gcc/pic32mx/8.3.1/../../../../pic32mx/lib\libpic32.a(default-on-bootstrap.o)
 .MIPS.abiflags
                0x0000000000000000       0x18 c:/program files/microchip/xc32/v4.20/bin/bin/../../lib/gcc/pic32mx/8.3.1/../../../../pic32mx/lib\libpic32.a(default-on-bootstrap.o)
 .xc_stack_usage
                0x0000000000000000       0x1b c:/program files/microchip/xc32/v4.20/bin/bin/../../lib/gcc/pic32mx/8.3.1/../../../../pic32mx/lib\libpic32.a(default-on-bootstrap.o)
 .xc_stack_usage.hdr
                0x0000000000000000        0xe c:/program files/microchip/xc32/v4.20/bin/bin/../../lib/gcc/pic32mx/8.3.1/../../../../pic32mx/lib\libpic32.a(default-on-bootstrap.o)
 .reginfo       0x0000000000000000       0x18 c:/program files/microchip/xc32/v4.20/bin/bin/../../lib/gcc/pic32mx/8.3.1/../../../../pic32mx/lib\libpic32.a(default-nmi-handler.o)
 .MIPS.abiflags
                0x0000000000000000       0x18 c:/program files/microchip/xc32/v4.20/bin/bin/../../lib/gcc/pic32mx/8.3.1/../../../../pic32mx/lib\libpic32.a(default-nmi-handler.o)
 .xc_stack_usage.hdr
                0x0000000000000000        0xe c:/program files/microchip/xc32/v4.20/bin/bin/../../lib/gcc/pic32mx/8.3.1/../../../../pic32mx/lib\libpic32.a(default-nmi-handler.o)
 .xc_stack_usage
                0x0000000000000000       0x1a c:/program files/microchip/xc32/v4.20/bin/bin/../../lib/gcc/pic32mx/8.3.1/../../../../pic32mx/lib\libpic32.a(default-nmi-handler.o)
 .reginfo       0x0000000000000000       0x18 c:/program files/microchip/xc32/v4.20/bin/bin/../../lib/gcc/pic32mx/8.3.1/../../../../pic32mx/lib\libpic32.a(pic32_data_init_wrapper.o)
 .MIPS.abiflags
                0x0000000000000000       0x18 c:/program files/microchip/xc32/v4.20/bin/bin/../../lib/gcc/pic32mx/8.3.1/../../../../pic32mx/lib\libpic32.a(pic32_data_init_wrapper.o)
 .xc_stack_usage.hdr
                0x0000000000000000        0xe c:/program files/microchip/xc32/v4.20/bin/bin/../../lib/gcc/pic32mx/8.3.1/../../../../pic32mx/lib\libpic32.a(pic32_data_init_wrapper.o)
 .xc_stack_usage
                0x0000000000000000       0x1f c:/program files/microchip/xc32/v4.20/bin/bin/../../lib/gcc/pic32mx/8.3.1/../../../../pic32mx/lib\libpic32.a(pic32_data_init_wrapper.o)
 .reginfo       0x0000000000000000       0x18 c:/program files/microchip/xc32/v4.20/bin/bin/../../lib/gcc/pic32mx/8.3.1/../../../../pic32mx/lib\libpic32.a(pic32_data_init_0_1.o)
 .MIPS.abiflags
                0x0000000000000000       0x18 c:/program files/microchip/xc32/v4.20/bin/bin/../../lib/gcc/pic32mx/8.3.1/../../../../pic32mx/lib\libpic32.a(pic32_data_init_0_1.o)
 .xc_stack_usage.hdr
                0x0000000000000000        0xe c:/program files/microchip/xc32/v4.20/bin/bin/../../lib/gcc/pic32mx/8.3.1/../../../../pic32mx/lib\libpic32.a(pic32_data_init_0_1.o)
 .xc_stack_usage
                0x0000000000000000       0x24 c:/program files/microchip/xc32/v4.20/bin/bin/../../lib/gcc/pic32mx/8.3.1/../../../../pic32mx/lib\libpic32.a(pic32_data_init_0_1.o)
 .reginfo       0x0000000000000000       0x18 c:/program files/microchip/xc32/v4.20/bin/bin/../../lib/gcc/pic32mx/8.3.1/../../../../pic32mx/lib\libpic32.a(pic32_init_cache.o)
 .MIPS.abiflags
                0x0000000000000000       0x18 c:/program files/microchip/xc32/v4.20/bin/bin/../../lib/gcc/pic32mx/8.3.1/../../../../pic32mx/lib\libpic32.a(pic32_init_cache.o)
 .xc_stack_usage.hdr
                0x0000000000000000        0xe c:/program files/microchip/xc32/v4.20/bin/bin/../../lib/gcc/pic32mx/8.3.1/../../../../pic32mx/lib\libpic32.a(pic32_init_cache.o)
 .xc_stack_usage
                0x0000000000000000       0x5a c:/program files/microchip/xc32/v4.20/bin/bin/../../lib/gcc/pic32mx/8.3.1/../../../../pic32mx/lib\libpic32.a(pic32_init_cache.o)
 .reginfo       0x0000000000000000       0x18 c:/program files/microchip/xc32/v4.20/bin/bin/../../lib/gcc/pic32mx/8.3.1/../../../../pic32mx/lib\libpic32.a(pic32_init_tlb_ebi_sqi.o)
 .MIPS.abiflags
                0x0000000000000000       0x18 c:/program files/microchip/xc32/v4.20/bin/bin/../../lib/gcc/pic32mx/8.3.1/../../../../pic32mx/lib\libpic32.a(pic32_init_tlb_ebi_sqi.o)
 .xc_stack_usage.hdr
                0x0000000000000000        0xe c:/program files/microchip/xc32/v4.20/bin/bin/../../lib/gcc/pic32mx/8.3.1/../../../../pic32mx/lib\libpic32.a(pic32_init_tlb_ebi_sqi.o)
 .xc_stack_usage
                0x0000000000000000       0x26 c:/program files/microchip/xc32/v4.20/bin/bin/../../lib/gcc/pic32mx/8.3.1/../../../../pic32mx/lib\libpic32.a(pic32_init_tlb_ebi_sqi.o)
 .reginfo       0x0000000000000000       0x18 c:/program files/microchip/xc32/v4.20/bin/bin/../../lib/gcc/pic32mx/8.3.1/../../../../pic32mx/lib\libpic32.a(general-exception.o)
 .MIPS.abiflags
                0x0000000000000000       0x18 c:/program files/microchip/xc32/v4.20/bin/bin/../../lib/gcc/pic32mx/8.3.1/../../../../pic32mx/lib\libpic32.a(general-exception.o)
 .xc_stack_usage.hdr
                0x0000000000000000        0xe c:/program files/microchip/xc32/v4.20/bin/bin/../../lib/gcc/pic32mx/8.3.1/../../../../pic32mx/lib\libpic32.a(general-exception.o)
 .xc_stack_usage
                0x0000000000000000       0x28 c:/program files/microchip/xc32/v4.20/bin/bin/../../lib/gcc/pic32mx/8.3.1/../../../../pic32mx/lib\libpic32.a(general-exception.o)
 .reginfo       0x0000000000000000       0x18 c:/program files/microchip/xc32/v4.20/bin/bin/../../lib/gcc/pic32mx/8.3.1/../../../../pic32mx/lib\libpic32.a(cache-err-exception.o)
 .MIPS.abiflags
                0x0000000000000000       0x18 c:/program files/microchip/xc32/v4.20/bin/bin/../../lib/gcc/pic32mx/8.3.1/../../../../pic32mx/lib\libpic32.a(cache-err-exception.o)
 .xc_stack_usage.hdr
                0x0000000000000000        0xe c:/program files/microchip/xc32/v4.20/bin/bin/../../lib/gcc/pic32mx/8.3.1/../../../../pic32mx/lib\libpic32.a(cache-err-exception.o)
 .xc_stack_usage
                0x0000000000000000       0x2a c:/program files/microchip/xc32/v4.20/bin/bin/../../lib/gcc/pic32mx/8.3.1/../../../../pic32mx/lib\libpic32.a(cache-err-exception.o)
 .reginfo       0x0000000000000000       0x18 c:/program files/microchip/xc32/v4.20/bin/bin/../../lib/gcc/pic32mx/8.3.1/../../../../pic32mx/lib\libpic32.a(simple-tlb-refill-exception.o)
 .MIPS.abiflags
                0x0000000000000000       0x18 c:/program files/microchip/xc32/v4.20/bin/bin/../../lib/gcc/pic32mx/8.3.1/../../../../pic32mx/lib\libpic32.a(simple-tlb-refill-exception.o)
 .xc_stack_usage.hdr
                0x0000000000000000        0xe c:/program files/microchip/xc32/v4.20/bin/bin/../../lib/gcc/pic32mx/8.3.1/../../../../pic32mx/lib\libpic32.a(simple-tlb-refill-exception.o)
 .xc_stack_usage
                0x0000000000000000       0x32 c:/program files/microchip/xc32/v4.20/bin/bin/../../lib/gcc/pic32mx/8.3.1/../../../../pic32mx/lib\libpic32.a(simple-tlb-refill-exception.o)
 .reginfo       0x0000000000000000       0x18 c:/program files/microchip/xc32/v4.20/bin/bin/../../lib/gcc/pic32mx/8.3.1/../../../../pic32mx/lib\libpic32.a(defaultinterrupt.o)
 .MIPS.abiflags
                0x0000000000000000       0x18 c:/program files/microchip/xc32/v4.20/bin/bin/../../lib/gcc/pic32mx/8.3.1/../../../../pic32mx/lib\libpic32.a(defaultinterrupt.o)
 .xc_stack_usage
                0x0000000000000000       0x1f c:/program files/microchip/xc32/v4.20/bin/bin/../../lib/gcc/pic32mx/8.3.1/../../../../pic32mx/lib\libpic32.a(defaultinterrupt.o)
 .xc_stack_usage.hdr
                0x0000000000000000        0xe c:/program files/microchip/xc32/v4.20/bin/bin/../../lib/gcc/pic32mx/8.3.1/../../../../pic32mx/lib\libpic32.a(defaultinterrupt.o)
 .reginfo       0x0000000000000000       0x18 c:/program files/microchip/xc32/v4.20/bin/bin/../../lib/gcc/pic32mx/8.3.1/../../../../pic32mx/lib\libpic32.a(default-cache-err-exception-handler.o)
 .MIPS.abiflags
                0x0000000000000000       0x18 c:/program files/microchip/xc32/v4.20/bin/bin/../../lib/gcc/pic32mx/8.3.1/../../../../pic32mx/lib\libpic32.a(default-cache-err-exception-handler.o)
 .xc_stack_usage
                0x0000000000000000       0x2a c:/program files/microchip/xc32/v4.20/bin/bin/../../lib/gcc/pic32mx/8.3.1/../../../../pic32mx/lib\libpic32.a(default-cache-err-exception-handler.o)
 .xc_stack_usage.hdr
                0x0000000000000000        0xe c:/program files/microchip/xc32/v4.20/bin/bin/../../lib/gcc/pic32mx/8.3.1/../../../../pic32mx/lib\libpic32.a(default-cache-err-exception-handler.o)
 .reginfo       0x0000000000000000       0x18 c:/program files/microchip/xc32/v4.20/bin/bin/../../lib/gcc/pic32mx/8.3.1/../../../../pic32mx/lib\libpic32.a(default-simple-tlb-refill-exception-handler.o)
 .MIPS.abiflags
                0x0000000000000000       0x18 c:/program files/microchip/xc32/v4.20/bin/bin/../../lib/gcc/pic32mx/8.3.1/../../../../pic32mx/lib\libpic32.a(default-simple-tlb-refill-exception-handler.o)
 .xc_stack_usage
                0x0000000000000000       0x32 c:/program files/microchip/xc32/v4.20/bin/bin/../../lib/gcc/pic32mx/8.3.1/../../../../pic32mx/lib\libpic32.a(default-simple-tlb-refill-exception-handler.o)
 .xc_stack_usage.hdr
                0x0000000000000000        0xe c:/program files/microchip/xc32/v4.20/bin/bin/../../lib/gcc/pic32mx/8.3.1/../../../../pic32mx/lib\libpic32.a(default-simple-tlb-refill-exception-handler.o)
 .reginfo       0x0000000000000000       0x18 c:/program files/microchip/xc32/v4.20/bin/bin/../../lib/gcc/pic32mx/8.3.1/../../../../pic32mx/lib\libc-musl.a(__sio_sprintf_doux.o)
 .MIPS.abiflags
                0x0000000000000000       0x18 c:/program files/microchip/xc32/v4.20/bin/bin/../../lib/gcc/pic32mx/8.3.1/../../../../pic32mx/lib\libc-musl.a(__sio_sprintf_doux.o)
 .xc_stack_usage
                0x0000000000000000       0x3c c:/program files/microchip/xc32/v4.20/bin/bin/../../lib/gcc/pic32mx/8.3.1/../../../../pic32mx/lib\libc-musl.a(__sio_sprintf_doux.o)
 .xc_stack_usage.hdr
                0x0000000000000000        0xe c:/program files/microchip/xc32/v4.20/bin/bin/../../lib/gcc/pic32mx/8.3.1/../../../../pic32mx/lib\libc-musl.a(__sio_sprintf_doux.o)
 .note.GNU-stack
                0x0000000000000000        0x0 c:/program files/microchip/xc32/v4.20/bin/bin/../../lib/gcc/pic32mx/8.3.1/../../../../pic32mx/lib\libc-musl.a(__sio_sprintf_doux.o)
 .reginfo       0x0000000000000000       0x18 c:/program files/microchip/xc32/v4.20/bin/bin/../../lib/gcc/pic32mx/8.3.1/../../../../pic32mx/lib\libc-musl.a(__fmt_d.o)
 .MIPS.abiflags
                0x0000000000000000       0x18 c:/program files/microchip/xc32/v4.20/bin/bin/../../lib/gcc/pic32mx/8.3.1/../../../../pic32mx/lib\libc-musl.a(__fmt_d.o)
 .xc_stack_usage
                0x0000000000000000       0x15 c:/program files/microchip/xc32/v4.20/bin/bin/../../lib/gcc/pic32mx/8.3.1/../../../../pic32mx/lib\libc-musl.a(__fmt_d.o)
 .xc_stack_usage.hdr
                0x0000000000000000        0xe c:/program files/microchip/xc32/v4.20/bin/bin/../../lib/gcc/pic32mx/8.3.1/../../../../pic32mx/lib\libc-musl.a(__fmt_d.o)
 .note.GNU-stack
                0x0000000000000000        0x0 c:/program files/microchip/xc32/v4.20/bin/bin/../../lib/gcc/pic32mx/8.3.1/../../../../pic32mx/lib\libc-musl.a(__fmt_d.o)
 .reginfo       0x0000000000000000       0x18 c:/program files/microchip/xc32/v4.20/bin/bin/../../lib/gcc/pic32mx/8.3.1/../../../../pic32mx/lib\libc-musl.a(__fmt_o.o)
 .MIPS.abiflags
                0x0000000000000000       0x18 c:/program files/microchip/xc32/v4.20/bin/bin/../../lib/gcc/pic32mx/8.3.1/../../../../pic32mx/lib\libc-musl.a(__fmt_o.o)
 .xc_stack_usage
                0x0000000000000000       0x15 c:/program files/microchip/xc32/v4.20/bin/bin/../../lib/gcc/pic32mx/8.3.1/../../../../pic32mx/lib\libc-musl.a(__fmt_o.o)
 .xc_stack_usage.hdr
                0x0000000000000000        0xe c:/program files/microchip/xc32/v4.20/bin/bin/../../lib/gcc/pic32mx/8.3.1/../../../../pic32mx/lib\libc-musl.a(__fmt_o.o)
 .note.GNU-stack
                0x0000000000000000        0x0 c:/program files/microchip/xc32/v4.20/bin/bin/../../lib/gcc/pic32mx/8.3.1/../../../../pic32mx/lib\libc-musl.a(__fmt_o.o)
 .reginfo       0x0000000000000000       0x18 c:/program files/microchip/xc32/v4.20/bin/bin/../../lib/gcc/pic32mx/8.3.1/../../../../pic32mx/lib\libc-musl.a(__fmt_s.o)
 .MIPS.abiflags
                0x0000000000000000       0x18 c:/program files/microchip/xc32/v4.20/bin/bin/../../lib/gcc/pic32mx/8.3.1/../../../../pic32mx/lib\libc-musl.a(__fmt_s.o)
 .xc_stack_usage
                0x0000000000000000       0x15 c:/program files/microchip/xc32/v4.20/bin/bin/../../lib/gcc/pic32mx/8.3.1/../../../../pic32mx/lib\libc-musl.a(__fmt_s.o)
 .xc_stack_usage.hdr
                0x0000000000000000        0xe c:/program files/microchip/xc32/v4.20/bin/bin/../../lib/gcc/pic32mx/8.3.1/../../../../pic32mx/lib\libc-musl.a(__fmt_s.o)
 .note.GNU-stack
                0x0000000000000000        0x0 c:/program files/microchip/xc32/v4.20/bin/bin/../../lib/gcc/pic32mx/8.3.1/../../../../pic32mx/lib\libc-musl.a(__fmt_s.o)
 .reginfo       0x0000000000000000       0x18 c:/program files/microchip/xc32/v4.20/bin/bin/../../lib/gcc/pic32mx/8.3.1/../../../../pic32mx/lib\libc-musl.a(__fmt_u.o)
 .MIPS.abiflags
                0x0000000000000000       0x18 c:/program files/microchip/xc32/v4.20/bin/bin/../../lib/gcc/pic32mx/8.3.1/../../../../pic32mx/lib\libc-musl.a(__fmt_u.o)
 .xc_stack_usage
                0x0000000000000000       0x2a c:/program files/microchip/xc32/v4.20/bin/bin/../../lib/gcc/pic32mx/8.3.1/../../../../pic32mx/lib\libc-musl.a(__fmt_u.o)
 .xc_stack_usage.hdr
                0x0000000000000000        0xe c:/program files/microchip/xc32/v4.20/bin/bin/../../lib/gcc/pic32mx/8.3.1/../../../../pic32mx/lib\libc-musl.a(__fmt_u.o)
 .note.GNU-stack
                0x0000000000000000        0x0 c:/program files/microchip/xc32/v4.20/bin/bin/../../lib/gcc/pic32mx/8.3.1/../../../../pic32mx/lib\libc-musl.a(__fmt_u.o)
 .reginfo       0x0000000000000000       0x18 c:/program files/microchip/xc32/v4.20/bin/bin/../../lib/gcc/pic32mx/8.3.1/../../../../pic32mx/lib\libc-musl.a(__fmt_x.o)
 .MIPS.abiflags
                0x0000000000000000       0x18 c:/program files/microchip/xc32/v4.20/bin/bin/../../lib/gcc/pic32mx/8.3.1/../../../../pic32mx/lib\libc-musl.a(__fmt_x.o)
 .xc_stack_usage
                0x0000000000000000       0x15 c:/program files/microchip/xc32/v4.20/bin/bin/../../lib/gcc/pic32mx/8.3.1/../../../../pic32mx/lib\libc-musl.a(__fmt_x.o)
 .xc_stack_usage.hdr
                0x0000000000000000        0xe c:/program files/microchip/xc32/v4.20/bin/bin/../../lib/gcc/pic32mx/8.3.1/../../../../pic32mx/lib\libc-musl.a(__fmt_x.o)
 .note.GNU-stack
                0x0000000000000000        0x0 c:/program files/microchip/xc32/v4.20/bin/bin/../../lib/gcc/pic32mx/8.3.1/../../../../pic32mx/lib\libc-musl.a(__fmt_x.o)
 .reginfo       0x0000000000000000       0x18 c:/program files/microchip/xc32/v4.20/bin/bin/../../lib/gcc/pic32mx/8.3.1/../../../../pic32mx/lib\libc-musl.a(__pop_int.o)
 .MIPS.abiflags
                0x0000000000000000       0x18 c:/program files/microchip/xc32/v4.20/bin/bin/../../lib/gcc/pic32mx/8.3.1/../../../../pic32mx/lib\libc-musl.a(__pop_int.o)
 .xc_stack_usage
                0x0000000000000000       0x17 c:/program files/microchip/xc32/v4.20/bin/bin/../../lib/gcc/pic32mx/8.3.1/../../../../pic32mx/lib\libc-musl.a(__pop_int.o)
 .xc_stack_usage.hdr
                0x0000000000000000        0xe c:/program files/microchip/xc32/v4.20/bin/bin/../../lib/gcc/pic32mx/8.3.1/../../../../pic32mx/lib\libc-musl.a(__pop_int.o)
 .note.GNU-stack
                0x0000000000000000        0x0 c:/program files/microchip/xc32/v4.20/bin/bin/../../lib/gcc/pic32mx/8.3.1/../../../../pic32mx/lib\libc-musl.a(__pop_int.o)
 .reginfo       0x0000000000000000       0x18 c:/program files/microchip/xc32/v4.20/bin/bin/../../lib/gcc/pic32mx/8.3.1/../../../../pic32mx/lib\libc-musl.a(__pop_ptr.o)
 .MIPS.abiflags
                0x0000000000000000       0x18 c:/program files/microchip/xc32/v4.20/bin/bin/../../lib/gcc/pic32mx/8.3.1/../../../../pic32mx/lib\libc-musl.a(__pop_ptr.o)
 .xc_stack_usage
                0x0000000000000000       0x17 c:/program files/microchip/xc32/v4.20/bin/bin/../../lib/gcc/pic32mx/8.3.1/../../../../pic32mx/lib\libc-musl.a(__pop_ptr.o)
 .xc_stack_usage.hdr
                0x0000000000000000        0xe c:/program files/microchip/xc32/v4.20/bin/bin/../../lib/gcc/pic32mx/8.3.1/../../../../pic32mx/lib\libc-musl.a(__pop_ptr.o)
 .note.GNU-stack
                0x0000000000000000        0x0 c:/program files/microchip/xc32/v4.20/bin/bin/../../lib/gcc/pic32mx/8.3.1/../../../../pic32mx/lib\libc-musl.a(__pop_ptr.o)
 .reginfo       0x0000000000000000       0x18 c:/program files/microchip/xc32/v4.20/bin/bin/../../lib/gcc/pic32mx/8.3.1/../../../../pic32mx/lib\libc-musl.a(__printf_core.o)
 .MIPS.abiflags
                0x0000000000000000       0x18 c:/program files/microchip/xc32/v4.20/bin/bin/../../lib/gcc/pic32mx/8.3.1/../../../../pic32mx/lib\libc-musl.a(__printf_core.o)
 .xc_stack_usage
                0x0000000000000000       0xaf c:/program files/microchip/xc32/v4.20/bin/bin/../../lib/gcc/pic32mx/8.3.1/../../../../pic32mx/lib\libc-musl.a(__printf_core.o)
 .xc_stack_usage.hdr
                0x0000000000000000        0xe c:/program files/microchip/xc32/v4.20/bin/bin/../../lib/gcc/pic32mx/8.3.1/../../../../pic32mx/lib\libc-musl.a(__printf_core.o)
 .note.GNU-stack
                0x0000000000000000        0x0 c:/program files/microchip/xc32/v4.20/bin/bin/../../lib/gcc/pic32mx/8.3.1/../../../../pic32mx/lib\libc-musl.a(__printf_core.o)
 .reginfo       0x0000000000000000       0x18 c:/program files/microchip/xc32/v4.20/bin/bin/../../lib/gcc/pic32mx/8.3.1/../../../../pic32mx/lib\libc-musl.a(atoi.o)
 .MIPS.abiflags
                0x0000000000000000       0x18 c:/program files/microchip/xc32/v4.20/bin/bin/../../lib/gcc/pic32mx/8.3.1/../../../../pic32mx/lib\libc-musl.a(atoi.o)
 .xc_stack_usage
                0x0000000000000000       0x12 c:/program files/microchip/xc32/v4.20/bin/bin/../../lib/gcc/pic32mx/8.3.1/../../../../pic32mx/lib\libc-musl.a(atoi.o)
 .xc_stack_usage.hdr
                0x0000000000000000        0xe c:/program files/microchip/xc32/v4.20/bin/bin/../../lib/gcc/pic32mx/8.3.1/../../../../pic32mx/lib\libc-musl.a(atoi.o)
 .note.GNU-stack
                0x0000000000000000        0x0 c:/program files/microchip/xc32/v4.20/bin/bin/../../lib/gcc/pic32mx/8.3.1/../../../../pic32mx/lib\libc-musl.a(atoi.o)
 .reginfo       0x0000000000000000       0x18 c:/program files/microchip/xc32/v4.20/bin/bin/../../lib/gcc/pic32mx/8.3.1/../../../../pic32mx/lib\libc-musl.a(strncmp.o)
 .MIPS.abiflags
                0x0000000000000000       0x18 c:/program files/microchip/xc32/v4.20/bin/bin/../../lib/gcc/pic32mx/8.3.1/../../../../pic32mx/lib\libc-musl.a(strncmp.o)
 .xc_stack_usage
                0x0000000000000000       0x15 c:/program files/microchip/xc32/v4.20/bin/bin/../../lib/gcc/pic32mx/8.3.1/../../../../pic32mx/lib\libc-musl.a(strncmp.o)
 .xc_stack_usage.hdr
                0x0000000000000000        0xe c:/program files/microchip/xc32/v4.20/bin/bin/../../lib/gcc/pic32mx/8.3.1/../../../../pic32mx/lib\libc-musl.a(strncmp.o)
 .note.GNU-stack
                0x0000000000000000        0x0 c:/program files/microchip/xc32/v4.20/bin/bin/../../lib/gcc/pic32mx/8.3.1/../../../../pic32mx/lib\libc-musl.a(strncmp.o)
 .reginfo       0x0000000000000000       0x18 c:/program files/microchip/xc32/v4.20/bin/bin/../../lib/gcc/pic32mx/8.3.1/../../../../pic32mx/lib\libc-musl.a(strncpy.o)
 .MIPS.abiflags
                0x0000000000000000       0x18 c:/program files/microchip/xc32/v4.20/bin/bin/../../lib/gcc/pic32mx/8.3.1/../../../../pic32mx/lib\libc-musl.a(strncpy.o)
 .xc_stack_usage
                0x0000000000000000       0x15 c:/program files/microchip/xc32/v4.20/bin/bin/../../lib/gcc/pic32mx/8.3.1/../../../../pic32mx/lib\libc-musl.a(strncpy.o)
 .xc_stack_usage.hdr
                0x0000000000000000        0xe c:/program files/microchip/xc32/v4.20/bin/bin/../../lib/gcc/pic32mx/8.3.1/../../../../pic32mx/lib\libc-musl.a(strncpy.o)
 .note.GNU-stack
                0x0000000000000000        0x0 c:/program files/microchip/xc32/v4.20/bin/bin/../../lib/gcc/pic32mx/8.3.1/../../../../pic32mx/lib\libc-musl.a(strncpy.o)
 .reginfo       0x0000000000000000       0x18 c:/program files/microchip/xc32/v4.20/bin/bin/../../lib/gcc/pic32mx/8.3.1/../../../../pic32mx/lib\libc-musl.a(tolower.o)
 .MIPS.abiflags
                0x0000000000000000       0x18 c:/program files/microchip/xc32/v4.20/bin/bin/../../lib/gcc/pic32mx/8.3.1/../../../../pic32mx/lib\libc-musl.a(tolower.o)
 .xc_stack_usage
                0x0000000000000000       0x2e c:/program files/microchip/xc32/v4.20/bin/bin/../../lib/gcc/pic32mx/8.3.1/../../../../pic32mx/lib\libc-musl.a(tolower.o)
 .xc_stack_usage.hdr
                0x0000000000000000        0xe c:/program files/microchip/xc32/v4.20/bin/bin/../../lib/gcc/pic32mx/8.3.1/../../../../pic32mx/lib\libc-musl.a(tolower.o)
 .note.GNU-stack
                0x0000000000000000        0x0 c:/program files/microchip/xc32/v4.20/bin/bin/../../lib/gcc/pic32mx/8.3.1/../../../../pic32mx/lib\libc-musl.a(tolower.o)
 .reginfo       0x0000000000000000       0x18 c:/program files/microchip/xc32/v4.20/bin/bin/../../lib/gcc/pic32mx/8.3.1/../../../../pic32mx/lib\libc-musl.a(toupper.o)
 .MIPS.abiflags
                0x0000000000000000       0x18 c:/program files/microchip/xc32/v4.20/bin/bin/../../lib/gcc/pic32mx/8.3.1/../../../../pic32mx/lib\libc-musl.a(toupper.o)
 .xc_stack_usage
                0x0000000000000000       0x2e c:/program files/microchip/xc32/v4.20/bin/bin/../../lib/gcc/pic32mx/8.3.1/../../../../pic32mx/lib\libc-musl.a(toupper.o)
 .xc_stack_usage.hdr
                0x0000000000000000        0xe c:/program files/microchip/xc32/v4.20/bin/bin/../../lib/gcc/pic32mx/8.3.1/../../../../pic32mx/lib\libc-musl.a(toupper.o)
 .note.GNU-stack
                0x0000000000000000        0x0 c:/program files/microchip/xc32/v4.20/bin/bin/../../lib/gcc/pic32mx/8.3.1/../../../../pic32mx/lib\libc-musl.a(toupper.o)
 .reginfo       0x0000000000000000       0x18 c:/program files/microchip/xc32/v4.20/bin/bin/../../lib/gcc/pic32mx/8.3.1/../../../../pic32mx/lib\libc-musl.a(__int_vsprintf.o)
 .MIPS.abiflags
                0x0000000000000000       0x18 c:/program files/microchip/xc32/v4.20/bin/bin/../../lib/gcc/pic32mx/8.3.1/../../../../pic32mx/lib\libc-musl.a(__int_vsprintf.o)
 .xc_stack_usage
                0x0000000000000000       0x18 c:/program files/microchip/xc32/v4.20/bin/bin/../../lib/gcc/pic32mx/8.3.1/../../../../pic32mx/lib\libc-musl.a(__int_vsprintf.o)
 .xc_stack_usage.hdr
                0x0000000000000000        0xe c:/program files/microchip/xc32/v4.20/bin/bin/../../lib/gcc/pic32mx/8.3.1/../../../../pic32mx/lib\libc-musl.a(__int_vsprintf.o)
 .note.GNU-stack
                0x0000000000000000        0x0 c:/program files/microchip/xc32/v4.20/bin/bin/../../lib/gcc/pic32mx/8.3.1/../../../../pic32mx/lib\libc-musl.a(__int_vsprintf.o)
 .reginfo       0x0000000000000000       0x18 c:/program files/microchip/xc32/v4.20/bin/bin/../../lib/gcc/pic32mx/8.3.1/../../../../pic32mx/lib\libc-musl.a(__pop_float.o)
 .MIPS.abiflags
                0x0000000000000000       0x18 c:/program files/microchip/xc32/v4.20/bin/bin/../../lib/gcc/pic32mx/8.3.1/../../../../pic32mx/lib\libc-musl.a(__pop_float.o)
 .xc_stack_usage
                0x0000000000000000       0x19 c:/program files/microchip/xc32/v4.20/bin/bin/../../lib/gcc/pic32mx/8.3.1/../../../../pic32mx/lib\libc-musl.a(__pop_float.o)
 .xc_stack_usage.hdr
                0x0000000000000000        0xe c:/program files/microchip/xc32/v4.20/bin/bin/../../lib/gcc/pic32mx/8.3.1/../../../../pic32mx/lib\libc-musl.a(__pop_float.o)
 .note.GNU-stack
                0x0000000000000000        0x0 c:/program files/microchip/xc32/v4.20/bin/bin/../../lib/gcc/pic32mx/8.3.1/../../../../pic32mx/lib\libc-musl.a(__pop_float.o)
 .reginfo       0x0000000000000000       0x18 c:/program files/microchip/xc32/v4.20/bin/bin/../../lib/gcc/pic32mx/8.3.1/../../../../pic32mx/lib\libc-musl.a(stpncpy.o)
 .MIPS.abiflags
                0x0000000000000000       0x18 c:/program files/microchip/xc32/v4.20/bin/bin/../../lib/gcc/pic32mx/8.3.1/../../../../pic32mx/lib\libc-musl.a(stpncpy.o)
 .xc_stack_usage
                0x0000000000000000       0x15 c:/program files/microchip/xc32/v4.20/bin/bin/../../lib/gcc/pic32mx/8.3.1/../../../../pic32mx/lib\libc-musl.a(stpncpy.o)
 .xc_stack_usage.hdr
                0x0000000000000000        0xe c:/program files/microchip/xc32/v4.20/bin/bin/../../lib/gcc/pic32mx/8.3.1/../../../../pic32mx/lib\libc-musl.a(stpncpy.o)
 .note.GNU-stack
                0x0000000000000000        0x0 c:/program files/microchip/xc32/v4.20/bin/bin/../../lib/gcc/pic32mx/8.3.1/../../../../pic32mx/lib\libc-musl.a(stpncpy.o)
 .reginfo       0x0000000000000000       0x18 c:/program files/microchip/xc32/v4.20/bin/bin/../../lib/gcc/pic32mx/8.3.1/../../../../pic32mx/lib\libc-musl.a(__int_vsnprintf.o)
 .MIPS.abiflags
                0x0000000000000000       0x18 c:/program files/microchip/xc32/v4.20/bin/bin/../../lib/gcc/pic32mx/8.3.1/../../../../pic32mx/lib\libc-musl.a(__int_vsnprintf.o)
 .xc_stack_usage
                0x0000000000000000       0x19 c:/program files/microchip/xc32/v4.20/bin/bin/../../lib/gcc/pic32mx/8.3.1/../../../../pic32mx/lib\libc-musl.a(__int_vsnprintf.o)
 .xc_stack_usage.hdr
                0x0000000000000000        0xe c:/program files/microchip/xc32/v4.20/bin/bin/../../lib/gcc/pic32mx/8.3.1/../../../../pic32mx/lib\libc-musl.a(__int_vsnprintf.o)
 .note.GNU-stack
                0x0000000000000000        0x0 c:/program files/microchip/xc32/v4.20/bin/bin/../../lib/gcc/pic32mx/8.3.1/../../../../pic32mx/lib\libc-musl.a(__int_vsnprintf.o)
 .reginfo       0x0000000000000000       0x18 c:/program files/microchip/xc32/v4.20/bin/bin/../../lib/gcc/pic32mx/8.3.1/../../../../pic32mx/lib\libc-musl.a(__int_vfprintf.o)
 .MIPS.abiflags
                0x0000000000000000       0x18 c:/program files/microchip/xc32/v4.20/bin/bin/../../lib/gcc/pic32mx/8.3.1/../../../../pic32mx/lib\libc-musl.a(__int_vfprintf.o)
 .xc_stack_usage
                0x0000000000000000       0x18 c:/program files/microchip/xc32/v4.20/bin/bin/../../lib/gcc/pic32mx/8.3.1/../../../../pic32mx/lib\libc-musl.a(__int_vfprintf.o)
 .xc_stack_usage.hdr
                0x0000000000000000        0xe c:/program files/microchip/xc32/v4.20/bin/bin/../../lib/gcc/pic32mx/8.3.1/../../../../pic32mx/lib\libc-musl.a(__int_vfprintf.o)
 .note.GNU-stack
                0x0000000000000000        0x0 c:/program files/microchip/xc32/v4.20/bin/bin/../../lib/gcc/pic32mx/8.3.1/../../../../pic32mx/lib\libc-musl.a(__int_vfprintf.o)
 .reginfo       0x0000000000000000       0x18 c:/program files/microchip/xc32/v4.20/bin/bin/../../lib/gcc/pic32mx/8.3.1/../../../../pic32mx/lib\libm.a(floor32.o)
 .MIPS.abiflags
                0x0000000000000000       0x18 c:/program files/microchip/xc32/v4.20/bin/bin/../../lib/gcc/pic32mx/8.3.1/../../../../pic32mx/lib\libm.a(floor32.o)
 .reginfo       0x0000000000000000       0x18 c:/program files/microchip/xc32/v4.20/bin/bin/../../lib/gcc/pic32mx/8.3.1/../../../../pic32mx/lib\libm.a(ceil32.o)
 .MIPS.abiflags
                0x0000000000000000       0x18 c:/program files/microchip/xc32/v4.20/bin/bin/../../lib/gcc/pic32mx/8.3.1/../../../../pic32mx/lib\libm.a(ceil32.o)
 .reginfo       0x0000000000000000       0x18 c:/program files/microchip/xc32/v4.20/bin/bin/../../lib/gcc/pic32mx/8.3.1/../../../../pic32mx/lib\libm.a(cos32.o)
 .MIPS.abiflags
                0x0000000000000000       0x18 c:/program files/microchip/xc32/v4.20/bin/bin/../../lib/gcc/pic32mx/8.3.1/../../../../pic32mx/lib\libm.a(cos32.o)
 .xc_stack_usage.hdr
                0x0000000000000000        0xe c:/program files/microchip/xc32/v4.20/bin/bin/../../lib/gcc/pic32mx/8.3.1/../../../../pic32mx/lib\libm.a(cos32.o)
 .xc_stack_usage
                0x0000000000000000       0x13 c:/program files/microchip/xc32/v4.20/bin/bin/../../lib/gcc/pic32mx/8.3.1/../../../../pic32mx/lib\libm.a(cos32.o)
 .reginfo       0x0000000000000000       0x18 c:/program files/microchip/xc32/v4.20/bin/bin/../../lib/gcc/pic32mx/8.3.1/../../../../pic32mx/lib\libm.a(dp32div.o)
 .MIPS.abiflags
                0x0000000000000000       0x18 c:/program files/microchip/xc32/v4.20/bin/bin/../../lib/gcc/pic32mx/8.3.1/../../../../pic32mx/lib\libm.a(dp32div.o)
 .reginfo       0x0000000000000000       0x18 c:/program files/microchip/xc32/v4.20/bin/bin/../../lib/gcc/pic32mx/8.3.1/../../../../pic32mx/lib\libm.a(dp32mul.o)
 .MIPS.abiflags
                0x0000000000000000       0x18 c:/program files/microchip/xc32/v4.20/bin/bin/../../lib/gcc/pic32mx/8.3.1/../../../../pic32mx/lib\libm.a(dp32mul.o)
 .reginfo       0x0000000000000000       0x18 c:/program files/microchip/xc32/v4.20/bin/bin/../../lib/gcc/pic32mx/8.3.1/../../../../pic32mx/lib\libm.a(dp32subadd.o)
 .MIPS.abiflags
                0x0000000000000000       0x18 c:/program files/microchip/xc32/v4.20/bin/bin/../../lib/gcc/pic32mx/8.3.1/../../../../pic32mx/lib\libm.a(dp32subadd.o)
 .reginfo       0x0000000000000000       0x18 c:/program files/microchip/xc32/v4.20/bin/bin/../../lib/gcc/pic32mx/8.3.1/../../../../pic32mx/lib\libm.a(dpcmp.o)
 .MIPS.abiflags
                0x0000000000000000       0x18 c:/program files/microchip/xc32/v4.20/bin/bin/../../lib/gcc/pic32mx/8.3.1/../../../../pic32mx/lib\libm.a(dpcmp.o)
 .reginfo       0x0000000000000000       0x18 c:/program files/microchip/xc32/v4.20/bin/bin/../../lib/gcc/pic32mx/8.3.1/../../../../pic32mx/lib\libm.a(dpcmplt.o)
 .MIPS.abiflags
                0x0000000000000000       0x18 c:/program files/microchip/xc32/v4.20/bin/bin/../../lib/gcc/pic32mx/8.3.1/../../../../pic32mx/lib\libm.a(dpcmplt.o)
 .xc_stack_usage.hdr
                0x0000000000000000        0xe c:/program files/microchip/xc32/v4.20/bin/bin/../../lib/gcc/pic32mx/8.3.1/../../../../pic32mx/lib\libm.a(dpcmplt.o)
 .xc_stack_usage
                0x0000000000000000       0x15 c:/program files/microchip/xc32/v4.20/bin/bin/../../lib/gcc/pic32mx/8.3.1/../../../../pic32mx/lib\libm.a(dpcmplt.o)
 .reginfo       0x0000000000000000       0x18 c:/program files/microchip/xc32/v4.20/bin/bin/../../lib/gcc/pic32mx/8.3.1/../../../../pic32mx/lib\libm.a(dpsqrt.o)
 .MIPS.abiflags
                0x0000000000000000       0x18 c:/program files/microchip/xc32/v4.20/bin/bin/../../lib/gcc/pic32mx/8.3.1/../../../../pic32mx/lib\libm.a(dpsqrt.o)
 .xc_stack_usage.hdr
                0x0000000000000000        0xe c:/program files/microchip/xc32/v4.20/bin/bin/../../lib/gcc/pic32mx/8.3.1/../../../../pic32mx/lib\libm.a(dpsqrt.o)
 .xc_stack_usage
                0x0000000000000000       0x13 c:/program files/microchip/xc32/v4.20/bin/bin/../../lib/gcc/pic32mx/8.3.1/../../../../pic32mx/lib\libm.a(dpsqrt.o)
 .reginfo       0x0000000000000000       0x18 c:/program files/microchip/xc32/v4.20/bin/bin/../../lib/gcc/pic32mx/8.3.1/../../../../pic32mx/lib\libm.a(dptofp.o)
 .MIPS.abiflags
                0x0000000000000000       0x18 c:/program files/microchip/xc32/v4.20/bin/bin/../../lib/gcc/pic32mx/8.3.1/../../../../pic32mx/lib\libm.a(dptofp.o)
 .reginfo       0x0000000000000000       0x18 c:/program files/microchip/xc32/v4.20/bin/bin/../../lib/gcc/pic32mx/8.3.1/../../../../pic32mx/lib\libm.a(dptoli.o)
 .MIPS.abiflags
                0x0000000000000000       0x18 c:/program files/microchip/xc32/v4.20/bin/bin/../../lib/gcc/pic32mx/8.3.1/../../../../pic32mx/lib\libm.a(dptoli.o)
 .reginfo       0x0000000000000000       0x18 c:/program files/microchip/xc32/v4.20/bin/bin/../../lib/gcc/pic32mx/8.3.1/../../../../pic32mx/lib\libm.a(dptoul.o)
 .MIPS.abiflags
                0x0000000000000000       0x18 c:/program files/microchip/xc32/v4.20/bin/bin/../../lib/gcc/pic32mx/8.3.1/../../../../pic32mx/lib\libm.a(dptoul.o)
 .reginfo       0x0000000000000000       0x18 c:/program files/microchip/xc32/v4.20/bin/bin/../../lib/gcc/pic32mx/8.3.1/../../../../pic32mx/lib\libm.a(exmul.o)
 .MIPS.abiflags
                0x0000000000000000       0x18 c:/program files/microchip/xc32/v4.20/bin/bin/../../lib/gcc/pic32mx/8.3.1/../../../../pic32mx/lib\libm.a(exmul.o)
 .reginfo       0x0000000000000000       0x18 c:/program files/microchip/xc32/v4.20/bin/bin/../../lib/gcc/pic32mx/8.3.1/../../../../pic32mx/lib\libm.a(exsqrt.o)
 .MIPS.abiflags
                0x0000000000000000       0x18 c:/program files/microchip/xc32/v4.20/bin/bin/../../lib/gcc/pic32mx/8.3.1/../../../../pic32mx/lib\libm.a(exsqrt.o)
 .reginfo       0x0000000000000000       0x18 c:/program files/microchip/xc32/v4.20/bin/bin/../../lib/gcc/pic32mx/8.3.1/../../../../pic32mx/lib\libm.a(fp32div.o)
 .MIPS.abiflags
                0x0000000000000000       0x18 c:/program files/microchip/xc32/v4.20/bin/bin/../../lib/gcc/pic32mx/8.3.1/../../../../pic32mx/lib\libm.a(fp32div.o)
 .reginfo       0x0000000000000000       0x18 c:/program files/microchip/xc32/v4.20/bin/bin/../../lib/gcc/pic32mx/8.3.1/../../../../pic32mx/lib\libm.a(fp32mul.o)
 .MIPS.abiflags
                0x0000000000000000       0x18 c:/program files/microchip/xc32/v4.20/bin/bin/../../lib/gcc/pic32mx/8.3.1/../../../../pic32mx/lib\libm.a(fp32mul.o)
 .reginfo       0x0000000000000000       0x18 c:/program files/microchip/xc32/v4.20/bin/bin/../../lib/gcc/pic32mx/8.3.1/../../../../pic32mx/lib\libm.a(fp32subadd.o)
 .MIPS.abiflags
                0x0000000000000000       0x18 c:/program files/microchip/xc32/v4.20/bin/bin/../../lib/gcc/pic32mx/8.3.1/../../../../pic32mx/lib\libm.a(fp32subadd.o)
 .reginfo       0x0000000000000000       0x18 c:/program files/microchip/xc32/v4.20/bin/bin/../../lib/gcc/pic32mx/8.3.1/../../../../pic32mx/lib\libm.a(fpcmp.o)
 .MIPS.abiflags
                0x0000000000000000       0x18 c:/program files/microchip/xc32/v4.20/bin/bin/../../lib/gcc/pic32mx/8.3.1/../../../../pic32mx/lib\libm.a(fpcmp.o)
 .reginfo       0x0000000000000000       0x18 c:/program files/microchip/xc32/v4.20/bin/bin/../../lib/gcc/pic32mx/8.3.1/../../../../pic32mx/lib\libm.a(fpcmplt.o)
 .MIPS.abiflags
                0x0000000000000000       0x18 c:/program files/microchip/xc32/v4.20/bin/bin/../../lib/gcc/pic32mx/8.3.1/../../../../pic32mx/lib\libm.a(fpcmplt.o)
 .xc_stack_usage.hdr
                0x0000000000000000        0xe c:/program files/microchip/xc32/v4.20/bin/bin/../../lib/gcc/pic32mx/8.3.1/../../../../pic32mx/lib\libm.a(fpcmplt.o)
 .xc_stack_usage
                0x0000000000000000       0x15 c:/program files/microchip/xc32/v4.20/bin/bin/../../lib/gcc/pic32mx/8.3.1/../../../../pic32mx/lib\libm.a(fpcmplt.o)
 .reginfo       0x0000000000000000       0x18 c:/program files/microchip/xc32/v4.20/bin/bin/../../lib/gcc/pic32mx/8.3.1/../../../../pic32mx/lib\libm.a(fpexsqrt32.o)
 .MIPS.abiflags
                0x0000000000000000       0x18 c:/program files/microchip/xc32/v4.20/bin/bin/../../lib/gcc/pic32mx/8.3.1/../../../../pic32mx/lib\libm.a(fpexsqrt32.o)
 .reginfo       0x0000000000000000       0x18 c:/program files/microchip/xc32/v4.20/bin/bin/../../lib/gcc/pic32mx/8.3.1/../../../../pic32mx/lib\libm.a(fptodp.o)
 .MIPS.abiflags
                0x0000000000000000       0x18 c:/program files/microchip/xc32/v4.20/bin/bin/../../lib/gcc/pic32mx/8.3.1/../../../../pic32mx/lib\libm.a(fptodp.o)
 .reginfo       0x0000000000000000       0x18 c:/program files/microchip/xc32/v4.20/bin/bin/../../lib/gcc/pic32mx/8.3.1/../../../../pic32mx/lib\libm.a(fptoli.o)
 .MIPS.abiflags
                0x0000000000000000       0x18 c:/program files/microchip/xc32/v4.20/bin/bin/../../lib/gcc/pic32mx/8.3.1/../../../../pic32mx/lib\libm.a(fptoli.o)
 .reginfo       0x0000000000000000       0x18 c:/program files/microchip/xc32/v4.20/bin/bin/../../lib/gcc/pic32mx/8.3.1/../../../../pic32mx/lib\libm.a(fptoul.o)
 .MIPS.abiflags
                0x0000000000000000       0x18 c:/program files/microchip/xc32/v4.20/bin/bin/../../lib/gcc/pic32mx/8.3.1/../../../../pic32mx/lib\libm.a(fptoul.o)
 .reginfo       0x0000000000000000       0x18 c:/program files/microchip/xc32/v4.20/bin/bin/../../lib/gcc/pic32mx/8.3.1/../../../../pic32mx/lib\libm.a(litodp.o)
 .MIPS.abiflags
                0x0000000000000000       0x18 c:/program files/microchip/xc32/v4.20/bin/bin/../../lib/gcc/pic32mx/8.3.1/../../../../pic32mx/lib\libm.a(litodp.o)
 .reginfo       0x0000000000000000       0x18 c:/program files/microchip/xc32/v4.20/bin/bin/../../lib/gcc/pic32mx/8.3.1/../../../../pic32mx/lib\libm.a(reduct32.o)
 .MIPS.abiflags
                0x0000000000000000       0x18 c:/program files/microchip/xc32/v4.20/bin/bin/../../lib/gcc/pic32mx/8.3.1/../../../../pic32mx/lib\libm.a(reduct32.o)
 .reginfo       0x0000000000000000       0x18 c:/program files/microchip/xc32/v4.20/bin/bin/../../lib/gcc/pic32mx/8.3.1/../../../../pic32mx/lib\libm.a(sigmax.o)
 .MIPS.abiflags
                0x0000000000000000       0x18 c:/program files/microchip/xc32/v4.20/bin/bin/../../lib/gcc/pic32mx/8.3.1/../../../../pic32mx/lib\libm.a(sigmax.o)
 .reginfo       0x0000000000000000       0x18 c:/program files/microchip/xc32/v4.20/bin/bin/../../lib/gcc/pic32mx/8.3.1/../../../../pic32mx/lib\libm.a(sin32.o)
 .MIPS.abiflags
                0x0000000000000000       0x18 c:/program files/microchip/xc32/v4.20/bin/bin/../../lib/gcc/pic32mx/8.3.1/../../../../pic32mx/lib\libm.a(sin32.o)
 .xc_stack_usage.hdr
                0x0000000000000000        0xe c:/program files/microchip/xc32/v4.20/bin/bin/../../lib/gcc/pic32mx/8.3.1/../../../../pic32mx/lib\libm.a(sin32.o)
 .xc_stack_usage
                0x0000000000000000       0x13 c:/program files/microchip/xc32/v4.20/bin/bin/../../lib/gcc/pic32mx/8.3.1/../../../../pic32mx/lib\libm.a(sin32.o)
 .reginfo       0x0000000000000000       0x18 c:/program files/microchip/xc32/v4.20/bin/bin/../../lib/gcc/pic32mx/8.3.1/../../../../pic32mx/lib\libm.a(sincos32.o)
 .MIPS.abiflags
                0x0000000000000000       0x18 c:/program files/microchip/xc32/v4.20/bin/bin/../../lib/gcc/pic32mx/8.3.1/../../../../pic32mx/lib\libm.a(sincos32.o)
 .reginfo       0x0000000000000000       0x18 c:/program files/microchip/xc32/v4.20/bin/bin/../../lib/gcc/pic32mx/8.3.1/../../../../pic32mx/lib\libm.a(sitofp.o)
 .MIPS.abiflags
                0x0000000000000000       0x18 c:/program files/microchip/xc32/v4.20/bin/bin/../../lib/gcc/pic32mx/8.3.1/../../../../pic32mx/lib\libm.a(sitofp.o)
 .reginfo       0x0000000000000000       0x18 c:/program files/microchip/xc32/v4.20/bin/bin/../../lib/gcc/pic32mx/8.3.1/../../../../pic32mx/lib\libm.a(atan2.o)
 .MIPS.abiflags
                0x0000000000000000       0x18 c:/program files/microchip/xc32/v4.20/bin/bin/../../lib/gcc/pic32mx/8.3.1/../../../../pic32mx/lib\libm.a(atan2.o)
 .xc_stack_usage
                0x0000000000000000       0x13 c:/program files/microchip/xc32/v4.20/bin/bin/../../lib/gcc/pic32mx/8.3.1/../../../../pic32mx/lib\libm.a(atan2.o)
 .xc_stack_usage.hdr
                0x0000000000000000        0xe c:/program files/microchip/xc32/v4.20/bin/bin/../../lib/gcc/pic32mx/8.3.1/../../../../pic32mx/lib\libm.a(atan2.o)
 .reginfo       0x0000000000000000       0x18 c:/program files/microchip/xc32/v4.20/bin/bin/../../lib/gcc/pic32mx/8.3.1/../../../../pic32mx/lib\libm.a(w_sqrt.o)
 .MIPS.abiflags
                0x0000000000000000       0x18 c:/program files/microchip/xc32/v4.20/bin/bin/../../lib/gcc/pic32mx/8.3.1/../../../../pic32mx/lib\libm.a(w_sqrt.o)
 .xc_stack_usage
                0x0000000000000000       0x13 c:/program files/microchip/xc32/v4.20/bin/bin/../../lib/gcc/pic32mx/8.3.1/../../../../pic32mx/lib\libm.a(w_sqrt.o)
 .xc_stack_usage.hdr
                0x0000000000000000        0xe c:/program files/microchip/xc32/v4.20/bin/bin/../../lib/gcc/pic32mx/8.3.1/../../../../pic32mx/lib\libm.a(w_sqrt.o)
 .reginfo       0x0000000000000000       0x18 c:/program files/microchip/xc32/v4.20/bin/bin/../../lib/gcc/pic32mx/8.3.1/../../../../pic32mx/lib\libm.a(support.o)
 .MIPS.abiflags
                0x0000000000000000       0x18 c:/program files/microchip/xc32/v4.20/bin/bin/../../lib/gcc/pic32mx/8.3.1/../../../../pic32mx/lib\libm.a(support.o)
 .xc_stack_usage
                0x0000000000000000       0xf2 c:/program files/microchip/xc32/v4.20/bin/bin/../../lib/gcc/pic32mx/8.3.1/../../../../pic32mx/lib\libm.a(support.o)
 .xc_stack_usage.hdr
                0x0000000000000000        0xe c:/program files/microchip/xc32/v4.20/bin/bin/../../lib/gcc/pic32mx/8.3.1/../../../../pic32mx/lib\libm.a(support.o)
 .reginfo       0x0000000000000000       0x18 c:/program files/microchip/xc32/v4.20/bin/bin/../../lib/gcc/pic32mx/8.3.1/../../../../pic32mx/lib\libm.a(w_ldexp.o)
 .MIPS.abiflags
                0x0000000000000000       0x18 c:/program files/microchip/xc32/v4.20/bin/bin/../../lib/gcc/pic32mx/8.3.1/../../../../pic32mx/lib\libm.a(w_ldexp.o)
 .xc_stack_usage
                0x0000000000000000       0x14 c:/program files/microchip/xc32/v4.20/bin/bin/../../lib/gcc/pic32mx/8.3.1/../../../../pic32mx/lib\libm.a(w_ldexp.o)
 .xc_stack_usage.hdr
                0x0000000000000000        0xe c:/program files/microchip/xc32/v4.20/bin/bin/../../lib/gcc/pic32mx/8.3.1/../../../../pic32mx/lib\libm.a(w_ldexp.o)
 .reginfo       0x0000000000000000       0x18 c:/program files/microchip/xc32/v4.20/bin/bin/../../lib/gcc/pic32mx/8.3.1/../../../../pic32mx/lib\libm.a(dpldexp.o)
 .MIPS.abiflags
                0x0000000000000000       0x18 c:/program files/microchip/xc32/v4.20/bin/bin/../../lib/gcc/pic32mx/8.3.1/../../../../pic32mx/lib\libm.a(dpldexp.o)
 .reginfo       0x0000000000000000       0x18 c:/program files/microchip/xc32/v4.20/bin/bin/../../lib/gcc/pic32mx/8.3.1/../../../../pic32mx/lib\libm.a(s_lib_ver.o)
 .MIPS.abiflags
                0x0000000000000000       0x18 c:/program files/microchip/xc32/v4.20/bin/bin/../../lib/gcc/pic32mx/8.3.1/../../../../pic32mx/lib\libm.a(s_lib_ver.o)
 .xc_stack_usage.hdr
                0x0000000000000000        0xe c:/program files/microchip/xc32/v4.20/bin/bin/../../lib/gcc/pic32mx/8.3.1/../../../../pic32mx/lib\libm.a(s_lib_ver.o)
 .reginfo       0x0000000000000000       0x18 c:/program files/microchip/xc32/v4.20/bin/bin/../../lib/gcc/pic32mx/8.3.1\libgcc.a(_udivdi3.o)
 .MIPS.abiflags
                0x0000000000000000       0x18 c:/program files/microchip/xc32/v4.20/bin/bin/../../lib/gcc/pic32mx/8.3.1\libgcc.a(_udivdi3.o)
 .xc_stack_usage
                0x0000000000000000       0x17 c:/program files/microchip/xc32/v4.20/bin/bin/../../lib/gcc/pic32mx/8.3.1\libgcc.a(_udivdi3.o)
 .xc_stack_usage.hdr
                0x0000000000000000        0xe c:/program files/microchip/xc32/v4.20/bin/bin/../../lib/gcc/pic32mx/8.3.1\libgcc.a(_udivdi3.o)
 .reginfo       0x0000000000000000       0x18 c:/program files/microchip/xc32/v4.20/bin/bin/../../lib/gcc/pic32mx/8.3.1\libgcc.a(_umoddi3.o)
 .MIPS.abiflags
                0x0000000000000000       0x18 c:/program files/microchip/xc32/v4.20/bin/bin/../../lib/gcc/pic32mx/8.3.1\libgcc.a(_umoddi3.o)
 .xc_stack_usage
                0x0000000000000000       0x17 c:/program files/microchip/xc32/v4.20/bin/bin/../../lib/gcc/pic32mx/8.3.1\libgcc.a(_umoddi3.o)
 .xc_stack_usage.hdr
                0x0000000000000000        0xe c:/program files/microchip/xc32/v4.20/bin/bin/../../lib/gcc/pic32mx/8.3.1\libgcc.a(_umoddi3.o)
 .reginfo       0x0000000000000000       0x18 c:/program files/microchip/xc32/v4.20/bin/bin/../../lib/gcc/pic32mx/8.3.1/../../../../pic32mx/lib\libpic32.a(errno.o)
 .MIPS.abiflags
                0x0000000000000000       0x18 c:/program files/microchip/xc32/v4.20/bin/bin/../../lib/gcc/pic32mx/8.3.1/../../../../pic32mx/lib\libpic32.a(errno.o)
 .xc_stack_usage.hdr
                0x0000000000000000        0xe c:/program files/microchip/xc32/v4.20/bin/bin/../../lib/gcc/pic32mx/8.3.1/../../../../pic32mx/lib\libpic32.a(errno.o)
 .reginfo       0x0000000000000000       0x18 c:/program files/microchip/xc32/v4.20/bin/bin/../../lib/gcc/pic32mx/8.3.1/../../../../pic32mx/lib\libpic32.a(isinf.o)
 .MIPS.abiflags
                0x0000000000000000       0x18 c:/program files/microchip/xc32/v4.20/bin/bin/../../lib/gcc/pic32mx/8.3.1/../../../../pic32mx/lib\libpic32.a(isinf.o)
 .xc_stack_usage
                0x0000000000000000       0x76 c:/program files/microchip/xc32/v4.20/bin/bin/../../lib/gcc/pic32mx/8.3.1/../../../../pic32mx/lib\libpic32.a(isinf.o)
 .xc_stack_usage.hdr
                0x0000000000000000        0xe c:/program files/microchip/xc32/v4.20/bin/bin/../../lib/gcc/pic32mx/8.3.1/../../../../pic32mx/lib\libpic32.a(isinf.o)
 .reginfo       0x0000000000000000       0x18 c:/program files/microchip/xc32/v4.20/bin/bin/../../lib/gcc/pic32mx/8.3.1/../../../../pic32mx/lib\libe.a(_unorddf2.o)
 .MIPS.abiflags
                0x0000000000000000       0x18 c:/program files/microchip/xc32/v4.20/bin/bin/../../lib/gcc/pic32mx/8.3.1/../../../../pic32mx/lib\libe.a(_unorddf2.o)
 .xc_stack_usage
                0x0000000000000000       0x18 c:/program files/microchip/xc32/v4.20/bin/bin/../../lib/gcc/pic32mx/8.3.1/../../../../pic32mx/lib\libe.a(_unorddf2.o)
 .xc_stack_usage.hdr
                0x0000000000000000        0xe c:/program files/microchip/xc32/v4.20/bin/bin/../../lib/gcc/pic32mx/8.3.1/../../../../pic32mx/lib\libe.a(_unorddf2.o)

Memory Configuration

Name             Origin             Length             Attributes
kseg0_program_mem 0x000000009d001000 0x00000000001ff000 xr
kseg1_boot_mem   0x000000009d000000 0x0000000000000480
kseg1_boot_mem_4B0 0x000000009d0004b0 0x0000000000000b50
kseg0_data_mem   0x0000000080000000 0x000000000007f000 w !x
kseg0_shared_mem 0x000000008007f000 0x0000000000000100 w !x
sfrs             0x00000000bf800000 0x0000000000100000
kseg2_ebi_data_mem 0x00000000c0000000 0x0000000004000000
kseg2_sqi_data_mem 0x00000000d0000000 0x0000000004000000
kseg3_ebi_data_mem 0x00000000e0000000 0x0000000004000000
kseg3_sqi_data_mem 0x00000000f0000000 0x0000000004000000
*default*        0x0000000000000000 0xffffffffffffffff

Linker script and memory map

LOAD c:/program files/microchip/xc32/v4.20/bin/bin/../../lib/gcc/pic32mx/8.3.1/../../../../pic32mx/lib\debug-exception-return.o
LOAD output\tmr.o
LOAD output\ringBuffer.o
LOAD output\task.o
LOAD output\eeprom.o
LOAD output\eep_manager.o
LOAD output\main.o
LOAD output\c_eep_manager.o
LOAD output\app.o
LOAD output\ad.o
LOAD output\grbl_gcode.o
LOAD output\grbl_limits.o
LOAD output\coolant_control.o
LOAD output\motion_control.o
LOAD output\nuts_bolts.o
LOAD output\planner.o
LOAD output\grbl_print.o
LOAD output\grbl_report.o
LOAD output\settings.o
LOAD output\spindle_control.o
LOAD output\stepper.o
LOAD output\system.o
LOAD output\grbl.o
LOAD output\grbl_homing.o
LOAD output\pwm.o
LOAD output\jog.o
LOAD output\dee.o
LOAD output\dee_page.o
LOAD output\dee_page_helper.o
LOAD output\eep_manager_crc.o
LOAD output\system_control.o
LOAD output\stepper_enable.o
LOAD output\system_exec.o
LOAD output\system_alarm.o
LOAD output\grbl_eeprom.o
LOAD output\bootloader_interface.o
LOAD output\grbl_toolchange.o
LOAD output\grbl_protocol.o
LOAD output\grbl_running.o
LOAD output\grbl_bootloader.o
LOAD output\grbl_probe.o
LOAD output\ethernet.o
LOAD output\ENC28J60.o
LOAD output\DHCP.o
LOAD output\ARP.o
LOAD output\Announce.o
LOAD output\Helpers.o
LOAD output\ICMP.o
LOAD output\IP.o
LOAD output\StackTsk.o
LOAD output\UDP.o
LOAD output\ethernet_grbl_multi.o
LOAD output\grbl_multi.o
LOAD output\Reboot.o
LOAD output\TCP.o
LOAD output\BerkeleyAPI.o
LOAD output\mal.o
LOAD output\isr.o
LOAD output\exceptions.o
LOAD output\usb_device_cdc_acm.o
LOAD output\usb_device_cdc.o
LOAD output\usb_device.o
LOAD output\usb_app.o
LOAD output\usb.o
LOAD output\system_tasks.o
LOAD output\sys_int_pic32.o
LOAD output\system_init.o
LOAD output\peripheral.o
LOAD output\drv_usbhs_device.o
LOAD output\drv_usbhs.o
LOAD output\bsp_sys_init.o
LOAD output\stackmeasure.o
LOAD output\stackmeasure_helper.o
LOAD output\noinitram.o
LOAD output\usb_grbl_multi.o
LOAD output\sleep.o
LOAD output\rtcconverter.o
LOAD output\rtc.o
LOAD output\daylight.o
LOAD output\aes_128.o
LOAD output\aes_block.o
LOAD output\aes_cbc.o
LOAD output\aes_cbc_mac.o
LOAD output\aes_cmac.o
LOAD output\rijndael.o
LOAD output\aes_challenge_response.o
LOAD output\aes_key.o
LOAD output\aes_ecb.o
LOAD output\MQTT.o
LOAD output\MQTTclient.o
LOAD output\DNS.o
LOAD output\sntp.o
LOAD output\random.o
LOAD output\sha256.o
LOAD output\spi2.o
LOAD output\wget.o
                0x0000000000000400                PROVIDE (_min_stack_size = 0x400)
START GROUP
LOAD c:/program files/microchip/xc32/v4.20/bin/bin/../../lib/gcc/pic32mx/8.3.1/../../../../pic32mx/lib/./proc/32MZ2048ECG144\vector_offset_init.o
END GROUP
                0x0000000000000001                PROVIDE (_vector_spacing = 0x1)
                0x000000009d001000                PROVIDE (_ebase_address = 0x9d001000)
                0x000000009d000000                _RESET_ADDR = 0x9d000000
                0x000000009d001000                _SIMPLE_TLB_REFILL_EXCPT_ADDR = (_ebase_address + 0x0)
                0x000000009d001100                _CACHE_ERR_EXCPT_ADDR = (_ebase_address + 0x100)
                0x000000009d001180                _GEN_EXCPT_ADDR = (_ebase_address + 0x180)

.reset          0x000000009d000000      0x1b4
 *(.reset)
 .reset         0x000000009d000000       0x18 C:\Users\kyrk\AppData\Local\Temp\ccy8KzF8.o
                0x000000009d000000                _reset
 *(.reset.startup)
 .reset.startup
                0x000000009d000018      0x19c C:\Users\kyrk\AppData\Local\Temp\ccy8KzF8.o
                0x000000009d000018                _startup

.cache_init     0x000000009d0004b0      0x218
 *(.cache_init)
 *(.cache_init.*)
 .cache_init.cache
                0x000000009d0004b0       0xc0 c:/program files/microchip/xc32/v4.20/bin/bin/../../lib/gcc/pic32mx/8.3.1/../../../../pic32mx/lib\libpic32.a(pic32_init_cache.o)
 .cache_init.pic32_size_cache
                0x000000009d000570       0x58 c:/program files/microchip/xc32/v4.20/bin/bin/../../lib/gcc/pic32mx/8.3.1/../../../../pic32mx/lib\libpic32.a(pic32_init_cache.o)
                0x000000009d000570                __pic32_size_cache
 .cache_init.pic32_init_cache
                0x000000009d0005c8      0x100 c:/program files/microchip/xc32/v4.20/bin/bin/../../lib/gcc/pic32mx/8.3.1/../../../../pic32mx/lib\libpic32.a(pic32_init_cache.o)
                0x000000009d0005c8                __pic32_init_cache

.simple_tlb_refill_excpt
                0x000000009d001000       0x10
 *(.simple_tlb_refill_vector)
 .simple_tlb_refill_vector
                0x000000009d001000       0x10 C:\Users\kyrk\AppData\Local\Temp\ccy8KzF8.o

.cache_err_excpt
                0x000000009d001100       0x10
 *(.cache_err_vector)
 .cache_err_vector
                0x000000009d001100       0x10 C:\Users\kyrk\AppData\Local\Temp\ccy8KzF8.o

.app_excpt      0x000000009d001180       0x10
 *(.gen_handler)
 .gen_handler   0x000000009d001180       0x10 C:\Users\kyrk\AppData\Local\Temp\ccy8KzF8.o

.vectors        0x000000009d001200      0x170
                0x000000009d001200                . = ALIGN (0x4)
                0x0000000000000200                __vector_offset_0 = DEFINED (__vector_dispatch_0)?(. - _ebase_address):__vector_offset_default
 *(.vector_0)
 .vector_0      0x000000009d001200        0x8 output\isr.o
                0x000000009d001200                __vector_dispatch_0
                0x000000009d001208                . = ALIGN (0x4)
                0x0000000000000328                __vector_offset_1 = DEFINED (__vector_dispatch_1)?(. - _ebase_address):__vector_offset_default
 *(.vector_1)
                0x000000009d001208                . = ALIGN (0x4)
                0x0000000000000328                __vector_offset_2 = DEFINED (__vector_dispatch_2)?(. - _ebase_address):__vector_offset_default
 *(.vector_2)
                0x000000009d001208                . = ALIGN (0x4)
                0x0000000000000328                __vector_offset_3 = DEFINED (__vector_dispatch_3)?(. - _ebase_address):__vector_offset_default
 *(.vector_3)
                0x000000009d001208                . = ALIGN (0x4)
                0x0000000000000208                __vector_offset_4 = DEFINED (__vector_dispatch_4)?(. - _ebase_address):__vector_offset_default
 *(.vector_4)
 .vector_4      0x000000009d001208        0x8 output\isr.o
                0x000000009d001208                __vector_dispatch_4
                0x000000009d001210                . = ALIGN (0x4)
                0x0000000000000328                __vector_offset_5 = DEFINED (__vector_dispatch_5)?(. - _ebase_address):__vector_offset_default
 *(.vector_5)
                0x000000009d001210                . = ALIGN (0x4)
                0x0000000000000328                __vector_offset_6 = DEFINED (__vector_dispatch_6)?(. - _ebase_address):__vector_offset_default
 *(.vector_6)
                0x000000009d001210                . = ALIGN (0x4)
                0x0000000000000210                __vector_offset_7 = DEFINED (__vector_dispatch_7)?(. - _ebase_address):__vector_offset_default
 *(.vector_7)
 .vector_7      0x000000009d001210        0x8 output\isr.o
                0x000000009d001210                __vector_dispatch_7
                0x000000009d001218                . = ALIGN (0x4)
                0x0000000000000328                __vector_offset_8 = DEFINED (__vector_dispatch_8)?(. - _ebase_address):__vector_offset_default
 *(.vector_8)
                0x000000009d001218                . = ALIGN (0x4)
                0x0000000000000218                __vector_offset_9 = DEFINED (__vector_dispatch_9)?(. - _ebase_address):__vector_offset_default
 *(.vector_9)
 .vector_9      0x000000009d001218        0x8 output\isr.o
                0x000000009d001218                __vector_dispatch_9
                0x000000009d001220                . = ALIGN (0x4)
                0x0000000000000328                __vector_offset_10 = DEFINED (__vector_dispatch_10)?(. - _ebase_address):__vector_offset_default
 *(.vector_10)
                0x000000009d001220                . = ALIGN (0x4)
                0x0000000000000328                __vector_offset_11 = DEFINED (__vector_dispatch_11)?(. - _ebase_address):__vector_offset_default
 *(.vector_11)
                0x000000009d001220                . = ALIGN (0x4)
                0x0000000000000220                __vector_offset_12 = DEFINED (__vector_dispatch_12)?(. - _ebase_address):__vector_offset_default
 *(.vector_12)
 .vector_12     0x000000009d001220        0x8 output\isr.o
                0x000000009d001220                __vector_dispatch_12
                0x000000009d001228                . = ALIGN (0x4)
                0x0000000000000328                __vector_offset_13 = DEFINED (__vector_dispatch_13)?(. - _ebase_address):__vector_offset_default
 *(.vector_13)
                0x000000009d001228                . = ALIGN (0x4)
                0x0000000000000228                __vector_offset_14 = DEFINED (__vector_dispatch_14)?(. - _ebase_address):__vector_offset_default
 *(.vector_14)
 .vector_14     0x000000009d001228        0x8 output\isr.o
                0x000000009d001228                __vector_dispatch_14
                0x000000009d001230                . = ALIGN (0x4)
                0x0000000000000328                __vector_offset_15 = DEFINED (__vector_dispatch_15)?(. - _ebase_address):__vector_offset_default
 *(.vector_15)
                0x000000009d001230                . = ALIGN (0x4)
                0x0000000000000328                __vector_offset_16 = DEFINED (__vector_dispatch_16)?(. - _ebase_address):__vector_offset_default
 *(.vector_16)
                0x000000009d001230                . = ALIGN (0x4)
                0x0000000000000230                __vector_offset_17 = DEFINED (__vector_dispatch_17)?(. - _ebase_address):__vector_offset_default
 *(.vector_17)
 .vector_17     0x000000009d001230        0x8 output\isr.o
                0x000000009d001230                __vector_dispatch_17
                0x000000009d001238                . = ALIGN (0x4)
                0x0000000000000238                __vector_offset_18 = DEFINED (__vector_dispatch_18)?(. - _ebase_address):__vector_offset_default
 *(.vector_18)
 .vector_18     0x000000009d001238        0x8 output\isr.o
                0x000000009d001238                __vector_dispatch_18
                0x000000009d001240                . = ALIGN (0x4)
                0x0000000000000240                __vector_offset_19 = DEFINED (__vector_dispatch_19)?(. - _ebase_address):__vector_offset_default
 *(.vector_19)
 .vector_19     0x000000009d001240        0x8 output\isr.o
                0x000000009d001240                __vector_dispatch_19
                0x000000009d001248                . = ALIGN (0x4)
                0x0000000000000328                __vector_offset_20 = DEFINED (__vector_dispatch_20)?(. - _ebase_address):__vector_offset_default
 *(.vector_20)
                0x000000009d001248                . = ALIGN (0x4)
                0x0000000000000328                __vector_offset_21 = DEFINED (__vector_dispatch_21)?(. - _ebase_address):__vector_offset_default
 *(.vector_21)
                0x000000009d001248                . = ALIGN (0x4)
                0x0000000000000248                __vector_offset_22 = DEFINED (__vector_dispatch_22)?(. - _ebase_address):__vector_offset_default
 *(.vector_22)
 .vector_22     0x000000009d001248        0x8 output\isr.o
                0x000000009d001248                __vector_dispatch_22
                0x000000009d001250                . = ALIGN (0x4)
                0x0000000000000328                __vector_offset_23 = DEFINED (__vector_dispatch_23)?(. - _ebase_address):__vector_offset_default
 *(.vector_23)
                0x000000009d001250                . = ALIGN (0x4)
                0x0000000000000328                __vector_offset_24 = DEFINED (__vector_dispatch_24)?(. - _ebase_address):__vector_offset_default
 *(.vector_24)
                0x000000009d001250                . = ALIGN (0x4)
                0x0000000000000328                __vector_offset_25 = DEFINED (__vector_dispatch_25)?(. - _ebase_address):__vector_offset_default
 *(.vector_25)
                0x000000009d001250                . = ALIGN (0x4)
                0x0000000000000328                __vector_offset_26 = DEFINED (__vector_dispatch_26)?(. - _ebase_address):__vector_offset_default
 *(.vector_26)
                0x000000009d001250                . = ALIGN (0x4)
                0x0000000000000328                __vector_offset_27 = DEFINED (__vector_dispatch_27)?(. - _ebase_address):__vector_offset_default
 *(.vector_27)
                0x000000009d001250                . = ALIGN (0x4)
                0x0000000000000328                __vector_offset_28 = DEFINED (__vector_dispatch_28)?(. - _ebase_address):__vector_offset_default
 *(.vector_28)
                0x000000009d001250                . = ALIGN (0x4)
                0x0000000000000328                __vector_offset_29 = DEFINED (__vector_dispatch_29)?(. - _ebase_address):__vector_offset_default
 *(.vector_29)
                0x000000009d001250                . = ALIGN (0x4)
                0x0000000000000328                __vector_offset_30 = DEFINED (__vector_dispatch_30)?(. - _ebase_address):__vector_offset_default
 *(.vector_30)
                0x000000009d001250                . = ALIGN (0x4)
                0x0000000000000328                __vector_offset_31 = DEFINED (__vector_dispatch_31)?(. - _ebase_address):__vector_offset_default
 *(.vector_31)
                0x000000009d001250                . = ALIGN (0x4)
                0x0000000000000328                __vector_offset_32 = DEFINED (__vector_dispatch_32)?(. - _ebase_address):__vector_offset_default
 *(.vector_32)
                0x000000009d001250                . = ALIGN (0x4)
                0x0000000000000328                __vector_offset_33 = DEFINED (__vector_dispatch_33)?(. - _ebase_address):__vector_offset_default
 *(.vector_33)
                0x000000009d001250                . = ALIGN (0x4)
                0x0000000000000328                __vector_offset_34 = DEFINED (__vector_dispatch_34)?(. - _ebase_address):__vector_offset_default
 *(.vector_34)
                0x000000009d001250                . = ALIGN (0x4)
                0x0000000000000328                __vector_offset_35 = DEFINED (__vector_dispatch_35)?(. - _ebase_address):__vector_offset_default
 *(.vector_35)
                0x000000009d001250                . = ALIGN (0x4)
                0x0000000000000328                __vector_offset_36 = DEFINED (__vector_dispatch_36)?(. - _ebase_address):__vector_offset_default
 *(.vector_36)
                0x000000009d001250                . = ALIGN (0x4)
                0x0000000000000328                __vector_offset_37 = DEFINED (__vector_dispatch_37)?(. - _ebase_address):__vector_offset_default
 *(.vector_37)
                0x000000009d001250                . = ALIGN (0x4)
                0x0000000000000328                __vector_offset_38 = DEFINED (__vector_dispatch_38)?(. - _ebase_address):__vector_offset_default
 *(.vector_38)
                0x000000009d001250                . = ALIGN (0x4)
                0x0000000000000328                __vector_offset_39 = DEFINED (__vector_dispatch_39)?(. - _ebase_address):__vector_offset_default
 *(.vector_39)
                0x000000009d001250                . = ALIGN (0x4)
                0x0000000000000328                __vector_offset_40 = DEFINED (__vector_dispatch_40)?(. - _ebase_address):__vector_offset_default
 *(.vector_40)
                0x000000009d001250                . = ALIGN (0x4)
                0x0000000000000328                __vector_offset_41 = DEFINED (__vector_dispatch_41)?(. - _ebase_address):__vector_offset_default
 *(.vector_41)
                0x000000009d001250                . = ALIGN (0x4)
                0x0000000000000328                __vector_offset_42 = DEFINED (__vector_dispatch_42)?(. - _ebase_address):__vector_offset_default
 *(.vector_42)
                0x000000009d001250                . = ALIGN (0x4)
                0x0000000000000328                __vector_offset_43 = DEFINED (__vector_dispatch_43)?(. - _ebase_address):__vector_offset_default
 *(.vector_43)
                0x000000009d001250                . = ALIGN (0x4)
                0x0000000000000328                __vector_offset_44 = DEFINED (__vector_dispatch_44)?(. - _ebase_address):__vector_offset_default
 *(.vector_44)
                0x000000009d001250                . = ALIGN (0x4)
                0x0000000000000328                __vector_offset_45 = DEFINED (__vector_dispatch_45)?(. - _ebase_address):__vector_offset_default
 *(.vector_45)
                0x000000009d001250                . = ALIGN (0x4)
                0x0000000000000328                __vector_offset_46 = DEFINED (__vector_dispatch_46)?(. - _ebase_address):__vector_offset_default
 *(.vector_46)
                0x000000009d001250                . = ALIGN (0x4)
                0x0000000000000328                __vector_offset_47 = DEFINED (__vector_dispatch_47)?(. - _ebase_address):__vector_offset_default
 *(.vector_47)
                0x000000009d001250                . = ALIGN (0x4)
                0x0000000000000328                __vector_offset_48 = DEFINED (__vector_dispatch_48)?(. - _ebase_address):__vector_offset_default
 *(.vector_48)
                0x000000009d001250                . = ALIGN (0x4)
                0x0000000000000328                __vector_offset_49 = DEFINED (__vector_dispatch_49)?(. - _ebase_address):__vector_offset_default
 *(.vector_49)
                0x000000009d001250                . = ALIGN (0x4)
                0x0000000000000328                __vector_offset_50 = DEFINED (__vector_dispatch_50)?(. - _ebase_address):__vector_offset_default
 *(.vector_50)
                0x000000009d001250                . = ALIGN (0x4)
                0x0000000000000328                __vector_offset_51 = DEFINED (__vector_dispatch_51)?(. - _ebase_address):__vector_offset_default
 *(.vector_51)
                0x000000009d001250                . = ALIGN (0x4)
                0x0000000000000328                __vector_offset_52 = DEFINED (__vector_dispatch_52)?(. - _ebase_address):__vector_offset_default
 *(.vector_52)
                0x000000009d001250                . = ALIGN (0x4)
                0x0000000000000328                __vector_offset_53 = DEFINED (__vector_dispatch_53)?(. - _ebase_address):__vector_offset_default
 *(.vector_53)
                0x000000009d001250                . = ALIGN (0x4)
                0x0000000000000328                __vector_offset_54 = DEFINED (__vector_dispatch_54)?(. - _ebase_address):__vector_offset_default
 *(.vector_54)
                0x000000009d001250                . = ALIGN (0x4)
                0x0000000000000328                __vector_offset_55 = DEFINED (__vector_dispatch_55)?(. - _ebase_address):__vector_offset_default
 *(.vector_55)
                0x000000009d001250                . = ALIGN (0x4)
                0x0000000000000328                __vector_offset_56 = DEFINED (__vector_dispatch_56)?(. - _ebase_address):__vector_offset_default
 *(.vector_56)
                0x000000009d001250                . = ALIGN (0x4)
                0x0000000000000328                __vector_offset_57 = DEFINED (__vector_dispatch_57)?(. - _ebase_address):__vector_offset_default
 *(.vector_57)
                0x000000009d001250                . = ALIGN (0x4)
                0x0000000000000328                __vector_offset_58 = DEFINED (__vector_dispatch_58)?(. - _ebase_address):__vector_offset_default
 *(.vector_58)
                0x000000009d001250                . = ALIGN (0x4)
                0x0000000000000328                __vector_offset_59 = DEFINED (__vector_dispatch_59)?(. - _ebase_address):__vector_offset_default
 *(.vector_59)
                0x000000009d001250                . = ALIGN (0x4)
                0x0000000000000328                __vector_offset_60 = DEFINED (__vector_dispatch_60)?(. - _ebase_address):__vector_offset_default
 *(.vector_60)
                0x000000009d001250                . = ALIGN (0x4)
                0x0000000000000328                __vector_offset_61 = DEFINED (__vector_dispatch_61)?(. - _ebase_address):__vector_offset_default
 *(.vector_61)
                0x000000009d001250                . = ALIGN (0x4)
                0x0000000000000328                __vector_offset_62 = DEFINED (__vector_dispatch_62)?(. - _ebase_address):__vector_offset_default
 *(.vector_62)
                0x000000009d001250                . = ALIGN (0x4)
                0x0000000000000328                __vector_offset_63 = DEFINED (__vector_dispatch_63)?(. - _ebase_address):__vector_offset_default
 *(.vector_63)
                0x000000009d001250                . = ALIGN (0x4)
                0x0000000000000328                __vector_offset_64 = DEFINED (__vector_dispatch_64)?(. - _ebase_address):__vector_offset_default
 *(.vector_64)
                0x000000009d001250                . = ALIGN (0x4)
                0x0000000000000328                __vector_offset_65 = DEFINED (__vector_dispatch_65)?(. - _ebase_address):__vector_offset_default
 *(.vector_65)
                0x000000009d001250                . = ALIGN (0x4)
                0x0000000000000328                __vector_offset_66 = DEFINED (__vector_dispatch_66)?(. - _ebase_address):__vector_offset_default
 *(.vector_66)
                0x000000009d001250                . = ALIGN (0x4)
                0x0000000000000328                __vector_offset_67 = DEFINED (__vector_dispatch_67)?(. - _ebase_address):__vector_offset_default
 *(.vector_67)
                0x000000009d001250                . = ALIGN (0x4)
                0x0000000000000328                __vector_offset_68 = DEFINED (__vector_dispatch_68)?(. - _ebase_address):__vector_offset_default
 *(.vector_68)
                0x000000009d001250                . = ALIGN (0x4)
                0x0000000000000328                __vector_offset_69 = DEFINED (__vector_dispatch_69)?(. - _ebase_address):__vector_offset_default
 *(.vector_69)
                0x000000009d001250                . = ALIGN (0x4)
                0x0000000000000328                __vector_offset_70 = DEFINED (__vector_dispatch_70)?(. - _ebase_address):__vector_offset_default
 *(.vector_70)
                0x000000009d001250                . = ALIGN (0x4)
                0x0000000000000328                __vector_offset_71 = DEFINED (__vector_dispatch_71)?(. - _ebase_address):__vector_offset_default
 *(.vector_71)
                0x000000009d001250                . = ALIGN (0x4)
                0x0000000000000328                __vector_offset_72 = DEFINED (__vector_dispatch_72)?(. - _ebase_address):__vector_offset_default
 *(.vector_72)
                0x000000009d001250                . = ALIGN (0x4)
                0x0000000000000328                __vector_offset_73 = DEFINED (__vector_dispatch_73)?(. - _ebase_address):__vector_offset_default
 *(.vector_73)
                0x000000009d001250                . = ALIGN (0x4)
                0x0000000000000328                __vector_offset_74 = DEFINED (__vector_dispatch_74)?(. - _ebase_address):__vector_offset_default
 *(.vector_74)
                0x000000009d001250                . = ALIGN (0x4)
                0x0000000000000328                __vector_offset_75 = DEFINED (__vector_dispatch_75)?(. - _ebase_address):__vector_offset_default
 *(.vector_75)
                0x000000009d001250                . = ALIGN (0x4)
                0x0000000000000328                __vector_offset_76 = DEFINED (__vector_dispatch_76)?(. - _ebase_address):__vector_offset_default
 *(.vector_76)
                0x000000009d001250                . = ALIGN (0x4)
                0x0000000000000328                __vector_offset_77 = DEFINED (__vector_dispatch_77)?(. - _ebase_address):__vector_offset_default
 *(.vector_77)
                0x000000009d001250                . = ALIGN (0x4)
                0x0000000000000328                __vector_offset_78 = DEFINED (__vector_dispatch_78)?(. - _ebase_address):__vector_offset_default
 *(.vector_78)
                0x000000009d001250                . = ALIGN (0x4)
                0x0000000000000328                __vector_offset_79 = DEFINED (__vector_dispatch_79)?(. - _ebase_address):__vector_offset_default
 *(.vector_79)
                0x000000009d001250                . = ALIGN (0x4)
                0x0000000000000328                __vector_offset_80 = DEFINED (__vector_dispatch_80)?(. - _ebase_address):__vector_offset_default
 *(.vector_80)
                0x000000009d001250                . = ALIGN (0x4)
                0x0000000000000328                __vector_offset_81 = DEFINED (__vector_dispatch_81)?(. - _ebase_address):__vector_offset_default
 *(.vector_81)
                0x000000009d001250                . = ALIGN (0x4)
                0x0000000000000328                __vector_offset_82 = DEFINED (__vector_dispatch_82)?(. - _ebase_address):__vector_offset_default
 *(.vector_82)
                0x000000009d001250                . = ALIGN (0x4)
                0x0000000000000328                __vector_offset_83 = DEFINED (__vector_dispatch_83)?(. - _ebase_address):__vector_offset_default
 *(.vector_83)
                0x000000009d001250                . = ALIGN (0x4)
                0x0000000000000328                __vector_offset_84 = DEFINED (__vector_dispatch_84)?(. - _ebase_address):__vector_offset_default
 *(.vector_84)
                0x000000009d001250                . = ALIGN (0x4)
                0x0000000000000328                __vector_offset_85 = DEFINED (__vector_dispatch_85)?(. - _ebase_address):__vector_offset_default
 *(.vector_85)
                0x000000009d001250                . = ALIGN (0x4)
                0x0000000000000328                __vector_offset_86 = DEFINED (__vector_dispatch_86)?(. - _ebase_address):__vector_offset_default
 *(.vector_86)
                0x000000009d001250                . = ALIGN (0x4)
                0x0000000000000328                __vector_offset_87 = DEFINED (__vector_dispatch_87)?(. - _ebase_address):__vector_offset_default
 *(.vector_87)
                0x000000009d001250                . = ALIGN (0x4)
                0x0000000000000328                __vector_offset_88 = DEFINED (__vector_dispatch_88)?(. - _ebase_address):__vector_offset_default
 *(.vector_88)
                0x000000009d001250                . = ALIGN (0x4)
                0x0000000000000328                __vector_offset_89 = DEFINED (__vector_dispatch_89)?(. - _ebase_address):__vector_offset_default
 *(.vector_89)
                0x000000009d001250                . = ALIGN (0x4)
                0x0000000000000328                __vector_offset_90 = DEFINED (__vector_dispatch_90)?(. - _ebase_address):__vector_offset_default
 *(.vector_90)
                0x000000009d001250                . = ALIGN (0x4)
                0x0000000000000328                __vector_offset_91 = DEFINED (__vector_dispatch_91)?(. - _ebase_address):__vector_offset_default
 *(.vector_91)
                0x000000009d001250                . = ALIGN (0x4)
                0x0000000000000328                __vector_offset_92 = DEFINED (__vector_dispatch_92)?(. - _ebase_address):__vector_offset_default
 *(.vector_92)
                0x000000009d001250                . = ALIGN (0x4)
                0x0000000000000328                __vector_offset_93 = DEFINED (__vector_dispatch_93)?(. - _ebase_address):__vector_offset_default
 *(.vector_93)
                0x000000009d001250                . = ALIGN (0x4)
                0x0000000000000328                __vector_offset_94 = DEFINED (__vector_dispatch_94)?(. - _ebase_address):__vector_offset_default
 *(.vector_94)
                0x000000009d001250                . = ALIGN (0x4)
                0x0000000000000328                __vector_offset_95 = DEFINED (__vector_dispatch_95)?(. - _ebase_address):__vector_offset_default
 *(.vector_95)
                0x000000009d001250                . = ALIGN (0x4)
                0x0000000000000328                __vector_offset_96 = DEFINED (__vector_dispatch_96)?(. - _ebase_address):__vector_offset_default
 *(.vector_96)
                0x000000009d001250                . = ALIGN (0x4)
                0x0000000000000328                __vector_offset_97 = DEFINED (__vector_dispatch_97)?(. - _ebase_address):__vector_offset_default
 *(.vector_97)
                0x000000009d001250                . = ALIGN (0x4)
                0x0000000000000328                __vector_offset_98 = DEFINED (__vector_dispatch_98)?(. - _ebase_address):__vector_offset_default
 *(.vector_98)
                0x000000009d001250                . = ALIGN (0x4)
                0x0000000000000328                __vector_offset_99 = DEFINED (__vector_dispatch_99)?(. - _ebase_address):__vector_offset_default
 *(.vector_99)
                0x000000009d001250                . = ALIGN (0x4)
                0x0000000000000328                __vector_offset_100 = DEFINED (__vector_dispatch_100)?(. - _ebase_address):__vector_offset_default
 *(.vector_100)
                0x000000009d001250                . = ALIGN (0x4)
                0x0000000000000328                __vector_offset_101 = DEFINED (__vector_dispatch_101)?(. - _ebase_address):__vector_offset_default
 *(.vector_101)
                0x000000009d001250                . = ALIGN (0x4)
                0x0000000000000328                __vector_offset_102 = DEFINED (__vector_dispatch_102)?(. - _ebase_address):__vector_offset_default
 *(.vector_102)
                0x000000009d001250                . = ALIGN (0x4)
                0x0000000000000328                __vector_offset_103 = DEFINED (__vector_dispatch_103)?(. - _ebase_address):__vector_offset_default
 *(.vector_103)
                0x000000009d001250                . = ALIGN (0x4)
                0x0000000000000328                __vector_offset_104 = DEFINED (__vector_dispatch_104)?(. - _ebase_address):__vector_offset_default
 *(.vector_104)
                0x000000009d001250                . = ALIGN (0x4)
                0x0000000000000328                __vector_offset_105 = DEFINED (__vector_dispatch_105)?(. - _ebase_address):__vector_offset_default
 *(.vector_105)
                0x000000009d001250                . = ALIGN (0x4)
                0x0000000000000328                __vector_offset_106 = DEFINED (__vector_dispatch_106)?(. - _ebase_address):__vector_offset_default
 *(.vector_106)
                0x000000009d001250                . = ALIGN (0x4)
                0x0000000000000328                __vector_offset_107 = DEFINED (__vector_dispatch_107)?(. - _ebase_address):__vector_offset_default
 *(.vector_107)
                0x000000009d001250                . = ALIGN (0x4)
                0x0000000000000328                __vector_offset_108 = DEFINED (__vector_dispatch_108)?(. - _ebase_address):__vector_offset_default
 *(.vector_108)
                0x000000009d001250                . = ALIGN (0x4)
                0x0000000000000328                __vector_offset_109 = DEFINED (__vector_dispatch_109)?(. - _ebase_address):__vector_offset_default
 *(.vector_109)
                0x000000009d001250                . = ALIGN (0x4)
                0x0000000000000328                __vector_offset_110 = DEFINED (__vector_dispatch_110)?(. - _ebase_address):__vector_offset_default
 *(.vector_110)
                0x000000009d001250                . = ALIGN (0x4)
                0x0000000000000328                __vector_offset_111 = DEFINED (__vector_dispatch_111)?(. - _ebase_address):__vector_offset_default
 *(.vector_111)
                0x000000009d001250                . = ALIGN (0x4)
                0x0000000000000250                __vector_offset_112 = DEFINED (__vector_dispatch_112)?(. - _ebase_address):__vector_offset_default
 *(.vector_112)
 .vector_112    0x000000009d001250        0x8 output\isr.o
                0x000000009d001250                __vector_dispatch_112
                0x000000009d001258                . = ALIGN (0x4)
                0x0000000000000258                __vector_offset_113 = DEFINED (__vector_dispatch_113)?(. - _ebase_address):__vector_offset_default
 *(.vector_113)
 .vector_113    0x000000009d001258        0x8 output\isr.o
                0x000000009d001258                __vector_dispatch_113
                0x000000009d001260                . = ALIGN (0x4)
                0x0000000000000260                __vector_offset_114 = DEFINED (__vector_dispatch_114)?(. - _ebase_address):__vector_offset_default
 *(.vector_114)
 .vector_114    0x000000009d001260        0x8 output\isr.o
                0x000000009d001260                __vector_dispatch_114
                0x000000009d001268                . = ALIGN (0x4)
                0x0000000000000328                __vector_offset_115 = DEFINED (__vector_dispatch_115)?(. - _ebase_address):__vector_offset_default
 *(.vector_115)
                0x000000009d001268                . = ALIGN (0x4)
                0x0000000000000328                __vector_offset_116 = DEFINED (__vector_dispatch_116)?(. - _ebase_address):__vector_offset_default
 *(.vector_116)
                0x000000009d001268                . = ALIGN (0x4)
                0x0000000000000328                __vector_offset_117 = DEFINED (__vector_dispatch_117)?(. - _ebase_address):__vector_offset_default
 *(.vector_117)
                0x000000009d001268                . = ALIGN (0x4)
                0x0000000000000268                __vector_offset_118 = DEFINED (__vector_dispatch_118)?(. - _ebase_address):__vector_offset_default
 *(.vector_118)
 .vector_118    0x000000009d001268        0x8 output\isr.o
                0x000000009d001268                __vector_dispatch_118
                0x000000009d001270                . = ALIGN (0x4)
                0x0000000000000270                __vector_offset_119 = DEFINED (__vector_dispatch_119)?(. - _ebase_address):__vector_offset_default
 *(.vector_119)
 .vector_119    0x000000009d001270        0x8 output\isr.o
                0x000000009d001270                __vector_dispatch_119
                0x000000009d001278                . = ALIGN (0x4)
                0x0000000000000278                __vector_offset_120 = DEFINED (__vector_dispatch_120)?(. - _ebase_address):__vector_offset_default
 *(.vector_120)
 .vector_120    0x000000009d001278        0x8 output\isr.o
                0x000000009d001278                __vector_dispatch_120
                0x000000009d001280                . = ALIGN (0x4)
                0x0000000000000280                __vector_offset_121 = DEFINED (__vector_dispatch_121)?(. - _ebase_address):__vector_offset_default
 *(.vector_121)
 .vector_121    0x000000009d001280        0x8 output\isr.o
                0x000000009d001280                __vector_dispatch_121
                0x000000009d001288                . = ALIGN (0x4)
                0x0000000000000288                __vector_offset_122 = DEFINED (__vector_dispatch_122)?(. - _ebase_address):__vector_offset_default
 *(.vector_122)
 .vector_122    0x000000009d001288        0x8 output\isr.o
                0x000000009d001288                __vector_dispatch_122
                0x000000009d001290                . = ALIGN (0x4)
                0x0000000000000290                __vector_offset_123 = DEFINED (__vector_dispatch_123)?(. - _ebase_address):__vector_offset_default
 *(.vector_123)
 .vector_123    0x000000009d001290        0x8 output\isr.o
                0x000000009d001290                __vector_dispatch_123
                0x000000009d001298                . = ALIGN (0x4)
                0x0000000000000298                __vector_offset_124 = DEFINED (__vector_dispatch_124)?(. - _ebase_address):__vector_offset_default
 *(.vector_124)
 .vector_124    0x000000009d001298        0x8 output\isr.o
                0x000000009d001298                __vector_dispatch_124
                0x000000009d0012a0                . = ALIGN (0x4)
                0x00000000000002a0                __vector_offset_125 = DEFINED (__vector_dispatch_125)?(. - _ebase_address):__vector_offset_default
 *(.vector_125)
 .vector_125    0x000000009d0012a0        0x8 output\isr.o
                0x000000009d0012a0                __vector_dispatch_125
                0x000000009d0012a8                . = ALIGN (0x4)
                0x00000000000002a8                __vector_offset_126 = DEFINED (__vector_dispatch_126)?(. - _ebase_address):__vector_offset_default
 *(.vector_126)
 .vector_126    0x000000009d0012a8        0x8 output\isr.o
                0x000000009d0012a8                __vector_dispatch_126
                0x000000009d0012b0                . = ALIGN (0x4)
                0x00000000000002b0                __vector_offset_127 = DEFINED (__vector_dispatch_127)?(. - _ebase_address):__vector_offset_default
 *(.vector_127)
 .vector_127    0x000000009d0012b0        0x8 output\isr.o
                0x000000009d0012b0                __vector_dispatch_127
                0x000000009d0012b8                . = ALIGN (0x4)
                0x0000000000000328                __vector_offset_128 = DEFINED (__vector_dispatch_128)?(. - _ebase_address):__vector_offset_default
 *(.vector_128)
                0x000000009d0012b8                . = ALIGN (0x4)
                0x0000000000000328                __vector_offset_129 = DEFINED (__vector_dispatch_129)?(. - _ebase_address):__vector_offset_default
 *(.vector_129)
                0x000000009d0012b8                . = ALIGN (0x4)
                0x0000000000000328                __vector_offset_130 = DEFINED (__vector_dispatch_130)?(. - _ebase_address):__vector_offset_default
 *(.vector_130)
                0x000000009d0012b8                . = ALIGN (0x4)
                0x0000000000000328                __vector_offset_131 = DEFINED (__vector_dispatch_131)?(. - _ebase_address):__vector_offset_default
 *(.vector_131)
                0x000000009d0012b8                . = ALIGN (0x4)
                0x00000000000002b8                __vector_offset_132 = DEFINED (__vector_dispatch_132)?(. - _ebase_address):__vector_offset_default
 *(.vector_132)
 .vector_132    0x000000009d0012b8        0x8 output\isr.o
                0x000000009d0012b8                __vector_dispatch_132
                0x000000009d0012c0                . = ALIGN (0x4)
                0x00000000000002c0                __vector_offset_133 = DEFINED (__vector_dispatch_133)?(. - _ebase_address):__vector_offset_default
 *(.vector_133)
 .vector_133    0x000000009d0012c0        0x8 output\isr.o
                0x000000009d0012c0                __vector_dispatch_133
                0x000000009d0012c8                . = ALIGN (0x4)
                0x00000000000002c8                __vector_offset_134 = DEFINED (__vector_dispatch_134)?(. - _ebase_address):__vector_offset_default
 *(.vector_134)
 .vector_134    0x000000009d0012c8        0x8 output\isr.o
                0x000000009d0012c8                __vector_dispatch_134
                0x000000009d0012d0                . = ALIGN (0x4)
                0x00000000000002d0                __vector_offset_135 = DEFINED (__vector_dispatch_135)?(. - _ebase_address):__vector_offset_default
 *(.vector_135)
 .vector_135    0x000000009d0012d0        0x8 output\isr.o
                0x000000009d0012d0                __vector_dispatch_135
                0x000000009d0012d8                . = ALIGN (0x4)
                0x00000000000002d8                __vector_offset_136 = DEFINED (__vector_dispatch_136)?(. - _ebase_address):__vector_offset_default
 *(.vector_136)
 .vector_136    0x000000009d0012d8        0x8 output\isr.o
                0x000000009d0012d8                __vector_dispatch_136
                0x000000009d0012e0                . = ALIGN (0x4)
                0x0000000000000328                __vector_offset_137 = DEFINED (__vector_dispatch_137)?(. - _ebase_address):__vector_offset_default
 *(.vector_137)
                0x000000009d0012e0                . = ALIGN (0x4)
                0x0000000000000328                __vector_offset_138 = DEFINED (__vector_dispatch_138)?(. - _ebase_address):__vector_offset_default
 *(.vector_138)
                0x000000009d0012e0                . = ALIGN (0x4)
                0x0000000000000328                __vector_offset_139 = DEFINED (__vector_dispatch_139)?(. - _ebase_address):__vector_offset_default
 *(.vector_139)
                0x000000009d0012e0                . = ALIGN (0x4)
                0x0000000000000328                __vector_offset_140 = DEFINED (__vector_dispatch_140)?(. - _ebase_address):__vector_offset_default
 *(.vector_140)
                0x000000009d0012e0                . = ALIGN (0x4)
                0x0000000000000328                __vector_offset_141 = DEFINED (__vector_dispatch_141)?(. - _ebase_address):__vector_offset_default
 *(.vector_141)
                0x000000009d0012e0                . = ALIGN (0x4)
                0x00000000000002e0                __vector_offset_142 = DEFINED (__vector_dispatch_142)?(. - _ebase_address):__vector_offset_default
 *(.vector_142)
 .vector_142    0x000000009d0012e0        0x8 output\isr.o
                0x000000009d0012e0                __vector_dispatch_142
                0x000000009d0012e8                . = ALIGN (0x4)
                0x00000000000002e8                __vector_offset_143 = DEFINED (__vector_dispatch_143)?(. - _ebase_address):__vector_offset_default
 *(.vector_143)
 .vector_143    0x000000009d0012e8        0x8 output\isr.o
                0x000000009d0012e8                __vector_dispatch_143
                0x000000009d0012f0                . = ALIGN (0x4)
                0x00000000000002f0                __vector_offset_144 = DEFINED (__vector_dispatch_144)?(. - _ebase_address):__vector_offset_default
 *(.vector_144)
 .vector_144    0x000000009d0012f0        0x8 output\isr.o
                0x000000009d0012f0                __vector_dispatch_144
                0x000000009d0012f8                . = ALIGN (0x4)
                0x00000000000002f8                __vector_offset_145 = DEFINED (__vector_dispatch_145)?(. - _ebase_address):__vector_offset_default
 *(.vector_145)
 .vector_145    0x000000009d0012f8        0x8 output\isr.o
                0x000000009d0012f8                __vector_dispatch_145
                0x000000009d001300                . = ALIGN (0x4)
                0x0000000000000300                __vector_offset_146 = DEFINED (__vector_dispatch_146)?(. - _ebase_address):__vector_offset_default
 *(.vector_146)
 .vector_146    0x000000009d001300        0x8 output\isr.o
                0x000000009d001300                __vector_dispatch_146
                0x000000009d001308                . = ALIGN (0x4)
                0x0000000000000308                __vector_offset_147 = DEFINED (__vector_dispatch_147)?(. - _ebase_address):__vector_offset_default
 *(.vector_147)
 .vector_147    0x000000009d001308        0x8 output\isr.o
                0x000000009d001308                __vector_dispatch_147
                0x000000009d001310                . = ALIGN (0x4)
                0x0000000000000328                __vector_offset_148 = DEFINED (__vector_dispatch_148)?(. - _ebase_address):__vector_offset_default
 *(.vector_148)
                0x000000009d001310                . = ALIGN (0x4)
                0x0000000000000328                __vector_offset_149 = DEFINED (__vector_dispatch_149)?(. - _ebase_address):__vector_offset_default
 *(.vector_149)
                0x000000009d001310                . = ALIGN (0x4)
                0x0000000000000328                __vector_offset_150 = DEFINED (__vector_dispatch_150)?(. - _ebase_address):__vector_offset_default
 *(.vector_150)
                0x000000009d001310                . = ALIGN (0x4)
                0x0000000000000328                __vector_offset_151 = DEFINED (__vector_dispatch_151)?(. - _ebase_address):__vector_offset_default
 *(.vector_151)
                0x000000009d001310                . = ALIGN (0x4)
                0x0000000000000328                __vector_offset_152 = DEFINED (__vector_dispatch_152)?(. - _ebase_address):__vector_offset_default
 *(.vector_152)
                0x000000009d001310                . = ALIGN (0x4)
                0x0000000000000328                __vector_offset_153 = DEFINED (__vector_dispatch_153)?(. - _ebase_address):__vector_offset_default
 *(.vector_153)
                0x000000009d001310                . = ALIGN (0x4)
                0x0000000000000328                __vector_offset_154 = DEFINED (__vector_dispatch_154)?(. - _ebase_address):__vector_offset_default
 *(.vector_154)
                0x000000009d001310                . = ALIGN (0x4)
                0x0000000000000328                __vector_offset_155 = DEFINED (__vector_dispatch_155)?(. - _ebase_address):__vector_offset_default
 *(.vector_155)
                0x000000009d001310                . = ALIGN (0x4)
                0x0000000000000328                __vector_offset_156 = DEFINED (__vector_dispatch_156)?(. - _ebase_address):__vector_offset_default
 *(.vector_156)
                0x000000009d001310                . = ALIGN (0x4)
                0x0000000000000328                __vector_offset_157 = DEFINED (__vector_dispatch_157)?(. - _ebase_address):__vector_offset_default
 *(.vector_157)
                0x000000009d001310                . = ALIGN (0x4)
                0x0000000000000328                __vector_offset_158 = DEFINED (__vector_dispatch_158)?(. - _ebase_address):__vector_offset_default
 *(.vector_158)
                0x000000009d001310                . = ALIGN (0x4)
                0x0000000000000328                __vector_offset_159 = DEFINED (__vector_dispatch_159)?(. - _ebase_address):__vector_offset_default
 *(.vector_159)
                0x000000009d001310                . = ALIGN (0x4)
                0x0000000000000328                __vector_offset_160 = DEFINED (__vector_dispatch_160)?(. - _ebase_address):__vector_offset_default
 *(.vector_160)
                0x000000009d001310                . = ALIGN (0x4)
                0x0000000000000328                __vector_offset_161 = DEFINED (__vector_dispatch_161)?(. - _ebase_address):__vector_offset_default
 *(.vector_161)
                0x000000009d001310                . = ALIGN (0x4)
                0x0000000000000328                __vector_offset_162 = DEFINED (__vector_dispatch_162)?(. - _ebase_address):__vector_offset_default
 *(.vector_162)
                0x000000009d001310                . = ALIGN (0x4)
                0x0000000000000310                __vector_offset_163 = DEFINED (__vector_dispatch_163)?(. - _ebase_address):__vector_offset_default
 *(.vector_163)
 .vector_163    0x000000009d001310        0x8 output\isr.o
                0x000000009d001310                __vector_dispatch_163
                0x000000009d001318                . = ALIGN (0x4)
                0x0000000000000318                __vector_offset_164 = DEFINED (__vector_dispatch_164)?(. - _ebase_address):__vector_offset_default
 *(.vector_164)
 .vector_164    0x000000009d001318        0x8 output\isr.o
                0x000000009d001318                __vector_dispatch_164
                0x000000009d001320                . = ALIGN (0x4)
                0x0000000000000320                __vector_offset_165 = DEFINED (__vector_dispatch_165)?(. - _ebase_address):__vector_offset_default
 *(.vector_165)
 .vector_165    0x000000009d001320        0x8 output\isr.o
                0x000000009d001320                __vector_dispatch_165
                0x000000009d001328                . = ALIGN (0x4)
                0x0000000000000328                __vector_offset_166 = DEFINED (__vector_dispatch_166)?(. - _ebase_address):__vector_offset_default
 *(.vector_166)
                0x000000009d001328                . = ALIGN (0x4)
                0x0000000000000328                __vector_offset_167 = DEFINED (__vector_dispatch_167)?(. - _ebase_address):__vector_offset_default
 *(.vector_167)
                0x000000009d001328                . = ALIGN (0x4)
                0x0000000000000328                __vector_offset_168 = DEFINED (__vector_dispatch_168)?(. - _ebase_address):__vector_offset_default
 *(.vector_168)
                0x000000009d001328                . = ALIGN (0x4)
                0x0000000000000328                __vector_offset_169 = DEFINED (__vector_dispatch_169)?(. - _ebase_address):__vector_offset_default
 *(.vector_169)
                0x000000009d001328                . = ALIGN (0x4)
                0x0000000000000328                __vector_offset_170 = DEFINED (__vector_dispatch_170)?(. - _ebase_address):__vector_offset_default
 *(.vector_170)
                0x000000009d001328                . = ALIGN (0x4)
                0x0000000000000328                __vector_offset_171 = DEFINED (__vector_dispatch_171)?(. - _ebase_address):__vector_offset_default
 *(.vector_171)
                0x000000009d001328                . = ALIGN (0x4)
                0x0000000000000328                __vector_offset_172 = DEFINED (__vector_dispatch_172)?(. - _ebase_address):__vector_offset_default
 *(.vector_172)
                0x000000009d001328                . = ALIGN (0x4)
                0x0000000000000328                __vector_offset_173 = DEFINED (__vector_dispatch_173)?(. - _ebase_address):__vector_offset_default
 *(.vector_173)
                0x000000009d001328                . = ALIGN (0x4)
                0x0000000000000328                __vector_offset_174 = DEFINED (__vector_dispatch_174)?(. - _ebase_address):__vector_offset_default
 *(.vector_174)
                0x000000009d001328                . = ALIGN (0x4)
                0x0000000000000328                __vector_offset_175 = DEFINED (__vector_dispatch_175)?(. - _ebase_address):__vector_offset_default
 *(.vector_175)
                0x000000009d001328                . = ALIGN (0x4)
                0x0000000000000328                __vector_offset_176 = DEFINED (__vector_dispatch_176)?(. - _ebase_address):__vector_offset_default
 *(.vector_176)
                0x000000009d001328                . = ALIGN (0x4)
                0x0000000000000328                __vector_offset_177 = DEFINED (__vector_dispatch_177)?(. - _ebase_address):__vector_offset_default
 *(.vector_177)
                0x000000009d001328                . = ALIGN (0x4)
                0x0000000000000328                __vector_offset_178 = DEFINED (__vector_dispatch_178)?(. - _ebase_address):__vector_offset_default
 *(.vector_178)
                0x000000009d001328                . = ALIGN (0x4)
                0x0000000000000328                __vector_offset_179 = DEFINED (__vector_dispatch_179)?(. - _ebase_address):__vector_offset_default
 *(.vector_179)
                0x000000009d001328                . = ALIGN (0x4)
                0x0000000000000328                __vector_offset_180 = DEFINED (__vector_dispatch_180)?(. - _ebase_address):__vector_offset_default
 *(.vector_180)
                0x000000009d001328                . = ALIGN (0x4)
                0x0000000000000328                __vector_offset_181 = DEFINED (__vector_dispatch_181)?(. - _ebase_address):__vector_offset_default
 *(.vector_181)
                0x000000009d001328                . = ALIGN (0x4)
                0x0000000000000328                __vector_offset_182 = DEFINED (__vector_dispatch_182)?(. - _ebase_address):__vector_offset_default
 *(.vector_182)
                0x000000009d001328                . = ALIGN (0x4)
                0x0000000000000328                __vector_offset_183 = DEFINED (__vector_dispatch_183)?(. - _ebase_address):__vector_offset_default
 *(.vector_183)
                0x000000009d001328                . = ALIGN (0x4)
                0x0000000000000328                __vector_offset_184 = DEFINED (__vector_dispatch_184)?(. - _ebase_address):__vector_offset_default
 *(.vector_184)
                0x000000009d001328                . = ALIGN (0x4)
                0x0000000000000328                __vector_offset_185 = DEFINED (__vector_dispatch_185)?(. - _ebase_address):__vector_offset_default
 *(.vector_185)
                0x000000009d001328                . = ALIGN (0x4)
                0x0000000000000328                __vector_offset_186 = DEFINED (__vector_dispatch_186)?(. - _ebase_address):__vector_offset_default
 *(.vector_186)
                0x000000009d001328                . = ALIGN (0x4)
                0x0000000000000328                __vector_offset_187 = DEFINED (__vector_dispatch_187)?(. - _ebase_address):__vector_offset_default
 *(.vector_187)
                0x000000009d001328                . = ALIGN (0x4)
                0x0000000000000328                __vector_offset_188 = DEFINED (__vector_dispatch_188)?(. - _ebase_address):__vector_offset_default
 *(.vector_188)
                0x000000009d001328                . = ALIGN (0x4)
                0x0000000000000328                __vector_offset_189 = DEFINED (__vector_dispatch_189)?(. - _ebase_address):__vector_offset_default
 *(.vector_189)
                0x000000009d001328                . = ALIGN (0x4)
                0x0000000000000328                __vector_offset_190 = DEFINED (__vector_dispatch_190)?(. - _ebase_address):__vector_offset_default
 *(.vector_190)
                0x000000009d001328                . = ALIGN (0x4)
                0x0000000000000328                __vector_offset_191 = DEFINED (__vector_dispatch_191)?(. - _ebase_address):__vector_offset_default
 *(.vector_191)
                0x000000009d001328                . = ALIGN (0x4)
                0x0000000000000328                __vector_offset_192 = DEFINED (__vector_dispatch_192)?(. - _ebase_address):__vector_offset_default
 *(.vector_192)
                0x000000009d001328                . = ALIGN (0x4)
                0x0000000000000328                __vector_offset_193 = DEFINED (__vector_dispatch_193)?(. - _ebase_address):__vector_offset_default
 *(.vector_193)
                0x000000009d001328                . = ALIGN (0x4)
                0x0000000000000328                __vector_offset_194 = DEFINED (__vector_dispatch_194)?(. - _ebase_address):__vector_offset_default
 *(.vector_194)
                0x000000009d001328                . = ALIGN (0x4)
                0x0000000000000328                __vector_offset_195 = DEFINED (__vector_dispatch_195)?(. - _ebase_address):__vector_offset_default
 *(.vector_195)
                0x000000009d001328                . = ALIGN (0x4)
                0x0000000000000328                __vector_offset_196 = DEFINED (__vector_dispatch_196)?(. - _ebase_address):__vector_offset_default
 *(.vector_196)
                0x000000009d001328                . = ALIGN (0x4)
                0x0000000000000328                __vector_offset_197 = DEFINED (__vector_dispatch_197)?(. - _ebase_address):__vector_offset_default
 *(.vector_197)
                0x000000009d001328                . = ALIGN (0x4)
                0x0000000000000328                __vector_offset_198 = DEFINED (__vector_dispatch_198)?(. - _ebase_address):__vector_offset_default
 *(.vector_198)
                0x000000009d001328                . = ALIGN (0x4)
                0x0000000000000328                __vector_offset_199 = DEFINED (__vector_dispatch_199)?(. - _ebase_address):__vector_offset_default
 *(.vector_199)
                0x000000009d001328                . = ALIGN (0x4)
                0x0000000000000328                __vector_offset_200 = DEFINED (__vector_dispatch_200)?(. - _ebase_address):__vector_offset_default
 *(.vector_200)
                0x000000009d001328                . = ALIGN (0x4)
                0x0000000000000328                __vector_offset_201 = DEFINED (__vector_dispatch_201)?(. - _ebase_address):__vector_offset_default
 *(.vector_201)
                0x000000009d001328                . = ALIGN (0x4)
                0x0000000000000328                __vector_offset_202 = DEFINED (__vector_dispatch_202)?(. - _ebase_address):__vector_offset_default
 *(.vector_202)
                0x000000009d001328                . = ALIGN (0x4)
                0x0000000000000328                __vector_offset_203 = DEFINED (__vector_dispatch_203)?(. - _ebase_address):__vector_offset_default
 *(.vector_203)
                0x000000009d001328                . = ALIGN (0x4)
                0x0000000000000328                __vector_offset_204 = DEFINED (__vector_dispatch_204)?(. - _ebase_address):__vector_offset_default
 *(.vector_204)
                0x000000009d001328                . = ALIGN (0x4)
                0x0000000000000328                __vector_offset_205 = DEFINED (__vector_dispatch_205)?(. - _ebase_address):__vector_offset_default
 *(.vector_205)
                0x000000009d001328                . = ALIGN (0x4)
                0x0000000000000328                __vector_offset_206 = DEFINED (__vector_dispatch_206)?(. - _ebase_address):__vector_offset_default
 *(.vector_206)
                0x000000009d001328                . = ALIGN (0x4)
                0x0000000000000328                __vector_offset_207 = DEFINED (__vector_dispatch_207)?(. - _ebase_address):__vector_offset_default
 *(.vector_207)
                0x000000009d001328                . = ALIGN (0x4)
                0x0000000000000328                __vector_offset_208 = DEFINED (__vector_dispatch_208)?(. - _ebase_address):__vector_offset_default
 *(.vector_208)
                0x000000009d001328                . = ALIGN (0x4)
                0x0000000000000328                __vector_offset_209 = DEFINED (__vector_dispatch_209)?(. - _ebase_address):__vector_offset_default
 *(.vector_209)
                0x000000009d001328                . = ALIGN (0x4)
                0x0000000000000328                __vector_offset_210 = DEFINED (__vector_dispatch_210)?(. - _ebase_address):__vector_offset_default
 *(.vector_210)
                0x000000009d001328                . = ALIGN (0x4)
                0x0000000000000328                __vector_offset_211 = DEFINED (__vector_dispatch_211)?(. - _ebase_address):__vector_offset_default
 *(.vector_211)
                0x000000009d001328                . = ALIGN (0x4)
                0x0000000000000328                __vector_offset_212 = DEFINED (__vector_dispatch_212)?(. - _ebase_address):__vector_offset_default
 *(.vector_212)
                0x000000009d001328                . = ALIGN (0x4)
                0x0000000000000328                __vector_offset_213 = DEFINED (__vector_dispatch_213)?(. - _ebase_address):__vector_offset_default
 *(.vector_213)
                0x000000009d001328                . = ALIGN (0x4)
                0x0000000000000328                __vector_offset_214 = DEFINED (__vector_dispatch_214)?(. - _ebase_address):__vector_offset_default
 *(.vector_214)
                0x000000009d001328                . = ALIGN (0x4)
                0x0000000000000328                __vector_offset_215 = DEFINED (__vector_dispatch_215)?(. - _ebase_address):__vector_offset_default
 *(.vector_215)
                0x000000009d001328                . = ALIGN (0x4)
                0x0000000000000328                __vector_offset_216 = DEFINED (__vector_dispatch_216)?(. - _ebase_address):__vector_offset_default
 *(.vector_216)
                0x000000009d001328                . = ALIGN (0x4)
                0x0000000000000328                __vector_offset_217 = DEFINED (__vector_dispatch_217)?(. - _ebase_address):__vector_offset_default
 *(.vector_217)
                0x000000009d001328                . = ALIGN (0x4)
                0x0000000000000328                __vector_offset_218 = DEFINED (__vector_dispatch_218)?(. - _ebase_address):__vector_offset_default
 *(.vector_218)
                0x000000009d001328                . = ALIGN (0x4)
                0x0000000000000328                __vector_offset_219 = DEFINED (__vector_dispatch_219)?(. - _ebase_address):__vector_offset_default
 *(.vector_219)
                0x000000009d001328                . = ALIGN (0x4)
                0x0000000000000328                __vector_offset_220 = DEFINED (__vector_dispatch_220)?(. - _ebase_address):__vector_offset_default
 *(.vector_220)
                0x000000009d001328                . = ALIGN (0x4)
                0x0000000000000328                __vector_offset_221 = DEFINED (__vector_dispatch_221)?(. - _ebase_address):__vector_offset_default
 *(.vector_221)
                0x000000009d001328                . = ALIGN (0x4)
                0x0000000000000328                __vector_offset_222 = DEFINED (__vector_dispatch_222)?(. - _ebase_address):__vector_offset_default
 *(.vector_222)
                0x000000009d001328                . = ALIGN (0x4)
                0x0000000000000328                __vector_offset_223 = DEFINED (__vector_dispatch_223)?(. - _ebase_address):__vector_offset_default
 *(.vector_223)
                0x000000009d001328                . = ALIGN (0x4)
                0x0000000000000328                __vector_offset_224 = DEFINED (__vector_dispatch_224)?(. - _ebase_address):__vector_offset_default
 *(.vector_224)
                0x000000009d001328                . = ALIGN (0x4)
                0x0000000000000328                __vector_offset_225 = DEFINED (__vector_dispatch_225)?(. - _ebase_address):__vector_offset_default
 *(.vector_225)
                0x000000009d001328                . = ALIGN (0x4)
                0x0000000000000328                __vector_offset_226 = DEFINED (__vector_dispatch_226)?(. - _ebase_address):__vector_offset_default
 *(.vector_226)
                0x000000009d001328                . = ALIGN (0x4)
                0x0000000000000328                __vector_offset_227 = DEFINED (__vector_dispatch_227)?(. - _ebase_address):__vector_offset_default
 *(.vector_227)
                0x000000009d001328                . = ALIGN (0x4)
                0x0000000000000328                __vector_offset_228 = DEFINED (__vector_dispatch_228)?(. - _ebase_address):__vector_offset_default
 *(.vector_228)
                0x000000009d001328                . = ALIGN (0x4)
                0x0000000000000328                __vector_offset_229 = DEFINED (__vector_dispatch_229)?(. - _ebase_address):__vector_offset_default
 *(.vector_229)
                0x000000009d001328                . = ALIGN (0x4)
                0x0000000000000328                __vector_offset_230 = DEFINED (__vector_dispatch_230)?(. - _ebase_address):__vector_offset_default
 *(.vector_230)
                0x000000009d001328                . = ALIGN (0x4)
                0x0000000000000328                __vector_offset_231 = DEFINED (__vector_dispatch_231)?(. - _ebase_address):__vector_offset_default
 *(.vector_231)
                0x000000009d001328                . = ALIGN (0x4)
                0x0000000000000328                __vector_offset_232 = DEFINED (__vector_dispatch_232)?(. - _ebase_address):__vector_offset_default
 *(.vector_232)
                0x000000009d001328                . = ALIGN (0x4)
                0x0000000000000328                __vector_offset_233 = DEFINED (__vector_dispatch_233)?(. - _ebase_address):__vector_offset_default
 *(.vector_233)
                0x000000009d001328                . = ALIGN (0x4)
                0x0000000000000328                __vector_offset_234 = DEFINED (__vector_dispatch_234)?(. - _ebase_address):__vector_offset_default
 *(.vector_234)
                0x000000009d001328                . = ALIGN (0x4)
                0x0000000000000328                __vector_offset_235 = DEFINED (__vector_dispatch_235)?(. - _ebase_address):__vector_offset_default
 *(.vector_235)
                0x000000009d001328                . = ALIGN (0x4)
                0x0000000000000328                __vector_offset_236 = DEFINED (__vector_dispatch_236)?(. - _ebase_address):__vector_offset_default
 *(.vector_236)
                0x000000009d001328                . = ALIGN (0x4)
                0x0000000000000328                __vector_offset_237 = DEFINED (__vector_dispatch_237)?(. - _ebase_address):__vector_offset_default
 *(.vector_237)
                0x000000009d001328                . = ALIGN (0x4)
                0x0000000000000328                __vector_offset_238 = DEFINED (__vector_dispatch_238)?(. - _ebase_address):__vector_offset_default
 *(.vector_238)
                0x000000009d001328                . = ALIGN (0x4)
                0x0000000000000328                __vector_offset_239 = DEFINED (__vector_dispatch_239)?(. - _ebase_address):__vector_offset_default
 *(.vector_239)
                0x000000009d001328                . = ALIGN (0x4)
                0x0000000000000328                __vector_offset_240 = DEFINED (__vector_dispatch_240)?(. - _ebase_address):__vector_offset_default
 *(.vector_240)
                0x000000009d001328                . = ALIGN (0x4)
                0x0000000000000328                __vector_offset_241 = DEFINED (__vector_dispatch_241)?(. - _ebase_address):__vector_offset_default
 *(.vector_241)
                0x000000009d001328                . = ALIGN (0x4)
                0x0000000000000328                __vector_offset_242 = DEFINED (__vector_dispatch_242)?(. - _ebase_address):__vector_offset_default
 *(.vector_242)
                0x000000009d001328                . = ALIGN (0x4)
                0x0000000000000328                __vector_offset_243 = DEFINED (__vector_dispatch_243)?(. - _ebase_address):__vector_offset_default
 *(.vector_243)
                0x000000009d001328                . = ALIGN (0x4)
                0x0000000000000328                __vector_offset_244 = DEFINED (__vector_dispatch_244)?(. - _ebase_address):__vector_offset_default
 *(.vector_244)
                0x000000009d001328                . = ALIGN (0x4)
                0x0000000000000328                __vector_offset_245 = DEFINED (__vector_dispatch_245)?(. - _ebase_address):__vector_offset_default
 *(.vector_245)
                0x000000009d001328                . = ALIGN (0x4)
                0x0000000000000328                __vector_offset_246 = DEFINED (__vector_dispatch_246)?(. - _ebase_address):__vector_offset_default
 *(.vector_246)
                0x000000009d001328                . = ALIGN (0x4)
                0x0000000000000328                __vector_offset_247 = DEFINED (__vector_dispatch_247)?(. - _ebase_address):__vector_offset_default
 *(.vector_247)
                0x000000009d001328                . = ALIGN (0x4)
                0x0000000000000328                __vector_offset_248 = DEFINED (__vector_dispatch_248)?(. - _ebase_address):__vector_offset_default
 *(.vector_248)
                0x000000009d001328                . = ALIGN (0x4)
                0x0000000000000328                __vector_offset_249 = DEFINED (__vector_dispatch_249)?(. - _ebase_address):__vector_offset_default
 *(.vector_249)
                0x000000009d001328                . = ALIGN (0x4)
                0x0000000000000328                __vector_offset_250 = DEFINED (__vector_dispatch_250)?(. - _ebase_address):__vector_offset_default
 *(.vector_250)
                0x000000009d001328                . = ALIGN (0x4)
                0x0000000000000328                __vector_offset_251 = DEFINED (__vector_dispatch_251)?(. - _ebase_address):__vector_offset_default
 *(.vector_251)
                0x000000009d001328                . = ALIGN (0x4)
                0x0000000000000328                __vector_offset_252 = DEFINED (__vector_dispatch_252)?(. - _ebase_address):__vector_offset_default
 *(.vector_252)
                0x000000009d001328                . = ALIGN (0x4)
                0x0000000000000328                __vector_offset_253 = DEFINED (__vector_dispatch_253)?(. - _ebase_address):__vector_offset_default
 *(.vector_253)
                0x000000009d001328                . = ALIGN (0x4)
                0x0000000000000328                __vector_offset_254 = DEFINED (__vector_dispatch_254)?(. - _ebase_address):__vector_offset_default
 *(.vector_254)
                0x000000009d001328                . = ALIGN (0x4)
                0x0000000000000328                __vector_offset_255 = DEFINED (__vector_dispatch_255)?(. - _ebase_address):__vector_offset_default
 *(.vector_255)
                0x000000009d001328                . = ALIGN (0x4)
                0x0000000000000328                __vector_offset_default = (. - _ebase_address)
 *(.vector_default)
 .vector_default
                0x000000009d001328       0x48 c:/program files/microchip/xc32/v4.20/bin/bin/../../lib/gcc/pic32mx/8.3.1/../../../../pic32mx/lib\libpic32.a(defaultinterrupt.o)
                0x000000009d001328                _DefaultInterrupt

.text           0x000000009d001370        0x0
 *(.stub .gnu.linkonce.t.*)
 *(.text.*personality*)
 *(.mips16.fn.*)
 *(.mips16.call.*)
 *(.gnu.warning)
                0x000000009d001370                . = ALIGN (0x4)

.init           0x000000009d001370        0x0
 *crti.o(.init)
 *crtbegin.o(.init)
 *(EXCLUDE_FILE(*crtn.o *crtend?.o *crtend.o) .init)
 *crtend.o(.init)
 *crtn.o(.init)
                0x000000009d001370                . = ALIGN (0x4)

.fini           0x000000009d001370        0x0
 *(.fini)
                0x000000009d001370                . = ALIGN (0x4)

.preinit_array  0x000000009d001370        0x0
                [!provide]                        PROVIDE (__preinit_array_start = .)
 *(.preinit_array)
                [!provide]                        PROVIDE (__preinit_array_end = .)
                0x000000009d001370                . = ALIGN (0x4)

.init_array     0x000000009d001370        0x0
                [!provide]                        PROVIDE (__init_array_start = .)
 *(SORT_BY_NAME(.init_array.*))
 *(.init_array)
                [!provide]                        PROVIDE (__init_array_end = .)
                0x000000009d001370                . = ALIGN (0x4)

.fini_array     0x000000009d001370        0x0
                [!provide]                        PROVIDE (__fini_array_start = .)
 *(SORT_BY_NAME(.fini_array.*))
 *(.fini_array)
                [!provide]                        PROVIDE (__fini_array_end = .)
                0x000000009d001370                . = ALIGN (0x4)

.ctors          0x000000009d001370        0x0
 *crtbegin.o(.ctors)
 *crtbegin?.o(.ctors)
 *(EXCLUDE_FILE(*crtend?.o *crtend.o) .ctors)
 *(SORT_BY_NAME(.ctors.*))
 *(.ctors)
                0x000000009d001370                . = ALIGN (0x4)

.dtors          0x000000009d001370        0x0
 *crtbegin.o(.dtors)
 *crtbegin?.o(.dtors)
 *(EXCLUDE_FILE(*crtend?.o *crtend.o) .dtors)
 *(SORT_BY_NAME(.dtors.*))
 *(.dtors)
                0x000000009d001370                . = ALIGN (0x4)

.rodata         0x000000009d001370        0x0
 *(.gnu.linkonce.r.*)
 *(.rodata1)
                0x000000009d001370                . = ALIGN (0x4)

.sdata2         0x000000009d001370        0x0
 *(.sdata2 .sdata2.* .gnu.linkonce.s2.*)
                0x000000009d001370                . = ALIGN (0x4)

.sbss2          0x000000009d001370        0x0
 *(.sbss2 .sbss2.* .gnu.linkonce.sb2.*)
                0x000000009d001370                . = ALIGN (0x4)

.eh_frame_hdr
 *(.eh_frame_hdr)
                0x000000009d001370                . = ALIGN (0x4)

.eh_frame
 *(.eh_frame)
                0x000000009d001370                . = ALIGN (0x4)

.gcc_except_table
 *(.gcc_except_table .gcc_except_table.*)
                0x000000009d001370                . = ALIGN (0x4)

.jcr            0x0000000080000000        0x0
 *(.jcr)
                0x0000000080000000                . = ALIGN (0x4)

.eh_frame
 *(.eh_frame)
                0x0000000080000000                . = ALIGN (0x4)

.gcc_except_table
 *(.gcc_except_table .gcc_except_table.*)
                0x0000000080000000                . = ALIGN (0x4)

.persist        0x0000000080000000        0x0
                0x0000000080000000                _persist_begin = .
 *(.persist .persist.*)
                0x0000000080000000                . = ALIGN (0x4)
                0x0000000080000000                _persist_end = .

.data           0x0000000080000000        0x0
 *(.gnu.linkonce.d.*)
 *(.data1)
                0x0000000080000000                . = ALIGN (0x4)
                0x0000000080000000                . = .
                0x0000000080007ff0                _gp = (ALIGN (0x10) + 0x7ff0)

.got            0x0000000080000000        0x0
 *(.got.plt)
 *(.got)
                0x0000000080000000                . = ALIGN (0x4)

.sdata          0x0000000080000000       0x80
                0x0000000080000000                _sdata_begin = .
 *(.sdata .sdata.* .gnu.linkonce.s.*)
 .sdata         0x0000000080000000        0x4 output\eep_manager.o
 .sdata         0x0000000080000004        0x1 output\app.o
 .sdata         0x0000000080000005        0x1 output\grbl_limits.o
                0x0000000080000005                limits_disabled
 *fill*         0x0000000080000006        0x2 
 .sdata         0x0000000080000008        0x4 output\system.o
                0x0000000080000008                grbl_serial_number
 .sdata         0x000000008000000c        0x4 output\grbl_homing.o
                0x000000008000000c                pl_data
 .sdata         0x0000000080000010        0x8 output\pwm.o
                0x0000000080000010                maxFreq
                0x0000000080000014                maxDuty
 .sdata         0x0000000080000018        0x4 output\dee.o
                0x000000008000001b                dee_debug_enable
 .sdata         0x000000008000001c        0x8 output\stepper_enable.o
                0x000000008000001c                stepper_enable_delayed_enabling_single_shoot
                0x0000000080000020                stepper_enable_emergency_stop_active
 .sdata         0x0000000080000024        0x4 output\grbl_eeprom.o
                0x0000000080000024                grbl_eeprom_trigger_prev
                0x0000000080000025                grbl_serial_eep_error_single_shoot
                0x0000000080000026                backup_eep_error_single_shoot
                0x0000000080000027                master_eep_error_single_shoot
 .sdata         0x0000000080000028        0x1 output\grbl_running.o
                0x0000000080000028                grbl_running_appSingleShoot
 *fill*         0x0000000080000029        0x3 
 .sdata         0x000000008000002c        0x6 output\ethernet.o
                0x000000008000002c                SerializedMACAddress
 .sdata         0x0000000080000032        0x2 output\ENC28J60.o
                0x0000000080000032                ENC28J60_CKE
                0x0000000080000033                ENC28J60_SMP
 .sdata         0x0000000080000034        0x4 output\Helpers.o
 SIST$          0x0000000080000038        0x2 output\UDP.o
 *fill*         0x000000008000003a        0x2 
 .sdata         0x000000008000003c        0x8 output\ethernet_grbl_multi.o
                0x000000008000003c                addrlen
                0x0000000080000040                serverPort
 .sdata         0x0000000080000044        0x1 output\Reboot.o
 .sdata         0x0000000080000045        0x2 output\TCP.o
 *fill*         0x0000000080000047        0x1 
 .sdata         0x0000000080000048        0x6 output\BerkeleyAPI.o
 *fill*         0x000000008000004e        0x2 
 .sdata         0x0000000080000050        0x8 output\stackmeasure.o
                0x0000000080000050                stackmeasure_to
                0x0000000080000054                stackmeasure_from
 .sdata         0x0000000080000058        0x1 output\sleep.o
                0x0000000080000058                sleepGetMainLoopRun_result
 .sdata         0x0000000080000059        0x1 output\spi2.o
                0x0000000080000059                spi2_mode_32_16_8
 *fill*         0x000000008000005a        0x2 
 .sdata         0x000000008000005c       0x24 c:/program files/microchip/xc32/v4.20/bin/bin/../../lib/gcc/pic32mx/8.3.1/../../../../pic32mx/lib\libpic32.a(pic32_init_cache.o)
                0x000000008000005c                __pic32_icache_size
                0x0000000080000060                __pic32_icache_linesize
                0x0000000080000064                __pic32_icache_ways
                0x0000000080000068                __pic32_dcache_size
                0x000000008000006c                __pic32_dcache_linesize
                0x0000000080000070                __pic32_dcache_ways
                0x0000000080000074                __pic32_scache_size
                0x0000000080000078                __pic32_scache_linesize
                0x000000008000007c                __pic32_scache_ways
                0x0000000080000080                . = ALIGN (0x4)
                0x0000000080000080                _sdata_end = .

.lit8
 *(.lit8)

.lit4
 *(.lit4)
                0x0000000080000080                . = ALIGN (0x4)
                0x0000000080000080                _data_end = .
                0x0000000080000080                _bss_begin = .

.sbss           0x0000000080000080      0x44c
                0x0000000080000080                _sbss_begin = .
 *(.dynsbss)
 *(.sbss .sbss.* .gnu.linkonce.sb.*)
 .sbss          0x0000000080000080       0x20 output\tmr.o
                0x0000000080000088                tmr_stop_watchdog_triggering
                0x000000008000008c                ptrListCnt
                0x0000000080000098                globalTimeUs
                0x000000008000009c                globalTime
 .sbss          0x00000000800000a0        0xc output\task.o
                0x00000000800000a0                taskListsPtr
                0x00000000800000a4                doTaskListGuard
                0x00000000800000a5                doTaskList1ms
                0x00000000800000a8                tasksTotalTime
 .sbss          0x00000000800000ac        0xc output\eeprom.o
                0x00000000800000ac                do_eeprom_1ms
                0x00000000800000b0                eeprom_write_buffer_read_cnt
                0x00000000800000b4                eeprom_write_buffer_write_cnt
 .sbss          0x00000000800000b8       0x20 output\eep_manager.o
                0x00000000800000c9                do_eep_manager_1ms
                0x00000000800000cc                eep_manager_persistent_eeprom_2
                0x00000000800000d0                eep_manager_persistent_eeprom
                0x00000000800000d4                eep_manager_persistent_config
 .sbss          0x00000000800000d8       0x25 output\main.o
                0x00000000800000e4                SPI2_LOCK_COLLISION_CALLOUT_cnt
                0x00000000800000e8                loopCntHistoryCnt
                0x00000000800000ec                loopCntHistoryLast
                0x00000000800000f0                tick_count
                0x00000000800000f4                loopCnt
                0x00000000800000f8                loopCntTemp
                0x00000000800000fc                do_loopCnt
 *fill*         0x00000000800000fd        0x3 
 .sbss          0x0000000080000100       0x14 output\app.o
                0x0000000080000104                do_app_1min
                0x0000000080000108                app_dwSNTPSeconds
                0x000000008000010c                app_sntp_user_called
                0x000000008000010d                do_app_1ms
                0x0000000080000110                app_State
 .sbss          0x0000000080000114        0x2 output\ad.o
                0x0000000080000115                doAdTrigger
 *fill*         0x0000000080000116        0x2 
 .sbss          0x0000000080000118       0x18 output\grbl_gcode.o
                0x0000000080000118                axis_1
                0x0000000080000119                axis_0
                0x000000008000011a                coord_select
                0x000000008000011b                axis_linear
                0x000000008000011c                ijk_words
                0x000000008000011e                command_words
                0x0000000080000120                value_words
                0x0000000080000122                axis_command
                0x0000000080000123                axis_words
                0x0000000080000124                gc_parser_flags
                0x0000000080000128                grbl_Tool_Length_2
                0x000000008000012c                grbl_Tool_Length_1
 .sbss          0x0000000080000130        0xc output\grbl_limits.o
                0x0000000080000130                logger_limits_get_state_prev
                0x0000000080000131                limits_get_state_debug
                0x0000000080000132                limits_get_state_current
                0x0000000080000133                limits_get_state_last
                0x0000000080000134                do_limits_polling
                0x0000000080000138                do_limits_1ms
 .sbss          0x000000008000013c        0x2 output\motion_control.o
                0x000000008000013c                count
                0x000000008000013d                do_ArcGenerating
 .sbss          0x000000008000013e        0x3 output\nuts_bolts.o
                0x000000008000013e                grbl_not_existing_lat
                0x000000008000013f                grbl_not_existing_port
                0x0000000080000140                grbl_not_existing_tris
 *fill*         0x0000000080000141        0x3 
 .sbss          0x0000000080000144       0x40 output\grbl_report.o
                0x000000008000014c                do_grbl_report_50ms_cnt
                0x0000000080000150                grbl_report_sys_log_1_state
                0x0000000080000154                grbl_report_sys_log_0_state
                0x0000000080000158                grbl_report_xterm
                0x000000008000015c                grbl_report_add_term
                0x0000000080000160                grbl_report_eeprom_dump_state
                0x0000000080000164                buffer_missed_char_logger_cnt
                0x0000000080000168                do_grbl_report_50ms
                0x000000008000016c                grbl_report_eeprom_dump
                0x0000000080000170                grbl_report_sys_log_4
                0x0000000080000174                grbl_report_sys_log_3
                0x0000000080000178                grbl_report_sys_log_2
                0x000000008000017c                grbl_report_sys_log_1
                0x0000000080000180                grbl_report_sys_log_0
 .sbss          0x0000000080000184        0x1 output\settings.o
                0x0000000080000184                eep_settings_version
 *fill*         0x0000000080000185        0x3 
 .sbss          0x0000000080000188        0x4 output\spindle_control.o
                0x0000000080000188                spindle_debug_last_pwm_val
 .sbss          0x000000008000018c        0x7 output\stepper.o
                0x000000008000018c                isStepperRunning
                0x000000008000018d                stepper_busy
                0x000000008000018e                dir_port_invert_mask
                0x000000008000018f                step_port_invert_mask
                0x0000000080000190                segment_next_head
                0x0000000080000191                segment_buffer_head
                0x0000000080000192                segment_buffer_tail
 *fill*         0x0000000080000193        0x1 
 .sbss          0x0000000080000194       0x10 output\system.o
                0x0000000080000194                system_lastState
                0x0000000080000195                restore_condition
                0x0000000080000198                restore_spindle_speed
                0x000000008000019c                sys_rt_exec_accessory_override
                0x000000008000019d                sys_rt_exec_motion_override
                0x00000000800001a0                grbl_system_sm
 .sbss          0x00000000800001a4        0x4 output\grbl.o
                0x00000000800001a4                grbl_reset_asyn_execute
 .sbss          0x00000000800001a8       0x25 output\grbl_homing.o
                0x00000000800001a8                grbl_homing_delay_home
                0x00000000800001aa                grbl_homing_flag_for_homing_EXEC_CYCLE_STOP
                0x00000000800001ab                n_active_axis
                0x00000000800001ac                axislock
                0x00000000800001ad                grbl_homing_state_global
                0x00000000800001b0                homing_rate
                0x00000000800001b4                approach
                0x00000000800001b5                cycle_mask_asynch
                0x00000000800001b8                max_travel
                0x00000000800001bc                n_cycle
                0x00000000800001c0                grbl_homing_go_home_state
                0x00000000800001c4                do_grbl_homing_go_home
                0x00000000800001c5                cycle_mask_buffer
                0x00000000800001c8                mc_homing_state_machine
                0x00000000800001cc                do_mc_homing_cycle
 *fill*         0x00000000800001cd        0x3 
 .sbss          0x00000000800001d0       0x38 output\dee.o
                0x00000000800001e4                PackEE_async_state_prev
                0x00000000800001e8                do_dee_1ms
                0x00000000800001ec                dee_pack_triggered
                0x00000000800001ed                dee_pack_running
                0x00000000800001f0                dee_debug_init_dee
                0x00000000800001f4                do_dee_debug
                0x00000000800001f8                dee_addr_cache
                0x00000000800001fc                dee_data_cache
                0x0000000080000200                dee_cache_valid
                0x0000000080000204                dee_debug_last_return_value
 .sbss          0x0000000080000208        0xc output\system_control.o
                0x0000000080000208                system_control_get_state_debug
                0x0000000080000209                system_control_get_state_last_SAFETY_DOOR
                0x000000008000020a                system_control_get_state_last_CYCLE_START
                0x000000008000020b                system_control_get_state_last_FEED_HOLD
                0x000000008000020c                system_control_get_state_last_ABORT
                0x000000008000020d                system_control_get_state_current_SAFETY_DOOR
                0x000000008000020e                system_control_get_state_current_CYCLE_START
                0x000000008000020f                system_control_get_state_current_FEED_HOLD
                0x0000000080000210                system_control_get_state_current_ABORT
                0x0000000080000211                do_system_poll_control_pins
                0x0000000080000212                do_system_control_1ms
                0x0000000080000213                system_reset_debug
 .sbss          0x0000000080000214       0x12 output\stepper_enable.o
                0x0000000080000214                stepper_logger_single_shoot
                0x0000000080000215                stepper_enable_abort_cnt
                0x0000000080000218                stepper_enable_emergency_stop_delay_cnt
                0x000000008000021c                stepper_enable_emergency_stop_delay
                0x0000000080000220                stepper_enable_delayed_enabling_cnt
                0x0000000080000224                stepper_enable_delayed_enabling
                0x0000000080000225                do_stepper_enable_1ms
 .sbss          0x0000000080000226        0x2 output\system_exec.o
                0x0000000080000226                sys_rt_exec_state
 .sbss          0x0000000080000228        0x2 output\system_alarm.o
                0x0000000080000228                sys_rt_exec_alarm
 .sbss          0x000000008000022a        0xe output\grbl_eeprom.o
                0x000000008000022a                doTriggerWriteSettingsCnt
                0x000000008000022c                doTriggerWriteAllCnt
                0x000000008000022e                grbl_eeprom_trigger_current
                0x000000008000022f                gc_main_eeprom_trigger
                0x0000000080000230                grbl_critical_eep_error
                0x0000000080000231                grbl_serial_eep_error
                0x0000000080000232                grbl_serial_eep_error_type
                0x0000000080000233                grbl_backup_eep_error
                0x0000000080000234                grbl_master_eep_error
                0x0000000080000235                grbl_eeprom_triggerWriteSettings
                0x0000000080000236                grbl_eeprom_triggerWriteAll
                0x0000000080000237                do_grbl_eeprom_1ms
 .sbss          0x0000000080000238        0xc output\grbl_toolchange.o
                0x0000000080000238                do_grbl_toolchange_1ms
                0x0000000080000239                grbl_toolchange_load_or_load_and_change
                0x000000008000023a                grbl_toolchange_toolNumber
                0x000000008000023c                grbl_toolchange_isRunning
                0x0000000080000240                GRBL_Toolchange_SM_State
 .sbss          0x0000000080000244       0x20 output\grbl_protocol.o
                0x0000000080000244                grbl_protocol_char_counter
                0x0000000080000246                grbl_protocol_line_flags
                0x0000000080000248                missedRxChar_Grbl_Protocol
                0x000000008000024c                protocol_set_requestDwell_dwellTime
                0x0000000080000250                protocol_execute_line_status
                0x0000000080000254                jog_line_number
                0x0000000080000258                gc_execute_line_number
                0x000000008000025c                gc_execute_line_result
                0x000000008000025d                requestSynchMotion
                0x0000000080000260                lineStateMachine
 .sbss          0x0000000080000264       0x2c output\grbl_running.o
                0x0000000080000264                do_grbl_running_1s_cnt
                0x0000000080000268                do_grbl_running_1min_cnt
                0x000000008000026c                do_grbl_running_1h_cnt
                0x0000000080000270                do_grbl_running_1h
                0x0000000080000271                do_grbl_running_1min
                0x0000000080000272                do_grbl_running_1s
                0x0000000080000274                grbl_running_running_hours_eep_trigger
                0x0000000080000278                grbl_running_spindle_running_minutes_eep_trigger
                0x000000008000027c                grbl_running_running_minutes_eep_trigger
                0x0000000080000280                grbl_running_spindle_running_minutes
                0x0000000080000284                grbl_running_startup_cnt
                0x0000000080000288                grbl_running_running_hours
                0x000000008000028c                grbl_running_running_minutes
 .sbss          0x0000000080000290        0x4 output\grbl_bootloader.o
                0x0000000080000290                grbl_bootloader_state
                0x0000000080000291                grbl_bootloader_triggered_value
                0x0000000080000292                grbl_bootloader_triggered
                0x0000000080000293                do_grbl_bootloader_1ms
 .sbss          0x0000000080000294        0x6 output\grbl_probe.o
                0x0000000080000294                probe_is_no_error
                0x0000000080000295                do_mc_probe_cycle
                0x0000000080000296                sys_probe_state
                0x0000000080000297                do_probe_1ms
                0x0000000080000298                probe_pin_state
                0x0000000080000299                probe_invert_mask
 *fill*         0x000000008000029a        0x2 
 .sbss          0x000000008000029c        0x5 output\ethernet.o
                0x00000000800002a0                ethernet_is_initialized_value
 *fill*         0x00000000800002a1        0x3 
 .sbss          0x00000000800002a4       0x46 output\ENC28J60.o
                0x00000000800002b4                ENC28J60_BRG
                0x00000000800002b8                ENC28J60_CKP
                0x00000000800002bc                enc28j60_spi_corruption_reinit_state
                0x00000000800002c0                enc28j60_spi_corruption2_cnt
                0x00000000800002c4                enc28j60_spi_corruption1_cnt
                0x00000000800002c8                enc28j60_spi_corruption_reinit
                0x00000000800002cc                ENC28J60_MACON4
                0x00000000800002cd                ENC28J60_MACON3
                0x00000000800002ce                ENC28J60_MACON1
                0x00000000800002cf                ENC28J60_EFLOCON
                0x00000000800002d0                ENC28J60_ECOCON
                0x00000000800002d1                ENC28J60_MISTAT
                0x00000000800002d2                ENC28J60_EBSTCON
                0x00000000800002d3                ENC28J60_MICMD
                0x00000000800002d4                ENC28J60_ERXFCON
                0x00000000800002d5                ENC28J60_ECON1
                0x00000000800002d6                ENC28J60_ECON2
                0x00000000800002d7                ENC28J60_ESTAT
                0x00000000800002d8                ENC28J60_EIR
                0x00000000800002d9                ENC28J60_EIE
                0x00000000800002da                do_enc28j60_100ms
                0x00000000800002db                do_enc28j60_1ms
 *fill*         0x00000000800002ea        0x2 
 .sbss          0x00000000800002ec        0x4 output\DHCP.o
                0x00000000800002ec                DHCPClientInitializedOnce
 .sbss          0x00000000800002f0        0x8 output\ARP.o
                0x00000000800002f4                ARPResolve_null_ptr
 .sbss          0x00000000800002f8        0x8 output\Announce.o
 .sbss          0x0000000080000300        0x4 output\IP.o
 .sbss          0x0000000080000304       0x10 output\StackTsk.o
 ENTPERSIST$    0x0000000080000314        0xa output\UDP.o
                0x0000000080000314                do_udp_1ms
 *fill*         0x000000008000031e        0x2 
 .sbss          0x0000000080000320       0x1c output\ethernet_grbl_multi.o
                0x0000000080000324                do_serial_grbl_ethernet_multi_100ms
                0x0000000080000328                do_serial_grbl_ethernet_multi_1ms
                0x000000008000032c                ToSendDataBuffer_grbl_ethernet_multi_filled
                0x0000000080000330                missedRxCharEthernet
                0x0000000080000334                missedTxCharEthernet
                0x0000000080000338                bsdServerState
 .sbss          0x000000008000033c        0x4 output\grbl_multi.o
                0x000000008000033c                grbl_multi_source
 .sbss          0x0000000080000340        0x4 output\TCP.o
                0x0000000080000340                do_tcp_1ms
 .sbss          0x0000000080000344        0x4 output\BerkeleyAPI.o
                0x0000000080000344                do_berkeleyapi_1ms
 .sbss          0x0000000080000348       0x14 output\mal.o
                0x0000000080000348                mal_reset_counter
                0x000000008000034c                isrLockCnt
                0x0000000080000350                gieTemp
                0x0000000080000354                mal_RCON_temp
                0x0000000080000358                mal_resetReason_temp
 .sbss          0x000000008000035c        0x8 output\exceptions.o
                0x000000008000035c                generateException
                0x0000000080000360                exceptionCounter
 .sbss          0x0000000080000364        0x8 output\stackmeasure.o
                0x0000000080000364                stackmeasure_maxfillness
                0x0000000080000368                stackmeasure_current_pos
 .sbss          0x000000008000036c        0x4 output\noinitram.o
                0x000000008000036c                noinitram_valid_block
 .sbss          0x0000000080000370        0x8 output\usb_grbl_multi.o
                0x0000000080000370                missedRxCharHID
                0x0000000080000374                missedTxCharHID
 .sbss          0x0000000080000378       0x1c output\sleep.o
                0x0000000080000378                do_isr_sleep_1ms
                0x000000008000037c                sleep_stay_in_loop_value
                0x000000008000037d                sleepPointOfNoReturn
                0x000000008000037e                sleepEdgeDetector
                0x0000000080000380                sleepDriverRequest_delay
                0x0000000080000384                sleepAppRequest_delay
                0x0000000080000388                sleepRequestDriver
                0x000000008000038c                sleepRequestApp
                0x0000000080000390                sleepTime
 .sbss          0x0000000080000394        0x5 output\rtc.o
                0x0000000080000398                do_sec1s
 .sbss          0x0000000080000399        0x1 output\aes_128.o
                0x0000000080000399                do_aes_128_1ms
 *fill*         0x000000008000039a        0x2 
 .sbss          0x000000008000039c        0x5 output\aes_key.o
                0x00000000800003a0                aes_key_triggerLoadKeyFromEeprom
 *fill*         0x00000000800003a1        0x3 
 .sbss          0x00000000800003a4       0x14 output\spi2.o
                0x00000000800003a4                spi2_user
                0x00000000800003a5                spi2_default_output
                0x00000000800003a8                spi2_sizeTemp
                0x00000000800003ac                spi2bufferRxTemp
                0x00000000800003b0                spi2bufferTxTemp
                0x00000000800003b4                spi2StateEnum
 *(.scommon)
 .scommon       0x00000000800003b8        0x2 output\ad.o
                0x00000000800003b8                adResults
 *fill*         0x00000000800003ba        0x2 
 .scommon       0x00000000800003bc        0x8 output\grbl_limits.o
                0x00000000800003bc                limits_set_state_filtered_currentState
                0x00000000800003c0                limit_filter_state
 .scommon       0x00000000800003c4       0x40 output\motion_control.o
                0x00000000800003c4                is_clockwise_arc_buffer
                0x00000000800003c8                r_axis0
                0x00000000800003cc                r_axis1
                0x00000000800003d0                theta_per_segment
                0x00000000800003d4                cos_Ti
                0x00000000800003d8                center_axis1
                0x00000000800003dc                axis_linear_buffer
                0x00000000800003de                segments_buffer
                0x00000000800003e0                center_axis0
                0x00000000800003e4                cos_T
                0x00000000800003e8                sin_T
                0x00000000800003ec                i_buffer
                0x00000000800003ee                axis_1_buffer
                0x00000000800003f0                r_axisi
                0x00000000800003f4                linear_per_segment
                0x00000000800003f8                sin_Ti
                0x00000000800003fc                axis_0_buffer
                0x0000000080000400                radius_buffer
 .scommon       0x0000000080000404        0x4 output\planner.o
                0x0000000080000404                block_buffer_planned
                0x0000000080000405                next_buffer_head
                0x0000000080000406                block_buffer_head
                0x0000000080000407                block_buffer_tail
 .scommon       0x0000000080000408        0xc output\stepper.o
                0x0000000080000408                st_prep_block
                0x000000008000040c                pl_block
                0x0000000080000410                stepper_idle_lock_timer
 .scommon       0x0000000080000414        0x4 output\system.o
                0x0000000080000414                system_suspendTime
 .scommon       0x0000000080000418       0x54 output\grbl.o
                0x0000000080000418                dummyPORT5
                0x000000008000041c                dummyPORT4
                0x0000000080000420                dummyPORT2
                0x0000000080000424                dummyPORT3
                0x0000000080000428                dummyPORT1
                0x000000008000042c                dummyPORT6
                0x0000000080000430                dummyPORT7
                0x0000000080000434                dummyLAT4
                0x0000000080000438                dummyLAT5
                0x000000008000043c                dummyLAT6
                0x0000000080000440                dummyLAT7
                0x0000000080000444                dummyTRIS3
                0x0000000080000448                dummyTRIS4
                0x000000008000044c                dummyTRIS7
                0x0000000080000450                dummyTRIS2
                0x0000000080000454                dummyTRIS1
                0x0000000080000458                dummyTRIS6
                0x000000008000045c                dummyTRIS5
                0x0000000080000460                dummyLAT3
                0x0000000080000464                dummyLAT2
                0x0000000080000468                dummyLAT1
 .scommon       0x000000008000046c        0x3 output\grbl_homing.o
                0x000000008000046c                step_pin
 *fill*         0x000000008000046f        0x1 
 .scommon       0x0000000080000470        0x4 output\dee.o
                0x0000000080000470                dataEEFlags
 .scommon       0x0000000080000474        0xc output\dee_page.o
                0x0000000080000474                read_dee_page_size
                0x0000000080000478                read_dee_page
                0x000000008000047c                read_dee_page_startaddress
 .scommon       0x0000000080000480        0x8 output\grbl_eeprom.o
                0x0000000080000480                check_is_delay
                0x0000000080000484                gcodePositionSave
 .scommon       0x0000000080000488        0x4 output\grbl_toolchange.o
                0x0000000080000488                grbl_toolchange_failsafe_timeout
 .scommon       0x000000008000048c        0x4 output\grbl_protocol.o
                0x000000008000048c                protocol_dwellTime
 .scommon       0x0000000080000490        0x4 output\grbl_bootloader.o
                0x0000000080000490                grbl_bootloader_timer
 .scommon       0x0000000080000494        0x4 output\ENC28J60.o
                0x0000000080000494                enc28j60_timer
 .scommon       0x0000000080000498        0x4 output\StackTsk.o
                0x0000000080000498                StackTsk_Announce_autonomous
 .scommon       0x000000008000049c        0x5 output\UDP.o
                0x000000008000049c                UDPRxCount
                0x000000008000049e                UDPTxCount
                0x00000000800004a0                activeUDPSocket
 *fill*         0x00000000800004a1        0x3 
 .scommon       0x00000000800004a4        0x5 output\ethernet_grbl_multi.o
                0x00000000800004a4                bsdServerSocket
                0x00000000800004a8                ClientSock
 *fill*         0x00000000800004a9        0x3 
 .scommon       0x00000000800004ac       0x18 output\exceptions.o
                0x00000000800004ac                tempResult
                0x00000000800004b0                _return_addr
                0x00000000800004b4                _excep_code
                0x00000000800004b8                tempB
                0x00000000800004bc                tempA
                0x00000000800004c0                _excep_addr
 .scommon       0x00000000800004c4        0x2 output\usb_device_cdc.o
                0x00000000800004c4                gUSBDeviceCdcCommonDataObj
 *fill*         0x00000000800004c6        0x2 
 .scommon       0x00000000800004c8        0x4 output\usb.o
                0x00000000800004c8                usb_delay_timer
                0x00000000800004cc                _sbss_end = .
                0x00000000800004cc                . = ALIGN (0x4)

.bss            0x00000000800004cc     0x47dc
 *(.dynbss)
 *(COMMON)
 COMMON         0x00000000800004cc       0x90 output\task.o
                0x00000000800004cc                taskLists
 COMMON         0x000000008000055c      0x400 output\eeprom.o
                0x000000008000055c                eeprom_write_buffer
 COMMON         0x000000008000095c       0x88 output\eep_manager.o
                0x000000008000095c                eep_manager_write_trigger
                0x00000000800009a0                eep_manager_debug_address
 COMMON         0x00000000800009e4       0x80 output\main.o
                0x00000000800009e4                loopCntHistory
 COMMON         0x0000000080000a64       0x10 output\app.o
                0x0000000080000a64                app_timedate
 COMMON         0x0000000080000a74       0x24 output\grbl_gcode.o
                0x0000000080000a74                coord_offset_eep
                0x0000000080000a80                coord_system_eep
                0x0000000080000a8c                block_coord_system
 COMMON         0x0000000080000a98       0x30 output\motion_control.o
                0x0000000080000a98                target_buffer
                0x0000000080000aa4                position_buffer
                0x0000000080000ab0                offset_buffer
                0x0000000080000abc                pl_data_buffer
 COMMON         0x0000000080000ac8      0xd1c output\planner.o
                0x0000000080000ac8                pl
                0x0000000080000ae4                block_buffer
 COMMON         0x00000000800017e4       0x80 output\grbl_report.o
                0x00000000800017e4                grbl_report_failed_line_buffer
 COMMON         0x0000000080001864      0x1d4 output\settings.o
                0x0000000080001864                eep_settings
                0x00000000800018d4                eep_settings_backup
                0x0000000080001944                settings
                0x00000000800019b4                eep_coord_teached
                0x00000000800019c0                eep_coord_data
 COMMON         0x0000000080001a38      0x34c output\stepper.o
                0x0000000080001a38                stepper_st
                0x0000000080001a60                st_block_buffer
                0x0000000080001c2c                segment_buffer
                0x0000000080001d4c                prep
 COMMON         0x0000000080001d84      0x1ac output\system.o
                0x0000000080001d84                sys
                0x0000000080001d98                sys_probe_position
                0x0000000080001da4                grbl_system_logger
                0x0000000080001f24                sys_position
 COMMON         0x0000000080001f30       0x18 output\grbl_homing.o
                0x0000000080001f30                target_global
                0x0000000080001f3c                plan_data
 COMMON         0x0000000080001f48       0x40 output\pwm.o
                0x0000000080001f48                pwm_duty
 COMMON         0x0000000080001f88        0xc output\dee_page.o
                0x0000000080001f88                dee_debug_page_status
 COMMON         0x0000000080001f94      0x198 output\grbl_protocol.o
                0x0000000080001f94                myRingBuffer_grbl_protocol_rx
                0x0000000080001fac                line_buffer
                0x000000008000202c                grbl_protocol_rx
 COMMON         0x000000008000212c       0x33 output\ethernet.o
                0x000000008000212c                AppConfig
 *fill*         0x000000008000215f        0x1 
 COMMON         0x0000000080002160        0xa output\StackTsk.o
                0x0000000080002160                remoteNode
 *fill*         0x000000008000216a        0x2 
 COMMON         0x000000008000216c       0xe0 output\UDP.o
                0x000000008000216c                UDPSocketInfo
 COMMON         0x000000008000224c      0x4d0 output\ethernet_grbl_multi.o
                0x000000008000224c                eth_rx
                0x000000008000244c                myRingBuffer_eth_tx
                0x0000000080002464                eth_tx
                0x0000000080002664                addr
                0x0000000080002674                ReceivedDataBuffer_grbl_ethernet_multi
                0x00000000800026b4                ToSendDataBuffer_grbl_ethernet_multi
                0x00000000800026f4                addRemote
                0x0000000080002704                myRingBuffer_eth_rx
 COMMON         0x000000008000271c       0xac output\usb_device_cdc.o
                0x000000008000271c                gUSBDeviceCDCInstance
                0x000000008000275c                gUSBDeviceCDCIRP
 COMMON         0x00000000800027c8       0x30 output\usb_app.o
                0x00000000800027c8                appData
 COMMON         0x00000000800027f8        0xc output\system_init.o
                0x00000000800027f8                sysObj
 COMMON         0x0000000080002804      0x11c output\drv_usbhs.o
                0x0000000080002804                gDrvUSBEndpoints
                0x0000000080002864                gDrvUSBObj
 COMMON         0x0000000080002920      0x430 output\usb_grbl_multi.o
                0x0000000080002920                myRingBuffer_hid_rx
                0x0000000080002938                hid_tx
                0x0000000080002b38                myRingBuffer_hid_tx
                0x0000000080002b50                hid_rx
 COMMON         0x0000000080002d50      0x24c output\aes_cmac.o
                0x0000000080002d50                aes_cmac_handle_store
 COMMON         0x0000000080002f9c     0x1d0c output\aes_key.o
                0x0000000080002f9c                aes_KeyHolder
                0x0000000080004a6c                aes_KeyHolderNv
                0x0000000080004ca8                . = ALIGN ((. != 0x0)?0x4:0x1)
                0x0000000080004ca8                . = ALIGN (0x4)
                0x0000000080004ca8                _end = .
                0x0000000080004ca8                _bss_end = .
                0x000000000007f000                _bmxdudba_address = LENGTH (kseg0_data_mem)
                0x000000000007f000                _bmxdupba_address = LENGTH (kseg0_data_mem)

/DISCARD/
 *(.pdr)
 *(.rel.dyn)
 *(.note.GNU-stack)
 *(.note.GNU-stack)
 *(.gnu_debuglink)
 *(.gnu.lto_*)
 *(.discard)
 *(._debug_exception)
 *(.config_*)

.gptab.sdata
 *(.gptab.data)
 *(.gptab.sdata)

.gptab.sbss
 *(.gptab.bss)
 *(.gptab.sbss)

.mdebug.abi32   0x0000000000000000        0x0
 *(.mdebug.abi32)
 .mdebug.abi32  0x0000000000000000        0x0 output\tmr.o
 .mdebug.abi32  0x0000000000000000        0x0 output\ringBuffer.o
 .mdebug.abi32  0x0000000000000000        0x0 output\task.o
 .mdebug.abi32  0x0000000000000000        0x0 output\eeprom.o
 .mdebug.abi32  0x0000000000000000        0x0 output\eep_manager.o
 .mdebug.abi32  0x0000000000000000        0x0 output\main.o
 .mdebug.abi32  0x0000000000000000        0x0 output\c_eep_manager.o
 .mdebug.abi32  0x0000000000000000        0x0 output\app.o
 .mdebug.abi32  0x0000000000000000        0x0 output\ad.o
 .mdebug.abi32  0x0000000000000000        0x0 output\grbl_gcode.o
 .mdebug.abi32  0x0000000000000000        0x0 output\grbl_limits.o
 .mdebug.abi32  0x0000000000000000        0x0 output\coolant_control.o
 .mdebug.abi32  0x0000000000000000        0x0 output\motion_control.o
 .mdebug.abi32  0x0000000000000000        0x0 output\nuts_bolts.o
 .mdebug.abi32  0x0000000000000000        0x0 output\planner.o
 .mdebug.abi32  0x0000000000000000        0x0 output\grbl_print.o
 .mdebug.abi32  0x0000000000000000        0x0 output\grbl_report.o
 .mdebug.abi32  0x0000000000000000        0x0 output\settings.o
 .mdebug.abi32  0x0000000000000000        0x0 output\spindle_control.o
 .mdebug.abi32  0x0000000000000000        0x0 output\stepper.o
 .mdebug.abi32  0x0000000000000000        0x0 output\system.o
 .mdebug.abi32  0x0000000000000000        0x0 output\grbl.o
 .mdebug.abi32  0x0000000000000000        0x0 output\grbl_homing.o
 .mdebug.abi32  0x0000000000000000        0x0 output\pwm.o
 .mdebug.abi32  0x0000000000000000        0x0 output\jog.o
 .mdebug.abi32  0x0000000000000000        0x0 output\dee.o
 .mdebug.abi32  0x0000000000000000        0x0 output\dee_page.o
 .mdebug.abi32  0x0000000000000000        0x0 output\dee_page_helper.o
 .mdebug.abi32  0x0000000000000000        0x0 output\eep_manager_crc.o
 .mdebug.abi32  0x0000000000000000        0x0 output\system_control.o
 .mdebug.abi32  0x0000000000000000        0x0 output\stepper_enable.o
 .mdebug.abi32  0x0000000000000000        0x0 output\system_exec.o
 .mdebug.abi32  0x0000000000000000        0x0 output\system_alarm.o
 .mdebug.abi32  0x0000000000000000        0x0 output\grbl_eeprom.o
 .mdebug.abi32  0x0000000000000000        0x0 output\bootloader_interface.o
 .mdebug.abi32  0x0000000000000000        0x0 output\grbl_toolchange.o
 .mdebug.abi32  0x0000000000000000        0x0 output\grbl_protocol.o
 .mdebug.abi32  0x0000000000000000        0x0 output\grbl_running.o
 .mdebug.abi32  0x0000000000000000        0x0 output\grbl_bootloader.o
 .mdebug.abi32  0x0000000000000000        0x0 output\grbl_probe.o
 .mdebug.abi32  0x0000000000000000        0x0 output\ethernet.o
 .mdebug.abi32  0x0000000000000000        0x0 output\ENC28J60.o
 .mdebug.abi32  0x0000000000000000        0x0 output\DHCP.o
 .mdebug.abi32  0x0000000000000000        0x0 output\ARP.o
 .mdebug.abi32  0x0000000000000000        0x0 output\Announce.o
 .mdebug.abi32  0x0000000000000000        0x0 output\Helpers.o
 .mdebug.abi32  0x0000000000000000        0x0 output\ICMP.o
 .mdebug.abi32  0x0000000000000000        0x0 output\IP.o
 .mdebug.abi32  0x0000000000000000        0x0 output\StackTsk.o
 .mdebug.abi32  0x0000000000000000        0x0 output\UDP.o
 .mdebug.abi32  0x0000000000000000        0x0 output\ethernet_grbl_multi.o
 .mdebug.abi32  0x0000000000000000        0x0 output\grbl_multi.o
 .mdebug.abi32  0x0000000000000000        0x0 output\Reboot.o
 .mdebug.abi32  0x0000000000000000        0x0 output\TCP.o
 .mdebug.abi32  0x0000000000000000        0x0 output\BerkeleyAPI.o
 .mdebug.abi32  0x0000000000000000        0x0 output\mal.o
 .mdebug.abi32  0x0000000000000000        0x0 output\isr.o
 .mdebug.abi32  0x0000000000000000        0x0 output\exceptions.o
 .mdebug.abi32  0x0000000000000000        0x0 output\usb_device_cdc_acm.o
 .mdebug.abi32  0x0000000000000000        0x0 output\usb_device_cdc.o
 .mdebug.abi32  0x0000000000000000        0x0 output\usb_device.o
 .mdebug.abi32  0x0000000000000000        0x0 output\usb_app.o
 .mdebug.abi32  0x0000000000000000        0x0 output\usb.o
 .mdebug.abi32  0x0000000000000000        0x0 output\system_tasks.o
 .mdebug.abi32  0x0000000000000000        0x0 output\sys_int_pic32.o
 .mdebug.abi32  0x0000000000000000        0x0 output\system_init.o
 .mdebug.abi32  0x0000000000000000        0x0 output\peripheral.o
 .mdebug.abi32  0x0000000000000000        0x0 output\drv_usbhs_device.o
 .mdebug.abi32  0x0000000000000000        0x0 output\drv_usbhs.o
 .mdebug.abi32  0x0000000000000000        0x0 output\bsp_sys_init.o
 .mdebug.abi32  0x0000000000000000        0x0 output\stackmeasure.o
 .mdebug.abi32  0x0000000000000000        0x0 output\noinitram.o
 .mdebug.abi32  0x0000000000000000        0x0 output\usb_grbl_multi.o
 .mdebug.abi32  0x0000000000000000        0x0 output\sleep.o
 .mdebug.abi32  0x0000000000000000        0x0 output\rtcconverter.o
 .mdebug.abi32  0x0000000000000000        0x0 output\rtc.o
 .mdebug.abi32  0x0000000000000000        0x0 output\daylight.o
 .mdebug.abi32  0x0000000000000000        0x0 output\aes_128.o
 .mdebug.abi32  0x0000000000000000        0x0 output\aes_block.o
 .mdebug.abi32  0x0000000000000000        0x0 output\aes_cbc.o
 .mdebug.abi32  0x0000000000000000        0x0 output\aes_cbc_mac.o
 .mdebug.abi32  0x0000000000000000        0x0 output\aes_cmac.o
 .mdebug.abi32  0x0000000000000000        0x0 output\rijndael.o
 .mdebug.abi32  0x0000000000000000        0x0 output\aes_challenge_response.o
 .mdebug.abi32  0x0000000000000000        0x0 output\aes_key.o
 .mdebug.abi32  0x0000000000000000        0x0 output\aes_ecb.o
 .mdebug.abi32  0x0000000000000000        0x0 output\MQTT.o
 .mdebug.abi32  0x0000000000000000        0x0 output\MQTTclient.o
 .mdebug.abi32  0x0000000000000000        0x0 output\DNS.o
 .mdebug.abi32  0x0000000000000000        0x0 output\sntp.o
 .mdebug.abi32  0x0000000000000000        0x0 output\random.o
 .mdebug.abi32  0x0000000000000000        0x0 output\sha256.o
 .mdebug.abi32  0x0000000000000000        0x0 output\spi2.o
 .mdebug.abi32  0x0000000000000000        0x0 output\wget.o
 .mdebug.abi32  0x0000000000000000        0x0 c:/program files/microchip/xc32/v4.20/bin/bin/../../lib/gcc/pic32mx/8.3.1\libgcc.a(_fixunssfdi.o)
 .mdebug.abi32  0x0000000000000000        0x0 c:/program files/microchip/xc32/v4.20/bin/bin/../../lib/gcc/pic32mx/8.3.1\libgcc.a(_floatundidf.o)
 .mdebug.abi32  0x0000000000000000        0x0 c:/program files/microchip/xc32/v4.20/bin/bin/../../lib/gcc/pic32mx/8.3.1\libgcc.a(floatunsisf.o)
 .mdebug.abi32  0x0000000000000000        0x0 c:/program files/microchip/xc32/v4.20/bin/bin/../../lib/gcc/pic32mx/8.3.1\libgcc.a(floatunsidf.o)
 .mdebug.abi32  0x0000000000000000        0x0 c:/program files/microchip/xc32/v4.20/bin/bin/../../lib/gcc/pic32mx/8.3.1/../../../../pic32mx/lib\libpic32.a(default-bootstrap-exception-handler.o)
 .mdebug.abi32  0x0000000000000000        0x0 c:/program files/microchip/xc32/v4.20/bin/bin/../../lib/gcc/pic32mx/8.3.1/../../../../pic32mx/lib\libpic32.a(default-on-reset.o)
 .mdebug.abi32  0x0000000000000000        0x0 c:/program files/microchip/xc32/v4.20/bin/bin/../../lib/gcc/pic32mx/8.3.1/../../../../pic32mx/lib\libpic32.a(default-on-bootstrap.o)
 .mdebug.abi32  0x0000000000000000        0x0 c:/program files/microchip/xc32/v4.20/bin/bin/../../lib/gcc/pic32mx/8.3.1/../../../../pic32mx/lib\libpic32.a(defaultinterrupt.o)
 .mdebug.abi32  0x0000000000000000        0x0 c:/program files/microchip/xc32/v4.20/bin/bin/../../lib/gcc/pic32mx/8.3.1/../../../../pic32mx/lib\libpic32.a(default-cache-err-exception-handler.o)
 .mdebug.abi32  0x0000000000000000        0x0 c:/program files/microchip/xc32/v4.20/bin/bin/../../lib/gcc/pic32mx/8.3.1/../../../../pic32mx/lib\libpic32.a(default-simple-tlb-refill-exception-handler.o)
 .mdebug.abi32  0x0000000000000000        0x0 c:/program files/microchip/xc32/v4.20/bin/bin/../../lib/gcc/pic32mx/8.3.1/../../../../pic32mx/lib\libc-musl.a(__sio_sprintf_doux.o)
 .mdebug.abi32  0x0000000000000000        0x0 c:/program files/microchip/xc32/v4.20/bin/bin/../../lib/gcc/pic32mx/8.3.1/../../../../pic32mx/lib\libc-musl.a(__fmt_d.o)
 .mdebug.abi32  0x0000000000000000        0x0 c:/program files/microchip/xc32/v4.20/bin/bin/../../lib/gcc/pic32mx/8.3.1/../../../../pic32mx/lib\libc-musl.a(__fmt_o.o)
 .mdebug.abi32  0x0000000000000000        0x0 c:/program files/microchip/xc32/v4.20/bin/bin/../../lib/gcc/pic32mx/8.3.1/../../../../pic32mx/lib\libc-musl.a(__fmt_s.o)
 .mdebug.abi32  0x0000000000000000        0x0 c:/program files/microchip/xc32/v4.20/bin/bin/../../lib/gcc/pic32mx/8.3.1/../../../../pic32mx/lib\libc-musl.a(__fmt_u.o)
 .mdebug.abi32  0x0000000000000000        0x0 c:/program files/microchip/xc32/v4.20/bin/bin/../../lib/gcc/pic32mx/8.3.1/../../../../pic32mx/lib\libc-musl.a(__fmt_x.o)
 .mdebug.abi32  0x0000000000000000        0x0 c:/program files/microchip/xc32/v4.20/bin/bin/../../lib/gcc/pic32mx/8.3.1/../../../../pic32mx/lib\libc-musl.a(__pop_int.o)
 .mdebug.abi32  0x0000000000000000        0x0 c:/program files/microchip/xc32/v4.20/bin/bin/../../lib/gcc/pic32mx/8.3.1/../../../../pic32mx/lib\libc-musl.a(__pop_ptr.o)
 .mdebug.abi32  0x0000000000000000        0x0 c:/program files/microchip/xc32/v4.20/bin/bin/../../lib/gcc/pic32mx/8.3.1/../../../../pic32mx/lib\libc-musl.a(__printf_core.o)
 .mdebug.abi32  0x0000000000000000        0x0 c:/program files/microchip/xc32/v4.20/bin/bin/../../lib/gcc/pic32mx/8.3.1/../../../../pic32mx/lib\libc-musl.a(atoi.o)
 .mdebug.abi32  0x0000000000000000        0x0 c:/program files/microchip/xc32/v4.20/bin/bin/../../lib/gcc/pic32mx/8.3.1/../../../../pic32mx/lib\libc-musl.a(strncmp.o)
 .mdebug.abi32  0x0000000000000000        0x0 c:/program files/microchip/xc32/v4.20/bin/bin/../../lib/gcc/pic32mx/8.3.1/../../../../pic32mx/lib\libc-musl.a(strncpy.o)
 .mdebug.abi32  0x0000000000000000        0x0 c:/program files/microchip/xc32/v4.20/bin/bin/../../lib/gcc/pic32mx/8.3.1/../../../../pic32mx/lib\libc-musl.a(tolower.o)
 .mdebug.abi32  0x0000000000000000        0x0 c:/program files/microchip/xc32/v4.20/bin/bin/../../lib/gcc/pic32mx/8.3.1/../../../../pic32mx/lib\libc-musl.a(toupper.o)
 .mdebug.abi32  0x0000000000000000        0x0 c:/program files/microchip/xc32/v4.20/bin/bin/../../lib/gcc/pic32mx/8.3.1/../../../../pic32mx/lib\libc-musl.a(__int_vsprintf.o)
 .mdebug.abi32  0x0000000000000000        0x0 c:/program files/microchip/xc32/v4.20/bin/bin/../../lib/gcc/pic32mx/8.3.1/../../../../pic32mx/lib\libc-musl.a(__pop_float.o)
 .mdebug.abi32  0x0000000000000000        0x0 c:/program files/microchip/xc32/v4.20/bin/bin/../../lib/gcc/pic32mx/8.3.1/../../../../pic32mx/lib\libc-musl.a(stpncpy.o)
 .mdebug.abi32  0x0000000000000000        0x0 c:/program files/microchip/xc32/v4.20/bin/bin/../../lib/gcc/pic32mx/8.3.1/../../../../pic32mx/lib\libc-musl.a(__int_vsnprintf.o)
 .mdebug.abi32  0x0000000000000000        0x0 c:/program files/microchip/xc32/v4.20/bin/bin/../../lib/gcc/pic32mx/8.3.1/../../../../pic32mx/lib\libc-musl.a(__int_vfprintf.o)
 .mdebug.abi32  0x0000000000000000        0x0 c:/program files/microchip/xc32/v4.20/bin/bin/../../lib/gcc/pic32mx/8.3.1/../../../../pic32mx/lib\libm.a(atan2.o)
 .mdebug.abi32  0x0000000000000000        0x0 c:/program files/microchip/xc32/v4.20/bin/bin/../../lib/gcc/pic32mx/8.3.1/../../../../pic32mx/lib\libm.a(w_sqrt.o)
 .mdebug.abi32  0x0000000000000000        0x0 c:/program files/microchip/xc32/v4.20/bin/bin/../../lib/gcc/pic32mx/8.3.1/../../../../pic32mx/lib\libm.a(support.o)
 .mdebug.abi32  0x0000000000000000        0x0 c:/program files/microchip/xc32/v4.20/bin/bin/../../lib/gcc/pic32mx/8.3.1/../../../../pic32mx/lib\libm.a(w_ldexp.o)
 .mdebug.abi32  0x0000000000000000        0x0 c:/program files/microchip/xc32/v4.20/bin/bin/../../lib/gcc/pic32mx/8.3.1/../../../../pic32mx/lib\libm.a(s_lib_ver.o)
 .mdebug.abi32  0x0000000000000000        0x0 c:/program files/microchip/xc32/v4.20/bin/bin/../../lib/gcc/pic32mx/8.3.1\libgcc.a(_udivdi3.o)
 .mdebug.abi32  0x0000000000000000        0x0 c:/program files/microchip/xc32/v4.20/bin/bin/../../lib/gcc/pic32mx/8.3.1\libgcc.a(_umoddi3.o)
 .mdebug.abi32  0x0000000000000000        0x0 c:/program files/microchip/xc32/v4.20/bin/bin/../../lib/gcc/pic32mx/8.3.1/../../../../pic32mx/lib\libpic32.a(errno.o)
 .mdebug.abi32  0x0000000000000000        0x0 c:/program files/microchip/xc32/v4.20/bin/bin/../../lib/gcc/pic32mx/8.3.1/../../../../pic32mx/lib\libpic32.a(isinf.o)
 .mdebug.abi32  0x0000000000000000        0x0 c:/program files/microchip/xc32/v4.20/bin/bin/../../lib/gcc/pic32mx/8.3.1/../../../../pic32mx/lib\libe.a(_unorddf2.o)

.mdebug.abiN32
 *(.mdebug.abiN32)

.mdebug.abi64
 *(.mdebug.abi64)

.mdebug.abiO64
 *(.mdebug.abiO64)

.mdebug.eabi32
 *(.mdebug.eabi32)

.mdebug.eabi64
 *(.mdebug.eabi64)

.gcc_compiled_long32
 *(.gcc_compiled_long32)

.gcc_compiled_long64
 *(.gcc_compiled_long64)

.stab
 *(.stab)

.stabstr
 *(.stabstr)

.stab.excl
 *(.stab.excl)

.stab.exclstr
 *(.stab.exclstr)

.stab.index
 *(.stab.index)

.stab.indexstr
 *(.stab.indexstr)

.comment        0x0000000000000000       0xdb
 *(.comment)
 .comment       0x0000000000000000       0x2b output\tmr.o
                                         0x2c (size before relaxing)
 .comment       0x000000000000002b       0x2c output\ringBuffer.o
 .comment       0x000000000000002b       0x2c output\task.o
 .comment       0x000000000000002b       0x2c output\eeprom.o
 .comment       0x000000000000002b       0x2c output\eep_manager.o
 .comment       0x000000000000002b       0x2c output\main.o
 .comment       0x000000000000002b       0x2c output\c_eep_manager.o
 .comment       0x000000000000002b       0x2c output\app.o
 .comment       0x000000000000002b       0x2c output\ad.o
 .comment       0x000000000000002b       0x2c output\grbl_gcode.o
 .comment       0x000000000000002b       0x2c output\grbl_limits.o
 .comment       0x000000000000002b       0x2c output\coolant_control.o
 .comment       0x000000000000002b       0x2c output\motion_control.o
 .comment       0x000000000000002b       0x2c output\nuts_bolts.o
 .comment       0x000000000000002b       0x2c output\planner.o
 .comment       0x000000000000002b       0x2c output\grbl_print.o
 .comment       0x000000000000002b       0x2c output\grbl_report.o
 .comment       0x000000000000002b       0x2c output\settings.o
 .comment       0x000000000000002b       0x2c output\spindle_control.o
 .comment       0x000000000000002b       0x2c output\stepper.o
 .comment       0x000000000000002b       0x2c output\system.o
 .comment       0x000000000000002b       0x2c output\grbl.o
 .comment       0x000000000000002b       0x2c output\grbl_homing.o
 .comment       0x000000000000002b       0x2c output\pwm.o
 .comment       0x000000000000002b       0x2c output\jog.o
 .comment       0x000000000000002b       0x2c output\dee.o
 .comment       0x000000000000002b       0x2c output\dee_page.o
 .comment       0x000000000000002b       0x2c output\dee_page_helper.o
 .comment       0x000000000000002b       0x2c output\eep_manager_crc.o
 .comment       0x000000000000002b       0x2c output\system_control.o
 .comment       0x000000000000002b       0x2c output\stepper_enable.o
 .comment       0x000000000000002b       0x2c output\system_exec.o
 .comment       0x000000000000002b       0x2c output\system_alarm.o
 .comment       0x000000000000002b       0x2c output\grbl_eeprom.o
 .comment       0x000000000000002b       0x2c output\bootloader_interface.o
 .comment       0x000000000000002b       0x2c output\grbl_toolchange.o
 .comment       0x000000000000002b       0x2c output\grbl_protocol.o
 .comment       0x000000000000002b       0x2c output\grbl_running.o
 .comment       0x000000000000002b       0x2c output\grbl_bootloader.o
 .comment       0x000000000000002b       0x2c output\grbl_probe.o
 .comment       0x000000000000002b       0x2c output\ethernet.o
 .comment       0x000000000000002b       0x2c output\ENC28J60.o
 .comment       0x000000000000002b       0x2c output\DHCP.o
 .comment       0x000000000000002b       0x2c output\ARP.o
 .comment       0x000000000000002b       0x2c output\Announce.o
 .comment       0x000000000000002b       0x2c output\Helpers.o
 .comment       0x000000000000002b       0x2c output\ICMP.o
 .comment       0x000000000000002b       0x2c output\IP.o
 .comment       0x000000000000002b       0x2c output\StackTsk.o
 .comment       0x000000000000002b       0x2c output\UDP.o
 .comment       0x000000000000002b       0x2c output\ethernet_grbl_multi.o
 .comment       0x000000000000002b       0x2c output\grbl_multi.o
 .comment       0x000000000000002b       0x2c output\Reboot.o
 .comment       0x000000000000002b       0x2c output\TCP.o
 .comment       0x000000000000002b       0x2c output\BerkeleyAPI.o
 .comment       0x000000000000002b       0x2c output\mal.o
 .comment       0x000000000000002b       0x2c output\isr.o
 .comment       0x000000000000002b       0x2c output\exceptions.o
 .comment       0x000000000000002b       0x2c output\usb_device_cdc_acm.o
 .comment       0x000000000000002b       0x2c output\usb_device_cdc.o
 .comment       0x000000000000002b       0x2c output\usb_device.o
 .comment       0x000000000000002b       0x2c output\usb_app.o
 .comment       0x000000000000002b       0x2c output\usb.o
 .comment       0x000000000000002b       0x2c output\system_tasks.o
 .comment       0x000000000000002b       0x2c output\sys_int_pic32.o
 .comment       0x000000000000002b       0x2c output\system_init.o
 .comment       0x000000000000002b       0x2c output\peripheral.o
 .comment       0x000000000000002b       0x2c output\drv_usbhs_device.o
 .comment       0x000000000000002b       0x2c output\drv_usbhs.o
 .comment       0x000000000000002b       0x2c output\bsp_sys_init.o
 .comment       0x000000000000002b       0x2c output\stackmeasure.o
 .comment       0x000000000000002b       0x2c output\noinitram.o
 .comment       0x000000000000002b       0x2c output\usb_grbl_multi.o
 .comment       0x000000000000002b       0x2c output\sleep.o
 .comment       0x000000000000002b       0x2c output\rtcconverter.o
 .comment       0x000000000000002b       0x2c output\rtc.o
 .comment       0x000000000000002b       0x2c output\daylight.o
 .comment       0x000000000000002b       0x2c output\aes_128.o
 .comment       0x000000000000002b       0x2c output\aes_block.o
 .comment       0x000000000000002b       0x2c output\aes_cbc.o
 .comment       0x000000000000002b       0x2c output\aes_cbc_mac.o
 .comment       0x000000000000002b       0x2c output\aes_cmac.o
 .comment       0x000000000000002b       0x2c output\rijndael.o
 .comment       0x000000000000002b       0x2c output\aes_challenge_response.o
 .comment       0x000000000000002b       0x2c output\aes_key.o
 .comment       0x000000000000002b       0x2c output\aes_ecb.o
 .comment       0x000000000000002b       0x2c output\MQTT.o
 .comment       0x000000000000002b       0x2c output\MQTTclient.o
 .comment       0x000000000000002b       0x2c output\DNS.o
 .comment       0x000000000000002b       0x2c output\sntp.o
 .comment       0x000000000000002b       0x2c output\random.o
 .comment       0x000000000000002b       0x2c output\sha256.o
 .comment       0x000000000000002b       0x2c output\spi2.o
 .comment       0x000000000000002b       0x2c output\wget.o
 .comment       0x000000000000002b       0x2c c:/program files/microchip/xc32/v4.20/bin/bin/../../lib/gcc/pic32mx/8.3.1\libgcc.a(_fixunssfdi.o)
 .comment       0x000000000000002b       0x2c c:/program files/microchip/xc32/v4.20/bin/bin/../../lib/gcc/pic32mx/8.3.1\libgcc.a(_floatundidf.o)
 .comment       0x000000000000002b       0x2c c:/program files/microchip/xc32/v4.20/bin/bin/../../lib/gcc/pic32mx/8.3.1\libgcc.a(floatunsisf.o)
 .comment       0x000000000000002b       0x2c c:/program files/microchip/xc32/v4.20/bin/bin/../../lib/gcc/pic32mx/8.3.1\libgcc.a(floatunsidf.o)
 .comment       0x000000000000002b       0x18 c:/program files/microchip/xc32/v4.20/bin/bin/../../lib/gcc/pic32mx/8.3.1/../../../../pic32mx/lib\libpic32.a(memcmp.o)
                                         0x19 (size before relaxing)
 .comment       0x0000000000000043       0x18 c:/program files/microchip/xc32/v4.20/bin/bin/../../lib/gcc/pic32mx/8.3.1/../../../../pic32mx/lib\libpic32.a(memset.o)
                                         0x19 (size before relaxing)
 .comment       0x000000000000005b       0x19 c:/program files/microchip/xc32/v4.20/bin/bin/../../lib/gcc/pic32mx/8.3.1/../../../../pic32mx/lib\libpic32.a(strcmp.o)
                                         0x1a (size before relaxing)
 .comment       0x0000000000000074       0x19 c:/program files/microchip/xc32/v4.20/bin/bin/../../lib/gcc/pic32mx/8.3.1/../../../../pic32mx/lib\libpic32.a(strlen.o)
                                         0x1a (size before relaxing)
 .comment       0x000000000000008d       0x2c c:/program files/microchip/xc32/v4.20/bin/bin/../../lib/gcc/pic32mx/8.3.1/../../../../pic32mx/lib\libpic32.a(default-bootstrap-exception-handler.o)
 .comment       0x000000000000008d       0x2c c:/program files/microchip/xc32/v4.20/bin/bin/../../lib/gcc/pic32mx/8.3.1/../../../../pic32mx/lib\libpic32.a(default-on-reset.o)
 .comment       0x000000000000008d       0x2c c:/program files/microchip/xc32/v4.20/bin/bin/../../lib/gcc/pic32mx/8.3.1/../../../../pic32mx/lib\libpic32.a(default-on-bootstrap.o)
 .comment       0x000000000000008d       0x2c c:/program files/microchip/xc32/v4.20/bin/bin/../../lib/gcc/pic32mx/8.3.1/../../../../pic32mx/lib\libpic32.a(defaultinterrupt.o)
 .comment       0x000000000000008d       0x2c c:/program files/microchip/xc32/v4.20/bin/bin/../../lib/gcc/pic32mx/8.3.1/../../../../pic32mx/lib\libpic32.a(default-cache-err-exception-handler.o)
 .comment       0x000000000000008d       0x2c c:/program files/microchip/xc32/v4.20/bin/bin/../../lib/gcc/pic32mx/8.3.1/../../../../pic32mx/lib\libpic32.a(default-simple-tlb-refill-exception-handler.o)
 .comment       0x000000000000008d       0x2c c:/program files/microchip/xc32/v4.20/bin/bin/../../lib/gcc/pic32mx/8.3.1/../../../../pic32mx/lib\libc-musl.a(__sio_sprintf_doux.o)
 .comment       0x000000000000008d       0x2c c:/program files/microchip/xc32/v4.20/bin/bin/../../lib/gcc/pic32mx/8.3.1/../../../../pic32mx/lib\libc-musl.a(__fmt_d.o)
 .comment       0x000000000000008d       0x2c c:/program files/microchip/xc32/v4.20/bin/bin/../../lib/gcc/pic32mx/8.3.1/../../../../pic32mx/lib\libc-musl.a(__fmt_o.o)
 .comment       0x000000000000008d       0x2c c:/program files/microchip/xc32/v4.20/bin/bin/../../lib/gcc/pic32mx/8.3.1/../../../../pic32mx/lib\libc-musl.a(__fmt_s.o)
 .comment       0x000000000000008d       0x2c c:/program files/microchip/xc32/v4.20/bin/bin/../../lib/gcc/pic32mx/8.3.1/../../../../pic32mx/lib\libc-musl.a(__fmt_u.o)
 .comment       0x000000000000008d       0x2c c:/program files/microchip/xc32/v4.20/bin/bin/../../lib/gcc/pic32mx/8.3.1/../../../../pic32mx/lib\libc-musl.a(__fmt_x.o)
 .comment       0x000000000000008d       0x2c c:/program files/microchip/xc32/v4.20/bin/bin/../../lib/gcc/pic32mx/8.3.1/../../../../pic32mx/lib\libc-musl.a(__pop_int.o)
 .comment       0x000000000000008d       0x2c c:/program files/microchip/xc32/v4.20/bin/bin/../../lib/gcc/pic32mx/8.3.1/../../../../pic32mx/lib\libc-musl.a(__pop_ptr.o)
 .comment       0x000000000000008d       0x2c c:/program files/microchip/xc32/v4.20/bin/bin/../../lib/gcc/pic32mx/8.3.1/../../../../pic32mx/lib\libc-musl.a(__printf_core.o)
 .comment       0x000000000000008d       0x2c c:/program files/microchip/xc32/v4.20/bin/bin/../../lib/gcc/pic32mx/8.3.1/../../../../pic32mx/lib\libc-musl.a(atoi.o)
 .comment       0x000000000000008d       0x2c c:/program files/microchip/xc32/v4.20/bin/bin/../../lib/gcc/pic32mx/8.3.1/../../../../pic32mx/lib\libc-musl.a(strncmp.o)
 .comment       0x000000000000008d       0x2c c:/program files/microchip/xc32/v4.20/bin/bin/../../lib/gcc/pic32mx/8.3.1/../../../../pic32mx/lib\libc-musl.a(strncpy.o)
 .comment       0x000000000000008d       0x2c c:/program files/microchip/xc32/v4.20/bin/bin/../../lib/gcc/pic32mx/8.3.1/../../../../pic32mx/lib\libc-musl.a(tolower.o)
 .comment       0x000000000000008d       0x2c c:/program files/microchip/xc32/v4.20/bin/bin/../../lib/gcc/pic32mx/8.3.1/../../../../pic32mx/lib\libc-musl.a(toupper.o)
 .comment       0x000000000000008d       0x2c c:/program files/microchip/xc32/v4.20/bin/bin/../../lib/gcc/pic32mx/8.3.1/../../../../pic32mx/lib\libc-musl.a(__int_vsprintf.o)
 .comment       0x000000000000008d       0x2c c:/program files/microchip/xc32/v4.20/bin/bin/../../lib/gcc/pic32mx/8.3.1/../../../../pic32mx/lib\libc-musl.a(__pop_float.o)
 .comment       0x000000000000008d       0x2c c:/program files/microchip/xc32/v4.20/bin/bin/../../lib/gcc/pic32mx/8.3.1/../../../../pic32mx/lib\libc-musl.a(stpncpy.o)
 .comment       0x000000000000008d       0x2c c:/program files/microchip/xc32/v4.20/bin/bin/../../lib/gcc/pic32mx/8.3.1/../../../../pic32mx/lib\libc-musl.a(__int_vsnprintf.o)
 .comment       0x000000000000008d       0x2c c:/program files/microchip/xc32/v4.20/bin/bin/../../lib/gcc/pic32mx/8.3.1/../../../../pic32mx/lib\libc-musl.a(__int_vfprintf.o)
 .comment       0x000000000000008d       0x2c c:/program files/microchip/xc32/v4.20/bin/bin/../../lib/gcc/pic32mx/8.3.1/../../../../pic32mx/lib\libm.a(atan2.o)
 .comment       0x000000000000008d       0x2c c:/program files/microchip/xc32/v4.20/bin/bin/../../lib/gcc/pic32mx/8.3.1/../../../../pic32mx/lib\libm.a(w_sqrt.o)
 .comment       0x000000000000008d       0x2c c:/program files/microchip/xc32/v4.20/bin/bin/../../lib/gcc/pic32mx/8.3.1/../../../../pic32mx/lib\libm.a(support.o)
 .comment       0x000000000000008d       0x2c c:/program files/microchip/xc32/v4.20/bin/bin/../../lib/gcc/pic32mx/8.3.1/../../../../pic32mx/lib\libm.a(w_ldexp.o)
 .comment       0x000000000000008d       0x2c c:/program files/microchip/xc32/v4.20/bin/bin/../../lib/gcc/pic32mx/8.3.1/../../../../pic32mx/lib\libm.a(s_lib_ver.o)
 .comment       0x000000000000008d       0x2c c:/program files/microchip/xc32/v4.20/bin/bin/../../lib/gcc/pic32mx/8.3.1\libgcc.a(_udivdi3.o)
 .comment       0x000000000000008d       0x2c c:/program files/microchip/xc32/v4.20/bin/bin/../../lib/gcc/pic32mx/8.3.1\libgcc.a(_umoddi3.o)
 .comment       0x000000000000008d       0x2c c:/program files/microchip/xc32/v4.20/bin/bin/../../lib/gcc/pic32mx/8.3.1/../../../../pic32mx/lib\libpic32.a(errno.o)
 .comment       0x000000000000008d       0x2c c:/program files/microchip/xc32/v4.20/bin/bin/../../lib/gcc/pic32mx/8.3.1/../../../../pic32mx/lib\libpic32.a(isinf.o)
 .comment       0x000000000000008d       0x4e c:/program files/microchip/xc32/v4.20/bin/bin/../../lib/gcc/pic32mx/8.3.1/../../../../pic32mx/lib\libe.a(_unorddf2.o)
                                         0x7a (size before relaxing)

.debug
 *.elf(.debug)
 *(.debug)

.line
 *.elf(.line)
 *(.line)

.debug_srcinfo
 *.elf(.debug_srcinfo)
 *(.debug_srcinfo)

.debug_sfnames
 *.elf(.debug_sfnames)
 *(.debug_sfnames)

.debug_aranges  0x0000000000000000     0x10f8
 *.elf(.debug_aranges)
 *(.debug_aranges)
 .debug_aranges
                0x0000000000000000       0x20 output\tmr.o
 .debug_aranges
                0x0000000000000020       0x20 output\ringBuffer.o
 .debug_aranges
                0x0000000000000040       0x20 output\task.o
 .debug_aranges
                0x0000000000000060       0x20 output\eeprom.o
 .debug_aranges
                0x0000000000000080       0x20 output\eep_manager.o
 .debug_aranges
                0x00000000000000a0       0x20 output\main.o
 .debug_aranges
                0x00000000000000c0       0x18 output\c_eep_manager.o
 .debug_aranges
                0x00000000000000d8       0x20 output\app.o
 .debug_aranges
                0x00000000000000f8       0x20 output\ad.o
 .debug_aranges
                0x0000000000000118       0x20 output\grbl_gcode.o
 .debug_aranges
                0x0000000000000138       0x20 output\grbl_limits.o
 .debug_aranges
                0x0000000000000158       0x20 output\coolant_control.o
 .debug_aranges
                0x0000000000000178       0x20 output\motion_control.o
 .debug_aranges
                0x0000000000000198       0x20 output\nuts_bolts.o
 .debug_aranges
                0x00000000000001b8       0x20 output\planner.o
 .debug_aranges
                0x00000000000001d8       0x20 output\grbl_print.o
 .debug_aranges
                0x00000000000001f8       0x20 output\grbl_report.o
 .debug_aranges
                0x0000000000000218       0x20 output\settings.o
 .debug_aranges
                0x0000000000000238       0x20 output\spindle_control.o
 .debug_aranges
                0x0000000000000258       0x20 output\stepper.o
 .debug_aranges
                0x0000000000000278       0x20 output\system.o
 .debug_aranges
                0x0000000000000298       0x20 output\grbl.o
 .debug_aranges
                0x00000000000002b8       0x20 output\grbl_homing.o
 .debug_aranges
                0x00000000000002d8       0x20 output\pwm.o
 .debug_aranges
                0x00000000000002f8       0x20 output\jog.o
 .debug_aranges
                0x0000000000000318       0x20 output\dee.o
 .debug_aranges
                0x0000000000000338       0x20 output\dee_page.o
 .debug_aranges
                0x0000000000000358       0x20 output\dee_page_helper.o
 .debug_aranges
                0x0000000000000378       0x20 output\eep_manager_crc.o
 .debug_aranges
                0x0000000000000398       0x20 output\system_control.o
 .debug_aranges
                0x00000000000003b8       0x20 output\stepper_enable.o
 .debug_aranges
                0x00000000000003d8       0x20 output\system_exec.o
 .debug_aranges
                0x00000000000003f8       0x20 output\system_alarm.o
 .debug_aranges
                0x0000000000000418       0x20 output\grbl_eeprom.o
 .debug_aranges
                0x0000000000000438       0x20 output\bootloader_interface.o
 .debug_aranges
                0x0000000000000458       0x20 output\grbl_toolchange.o
 .debug_aranges
                0x0000000000000478       0x20 output\grbl_protocol.o
 .debug_aranges
                0x0000000000000498       0x20 output\grbl_running.o
 .debug_aranges
                0x00000000000004b8       0x20 output\grbl_bootloader.o
 .debug_aranges
                0x00000000000004d8       0x20 output\grbl_probe.o
 .debug_aranges
                0x00000000000004f8       0x20 output\ethernet.o
 .debug_aranges
                0x0000000000000518       0x20 output\ENC28J60.o
 .debug_aranges
                0x0000000000000538       0x20 output\DHCP.o
 .debug_aranges
                0x0000000000000558       0x20 output\ARP.o
 .debug_aranges
                0x0000000000000578       0x20 output\Announce.o
 .debug_aranges
                0x0000000000000598       0x20 output\Helpers.o
 .debug_aranges
                0x00000000000005b8       0x20 output\ICMP.o
 .debug_aranges
                0x00000000000005d8       0x20 output\IP.o
 .debug_aranges
                0x00000000000005f8       0x20 output\StackTsk.o
 .debug_aranges
                0x0000000000000618       0x20 output\UDP.o
 .debug_aranges
                0x0000000000000638       0x20 output\ethernet_grbl_multi.o
 .debug_aranges
                0x0000000000000658       0x20 output\grbl_multi.o
 .debug_aranges
                0x0000000000000678       0x20 output\Reboot.o
 .debug_aranges
                0x0000000000000698       0x20 output\TCP.o
 .debug_aranges
                0x00000000000006b8       0x20 output\BerkeleyAPI.o
 .debug_aranges
                0x00000000000006d8       0x20 output\mal.o
 .debug_aranges
                0x00000000000006f8       0x20 output\isr.o
 .debug_aranges
                0x0000000000000718       0x20 output\exceptions.o
 .debug_aranges
                0x0000000000000738       0x20 output\usb_device_cdc_acm.o
 .debug_aranges
                0x0000000000000758       0x20 output\usb_device_cdc.o
 .debug_aranges
                0x0000000000000778       0x20 output\usb_device.o
 .debug_aranges
                0x0000000000000798       0x20 output\usb_app.o
 .debug_aranges
                0x00000000000007b8       0x20 output\usb.o
 .debug_aranges
                0x00000000000007d8       0x20 output\system_tasks.o
 .debug_aranges
                0x00000000000007f8       0x20 output\sys_int_pic32.o
 .debug_aranges
                0x0000000000000818       0x20 output\system_init.o
 .debug_aranges
                0x0000000000000838       0x20 output\peripheral.o
 .debug_aranges
                0x0000000000000858       0x20 output\drv_usbhs_device.o
 .debug_aranges
                0x0000000000000878       0x20 output\drv_usbhs.o
 .debug_aranges
                0x0000000000000898       0x20 output\bsp_sys_init.o
 .debug_aranges
                0x00000000000008b8       0x20 output\stackmeasure.o
 .debug_aranges
                0x00000000000008d8       0x20 output\noinitram.o
 .debug_aranges
                0x00000000000008f8       0x20 output\usb_grbl_multi.o
 .debug_aranges
                0x0000000000000918       0x20 output\sleep.o
 .debug_aranges
                0x0000000000000938       0x20 output\rtcconverter.o
 .debug_aranges
                0x0000000000000958       0x20 output\rtc.o
 .debug_aranges
                0x0000000000000978       0x20 output\daylight.o
 .debug_aranges
                0x0000000000000998       0x20 output\aes_128.o
 .debug_aranges
                0x00000000000009b8       0x20 output\aes_block.o
 .debug_aranges
                0x00000000000009d8       0x20 output\aes_cbc.o
 .debug_aranges
                0x00000000000009f8       0x20 output\aes_cbc_mac.o
 .debug_aranges
                0x0000000000000a18       0x20 output\aes_cmac.o
 .debug_aranges
                0x0000000000000a38       0x20 output\rijndael.o
 .debug_aranges
                0x0000000000000a58       0x20 output\aes_challenge_response.o
 .debug_aranges
                0x0000000000000a78       0x20 output\aes_key.o
 .debug_aranges
                0x0000000000000a98       0x20 output\aes_ecb.o
 .debug_aranges
                0x0000000000000ab8       0x18 output\MQTT.o
 .debug_aranges
                0x0000000000000ad0       0x18 output\MQTTclient.o
 .debug_aranges
                0x0000000000000ae8       0x18 output\DNS.o
 .debug_aranges
                0x0000000000000b00       0x18 output\sntp.o
 .debug_aranges
                0x0000000000000b18       0x18 output\random.o
 .debug_aranges
                0x0000000000000b30       0x20 output\sha256.o
 .debug_aranges
                0x0000000000000b50       0x20 output\spi2.o
 .debug_aranges
                0x0000000000000b70       0x18 output\wget.o
 .debug_aranges
                0x0000000000000b88       0x20 c:/program files/microchip/xc32/v4.20/bin/bin/../../lib/gcc/pic32mx/8.3.1\libgcc.a(_fixunssfdi.o)
 .debug_aranges
                0x0000000000000ba8       0x20 c:/program files/microchip/xc32/v4.20/bin/bin/../../lib/gcc/pic32mx/8.3.1\libgcc.a(_floatundidf.o)
 .debug_aranges
                0x0000000000000bc8       0x20 c:/program files/microchip/xc32/v4.20/bin/bin/../../lib/gcc/pic32mx/8.3.1\libgcc.a(floatunsisf.o)
 .debug_aranges
                0x0000000000000be8       0x20 c:/program files/microchip/xc32/v4.20/bin/bin/../../lib/gcc/pic32mx/8.3.1\libgcc.a(floatunsidf.o)
 .debug_aranges
                0x0000000000000c08       0x20 c:/program files/microchip/xc32/v4.20/bin/bin/../../lib/gcc/pic32mx/8.3.1/../../../../pic32mx/lib\libpic32.a(default-bootstrap-exception-handler.o)
 .debug_aranges
                0x0000000000000c28       0x20 c:/program files/microchip/xc32/v4.20/bin/bin/../../lib/gcc/pic32mx/8.3.1/../../../../pic32mx/lib\libpic32.a(default-on-reset.o)
 .debug_aranges
                0x0000000000000c48       0x20 c:/program files/microchip/xc32/v4.20/bin/bin/../../lib/gcc/pic32mx/8.3.1/../../../../pic32mx/lib\libpic32.a(default-on-bootstrap.o)
 .debug_aranges
                0x0000000000000c68       0x20 c:/program files/microchip/xc32/v4.20/bin/bin/../../lib/gcc/pic32mx/8.3.1/../../../../pic32mx/lib\libpic32.a(defaultinterrupt.o)
 .debug_aranges
                0x0000000000000c88       0x20 c:/program files/microchip/xc32/v4.20/bin/bin/../../lib/gcc/pic32mx/8.3.1/../../../../pic32mx/lib\libpic32.a(default-cache-err-exception-handler.o)
 .debug_aranges
                0x0000000000000ca8       0x20 c:/program files/microchip/xc32/v4.20/bin/bin/../../lib/gcc/pic32mx/8.3.1/../../../../pic32mx/lib\libpic32.a(default-simple-tlb-refill-exception-handler.o)
 .debug_aranges
                0x0000000000000cc8       0x28 c:/program files/microchip/xc32/v4.20/bin/bin/../../lib/gcc/pic32mx/8.3.1/../../../../pic32mx/lib\libc-musl.a(__sio_sprintf_doux.o)
 .debug_aranges
                0x0000000000000cf0       0x20 c:/program files/microchip/xc32/v4.20/bin/bin/../../lib/gcc/pic32mx/8.3.1/../../../../pic32mx/lib\libc-musl.a(__fmt_d.o)
 .debug_aranges
                0x0000000000000d10       0x20 c:/program files/microchip/xc32/v4.20/bin/bin/../../lib/gcc/pic32mx/8.3.1/../../../../pic32mx/lib\libc-musl.a(__fmt_o.o)
 .debug_aranges
                0x0000000000000d30       0x20 c:/program files/microchip/xc32/v4.20/bin/bin/../../lib/gcc/pic32mx/8.3.1/../../../../pic32mx/lib\libc-musl.a(__fmt_s.o)
 .debug_aranges
                0x0000000000000d50       0x28 c:/program files/microchip/xc32/v4.20/bin/bin/../../lib/gcc/pic32mx/8.3.1/../../../../pic32mx/lib\libc-musl.a(__fmt_u.o)
 .debug_aranges
                0x0000000000000d78       0x20 c:/program files/microchip/xc32/v4.20/bin/bin/../../lib/gcc/pic32mx/8.3.1/../../../../pic32mx/lib\libc-musl.a(__fmt_x.o)
 .debug_aranges
                0x0000000000000d98       0x20 c:/program files/microchip/xc32/v4.20/bin/bin/../../lib/gcc/pic32mx/8.3.1/../../../../pic32mx/lib\libc-musl.a(__pop_int.o)
 .debug_aranges
                0x0000000000000db8       0x20 c:/program files/microchip/xc32/v4.20/bin/bin/../../lib/gcc/pic32mx/8.3.1/../../../../pic32mx/lib\libc-musl.a(__pop_ptr.o)
 .debug_aranges
                0x0000000000000dd8       0x50 c:/program files/microchip/xc32/v4.20/bin/bin/../../lib/gcc/pic32mx/8.3.1/../../../../pic32mx/lib\libc-musl.a(__printf_core.o)
 .debug_aranges
                0x0000000000000e28       0x20 c:/program files/microchip/xc32/v4.20/bin/bin/../../lib/gcc/pic32mx/8.3.1/../../../../pic32mx/lib\libc-musl.a(atoi.o)
 .debug_aranges
                0x0000000000000e48       0x20 c:/program files/microchip/xc32/v4.20/bin/bin/../../lib/gcc/pic32mx/8.3.1/../../../../pic32mx/lib\libc-musl.a(strncmp.o)
 .debug_aranges
                0x0000000000000e68       0x20 c:/program files/microchip/xc32/v4.20/bin/bin/../../lib/gcc/pic32mx/8.3.1/../../../../pic32mx/lib\libc-musl.a(strncpy.o)
 .debug_aranges
                0x0000000000000e88       0x28 c:/program files/microchip/xc32/v4.20/bin/bin/../../lib/gcc/pic32mx/8.3.1/../../../../pic32mx/lib\libc-musl.a(tolower.o)
 .debug_aranges
                0x0000000000000eb0       0x28 c:/program files/microchip/xc32/v4.20/bin/bin/../../lib/gcc/pic32mx/8.3.1/../../../../pic32mx/lib\libc-musl.a(toupper.o)
 .debug_aranges
                0x0000000000000ed8       0x20 c:/program files/microchip/xc32/v4.20/bin/bin/../../lib/gcc/pic32mx/8.3.1/../../../../pic32mx/lib\libc-musl.a(__int_vsprintf.o)
 .debug_aranges
                0x0000000000000ef8       0x20 c:/program files/microchip/xc32/v4.20/bin/bin/../../lib/gcc/pic32mx/8.3.1/../../../../pic32mx/lib\libc-musl.a(__pop_float.o)
 .debug_aranges
                0x0000000000000f18       0x20 c:/program files/microchip/xc32/v4.20/bin/bin/../../lib/gcc/pic32mx/8.3.1/../../../../pic32mx/lib\libc-musl.a(stpncpy.o)
 .debug_aranges
                0x0000000000000f38       0x20 c:/program files/microchip/xc32/v4.20/bin/bin/../../lib/gcc/pic32mx/8.3.1/../../../../pic32mx/lib\libc-musl.a(__int_vsnprintf.o)
 .debug_aranges
                0x0000000000000f58       0x20 c:/program files/microchip/xc32/v4.20/bin/bin/../../lib/gcc/pic32mx/8.3.1/../../../../pic32mx/lib\libc-musl.a(__int_vfprintf.o)
 .debug_aranges
                0x0000000000000f78       0x20 c:/program files/microchip/xc32/v4.20/bin/bin/../../lib/gcc/pic32mx/8.3.1/../../../../pic32mx/lib\libm.a(atan2.o)
 .debug_aranges
                0x0000000000000f98       0x20 c:/program files/microchip/xc32/v4.20/bin/bin/../../lib/gcc/pic32mx/8.3.1/../../../../pic32mx/lib\libm.a(w_sqrt.o)
 .debug_aranges
                0x0000000000000fb8       0x78 c:/program files/microchip/xc32/v4.20/bin/bin/../../lib/gcc/pic32mx/8.3.1/../../../../pic32mx/lib\libm.a(support.o)
 .debug_aranges
                0x0000000000001030       0x20 c:/program files/microchip/xc32/v4.20/bin/bin/../../lib/gcc/pic32mx/8.3.1/../../../../pic32mx/lib\libm.a(w_ldexp.o)
 .debug_aranges
                0x0000000000001050       0x20 c:/program files/microchip/xc32/v4.20/bin/bin/../../lib/gcc/pic32mx/8.3.1\libgcc.a(_udivdi3.o)
 .debug_aranges
                0x0000000000001070       0x20 c:/program files/microchip/xc32/v4.20/bin/bin/../../lib/gcc/pic32mx/8.3.1\libgcc.a(_umoddi3.o)
 .debug_aranges
                0x0000000000001090       0x48 c:/program files/microchip/xc32/v4.20/bin/bin/../../lib/gcc/pic32mx/8.3.1/../../../../pic32mx/lib\libpic32.a(isinf.o)
 .debug_aranges
                0x00000000000010d8       0x20 c:/program files/microchip/xc32/v4.20/bin/bin/../../lib/gcc/pic32mx/8.3.1/../../../../pic32mx/lib\libe.a(_unorddf2.o)

.debug_pubnames
 *.elf(.debug_pubnames)
 *(.debug_pubnames)

.debug_info     0x0000000000000000    0x5d044
 *.elf(.debug_info .gnu.linkonce.wi.*)
 *(.debug_info .gnu.linkonce.wi.*)
 .debug_info    0x0000000000000000      0x637 output\tmr.o
 .debug_info    0x0000000000000637      0x4f7 output\ringBuffer.o
 .debug_info    0x0000000000000b2e      0x876 output\task.o
 .debug_info    0x00000000000013a4      0x4b5 output\eeprom.o
 .debug_info    0x0000000000001859      0xe4b output\eep_manager.o
 .debug_info    0x00000000000026a4      0xb0e output\main.o
 .debug_info    0x00000000000031b2      0x6a2 output\c_eep_manager.o
 .debug_info    0x0000000000003854      0x689 output\app.o
 .debug_info    0x0000000000003edd      0x3aa output\ad.o
 .debug_info    0x0000000000004287     0x1310 output\grbl_gcode.o
 .debug_info    0x0000000000005597     0x1026 output\grbl_limits.o
 .debug_info    0x00000000000065bd      0x25b output\coolant_control.o
 .debug_info    0x0000000000006818      0xd4a output\motion_control.o
 .debug_info    0x0000000000007562      0x6a2 output\nuts_bolts.o
 .debug_info    0x0000000000007c04      0xdc9 output\planner.o
 .debug_info    0x00000000000089cd      0x94f output\grbl_print.o
 .debug_info    0x000000000000931c     0x400a output\grbl_report.o
 .debug_info    0x000000000000d326      0x731 output\settings.o
 .debug_info    0x000000000000da57      0xa84 output\spindle_control.o
 .debug_info    0x000000000000e4db     0x11fa output\stepper.o
 .debug_info    0x000000000000f6d5     0x1f6e output\system.o
 .debug_info    0x0000000000011643     0x121d output\grbl.o
 .debug_info    0x0000000000012860      0xb24 output\grbl_homing.o
 .debug_info    0x0000000000013384      0xa96 output\pwm.o
 .debug_info    0x0000000000013e1a      0x65d output\jog.o
 .debug_info    0x0000000000014477     0x1506 output\dee.o
 .debug_info    0x000000000001597d      0xe27 output\dee_page.o
 .debug_info    0x00000000000167a4      0x634 output\dee_page_helper.o
 .debug_info    0x0000000000016dd8      0x418 output\eep_manager_crc.o
 .debug_info    0x00000000000171f0      0x717 output\system_control.o
 .debug_info    0x0000000000017907      0x629 output\stepper_enable.o
 .debug_info    0x0000000000017f30      0x175 output\system_exec.o
 .debug_info    0x00000000000180a5      0x156 output\system_alarm.o
 .debug_info    0x00000000000181fb      0xcf5 output\grbl_eeprom.o
 .debug_info    0x0000000000018ef0      0x199 output\bootloader_interface.o
 .debug_info    0x0000000000019089      0x4db output\grbl_toolchange.o
 .debug_info    0x0000000000019564     0x1480 output\grbl_protocol.o
 .debug_info    0x000000000001a9e4      0x31c output\grbl_running.o
 .debug_info    0x000000000001ad00      0x2c7 output\grbl_bootloader.o
 .debug_info    0x000000000001afc7      0xa4e output\grbl_probe.o
 .debug_info    0x000000000001ba15      0xcc7 output\ethernet.o
 .debug_info    0x000000000001c6dc     0x432a output\ENC28J60.o
 .debug_info    0x0000000000020a06     0x17d9 output\DHCP.o
 .debug_info    0x00000000000221df      0xbaa output\ARP.o
 .debug_info    0x0000000000022d89      0xbff output\Announce.o
 .debug_info    0x0000000000023988      0xcba output\Helpers.o
 .debug_info    0x0000000000024642      0x7e4 output\ICMP.o
 .debug_info    0x0000000000024e26      0xaf0 output\IP.o
 .debug_info    0x0000000000025916      0xd5b output\StackTsk.o
 .debug_info    0x0000000000026671     0x14d4 output\UDP.o
 .debug_info    0x0000000000027b45      0xa75 output\ethernet_grbl_multi.o
 .debug_info    0x00000000000285ba      0x286 output\grbl_multi.o
 .debug_info    0x0000000000028840      0xa28 output\Reboot.o
 .debug_info    0x0000000000029268     0x2cc9 output\TCP.o
 .debug_info    0x000000000002bf31     0x172f output\BerkeleyAPI.o
 .debug_info    0x000000000002d660      0x910 output\mal.o
 .debug_info    0x000000000002df70     0x1bd7 output\isr.o
 .debug_info    0x000000000002fb47      0x379 output\exceptions.o
 .debug_info    0x000000000002fec0      0x823 output\usb_device_cdc_acm.o
 .debug_info    0x00000000000306e3     0x2ac8 output\usb_device_cdc.o
 .debug_info    0x00000000000331ab     0x36ef output\usb_device.o
 .debug_info    0x000000000003689a     0x19b4 output\usb_app.o
 .debug_info    0x000000000003824e      0x3f8 output\usb.o
 .debug_info    0x0000000000038646      0x15d output\system_tasks.o
 .debug_info    0x00000000000387a3      0xcb3 output\sys_int_pic32.o
 .debug_info    0x0000000000039456     0x25be output\system_init.o
 .debug_info    0x000000000003ba14     0xd05b output\peripheral.o
 .debug_info    0x0000000000048a6f     0x7244 output\drv_usbhs_device.o
 .debug_info    0x000000000004fcb3     0x21ed output\drv_usbhs.o
 .debug_info    0x0000000000051ea0      0x746 output\bsp_sys_init.o
 .debug_info    0x00000000000525e6      0x13f output\stackmeasure.o
 .debug_info    0x0000000000052725      0x488 output\noinitram.o
 .debug_info    0x0000000000052bad      0x3ad output\usb_grbl_multi.o
 .debug_info    0x0000000000052f5a      0x61c output\sleep.o
 .debug_info    0x0000000000053576      0x751 output\rtcconverter.o
 .debug_info    0x0000000000053cc7      0xa3e output\rtc.o
 .debug_info    0x0000000000054705      0x1c7 output\daylight.o
 .debug_info    0x00000000000548cc      0x274 output\aes_128.o
 .debug_info    0x0000000000054b40      0x33a output\aes_block.o
 .debug_info    0x0000000000054e7a      0x45e output\aes_cbc.o
 .debug_info    0x00000000000552d8      0x300 output\aes_cbc_mac.o
 .debug_info    0x00000000000555d8      0xbef output\aes_cmac.o
 .debug_info    0x00000000000561c7      0x88a output\rijndael.o
 .debug_info    0x0000000000056a51      0x37d output\aes_challenge_response.o
 .debug_info    0x0000000000056dce      0x9dd output\aes_key.o
 .debug_info    0x00000000000577ab      0x473 output\aes_ecb.o
 .debug_info    0x0000000000057c1e       0x79 output\MQTT.o
 .debug_info    0x0000000000057c97       0x79 output\MQTTclient.o
 .debug_info    0x0000000000057d10       0x79 output\DNS.o
 .debug_info    0x0000000000057d89       0x79 output\sntp.o
 .debug_info    0x0000000000057e02       0x72 output\random.o
 .debug_info    0x0000000000057e74      0x3e1 output\sha256.o
 .debug_info    0x0000000000058255      0xcd0 output\spi2.o
 .debug_info    0x0000000000058f25       0x79 output\wget.o
 .debug_info    0x0000000000058f9e      0x12d c:/program files/microchip/xc32/v4.20/bin/bin/../../lib/gcc/pic32mx/8.3.1\libgcc.a(_fixunssfdi.o)
 .debug_info    0x00000000000590cb       0xed c:/program files/microchip/xc32/v4.20/bin/bin/../../lib/gcc/pic32mx/8.3.1\libgcc.a(_floatundidf.o)
 .debug_info    0x00000000000591b8       0x9d c:/program files/microchip/xc32/v4.20/bin/bin/../../lib/gcc/pic32mx/8.3.1\libgcc.a(floatunsisf.o)
 .debug_info    0x0000000000059255       0xaf c:/program files/microchip/xc32/v4.20/bin/bin/../../lib/gcc/pic32mx/8.3.1\libgcc.a(floatunsidf.o)
 .debug_info    0x0000000000059304       0x41 c:/program files/microchip/xc32/v4.20/bin/bin/../../lib/gcc/pic32mx/8.3.1/../../../../pic32mx/lib\libpic32.a(default-bootstrap-exception-handler.o)
 .debug_info    0x0000000000059345       0x3f c:/program files/microchip/xc32/v4.20/bin/bin/../../lib/gcc/pic32mx/8.3.1/../../../../pic32mx/lib\libpic32.a(default-on-reset.o)
 .debug_info    0x0000000000059384       0x3f c:/program files/microchip/xc32/v4.20/bin/bin/../../lib/gcc/pic32mx/8.3.1/../../../../pic32mx/lib\libpic32.a(default-on-bootstrap.o)
 .debug_info    0x00000000000593c3       0x40 c:/program files/microchip/xc32/v4.20/bin/bin/../../lib/gcc/pic32mx/8.3.1/../../../../pic32mx/lib\libpic32.a(defaultinterrupt.o)
 .debug_info    0x0000000000059403       0x41 c:/program files/microchip/xc32/v4.20/bin/bin/../../lib/gcc/pic32mx/8.3.1/../../../../pic32mx/lib\libpic32.a(default-cache-err-exception-handler.o)
 .debug_info    0x0000000000059444       0x41 c:/program files/microchip/xc32/v4.20/bin/bin/../../lib/gcc/pic32mx/8.3.1/../../../../pic32mx/lib\libpic32.a(default-simple-tlb-refill-exception-handler.o)
 .debug_info    0x0000000000059485      0x1e7 c:/program files/microchip/xc32/v4.20/bin/bin/../../lib/gcc/pic32mx/8.3.1/../../../../pic32mx/lib\libc-musl.a(__sio_sprintf_doux.o)
 .debug_info    0x000000000005966c      0x327 c:/program files/microchip/xc32/v4.20/bin/bin/../../lib/gcc/pic32mx/8.3.1/../../../../pic32mx/lib\libc-musl.a(__fmt_d.o)
 .debug_info    0x0000000000059993      0x2f8 c:/program files/microchip/xc32/v4.20/bin/bin/../../lib/gcc/pic32mx/8.3.1/../../../../pic32mx/lib\libc-musl.a(__fmt_o.o)
 .debug_info    0x0000000000059c8b      0x2a9 c:/program files/microchip/xc32/v4.20/bin/bin/../../lib/gcc/pic32mx/8.3.1/../../../../pic32mx/lib\libc-musl.a(__fmt_s.o)
 .debug_info    0x0000000000059f34      0x3cb c:/program files/microchip/xc32/v4.20/bin/bin/../../lib/gcc/pic32mx/8.3.1/../../../../pic32mx/lib\libc-musl.a(__fmt_u.o)
 .debug_info    0x000000000005a2ff      0x322 c:/program files/microchip/xc32/v4.20/bin/bin/../../lib/gcc/pic32mx/8.3.1/../../../../pic32mx/lib\libc-musl.a(__fmt_x.o)
 .debug_info    0x000000000005a621      0x14e c:/program files/microchip/xc32/v4.20/bin/bin/../../lib/gcc/pic32mx/8.3.1/../../../../pic32mx/lib\libc-musl.a(__pop_int.o)
 .debug_info    0x000000000005a76f      0x15e c:/program files/microchip/xc32/v4.20/bin/bin/../../lib/gcc/pic32mx/8.3.1/../../../../pic32mx/lib\libc-musl.a(__pop_ptr.o)
 .debug_info    0x000000000005a8cd      0x9ee c:/program files/microchip/xc32/v4.20/bin/bin/../../lib/gcc/pic32mx/8.3.1/../../../../pic32mx/lib\libc-musl.a(__printf_core.o)
 .debug_info    0x000000000005b2bb       0xee c:/program files/microchip/xc32/v4.20/bin/bin/../../lib/gcc/pic32mx/8.3.1/../../../../pic32mx/lib\libc-musl.a(atoi.o)
 .debug_info    0x000000000005b3a9       0xdd c:/program files/microchip/xc32/v4.20/bin/bin/../../lib/gcc/pic32mx/8.3.1/../../../../pic32mx/lib\libc-musl.a(strncmp.o)
 .debug_info    0x000000000005b486       0xdc c:/program files/microchip/xc32/v4.20/bin/bin/../../lib/gcc/pic32mx/8.3.1/../../../../pic32mx/lib\libc-musl.a(strncpy.o)
 .debug_info    0x000000000005b562      0x11b c:/program files/microchip/xc32/v4.20/bin/bin/../../lib/gcc/pic32mx/8.3.1/../../../../pic32mx/lib\libc-musl.a(tolower.o)
 .debug_info    0x000000000005b67d      0x11b c:/program files/microchip/xc32/v4.20/bin/bin/../../lib/gcc/pic32mx/8.3.1/../../../../pic32mx/lib\libc-musl.a(toupper.o)
 .debug_info    0x000000000005b798      0x127 c:/program files/microchip/xc32/v4.20/bin/bin/../../lib/gcc/pic32mx/8.3.1/../../../../pic32mx/lib\libc-musl.a(__int_vsprintf.o)
 .debug_info    0x000000000005b8bf      0x134 c:/program files/microchip/xc32/v4.20/bin/bin/../../lib/gcc/pic32mx/8.3.1/../../../../pic32mx/lib\libc-musl.a(__pop_float.o)
 .debug_info    0x000000000005b9f3       0xdf c:/program files/microchip/xc32/v4.20/bin/bin/../../lib/gcc/pic32mx/8.3.1/../../../../pic32mx/lib\libc-musl.a(stpncpy.o)
 .debug_info    0x000000000005bad2      0x1f5 c:/program files/microchip/xc32/v4.20/bin/bin/../../lib/gcc/pic32mx/8.3.1/../../../../pic32mx/lib\libc-musl.a(__int_vsnprintf.o)
 .debug_info    0x000000000005bcc7      0x1e0 c:/program files/microchip/xc32/v4.20/bin/bin/../../lib/gcc/pic32mx/8.3.1/../../../../pic32mx/lib\libc-musl.a(__int_vfprintf.o)
 .debug_info    0x000000000005bea7       0x50 c:/program files/microchip/xc32/v4.20/bin/bin/../../lib/gcc/pic32mx/8.3.1/../../../../pic32mx/lib\libm.a(atan2.o)
 .debug_info    0x000000000005bef7       0x40 c:/program files/microchip/xc32/v4.20/bin/bin/../../lib/gcc/pic32mx/8.3.1/../../../../pic32mx/lib\libm.a(w_sqrt.o)
 .debug_info    0x000000000005bf37      0x1ac c:/program files/microchip/xc32/v4.20/bin/bin/../../lib/gcc/pic32mx/8.3.1/../../../../pic32mx/lib\libm.a(support.o)
 .debug_info    0x000000000005c0e3       0x40 c:/program files/microchip/xc32/v4.20/bin/bin/../../lib/gcc/pic32mx/8.3.1/../../../../pic32mx/lib\libm.a(w_ldexp.o)
 .debug_info    0x000000000005c123      0x6ca c:/program files/microchip/xc32/v4.20/bin/bin/../../lib/gcc/pic32mx/8.3.1\libgcc.a(_udivdi3.o)
 .debug_info    0x000000000005c7ed      0x73e c:/program files/microchip/xc32/v4.20/bin/bin/../../lib/gcc/pic32mx/8.3.1\libgcc.a(_umoddi3.o)
 .debug_info    0x000000000005cf2b       0xac c:/program files/microchip/xc32/v4.20/bin/bin/../../lib/gcc/pic32mx/8.3.1/../../../../pic32mx/lib\libpic32.a(isinf.o)
 .debug_info    0x000000000005cfd7       0x6d c:/program files/microchip/xc32/v4.20/bin/bin/../../lib/gcc/pic32mx/8.3.1/../../../../pic32mx/lib\libe.a(_unorddf2.o)

.debug_abbrev   0x0000000000000000     0xe1be
 *.elf(.debug_abbrev)
 *(.debug_abbrev)
 .debug_abbrev  0x0000000000000000      0x21a output\tmr.o
 .debug_abbrev  0x000000000000021a      0x13e output\ringBuffer.o
 .debug_abbrev  0x0000000000000358      0x275 output\task.o
 .debug_abbrev  0x00000000000005cd      0x176 output\eeprom.o
 .debug_abbrev  0x0000000000000743      0x294 output\eep_manager.o
 .debug_abbrev  0x00000000000009d7      0x1dd output\main.o
 .debug_abbrev  0x0000000000000bb4       0xca output\c_eep_manager.o
 .debug_abbrev  0x0000000000000c7e      0x209 output\app.o
 .debug_abbrev  0x0000000000000e87      0x1c9 output\ad.o
 .debug_abbrev  0x0000000000001050      0x2ef output\grbl_gcode.o
 .debug_abbrev  0x000000000000133f      0x32b output\grbl_limits.o
 .debug_abbrev  0x000000000000166a      0x143 output\coolant_control.o
 .debug_abbrev  0x00000000000017ad      0x254 output\motion_control.o
 .debug_abbrev  0x0000000000001a01      0x154 output\nuts_bolts.o
 .debug_abbrev  0x0000000000001b55      0x35f output\planner.o
 .debug_abbrev  0x0000000000001eb4      0x183 output\grbl_print.o
 .debug_abbrev  0x0000000000002037      0x409 output\grbl_report.o
 .debug_abbrev  0x0000000000002440      0x1fa output\settings.o
 .debug_abbrev  0x000000000000263a      0x304 output\spindle_control.o
 .debug_abbrev  0x000000000000293e      0x2fc output\stepper.o
 .debug_abbrev  0x0000000000002c3a      0x367 output\system.o
 .debug_abbrev  0x0000000000002fa1      0x20f output\grbl.o
 .debug_abbrev  0x00000000000031b0      0x308 output\grbl_homing.o
 .debug_abbrev  0x00000000000034b8      0x1d5 output\pwm.o
 .debug_abbrev  0x000000000000368d      0x126 output\jog.o
 .debug_abbrev  0x00000000000037b3      0x26c output\dee.o
 .debug_abbrev  0x0000000000003a1f      0x335 output\dee_page.o
 .debug_abbrev  0x0000000000003d54      0x1c4 output\dee_page_helper.o
 .debug_abbrev  0x0000000000003f18      0x116 output\eep_manager_crc.o
 .debug_abbrev  0x000000000000402e      0x1e8 output\system_control.o
 .debug_abbrev  0x0000000000004216      0x20b output\stepper_enable.o
 .debug_abbrev  0x0000000000004421       0xe2 output\system_exec.o
 .debug_abbrev  0x0000000000004503       0xdf output\system_alarm.o
 .debug_abbrev  0x00000000000045e2      0x1fa output\grbl_eeprom.o
 .debug_abbrev  0x00000000000047dc       0xf7 output\bootloader_interface.o
 .debug_abbrev  0x00000000000048d3      0x175 output\grbl_toolchange.o
 .debug_abbrev  0x0000000000004a48      0x31f output\grbl_protocol.o
 .debug_abbrev  0x0000000000004d67      0x101 output\grbl_running.o
 .debug_abbrev  0x0000000000004e68       0xfb output\grbl_bootloader.o
 .debug_abbrev  0x0000000000004f63      0x239 output\grbl_probe.o
 .debug_abbrev  0x000000000000519c      0x314 output\ethernet.o
 .debug_abbrev  0x00000000000054b0      0x422 output\ENC28J60.o
 .debug_abbrev  0x00000000000058d2      0x391 output\DHCP.o
 .debug_abbrev  0x0000000000005c63      0x2d5 output\ARP.o
 .debug_abbrev  0x0000000000005f38      0x232 output\Announce.o
 .debug_abbrev  0x000000000000616a      0x296 output\Helpers.o
 .debug_abbrev  0x0000000000006400      0x1aa output\ICMP.o
 .debug_abbrev  0x00000000000065aa      0x293 output\IP.o
 .debug_abbrev  0x000000000000683d      0x2b3 output\StackTsk.o
 .debug_abbrev  0x0000000000006af0      0x3e1 output\UDP.o
 .debug_abbrev  0x0000000000006ed1      0x2b1 output\ethernet_grbl_multi.o
 .debug_abbrev  0x0000000000007182      0x135 output\grbl_multi.o
 .debug_abbrev  0x00000000000072b7      0x21f output\Reboot.o
 .debug_abbrev  0x00000000000074d6      0x404 output\TCP.o
 .debug_abbrev  0x00000000000078da      0x38d output\BerkeleyAPI.o
 .debug_abbrev  0x0000000000007c67      0x29b output\mal.o
 .debug_abbrev  0x0000000000007f02      0x147 output\isr.o
 .debug_abbrev  0x0000000000008049      0x16d output\exceptions.o
 .debug_abbrev  0x00000000000081b6      0x1f4 output\usb_device_cdc_acm.o
 .debug_abbrev  0x00000000000083aa      0x449 output\usb_device_cdc.o
 .debug_abbrev  0x00000000000087f3      0x3d4 output\usb_device.o
 .debug_abbrev  0x0000000000008bc7      0x358 output\usb_app.o
 .debug_abbrev  0x0000000000008f1f      0x140 output\usb.o
 .debug_abbrev  0x000000000000905f       0xce output\system_tasks.o
 .debug_abbrev  0x000000000000912d      0x223 output\sys_int_pic32.o
 .debug_abbrev  0x0000000000009350      0x37e output\system_init.o
 .debug_abbrev  0x00000000000096ce      0x2a1 output\peripheral.o
 .debug_abbrev  0x000000000000996f      0x54b output\drv_usbhs_device.o
 .debug_abbrev  0x0000000000009eba      0x460 output\drv_usbhs.o
 .debug_abbrev  0x000000000000a31a      0x22f output\bsp_sys_init.o
 .debug_abbrev  0x000000000000a549       0xcc output\stackmeasure.o
 .debug_abbrev  0x000000000000a615      0x162 output\noinitram.o
 .debug_abbrev  0x000000000000a777      0x185 output\usb_grbl_multi.o
 .debug_abbrev  0x000000000000a8fc      0x1a7 output\sleep.o
 .debug_abbrev  0x000000000000aaa3      0x233 output\rtcconverter.o
 .debug_abbrev  0x000000000000acd6      0x274 output\rtc.o
 .debug_abbrev  0x000000000000af4a      0x10a output\daylight.o
 .debug_abbrev  0x000000000000b054      0x101 output\aes_128.o
 .debug_abbrev  0x000000000000b155      0x138 output\aes_block.o
 .debug_abbrev  0x000000000000b28d      0x179 output\aes_cbc.o
 .debug_abbrev  0x000000000000b406      0x174 output\aes_cbc_mac.o
 .debug_abbrev  0x000000000000b57a      0x2ff output\aes_cmac.o
 .debug_abbrev  0x000000000000b879      0x1b2 output\rijndael.o
 .debug_abbrev  0x000000000000ba2b      0x1bc output\aes_challenge_response.o
 .debug_abbrev  0x000000000000bbe7      0x216 output\aes_key.o
 .debug_abbrev  0x000000000000bdfd      0x1bb output\aes_ecb.o
 .debug_abbrev  0x000000000000bfb8       0x26 output\MQTT.o
 .debug_abbrev  0x000000000000bfde       0x26 output\MQTTclient.o
 .debug_abbrev  0x000000000000c004       0x26 output\DNS.o
 .debug_abbrev  0x000000000000c02a       0x26 output\sntp.o
 .debug_abbrev  0x000000000000c050       0x26 output\random.o
 .debug_abbrev  0x000000000000c076      0x12b output\sha256.o
 .debug_abbrev  0x000000000000c1a1      0x2bb output\spi2.o
 .debug_abbrev  0x000000000000c45c       0x26 output\wget.o
 .debug_abbrev  0x000000000000c482       0x84 c:/program files/microchip/xc32/v4.20/bin/bin/../../lib/gcc/pic32mx/8.3.1\libgcc.a(_fixunssfdi.o)
 .debug_abbrev  0x000000000000c506       0x7d c:/program files/microchip/xc32/v4.20/bin/bin/../../lib/gcc/pic32mx/8.3.1\libgcc.a(_floatundidf.o)
 .debug_abbrev  0x000000000000c583       0x7d c:/program files/microchip/xc32/v4.20/bin/bin/../../lib/gcc/pic32mx/8.3.1\libgcc.a(floatunsisf.o)
 .debug_abbrev  0x000000000000c600       0x7d c:/program files/microchip/xc32/v4.20/bin/bin/../../lib/gcc/pic32mx/8.3.1\libgcc.a(floatunsidf.o)
 .debug_abbrev  0x000000000000c67d       0x31 c:/program files/microchip/xc32/v4.20/bin/bin/../../lib/gcc/pic32mx/8.3.1/../../../../pic32mx/lib\libpic32.a(default-bootstrap-exception-handler.o)
 .debug_abbrev  0x000000000000c6ae       0x2e c:/program files/microchip/xc32/v4.20/bin/bin/../../lib/gcc/pic32mx/8.3.1/../../../../pic32mx/lib\libpic32.a(default-on-reset.o)
 .debug_abbrev  0x000000000000c6dc       0x2e c:/program files/microchip/xc32/v4.20/bin/bin/../../lib/gcc/pic32mx/8.3.1/../../../../pic32mx/lib\libpic32.a(default-on-bootstrap.o)
 .debug_abbrev  0x000000000000c70a       0x31 c:/program files/microchip/xc32/v4.20/bin/bin/../../lib/gcc/pic32mx/8.3.1/../../../../pic32mx/lib\libpic32.a(defaultinterrupt.o)
 .debug_abbrev  0x000000000000c73b       0x31 c:/program files/microchip/xc32/v4.20/bin/bin/../../lib/gcc/pic32mx/8.3.1/../../../../pic32mx/lib\libpic32.a(default-cache-err-exception-handler.o)
 .debug_abbrev  0x000000000000c76c       0x31 c:/program files/microchip/xc32/v4.20/bin/bin/../../lib/gcc/pic32mx/8.3.1/../../../../pic32mx/lib\libpic32.a(default-simple-tlb-refill-exception-handler.o)
 .debug_abbrev  0x000000000000c79d      0x100 c:/program files/microchip/xc32/v4.20/bin/bin/../../lib/gcc/pic32mx/8.3.1/../../../../pic32mx/lib\libc-musl.a(__sio_sprintf_doux.o)
 .debug_abbrev  0x000000000000c89d      0x161 c:/program files/microchip/xc32/v4.20/bin/bin/../../lib/gcc/pic32mx/8.3.1/../../../../pic32mx/lib\libc-musl.a(__fmt_d.o)
 .debug_abbrev  0x000000000000c9fe      0x161 c:/program files/microchip/xc32/v4.20/bin/bin/../../lib/gcc/pic32mx/8.3.1/../../../../pic32mx/lib\libc-musl.a(__fmt_o.o)
 .debug_abbrev  0x000000000000cb5f      0x14c c:/program files/microchip/xc32/v4.20/bin/bin/../../lib/gcc/pic32mx/8.3.1/../../../../pic32mx/lib\libc-musl.a(__fmt_s.o)
 .debug_abbrev  0x000000000000ccab      0x193 c:/program files/microchip/xc32/v4.20/bin/bin/../../lib/gcc/pic32mx/8.3.1/../../../../pic32mx/lib\libc-musl.a(__fmt_u.o)
 .debug_abbrev  0x000000000000ce3e      0x150 c:/program files/microchip/xc32/v4.20/bin/bin/../../lib/gcc/pic32mx/8.3.1/../../../../pic32mx/lib\libc-musl.a(__fmt_x.o)
 .debug_abbrev  0x000000000000cf8e       0xc3 c:/program files/microchip/xc32/v4.20/bin/bin/../../lib/gcc/pic32mx/8.3.1/../../../../pic32mx/lib\libc-musl.a(__pop_int.o)
 .debug_abbrev  0x000000000000d051       0xd7 c:/program files/microchip/xc32/v4.20/bin/bin/../../lib/gcc/pic32mx/8.3.1/../../../../pic32mx/lib\libc-musl.a(__pop_ptr.o)
 .debug_abbrev  0x000000000000d128      0x318 c:/program files/microchip/xc32/v4.20/bin/bin/../../lib/gcc/pic32mx/8.3.1/../../../../pic32mx/lib\libc-musl.a(__printf_core.o)
 .debug_abbrev  0x000000000000d440       0xc4 c:/program files/microchip/xc32/v4.20/bin/bin/../../lib/gcc/pic32mx/8.3.1/../../../../pic32mx/lib\libc-musl.a(atoi.o)
 .debug_abbrev  0x000000000000d504       0xa2 c:/program files/microchip/xc32/v4.20/bin/bin/../../lib/gcc/pic32mx/8.3.1/../../../../pic32mx/lib\libc-musl.a(strncmp.o)
 .debug_abbrev  0x000000000000d5a6       0x9d c:/program files/microchip/xc32/v4.20/bin/bin/../../lib/gcc/pic32mx/8.3.1/../../../../pic32mx/lib\libc-musl.a(strncpy.o)
 .debug_abbrev  0x000000000000d643       0xf1 c:/program files/microchip/xc32/v4.20/bin/bin/../../lib/gcc/pic32mx/8.3.1/../../../../pic32mx/lib\libc-musl.a(tolower.o)
 .debug_abbrev  0x000000000000d734       0xf1 c:/program files/microchip/xc32/v4.20/bin/bin/../../lib/gcc/pic32mx/8.3.1/../../../../pic32mx/lib\libc-musl.a(toupper.o)
 .debug_abbrev  0x000000000000d825       0xb1 c:/program files/microchip/xc32/v4.20/bin/bin/../../lib/gcc/pic32mx/8.3.1/../../../../pic32mx/lib\libc-musl.a(__int_vsprintf.o)
 .debug_abbrev  0x000000000000d8d6       0xc3 c:/program files/microchip/xc32/v4.20/bin/bin/../../lib/gcc/pic32mx/8.3.1/../../../../pic32mx/lib\libc-musl.a(__pop_float.o)
 .debug_abbrev  0x000000000000d999       0xa5 c:/program files/microchip/xc32/v4.20/bin/bin/../../lib/gcc/pic32mx/8.3.1/../../../../pic32mx/lib\libc-musl.a(stpncpy.o)
 .debug_abbrev  0x000000000000da3e      0x13a c:/program files/microchip/xc32/v4.20/bin/bin/../../lib/gcc/pic32mx/8.3.1/../../../../pic32mx/lib\libc-musl.a(__int_vsnprintf.o)
 .debug_abbrev  0x000000000000db78      0x118 c:/program files/microchip/xc32/v4.20/bin/bin/../../lib/gcc/pic32mx/8.3.1/../../../../pic32mx/lib\libc-musl.a(__int_vfprintf.o)
 .debug_abbrev  0x000000000000dc90       0x35 c:/program files/microchip/xc32/v4.20/bin/bin/../../lib/gcc/pic32mx/8.3.1/../../../../pic32mx/lib\libm.a(atan2.o)
 .debug_abbrev  0x000000000000dcc5       0x2e c:/program files/microchip/xc32/v4.20/bin/bin/../../lib/gcc/pic32mx/8.3.1/../../../../pic32mx/lib\libm.a(w_sqrt.o)
 .debug_abbrev  0x000000000000dcf3       0xe9 c:/program files/microchip/xc32/v4.20/bin/bin/../../lib/gcc/pic32mx/8.3.1/../../../../pic32mx/lib\libm.a(support.o)
 .debug_abbrev  0x000000000000dddc       0x2e c:/program files/microchip/xc32/v4.20/bin/bin/../../lib/gcc/pic32mx/8.3.1/../../../../pic32mx/lib\libm.a(w_ldexp.o)
 .debug_abbrev  0x000000000000de0a      0x184 c:/program files/microchip/xc32/v4.20/bin/bin/../../lib/gcc/pic32mx/8.3.1\libgcc.a(_udivdi3.o)
 .debug_abbrev  0x000000000000df8e      0x19a c:/program files/microchip/xc32/v4.20/bin/bin/../../lib/gcc/pic32mx/8.3.1\libgcc.a(_umoddi3.o)
 .debug_abbrev  0x000000000000e128       0x46 c:/program files/microchip/xc32/v4.20/bin/bin/../../lib/gcc/pic32mx/8.3.1/../../../../pic32mx/lib\libpic32.a(isinf.o)
 .debug_abbrev  0x000000000000e16e       0x50 c:/program files/microchip/xc32/v4.20/bin/bin/../../lib/gcc/pic32mx/8.3.1/../../../../pic32mx/lib\libe.a(_unorddf2.o)

.debug_line     0x0000000000000000    0x27edf
 *.elf(.debug_line)
 *(.debug_line)
 .debug_line    0x0000000000000000      0x52a output\tmr.o
 .debug_line    0x000000000000052a      0x2d2 output\ringBuffer.o
 .debug_line    0x00000000000007fc      0x44a output\task.o
 .debug_line    0x0000000000000c46      0x270 output\eeprom.o
 .debug_line    0x0000000000000eb6      0x841 output\eep_manager.o
 .debug_line    0x00000000000016f7      0x4a7 output\main.o
 .debug_line    0x0000000000001b9e      0x1d5 output\c_eep_manager.o
 .debug_line    0x0000000000001d73      0x2eb output\app.o
 .debug_line    0x000000000000205e      0x1a7 output\ad.o
 .debug_line    0x0000000000002205     0x1495 output\grbl_gcode.o
 .debug_line    0x000000000000369a      0x480 output\grbl_limits.o
 .debug_line    0x0000000000003b1a      0x11a output\coolant_control.o
 .debug_line    0x0000000000003c34      0x6b0 output\motion_control.o
 .debug_line    0x00000000000042e4      0x4a0 output\nuts_bolts.o
 .debug_line    0x0000000000004784      0x869 output\planner.o
 .debug_line    0x0000000000004fed      0x510 output\grbl_print.o
 .debug_line    0x00000000000054fd     0x114d output\grbl_report.o
 .debug_line    0x000000000000664a      0x69b output\settings.o
 .debug_line    0x0000000000006ce5      0x4aa output\spindle_control.o
 .debug_line    0x000000000000718f      0xf87 output\stepper.o
 .debug_line    0x0000000000008116      0xea7 output\system.o
 .debug_line    0x0000000000008fbd      0x514 output\grbl.o
 .debug_line    0x00000000000094d1      0x72a output\grbl_homing.o
 .debug_line    0x0000000000009bfb      0x460 output\pwm.o
 .debug_line    0x000000000000a05b      0x1aa output\jog.o
 .debug_line    0x000000000000a205      0xce0 output\dee.o
 .debug_line    0x000000000000aee5      0x3de output\dee_page.o
 .debug_line    0x000000000000b2c3      0x349 output\dee_page_helper.o
 .debug_line    0x000000000000b60c      0x1b9 output\eep_manager_crc.o
 .debug_line    0x000000000000b7c5      0x3c8 output\system_control.o
 .debug_line    0x000000000000bb8d      0x40b output\stepper_enable.o
 .debug_line    0x000000000000bf98      0x148 output\system_exec.o
 .debug_line    0x000000000000c0e0      0x145 output\system_alarm.o
 .debug_line    0x000000000000c225      0x70c output\grbl_eeprom.o
 .debug_line    0x000000000000c931      0x117 output\bootloader_interface.o
 .debug_line    0x000000000000ca48      0x224 output\grbl_toolchange.o
 .debug_line    0x000000000000cc6c      0xa5e output\grbl_protocol.o
 .debug_line    0x000000000000d6ca      0x2e4 output\grbl_running.o
 .debug_line    0x000000000000d9ae      0x1db output\grbl_bootloader.o
 .debug_line    0x000000000000db89      0x40e output\grbl_probe.o
 .debug_line    0x000000000000df97      0x3e3 output\ethernet.o
 .debug_line    0x000000000000e37a     0x1055 output\ENC28J60.o
 .debug_line    0x000000000000f3cf      0x80a output\DHCP.o
 .debug_line    0x000000000000fbd9      0x382 output\ARP.o
 .debug_line    0x000000000000ff5b      0x208 output\Announce.o
 .debug_line    0x0000000000010163      0x698 output\Helpers.o
 .debug_line    0x00000000000107fb      0x173 output\ICMP.o
 .debug_line    0x000000000001096e      0x23e output\IP.o
 .debug_line    0x0000000000010bac      0x3c7 output\StackTsk.o
 .debug_line    0x0000000000010f73      0x7a7 output\UDP.o
 .debug_line    0x000000000001171a      0x450 output\ethernet_grbl_multi.o
 .debug_line    0x0000000000011b6a      0x141 output\grbl_multi.o
 .debug_line    0x0000000000011cab      0x2a3 output\Reboot.o
 .debug_line    0x0000000000011f4e     0x2301 output\TCP.o
 .debug_line    0x000000000001424f      0xaa9 output\BerkeleyAPI.o
 .debug_line    0x0000000000014cf8      0x404 output\mal.o
 .debug_line    0x00000000000150fc      0x63b output\isr.o
 .debug_line    0x0000000000015737      0x1f1 output\exceptions.o
 .debug_line    0x0000000000015928      0x1cb output\usb_device_cdc_acm.o
 .debug_line    0x0000000000015af3      0xa9e output\usb_device_cdc.o
 .debug_line    0x0000000000016591     0x1207 output\usb_device.o
 .debug_line    0x0000000000017798      0x4ae output\usb_app.o
 .debug_line    0x0000000000017c46      0x1d1 output\usb.o
 .debug_line    0x0000000000017e17      0x12c output\system_tasks.o
 .debug_line    0x0000000000017f43      0x3d0 output\sys_int_pic32.o
 .debug_line    0x0000000000018313      0x389 output\system_init.o
 .debug_line    0x000000000001869c     0x381b output\peripheral.o
 .debug_line    0x000000000001beb7     0x31e9 output\drv_usbhs_device.o
 .debug_line    0x000000000001f0a0      0xa4e output\drv_usbhs.o
 .debug_line    0x000000000001faee      0x2a0 output\bsp_sys_init.o
 .debug_line    0x000000000001fd8e      0x121 output\stackmeasure.o
 .debug_line    0x000000000001feaf      0x25e output\noinitram.o
 .debug_line    0x000000000002010d      0x12a output\usb_grbl_multi.o
 .debug_line    0x0000000000020237      0x357 output\sleep.o
 .debug_line    0x000000000002058e      0x400 output\rtcconverter.o
 .debug_line    0x000000000002098e      0x8c8 output\rtc.o
 .debug_line    0x0000000000021256       0xf5 output\daylight.o
 .debug_line    0x000000000002134b      0x128 output\aes_128.o
 .debug_line    0x0000000000021473      0x133 output\aes_block.o
 .debug_line    0x00000000000215a6      0x178 output\aes_cbc.o
 .debug_line    0x000000000002171e      0x149 output\aes_cbc_mac.o
 .debug_line    0x0000000000021867      0x5c0 output\aes_cmac.o
 .debug_line    0x0000000000021e27      0xd17 output\rijndael.o
 .debug_line    0x0000000000022b3e      0x1bf output\aes_challenge_response.o
 .debug_line    0x0000000000022cfd      0x430 output\aes_key.o
 .debug_line    0x000000000002312d      0x161 output\aes_ecb.o
 .debug_line    0x000000000002328e       0x1d output\MQTT.o
 .debug_line    0x00000000000232ab       0x1d output\MQTTclient.o
 .debug_line    0x00000000000232c8       0x1d output\DNS.o
 .debug_line    0x00000000000232e5       0x1d output\sntp.o
 .debug_line    0x0000000000023302       0x1d output\random.o
 .debug_line    0x000000000002331f      0x445 output\sha256.o
 .debug_line    0x0000000000023764      0x686 output\spi2.o
 .debug_line    0x0000000000023dea       0x1d output\wget.o
 .debug_line    0x0000000000023e07       0xd3 c:/program files/microchip/xc32/v4.20/bin/bin/../../lib/gcc/pic32mx/8.3.1\libgcc.a(_fixunssfdi.o)
 .debug_line    0x0000000000023eda       0xc8 c:/program files/microchip/xc32/v4.20/bin/bin/../../lib/gcc/pic32mx/8.3.1\libgcc.a(_floatundidf.o)
 .debug_line    0x0000000000023fa2       0xb7 c:/program files/microchip/xc32/v4.20/bin/bin/../../lib/gcc/pic32mx/8.3.1\libgcc.a(floatunsisf.o)
 .debug_line    0x0000000000024059       0xbb c:/program files/microchip/xc32/v4.20/bin/bin/../../lib/gcc/pic32mx/8.3.1\libgcc.a(floatunsidf.o)
 .debug_line    0x0000000000024114       0xca c:/program files/microchip/xc32/v4.20/bin/bin/../../lib/gcc/pic32mx/8.3.1/../../../../pic32mx/lib\libpic32.a(default-bootstrap-exception-handler.o)
 .debug_line    0x00000000000241de       0xa6 c:/program files/microchip/xc32/v4.20/bin/bin/../../lib/gcc/pic32mx/8.3.1/../../../../pic32mx/lib\libpic32.a(default-on-reset.o)
 .debug_line    0x0000000000024284       0xaa c:/program files/microchip/xc32/v4.20/bin/bin/../../lib/gcc/pic32mx/8.3.1/../../../../pic32mx/lib\libpic32.a(default-on-bootstrap.o)
 .debug_line    0x000000000002432e       0xc9 c:/program files/microchip/xc32/v4.20/bin/bin/../../lib/gcc/pic32mx/8.3.1/../../../../pic32mx/lib\libpic32.a(defaultinterrupt.o)
 .debug_line    0x00000000000243f7       0xca c:/program files/microchip/xc32/v4.20/bin/bin/../../lib/gcc/pic32mx/8.3.1/../../../../pic32mx/lib\libpic32.a(default-cache-err-exception-handler.o)
 .debug_line    0x00000000000244c1       0xd2 c:/program files/microchip/xc32/v4.20/bin/bin/../../lib/gcc/pic32mx/8.3.1/../../../../pic32mx/lib\libpic32.a(default-simple-tlb-refill-exception-handler.o)
 .debug_line    0x0000000000024593      0x1f6 c:/program files/microchip/xc32/v4.20/bin/bin/../../lib/gcc/pic32mx/8.3.1/../../../../pic32mx/lib\libc-musl.a(__sio_sprintf_doux.o)
 .debug_line    0x0000000000024789      0x258 c:/program files/microchip/xc32/v4.20/bin/bin/../../lib/gcc/pic32mx/8.3.1/../../../../pic32mx/lib\libc-musl.a(__fmt_d.o)
 .debug_line    0x00000000000249e1      0x209 c:/program files/microchip/xc32/v4.20/bin/bin/../../lib/gcc/pic32mx/8.3.1/../../../../pic32mx/lib\libc-musl.a(__fmt_o.o)
 .debug_line    0x0000000000024bea      0x257 c:/program files/microchip/xc32/v4.20/bin/bin/../../lib/gcc/pic32mx/8.3.1/../../../../pic32mx/lib\libc-musl.a(__fmt_s.o)
 .debug_line    0x0000000000024e41      0x29d c:/program files/microchip/xc32/v4.20/bin/bin/../../lib/gcc/pic32mx/8.3.1/../../../../pic32mx/lib\libc-musl.a(__fmt_u.o)
 .debug_line    0x00000000000250de      0x332 c:/program files/microchip/xc32/v4.20/bin/bin/../../lib/gcc/pic32mx/8.3.1/../../../../pic32mx/lib\libc-musl.a(__fmt_x.o)
 .debug_line    0x0000000000025410      0x254 c:/program files/microchip/xc32/v4.20/bin/bin/../../lib/gcc/pic32mx/8.3.1/../../../../pic32mx/lib\libc-musl.a(__pop_int.o)
 .debug_line    0x0000000000025664      0x20d c:/program files/microchip/xc32/v4.20/bin/bin/../../lib/gcc/pic32mx/8.3.1/../../../../pic32mx/lib\libc-musl.a(__pop_ptr.o)
 .debug_line    0x0000000000025871      0x714 c:/program files/microchip/xc32/v4.20/bin/bin/../../lib/gcc/pic32mx/8.3.1/../../../../pic32mx/lib\libc-musl.a(__printf_core.o)
 .debug_line    0x0000000000025f85      0x17c c:/program files/microchip/xc32/v4.20/bin/bin/../../lib/gcc/pic32mx/8.3.1/../../../../pic32mx/lib\libc-musl.a(atoi.o)
 .debug_line    0x0000000000026101      0x13a c:/program files/microchip/xc32/v4.20/bin/bin/../../lib/gcc/pic32mx/8.3.1/../../../../pic32mx/lib\libc-musl.a(strncmp.o)
 .debug_line    0x000000000002623b      0x123 c:/program files/microchip/xc32/v4.20/bin/bin/../../lib/gcc/pic32mx/8.3.1/../../../../pic32mx/lib\libc-musl.a(strncpy.o)
 .debug_line    0x000000000002635e      0x1bb c:/program files/microchip/xc32/v4.20/bin/bin/../../lib/gcc/pic32mx/8.3.1/../../../../pic32mx/lib\libc-musl.a(tolower.o)
 .debug_line    0x0000000000026519      0x1bb c:/program files/microchip/xc32/v4.20/bin/bin/../../lib/gcc/pic32mx/8.3.1/../../../../pic32mx/lib\libc-musl.a(toupper.o)
 .debug_line    0x00000000000266d4      0x1a5 c:/program files/microchip/xc32/v4.20/bin/bin/../../lib/gcc/pic32mx/8.3.1/../../../../pic32mx/lib\libc-musl.a(__int_vsprintf.o)
 .debug_line    0x0000000000026879      0x1b5 c:/program files/microchip/xc32/v4.20/bin/bin/../../lib/gcc/pic32mx/8.3.1/../../../../pic32mx/lib\libc-musl.a(__pop_float.o)
 .debug_line    0x0000000000026a2e      0x150 c:/program files/microchip/xc32/v4.20/bin/bin/../../lib/gcc/pic32mx/8.3.1/../../../../pic32mx/lib\libc-musl.a(stpncpy.o)
 .debug_line    0x0000000000026b7e      0x26c c:/program files/microchip/xc32/v4.20/bin/bin/../../lib/gcc/pic32mx/8.3.1/../../../../pic32mx/lib\libc-musl.a(__int_vsnprintf.o)
 .debug_line    0x0000000000026dea      0x1c3 c:/program files/microchip/xc32/v4.20/bin/bin/../../lib/gcc/pic32mx/8.3.1/../../../../pic32mx/lib\libc-musl.a(__int_vfprintf.o)
 .debug_line    0x0000000000026fad      0x222 c:/program files/microchip/xc32/v4.20/bin/bin/../../lib/gcc/pic32mx/8.3.1/../../../../pic32mx/lib\libm.a(atan2.o)
 .debug_line    0x00000000000271cf       0xba c:/program files/microchip/xc32/v4.20/bin/bin/../../lib/gcc/pic32mx/8.3.1/../../../../pic32mx/lib\libm.a(w_sqrt.o)
 .debug_line    0x0000000000027289      0x389 c:/program files/microchip/xc32/v4.20/bin/bin/../../lib/gcc/pic32mx/8.3.1/../../../../pic32mx/lib\libm.a(support.o)
 .debug_line    0x0000000000027612       0xb3 c:/program files/microchip/xc32/v4.20/bin/bin/../../lib/gcc/pic32mx/8.3.1/../../../../pic32mx/lib\libm.a(w_ldexp.o)
 .debug_line    0x00000000000276c5        0x0 c:/program files/microchip/xc32/v4.20/bin/bin/../../lib/gcc/pic32mx/8.3.1/../../../../pic32mx/lib\libm.a(s_lib_ver.o)
 .debug_line    0x00000000000276c5      0x2e0 c:/program files/microchip/xc32/v4.20/bin/bin/../../lib/gcc/pic32mx/8.3.1\libgcc.a(_udivdi3.o)
 .debug_line    0x00000000000279a5      0x317 c:/program files/microchip/xc32/v4.20/bin/bin/../../lib/gcc/pic32mx/8.3.1\libgcc.a(_umoddi3.o)
 .debug_line    0x0000000000027cbc        0x0 c:/program files/microchip/xc32/v4.20/bin/bin/../../lib/gcc/pic32mx/8.3.1/../../../../pic32mx/lib\libpic32.a(errno.o)
 .debug_line    0x0000000000027cbc      0x153 c:/program files/microchip/xc32/v4.20/bin/bin/../../lib/gcc/pic32mx/8.3.1/../../../../pic32mx/lib\libpic32.a(isinf.o)
 .debug_line    0x0000000000027e0f       0xd0 c:/program files/microchip/xc32/v4.20/bin/bin/../../lib/gcc/pic32mx/8.3.1/../../../../pic32mx/lib\libe.a(_unorddf2.o)

.debug_frame    0x0000000000000000     0x8f50
 *.elf(.debug_frame)
 *(.debug_frame)
 .debug_frame   0x0000000000000000      0x18c output\tmr.o
 .debug_frame   0x000000000000018c       0xc4 output\ringBuffer.o
 .debug_frame   0x0000000000000250      0x1bc output\task.o
 .debug_frame   0x000000000000040c      0x138 output\eeprom.o
 .debug_frame   0x0000000000000544      0x22c output\eep_manager.o
 .debug_frame   0x0000000000000770      0x15c output\main.o
 .debug_frame   0x00000000000008cc      0x1ac output\app.o
 .debug_frame   0x0000000000000a78       0x90 output\ad.o
 .debug_frame   0x0000000000000b08      0x170 output\grbl_gcode.o
 .debug_frame   0x0000000000000c78       0xe0 output\grbl_limits.o
 .debug_frame   0x0000000000000d58       0x60 output\coolant_control.o
 .debug_frame   0x0000000000000db8      0x168 output\motion_control.o
 .debug_frame   0x0000000000000f20      0x17c output\nuts_bolts.o
 .debug_frame   0x000000000000109c      0x1f0 output\planner.o
 .debug_frame   0x000000000000128c      0x1e4 output\grbl_print.o
 .debug_frame   0x0000000000001470      0x3f0 output\grbl_report.o
 .debug_frame   0x0000000000001860       0xe8 output\settings.o
 .debug_frame   0x0000000000001948       0xa0 output\spindle_control.o
 .debug_frame   0x00000000000019e8      0x190 output\stepper.o
 .debug_frame   0x0000000000001b78      0x5c4 output\system.o
 .debug_frame   0x000000000000213c      0x158 output\grbl.o
 .debug_frame   0x0000000000002294      0x11c output\grbl_homing.o
 .debug_frame   0x00000000000023b0       0xa0 output\pwm.o
 .debug_frame   0x0000000000002450       0x30 output\jog.o
 .debug_frame   0x0000000000002480      0x248 output\dee.o
 .debug_frame   0x00000000000026c8      0x19c output\dee_page.o
 .debug_frame   0x0000000000002864       0xe0 output\dee_page_helper.o
 .debug_frame   0x0000000000002944       0x60 output\eep_manager_crc.o
 .debug_frame   0x00000000000029a4       0xd8 output\system_control.o
 .debug_frame   0x0000000000002a7c       0xec output\stepper_enable.o
 .debug_frame   0x0000000000002b68       0x74 output\system_exec.o
 .debug_frame   0x0000000000002bdc       0x74 output\system_alarm.o
 .debug_frame   0x0000000000002c50      0x124 output\grbl_eeprom.o
 .debug_frame   0x0000000000002d74       0x6c output\bootloader_interface.o
 .debug_frame   0x0000000000002de0       0x94 output\grbl_toolchange.o
 .debug_frame   0x0000000000002e74      0x170 output\grbl_protocol.o
 .debug_frame   0x0000000000002fe4       0x4c output\grbl_running.o
 .debug_frame   0x0000000000003030       0x68 output\grbl_bootloader.o
 .debug_frame   0x0000000000003098       0xe4 output\grbl_probe.o
 .debug_frame   0x000000000000317c       0xdc output\ethernet.o
 .debug_frame   0x0000000000003258      0x4c8 output\ENC28J60.o
 .debug_frame   0x0000000000003720      0x130 output\DHCP.o
 .debug_frame   0x0000000000003850       0xcc output\ARP.o
 .debug_frame   0x000000000000391c       0x50 output\Announce.o
 .debug_frame   0x000000000000396c      0x150 output\Helpers.o
 .debug_frame   0x0000000000003abc       0x30 output\ICMP.o
 .debug_frame   0x0000000000003aec       0x8c output\IP.o
 .debug_frame   0x0000000000003b78       0xbc output\StackTsk.o
 .debug_frame   0x0000000000003c34      0x248 output\UDP.o
 .debug_frame   0x0000000000003e7c      0x118 output\ethernet_grbl_multi.o
 .debug_frame   0x0000000000003f94      0x140 output\grbl_multi.o
 .debug_frame   0x00000000000040d4       0x3c output\Reboot.o
 .debug_frame   0x0000000000004110      0x480 output\TCP.o
 .debug_frame   0x0000000000004590      0x258 output\BerkeleyAPI.o
 .debug_frame   0x00000000000047e8       0xe0 output\mal.o
 .debug_frame   0x00000000000048c8      0xe14 output\isr.o
 .debug_frame   0x00000000000056dc       0x70 output\exceptions.o
 .debug_frame   0x000000000000574c       0x2c output\usb_device_cdc_acm.o
 .debug_frame   0x0000000000005778      0x188 output\usb_device_cdc.o
 .debug_frame   0x0000000000005900      0x450 output\usb_device.o
 .debug_frame   0x0000000000005d50       0xb8 output\usb_app.o
 .debug_frame   0x0000000000005e08       0x90 output\usb.o
 .debug_frame   0x0000000000005e98       0x2c output\system_tasks.o
 .debug_frame   0x0000000000005ec4       0xa0 output\sys_int_pic32.o
 .debug_frame   0x0000000000005f64       0x2c output\system_init.o
 .debug_frame   0x0000000000005f90     0x1318 output\peripheral.o
 .debug_frame   0x00000000000072a8      0x2fc output\drv_usbhs_device.o
 .debug_frame   0x00000000000075a4      0x114 output\drv_usbhs.o
 .debug_frame   0x00000000000076b8       0x50 output\bsp_sys_init.o
 .debug_frame   0x0000000000007708       0x5c output\stackmeasure.o
 .debug_frame   0x0000000000007764       0xcc output\noinitram.o
 .debug_frame   0x0000000000007830       0xd8 output\usb_grbl_multi.o
 .debug_frame   0x0000000000007908      0x134 output\sleep.o
 .debug_frame   0x0000000000007a3c      0x14c output\rtcconverter.o
 .debug_frame   0x0000000000007b88      0x310 output\rtc.o
 .debug_frame   0x0000000000007e98       0x50 output\daylight.o
 .debug_frame   0x0000000000007ee8       0x98 output\aes_128.o
 .debug_frame   0x0000000000007f80       0x48 output\aes_block.o
 .debug_frame   0x0000000000007fc8       0x78 output\aes_cbc.o
 .debug_frame   0x0000000000008040       0x44 output\aes_cbc_mac.o
 .debug_frame   0x0000000000008084       0xec output\aes_cmac.o
 .debug_frame   0x0000000000008170       0xc8 output\rijndael.o
 .debug_frame   0x0000000000008238       0x5c output\aes_challenge_response.o
 .debug_frame   0x0000000000008294      0x104 output\aes_key.o
 .debug_frame   0x0000000000008398       0x70 output\aes_ecb.o
 .debug_frame   0x0000000000008408       0x98 output\sha256.o
 .debug_frame   0x00000000000084a0      0x188 output\spi2.o
 .debug_frame   0x0000000000008628       0x30 c:/program files/microchip/xc32/v4.20/bin/bin/../../lib/gcc/pic32mx/8.3.1\libgcc.a(_fixunssfdi.o)
 .debug_frame   0x0000000000008658       0x34 c:/program files/microchip/xc32/v4.20/bin/bin/../../lib/gcc/pic32mx/8.3.1\libgcc.a(_floatundidf.o)
 .debug_frame   0x000000000000868c       0x2c c:/program files/microchip/xc32/v4.20/bin/bin/../../lib/gcc/pic32mx/8.3.1\libgcc.a(floatunsisf.o)
 .debug_frame   0x00000000000086b8       0x2c c:/program files/microchip/xc32/v4.20/bin/bin/../../lib/gcc/pic32mx/8.3.1\libgcc.a(floatunsidf.o)
 .debug_frame   0x00000000000086e4       0x2c c:/program files/microchip/xc32/v4.20/bin/bin/../../lib/gcc/pic32mx/8.3.1/../../../../pic32mx/lib\libpic32.a(default-bootstrap-exception-handler.o)
 .debug_frame   0x0000000000008710       0x20 c:/program files/microchip/xc32/v4.20/bin/bin/../../lib/gcc/pic32mx/8.3.1/../../../../pic32mx/lib\libpic32.a(default-on-reset.o)
 .debug_frame   0x0000000000008730       0x20 c:/program files/microchip/xc32/v4.20/bin/bin/../../lib/gcc/pic32mx/8.3.1/../../../../pic32mx/lib\libpic32.a(default-on-bootstrap.o)
 .debug_frame   0x0000000000008750       0x20 c:/program files/microchip/xc32/v4.20/bin/bin/../../lib/gcc/pic32mx/8.3.1/../../../../pic32mx/lib\libpic32.a(defaultinterrupt.o)
 .debug_frame   0x0000000000008770       0x2c c:/program files/microchip/xc32/v4.20/bin/bin/../../lib/gcc/pic32mx/8.3.1/../../../../pic32mx/lib\libpic32.a(default-cache-err-exception-handler.o)
 .debug_frame   0x000000000000879c       0x2c c:/program files/microchip/xc32/v4.20/bin/bin/../../lib/gcc/pic32mx/8.3.1/../../../../pic32mx/lib\libpic32.a(default-simple-tlb-refill-exception-handler.o)
 .debug_frame   0x00000000000087c8       0x48 c:/program files/microchip/xc32/v4.20/bin/bin/../../lib/gcc/pic32mx/8.3.1/../../../../pic32mx/lib\libc-musl.a(__sio_sprintf_doux.o)
 .debug_frame   0x0000000000008810       0x38 c:/program files/microchip/xc32/v4.20/bin/bin/../../lib/gcc/pic32mx/8.3.1/../../../../pic32mx/lib\libc-musl.a(__fmt_d.o)
 .debug_frame   0x0000000000008848       0x34 c:/program files/microchip/xc32/v4.20/bin/bin/../../lib/gcc/pic32mx/8.3.1/../../../../pic32mx/lib\libc-musl.a(__fmt_o.o)
 .debug_frame   0x000000000000887c       0x34 c:/program files/microchip/xc32/v4.20/bin/bin/../../lib/gcc/pic32mx/8.3.1/../../../../pic32mx/lib\libc-musl.a(__fmt_s.o)
 .debug_frame   0x00000000000088b0       0x64 c:/program files/microchip/xc32/v4.20/bin/bin/../../lib/gcc/pic32mx/8.3.1/../../../../pic32mx/lib\libc-musl.a(__fmt_u.o)
 .debug_frame   0x0000000000008914       0x40 c:/program files/microchip/xc32/v4.20/bin/bin/../../lib/gcc/pic32mx/8.3.1/../../../../pic32mx/lib\libc-musl.a(__fmt_x.o)
 .debug_frame   0x0000000000008954       0x20 c:/program files/microchip/xc32/v4.20/bin/bin/../../lib/gcc/pic32mx/8.3.1/../../../../pic32mx/lib\libc-musl.a(__pop_int.o)
 .debug_frame   0x0000000000008974       0x20 c:/program files/microchip/xc32/v4.20/bin/bin/../../lib/gcc/pic32mx/8.3.1/../../../../pic32mx/lib\libc-musl.a(__pop_ptr.o)
 .debug_frame   0x0000000000008994       0xcc c:/program files/microchip/xc32/v4.20/bin/bin/../../lib/gcc/pic32mx/8.3.1/../../../../pic32mx/lib\libc-musl.a(__printf_core.o)
 .debug_frame   0x0000000000008a60       0x20 c:/program files/microchip/xc32/v4.20/bin/bin/../../lib/gcc/pic32mx/8.3.1/../../../../pic32mx/lib\libc-musl.a(atoi.o)
 .debug_frame   0x0000000000008a80       0x20 c:/program files/microchip/xc32/v4.20/bin/bin/../../lib/gcc/pic32mx/8.3.1/../../../../pic32mx/lib\libc-musl.a(strncmp.o)
 .debug_frame   0x0000000000008aa0       0x2c c:/program files/microchip/xc32/v4.20/bin/bin/../../lib/gcc/pic32mx/8.3.1/../../../../pic32mx/lib\libc-musl.a(strncpy.o)
 .debug_frame   0x0000000000008acc       0x3c c:/program files/microchip/xc32/v4.20/bin/bin/../../lib/gcc/pic32mx/8.3.1/../../../../pic32mx/lib\libc-musl.a(tolower.o)
 .debug_frame   0x0000000000008b08       0x3c c:/program files/microchip/xc32/v4.20/bin/bin/../../lib/gcc/pic32mx/8.3.1/../../../../pic32mx/lib\libc-musl.a(toupper.o)
 .debug_frame   0x0000000000008b44       0x2c c:/program files/microchip/xc32/v4.20/bin/bin/../../lib/gcc/pic32mx/8.3.1/../../../../pic32mx/lib\libc-musl.a(__int_vsprintf.o)
 .debug_frame   0x0000000000008b70       0x20 c:/program files/microchip/xc32/v4.20/bin/bin/../../lib/gcc/pic32mx/8.3.1/../../../../pic32mx/lib\libc-musl.a(__pop_float.o)
 .debug_frame   0x0000000000008b90       0x20 c:/program files/microchip/xc32/v4.20/bin/bin/../../lib/gcc/pic32mx/8.3.1/../../../../pic32mx/lib\libc-musl.a(stpncpy.o)
 .debug_frame   0x0000000000008bb0       0x2c c:/program files/microchip/xc32/v4.20/bin/bin/../../lib/gcc/pic32mx/8.3.1/../../../../pic32mx/lib\libc-musl.a(__int_vsnprintf.o)
 .debug_frame   0x0000000000008bdc       0x2c c:/program files/microchip/xc32/v4.20/bin/bin/../../lib/gcc/pic32mx/8.3.1/../../../../pic32mx/lib\libc-musl.a(__int_vfprintf.o)
 .debug_frame   0x0000000000008c08       0x50 c:/program files/microchip/xc32/v4.20/bin/bin/../../lib/gcc/pic32mx/8.3.1/../../../../pic32mx/lib\libm.a(atan2.o)
 .debug_frame   0x0000000000008c58       0x34 c:/program files/microchip/xc32/v4.20/bin/bin/../../lib/gcc/pic32mx/8.3.1/../../../../pic32mx/lib\libm.a(w_sqrt.o)
 .debug_frame   0x0000000000008c8c      0x184 c:/program files/microchip/xc32/v4.20/bin/bin/../../lib/gcc/pic32mx/8.3.1/../../../../pic32mx/lib\libm.a(support.o)
 .debug_frame   0x0000000000008e10       0x30 c:/program files/microchip/xc32/v4.20/bin/bin/../../lib/gcc/pic32mx/8.3.1/../../../../pic32mx/lib\libm.a(w_ldexp.o)
 .debug_frame   0x0000000000008e40       0x20 c:/program files/microchip/xc32/v4.20/bin/bin/../../lib/gcc/pic32mx/8.3.1\libgcc.a(_udivdi3.o)
 .debug_frame   0x0000000000008e60       0x20 c:/program files/microchip/xc32/v4.20/bin/bin/../../lib/gcc/pic32mx/8.3.1\libgcc.a(_umoddi3.o)
 .debug_frame   0x0000000000008e80       0xb0 c:/program files/microchip/xc32/v4.20/bin/bin/../../lib/gcc/pic32mx/8.3.1/../../../../pic32mx/lib\libpic32.a(isinf.o)
 .debug_frame   0x0000000000008f30       0x20 c:/program files/microchip/xc32/v4.20/bin/bin/../../lib/gcc/pic32mx/8.3.1/../../../../pic32mx/lib\libe.a(_unorddf2.o)

.debug_str      0x0000000000000000    0x4a205
 *.elf(.debug_str)
 *(.debug_str)
 .debug_str     0x0000000000000000      0x3ec output\tmr.o
 .debug_str     0x00000000000003ec      0x35a output\ringBuffer.o
 .debug_str     0x0000000000000746      0x491 output\task.o
 .debug_str     0x0000000000000bd7      0x39d output\eeprom.o
 .debug_str     0x0000000000000f74      0x91c output\eep_manager.o
 .debug_str     0x0000000000001890      0xb82 output\main.o
 .debug_str     0x0000000000002412      0x976 output\c_eep_manager.o
 .debug_str     0x0000000000002d88      0x5a3 output\app.o
 .debug_str     0x000000000000332b      0x348 output\ad.o
 .debug_str     0x0000000000003673      0xc87 output\grbl_gcode.o
 .debug_str     0x00000000000042fa      0x96a output\grbl_limits.o
 .debug_str     0x0000000000004c64      0x33b output\coolant_control.o
 .debug_str     0x0000000000004f9f      0x89a output\motion_control.o
 .debug_str     0x0000000000005839      0x4ce output\nuts_bolts.o
 .debug_str     0x0000000000005d07      0x975 output\planner.o
 .debug_str     0x000000000000667c      0x4de output\grbl_print.o
 .debug_str     0x0000000000006b5a     0x17db output\grbl_report.o
 .debug_str     0x0000000000008335      0x5ff output\settings.o
 .debug_str     0x0000000000008934      0x6a6 output\spindle_control.o
 .debug_str     0x0000000000008fda      0xce9 output\stepper.o
 .debug_str     0x0000000000009cc3     0x12d8 output\system.o
 .debug_str     0x000000000000af9b      0xc68 output\grbl.o
 .debug_str     0x000000000000bc03      0x9c6 output\grbl_homing.o
 .debug_str     0x000000000000c5c9      0x3ca output\pwm.o
 .debug_str     0x000000000000c993      0x61b output\jog.o
 .debug_str     0x000000000000cfae      0x9a5 output\dee.o
 .debug_str     0x000000000000d953      0x5f1 output\dee_page.o
 .debug_str     0x000000000000df44      0x3ec output\dee_page_helper.o
 .debug_str     0x000000000000e330      0x4fa output\eep_manager_crc.o
 .debug_str     0x000000000000e82a      0x5be output\system_control.o
 .debug_str     0x000000000000ede8      0x58a output\stepper_enable.o
 .debug_str     0x000000000000f372      0x2ad output\system_exec.o
 .debug_str     0x000000000000f61f      0x2a0 output\system_alarm.o
 .debug_str     0x000000000000f8bf      0xc68 output\grbl_eeprom.o
 .debug_str     0x0000000000010527      0x2f4 output\bootloader_interface.o
 .debug_str     0x000000000001081b      0x668 output\grbl_toolchange.o
 .debug_str     0x0000000000010e83      0xd74 output\grbl_protocol.o
 .debug_str     0x0000000000011bf7      0x637 output\grbl_running.o
 .debug_str     0x000000000001222e      0x58e output\grbl_bootloader.o
 .debug_str     0x00000000000127bc      0x7e3 output\grbl_probe.o
 .debug_str     0x0000000000012f9f      0x7ee output\ethernet.o
 .debug_str     0x000000000001378d     0x1118 output\ENC28J60.o
 .debug_str     0x00000000000148a5      0x7de output\DHCP.o
 .debug_str     0x0000000000015083      0x4bc output\ARP.o
 .debug_str     0x000000000001553f      0x53b output\Announce.o
 .debug_str     0x0000000000015a7a      0x400 output\Helpers.o
 .debug_str     0x0000000000015e7a      0x2f8 output\ICMP.o
 .debug_str     0x0000000000016172      0x49c output\IP.o
 .debug_str     0x000000000001660e      0x62b output\StackTsk.o
 .debug_str     0x0000000000016c39      0x7bc output\UDP.o
 .debug_str     0x00000000000173f5      0x756 output\ethernet_grbl_multi.o
 .debug_str     0x0000000000017b4b      0x357 output\grbl_multi.o
 .debug_str     0x0000000000017ea2      0x433 output\Reboot.o
 .debug_str     0x00000000000182d5      0xe73 output\TCP.o
 .debug_str     0x0000000000019148      0x887 output\BerkeleyAPI.o
 .debug_str     0x00000000000199cf      0x6d5 output\mal.o
 .debug_str     0x000000000001a0a4      0xc9e output\isr.o
 .debug_str     0x000000000001ad42      0x42d output\exceptions.o
 .debug_str     0x000000000001b16f      0xc87 output\usb_device_cdc_acm.o
 .debug_str     0x000000000001bdf6     0x2ffa output\usb_device_cdc.o
 .debug_str     0x000000000001edf0     0x3b4f output\usb_device.o
 .debug_str     0x000000000002293f     0x2358 output\usb_app.o
 .debug_str     0x0000000000024c97      0x952 output\usb.o
 .debug_str     0x00000000000255e9      0x296 output\system_tasks.o
 .debug_str     0x000000000002587f     0x175b output\sys_int_pic32.o
 .debug_str     0x0000000000026fda     0x4516 output\system_init.o
 .debug_str     0x000000000002b4f0     0x989e output\peripheral.o
 .debug_str     0x0000000000034d8e     0x44be output\drv_usbhs_device.o
 .debug_str     0x000000000003924c     0x2ce7 output\drv_usbhs.o
 .debug_str     0x000000000003bf33      0x65e output\bsp_sys_init.o
 .debug_str     0x000000000003c591      0x22f output\stackmeasure.o
 .debug_str     0x000000000003c7c0      0x539 output\noinitram.o
 .debug_str     0x000000000003ccf9      0x3e8 output\usb_grbl_multi.o
 .debug_str     0x000000000003d0e1      0x675 output\sleep.o
 .debug_str     0x000000000003d756      0x43b output\rtcconverter.o
 .debug_str     0x000000000003db91      0x470 output\rtc.o
 .debug_str     0x000000000003e001      0x245 output\daylight.o
 .debug_str     0x000000000003e246      0x31d output\aes_128.o
 .debug_str     0x000000000003e563      0x377 output\aes_block.o
 .debug_str     0x000000000003e8da      0x397 output\aes_cbc.o
 .debug_str     0x000000000003ec71      0x379 output\aes_cbc_mac.o
 .debug_str     0x000000000003efea      0x5cf output\aes_cmac.o
 .debug_str     0x000000000003f5b9      0x406 output\rijndael.o
 .debug_str     0x000000000003f9bf      0x3b8 output\aes_challenge_response.o
 .debug_str     0x000000000003fd77      0x565 output\aes_key.o
 .debug_str     0x00000000000402dc      0x389 output\aes_ecb.o
 .debug_str     0x0000000000040665      0x1fc output\MQTT.o
 .debug_str     0x0000000000040861      0x202 output\MQTTclient.o
 .debug_str     0x0000000000040a63      0x1ff output\DNS.o
 .debug_str     0x0000000000040c62      0x200 output\sntp.o
 .debug_str     0x0000000000040e62      0x1f4 output\random.o
 .debug_str     0x0000000000041056      0x28e output\sha256.o
 .debug_str     0x00000000000412e4      0x68a output\spi2.o
 .debug_str     0x000000000004196e      0x200 output\wget.o
 .debug_str     0x0000000000041b6e      0x35d c:/program files/microchip/xc32/v4.20/bin/bin/../../lib/gcc/pic32mx/8.3.1\libgcc.a(_fixunssfdi.o)
 .debug_str     0x0000000000041ecb      0x357 c:/program files/microchip/xc32/v4.20/bin/bin/../../lib/gcc/pic32mx/8.3.1\libgcc.a(_floatundidf.o)
 .debug_str     0x0000000000042222      0x2c9 c:/program files/microchip/xc32/v4.20/bin/bin/../../lib/gcc/pic32mx/8.3.1\libgcc.a(floatunsisf.o)
 .debug_str     0x00000000000424eb      0x2ca c:/program files/microchip/xc32/v4.20/bin/bin/../../lib/gcc/pic32mx/8.3.1\libgcc.a(floatunsidf.o)
 .debug_str     0x00000000000427b5      0x373 c:/program files/microchip/xc32/v4.20/bin/bin/../../lib/gcc/pic32mx/8.3.1/../../../../pic32mx/lib\libpic32.a(default-bootstrap-exception-handler.o)
 .debug_str     0x0000000000042b28      0x34d c:/program files/microchip/xc32/v4.20/bin/bin/../../lib/gcc/pic32mx/8.3.1/../../../../pic32mx/lib\libpic32.a(default-on-reset.o)
 .debug_str     0x0000000000042e75      0x355 c:/program files/microchip/xc32/v4.20/bin/bin/../../lib/gcc/pic32mx/8.3.1/../../../../pic32mx/lib\libpic32.a(default-on-bootstrap.o)
 .debug_str     0x00000000000431ca      0x367 c:/program files/microchip/xc32/v4.20/bin/bin/../../lib/gcc/pic32mx/8.3.1/../../../../pic32mx/lib\libpic32.a(defaultinterrupt.o)
 .debug_str     0x0000000000043531      0x373 c:/program files/microchip/xc32/v4.20/bin/bin/../../lib/gcc/pic32mx/8.3.1/../../../../pic32mx/lib\libpic32.a(default-cache-err-exception-handler.o)
 .debug_str     0x00000000000438a4      0x383 c:/program files/microchip/xc32/v4.20/bin/bin/../../lib/gcc/pic32mx/8.3.1/../../../../pic32mx/lib\libpic32.a(default-simple-tlb-refill-exception-handler.o)
 .debug_str     0x0000000000043c27      0x41c c:/program files/microchip/xc32/v4.20/bin/bin/../../lib/gcc/pic32mx/8.3.1/../../../../pic32mx/lib\libc-musl.a(__sio_sprintf_doux.o)
 .debug_str     0x0000000000044043      0x3e1 c:/program files/microchip/xc32/v4.20/bin/bin/../../lib/gcc/pic32mx/8.3.1/../../../../pic32mx/lib\libc-musl.a(__fmt_d.o)
 .debug_str     0x0000000000044424      0x3e1 c:/program files/microchip/xc32/v4.20/bin/bin/../../lib/gcc/pic32mx/8.3.1/../../../../pic32mx/lib\libc-musl.a(__fmt_o.o)
 .debug_str     0x0000000000044805      0x3cd c:/program files/microchip/xc32/v4.20/bin/bin/../../lib/gcc/pic32mx/8.3.1/../../../../pic32mx/lib\libc-musl.a(__fmt_s.o)
 .debug_str     0x0000000000044bd2      0x3e6 c:/program files/microchip/xc32/v4.20/bin/bin/../../lib/gcc/pic32mx/8.3.1/../../../../pic32mx/lib\libc-musl.a(__fmt_u.o)
 .debug_str     0x0000000000044fb8      0x3e1 c:/program files/microchip/xc32/v4.20/bin/bin/../../lib/gcc/pic32mx/8.3.1/../../../../pic32mx/lib\libc-musl.a(__fmt_x.o)
 .debug_str     0x0000000000045399      0x3ba c:/program files/microchip/xc32/v4.20/bin/bin/../../lib/gcc/pic32mx/8.3.1/../../../../pic32mx/lib\libc-musl.a(__pop_int.o)
 .debug_str     0x0000000000045753      0x3bc c:/program files/microchip/xc32/v4.20/bin/bin/../../lib/gcc/pic32mx/8.3.1/../../../../pic32mx/lib\libc-musl.a(__pop_ptr.o)
 .debug_str     0x0000000000045b0f      0x4c9 c:/program files/microchip/xc32/v4.20/bin/bin/../../lib/gcc/pic32mx/8.3.1/../../../../pic32mx/lib\libc-musl.a(__printf_core.o)
 .debug_str     0x0000000000045fd8      0x31a c:/program files/microchip/xc32/v4.20/bin/bin/../../lib/gcc/pic32mx/8.3.1/../../../../pic32mx/lib\libc-musl.a(atoi.o)
 .debug_str     0x00000000000462f2      0x314 c:/program files/microchip/xc32/v4.20/bin/bin/../../lib/gcc/pic32mx/8.3.1/../../../../pic32mx/lib\libc-musl.a(strncmp.o)
 .debug_str     0x0000000000046606      0x310 c:/program files/microchip/xc32/v4.20/bin/bin/../../lib/gcc/pic32mx/8.3.1/../../../../pic32mx/lib\libc-musl.a(strncpy.o)
 .debug_str     0x0000000000046916      0x347 c:/program files/microchip/xc32/v4.20/bin/bin/../../lib/gcc/pic32mx/8.3.1/../../../../pic32mx/lib\libc-musl.a(tolower.o)
 .debug_str     0x0000000000046c5d      0x347 c:/program files/microchip/xc32/v4.20/bin/bin/../../lib/gcc/pic32mx/8.3.1/../../../../pic32mx/lib\libc-musl.a(toupper.o)
 .debug_str     0x0000000000046fa4      0x395 c:/program files/microchip/xc32/v4.20/bin/bin/../../lib/gcc/pic32mx/8.3.1/../../../../pic32mx/lib\libc-musl.a(__int_vsprintf.o)
 .debug_str     0x0000000000047339      0x3af c:/program files/microchip/xc32/v4.20/bin/bin/../../lib/gcc/pic32mx/8.3.1/../../../../pic32mx/lib\libc-musl.a(__pop_float.o)
 .debug_str     0x00000000000476e8      0x32a c:/program files/microchip/xc32/v4.20/bin/bin/../../lib/gcc/pic32mx/8.3.1/../../../../pic32mx/lib\libc-musl.a(stpncpy.o)
 .debug_str     0x0000000000047a12      0x3dd c:/program files/microchip/xc32/v4.20/bin/bin/../../lib/gcc/pic32mx/8.3.1/../../../../pic32mx/lib\libc-musl.a(__int_vsnprintf.o)
 .debug_str     0x0000000000047def      0x3d8 c:/program files/microchip/xc32/v4.20/bin/bin/../../lib/gcc/pic32mx/8.3.1/../../../../pic32mx/lib\libc-musl.a(__int_vfprintf.o)
 .debug_str     0x00000000000481c7      0x2f5 c:/program files/microchip/xc32/v4.20/bin/bin/../../lib/gcc/pic32mx/8.3.1/../../../../pic32mx/lib\libm.a(atan2.o)
 .debug_str     0x00000000000484bc      0x2f6 c:/program files/microchip/xc32/v4.20/bin/bin/../../lib/gcc/pic32mx/8.3.1/../../../../pic32mx/lib\libm.a(w_sqrt.o)
 .debug_str     0x00000000000487b2      0x345 c:/program files/microchip/xc32/v4.20/bin/bin/../../lib/gcc/pic32mx/8.3.1/../../../../pic32mx/lib\libm.a(support.o)
 .debug_str     0x0000000000048af7      0x2ff c:/program files/microchip/xc32/v4.20/bin/bin/../../lib/gcc/pic32mx/8.3.1/../../../../pic32mx/lib\libm.a(w_ldexp.o)
 .debug_str     0x0000000000048df6      0x2f3 c:/program files/microchip/xc32/v4.20/bin/bin/../../lib/gcc/pic32mx/8.3.1/../../../../pic32mx/lib\libm.a(s_lib_ver.o)
 .debug_str     0x00000000000490e9      0x3be c:/program files/microchip/xc32/v4.20/bin/bin/../../lib/gcc/pic32mx/8.3.1\libgcc.a(_udivdi3.o)
 .debug_str     0x00000000000494a7      0x3be c:/program files/microchip/xc32/v4.20/bin/bin/../../lib/gcc/pic32mx/8.3.1\libgcc.a(_umoddi3.o)
 .debug_str     0x0000000000049865      0x338 c:/program files/microchip/xc32/v4.20/bin/bin/../../lib/gcc/pic32mx/8.3.1/../../../../pic32mx/lib\libpic32.a(errno.o)
 .debug_str     0x0000000000049b9d      0x360 c:/program files/microchip/xc32/v4.20/bin/bin/../../lib/gcc/pic32mx/8.3.1/../../../../pic32mx/lib\libpic32.a(isinf.o)
 .debug_str     0x0000000000049efd      0x308 c:/program files/microchip/xc32/v4.20/bin/bin/../../lib/gcc/pic32mx/8.3.1/../../../../pic32mx/lib\libe.a(_unorddf2.o)

.debug_loc      0x0000000000000000    0x28818
 *.elf(.debug_loc)
 *(.debug_loc)
 .debug_loc     0x0000000000000000      0x264 output\tmr.o
 .debug_loc     0x0000000000000264      0x567 output\ringBuffer.o
 .debug_loc     0x00000000000007cb      0x4eb output\task.o
 .debug_loc     0x0000000000000cb6      0x408 output\eeprom.o
 .debug_loc     0x00000000000010be      0x9f1 output\eep_manager.o
 .debug_loc     0x0000000000001aaf       0x2c output\main.o
 .debug_loc     0x0000000000001adb       0xb0 output\app.o
 .debug_loc     0x0000000000001b8b       0x23 output\ad.o
 .debug_loc     0x0000000000001bae      0xc1c output\grbl_gcode.o
 .debug_loc     0x00000000000027ca      0x257 output\grbl_limits.o
 .debug_loc     0x0000000000002a21       0x18 output\coolant_control.o
 .debug_loc     0x0000000000002a39      0x831 output\motion_control.o
 .debug_loc     0x000000000000326a      0x951 output\nuts_bolts.o
 .debug_loc     0x0000000000003bbb      0x817 output\planner.o
 .debug_loc     0x00000000000043d2      0x942 output\grbl_print.o
 .debug_loc     0x0000000000004d14      0x6eb output\grbl_report.o
 .debug_loc     0x00000000000053ff      0x552 output\settings.o
 .debug_loc     0x0000000000005951      0x469 output\spindle_control.o
 .debug_loc     0x0000000000005dba      0x865 output\stepper.o
 .debug_loc     0x000000000000661f      0x983 output\system.o
 .debug_loc     0x0000000000006fa2       0x99 output\grbl.o
 .debug_loc     0x000000000000703b      0x231 output\grbl_homing.o
 .debug_loc     0x000000000000726c      0x1c1 output\pwm.o
 .debug_loc     0x000000000000742d       0x64 output\jog.o
 .debug_loc     0x0000000000007491      0xcdb output\dee.o
 .debug_loc     0x000000000000816c      0xc98 output\dee_page.o
 .debug_loc     0x0000000000008e04      0x5fe output\dee_page_helper.o
 .debug_loc     0x0000000000009402      0x606 output\eep_manager_crc.o
 .debug_loc     0x0000000000009a08      0x15d output\stepper_enable.o
 .debug_loc     0x0000000000009b65       0x6d output\system_exec.o
 .debug_loc     0x0000000000009bd2       0x23 output\system_alarm.o
 .debug_loc     0x0000000000009bf5      0x1ae output\grbl_eeprom.o
 .debug_loc     0x0000000000009da3       0x15 output\bootloader_interface.o
 .debug_loc     0x0000000000009db8       0xa5 output\grbl_toolchange.o
 .debug_loc     0x0000000000009e5d      0x74d output\grbl_protocol.o
 .debug_loc     0x000000000000a5aa      0x18b output\grbl_probe.o
 .debug_loc     0x000000000000a735      0x106 output\ethernet.o
 .debug_loc     0x000000000000a83b      0xe87 output\ENC28J60.o
 .debug_loc     0x000000000000b6c2      0x2bd output\DHCP.o
 .debug_loc     0x000000000000b97f      0x12a output\ARP.o
 .debug_loc     0x000000000000baa9       0x39 output\Announce.o
 .debug_loc     0x000000000000bae2      0x9ff output\Helpers.o
 .debug_loc     0x000000000000c4e1       0x57 output\ICMP.o
 .debug_loc     0x000000000000c538      0x1b2 output\IP.o
 .debug_loc     0x000000000000c6ea       0x9d output\StackTsk.o
 .debug_loc     0x000000000000c787      0x74e output\UDP.o
 .debug_loc     0x000000000000ced5      0x2fb output\ethernet_grbl_multi.o
 .debug_loc     0x000000000000d1d0       0x73 output\grbl_multi.o
 .debug_loc     0x000000000000d243       0x84 output\Reboot.o
 .debug_loc     0x000000000000d2c7     0x2510 output\TCP.o
 .debug_loc     0x000000000000f7d7     0x1410 output\BerkeleyAPI.o
 .debug_loc     0x0000000000010be7      0x290 output\mal.o
 .debug_loc     0x0000000000010e77      0x154 output\exceptions.o
 .debug_loc     0x0000000000010fcb      0x24d output\usb_device_cdc_acm.o
 .debug_loc     0x0000000000011218     0x111c output\usb_device_cdc.o
 .debug_loc     0x0000000000012334     0x2273 output\usb_device.o
 .debug_loc     0x00000000000145a7      0x5fe output\usb_app.o
 .debug_loc     0x0000000000014ba5      0x3af output\sys_int_pic32.o
 .debug_loc     0x0000000000014f54      0x161 output\system_init.o
 .debug_loc     0x00000000000150b5     0x54e6 output\peripheral.o
 .debug_loc     0x000000000001a59b     0x5b53 output\drv_usbhs_device.o
 .debug_loc     0x00000000000200ee      0xb2c output\drv_usbhs.o
 .debug_loc     0x0000000000020c1a      0x155 output\bsp_sys_init.o
 .debug_loc     0x0000000000020d6f       0x64 output\stackmeasure.o
 .debug_loc     0x0000000000020dd3      0x372 output\noinitram.o
 .debug_loc     0x0000000000021145       0x66 output\usb_grbl_multi.o
 .debug_loc     0x00000000000211ab      0x201 output\sleep.o
 .debug_loc     0x00000000000213ac      0x9d0 output\rtcconverter.o
 .debug_loc     0x0000000000021d7c      0x896 output\rtc.o
 .debug_loc     0x0000000000022612      0x25c output\daylight.o
 .debug_loc     0x000000000002286e       0xe3 output\aes_128.o
 .debug_loc     0x0000000000022951      0x22c output\aes_block.o
 .debug_loc     0x0000000000022b7d      0x27a output\aes_cbc.o
 .debug_loc     0x0000000000022df7      0x153 output\aes_cbc_mac.o
 .debug_loc     0x0000000000022f4a      0x60e output\aes_cmac.o
 .debug_loc     0x0000000000023558      0xde4 output\rijndael.o
 .debug_loc     0x000000000002433c      0x1c6 output\aes_challenge_response.o
 .debug_loc     0x0000000000024502      0x466 output\aes_key.o
 .debug_loc     0x0000000000024968      0x41a output\aes_ecb.o
 .debug_loc     0x0000000000024d82      0x6ed output\sha256.o
 .debug_loc     0x000000000002546f      0x590 output\spi2.o
 .debug_loc     0x00000000000259ff       0xc2 c:/program files/microchip/xc32/v4.20/bin/bin/../../lib/gcc/pic32mx/8.3.1\libgcc.a(_fixunssfdi.o)
 .debug_loc     0x0000000000025ac1       0x86 c:/program files/microchip/xc32/v4.20/bin/bin/../../lib/gcc/pic32mx/8.3.1\libgcc.a(_floatundidf.o)
 .debug_loc     0x0000000000025b47       0x84 c:/program files/microchip/xc32/v4.20/bin/bin/../../lib/gcc/pic32mx/8.3.1\libgcc.a(floatunsisf.o)
 .debug_loc     0x0000000000025bcb       0x90 c:/program files/microchip/xc32/v4.20/bin/bin/../../lib/gcc/pic32mx/8.3.1\libgcc.a(floatunsidf.o)
 .debug_loc     0x0000000000025c5b       0x2c c:/program files/microchip/xc32/v4.20/bin/bin/../../lib/gcc/pic32mx/8.3.1/../../../../pic32mx/lib\libpic32.a(default-bootstrap-exception-handler.o)
 .debug_loc     0x0000000000025c87       0x2c c:/program files/microchip/xc32/v4.20/bin/bin/../../lib/gcc/pic32mx/8.3.1/../../../../pic32mx/lib\libpic32.a(default-cache-err-exception-handler.o)
 .debug_loc     0x0000000000025cb3       0x2c c:/program files/microchip/xc32/v4.20/bin/bin/../../lib/gcc/pic32mx/8.3.1/../../../../pic32mx/lib\libpic32.a(default-simple-tlb-refill-exception-handler.o)
 .debug_loc     0x0000000000025cdf       0x5f c:/program files/microchip/xc32/v4.20/bin/bin/../../lib/gcc/pic32mx/8.3.1/../../../../pic32mx/lib\libc-musl.a(__sio_sprintf_doux.o)
 .debug_loc     0x0000000000025d3e      0x241 c:/program files/microchip/xc32/v4.20/bin/bin/../../lib/gcc/pic32mx/8.3.1/../../../../pic32mx/lib\libc-musl.a(__fmt_d.o)
 .debug_loc     0x0000000000025f7f       0xf2 c:/program files/microchip/xc32/v4.20/bin/bin/../../lib/gcc/pic32mx/8.3.1/../../../../pic32mx/lib\libc-musl.a(__fmt_o.o)
 .debug_loc     0x0000000000026071      0x11f c:/program files/microchip/xc32/v4.20/bin/bin/../../lib/gcc/pic32mx/8.3.1/../../../../pic32mx/lib\libc-musl.a(__fmt_s.o)
 .debug_loc     0x0000000000026190      0x2f0 c:/program files/microchip/xc32/v4.20/bin/bin/../../lib/gcc/pic32mx/8.3.1/../../../../pic32mx/lib\libc-musl.a(__fmt_u.o)
 .debug_loc     0x0000000000026480      0x2b8 c:/program files/microchip/xc32/v4.20/bin/bin/../../lib/gcc/pic32mx/8.3.1/../../../../pic32mx/lib\libc-musl.a(__fmt_x.o)
 .debug_loc     0x0000000000026738       0x40 c:/program files/microchip/xc32/v4.20/bin/bin/../../lib/gcc/pic32mx/8.3.1/../../../../pic32mx/lib\libc-musl.a(__pop_ptr.o)
 .debug_loc     0x0000000000026778      0x51f c:/program files/microchip/xc32/v4.20/bin/bin/../../lib/gcc/pic32mx/8.3.1/../../../../pic32mx/lib\libc-musl.a(__printf_core.o)
 .debug_loc     0x0000000000026c97       0xbe c:/program files/microchip/xc32/v4.20/bin/bin/../../lib/gcc/pic32mx/8.3.1/../../../../pic32mx/lib\libc-musl.a(atoi.o)
 .debug_loc     0x0000000000026d55       0xec c:/program files/microchip/xc32/v4.20/bin/bin/../../lib/gcc/pic32mx/8.3.1/../../../../pic32mx/lib\libc-musl.a(strncmp.o)
 .debug_loc     0x0000000000026e41       0x79 c:/program files/microchip/xc32/v4.20/bin/bin/../../lib/gcc/pic32mx/8.3.1/../../../../pic32mx/lib\libc-musl.a(strncpy.o)
 .debug_loc     0x0000000000026eba       0x89 c:/program files/microchip/xc32/v4.20/bin/bin/../../lib/gcc/pic32mx/8.3.1/../../../../pic32mx/lib\libc-musl.a(__int_vsprintf.o)
 .debug_loc     0x0000000000026f43       0xea c:/program files/microchip/xc32/v4.20/bin/bin/../../lib/gcc/pic32mx/8.3.1/../../../../pic32mx/lib\libc-musl.a(stpncpy.o)
 .debug_loc     0x000000000002702d      0x113 c:/program files/microchip/xc32/v4.20/bin/bin/../../lib/gcc/pic32mx/8.3.1/../../../../pic32mx/lib\libc-musl.a(__int_vsnprintf.o)
 .debug_loc     0x0000000000027140       0x9f c:/program files/microchip/xc32/v4.20/bin/bin/../../lib/gcc/pic32mx/8.3.1/../../../../pic32mx/lib\libc-musl.a(__int_vfprintf.o)
 .debug_loc     0x00000000000271df       0x21 c:/program files/microchip/xc32/v4.20/bin/bin/../../lib/gcc/pic32mx/8.3.1/../../../../pic32mx/lib\libm.a(atan2.o)
 .debug_loc     0x0000000000027200       0x2c c:/program files/microchip/xc32/v4.20/bin/bin/../../lib/gcc/pic32mx/8.3.1/../../../../pic32mx/lib\libm.a(w_sqrt.o)
 .debug_loc     0x000000000002722c      0x181 c:/program files/microchip/xc32/v4.20/bin/bin/../../lib/gcc/pic32mx/8.3.1/../../../../pic32mx/lib\libm.a(support.o)
 .debug_loc     0x00000000000273ad       0x2c c:/program files/microchip/xc32/v4.20/bin/bin/../../lib/gcc/pic32mx/8.3.1/../../../../pic32mx/lib\libm.a(w_ldexp.o)
 .debug_loc     0x00000000000273d9      0x9f5 c:/program files/microchip/xc32/v4.20/bin/bin/../../lib/gcc/pic32mx/8.3.1\libgcc.a(_udivdi3.o)
 .debug_loc     0x0000000000027dce      0x99a c:/program files/microchip/xc32/v4.20/bin/bin/../../lib/gcc/pic32mx/8.3.1\libgcc.a(_umoddi3.o)
 .debug_loc     0x0000000000028768       0xb0 c:/program files/microchip/xc32/v4.20/bin/bin/../../lib/gcc/pic32mx/8.3.1/../../../../pic32mx/lib\libpic32.a(isinf.o)

.debug_macinfo
 *.elf(.debug_macinfo)
 *(.debug_macinfo)

.debug_weaknames
 *.elf(.debug_weaknames)
 *(.debug_weaknames)

.debug_funcnames
 *.elf(.debug_funcnames)
 *(.debug_funcnames)

.debug_typenames
 *.elf(.debug_typenames)
 *(.debug_typenames)

.debug_varnames
 *.elf(.debug_varnames)
 *(.debug_varnames)

.debug_pubtypes
 *.elf(.debug_pubtypes)
 *(.debug_pubtypes)

.debug_ranges   0x0000000000000000     0x3800
 *.elf(.debug_ranges)
 *(.debug_ranges)
 .debug_ranges  0x0000000000000000       0x10 output\tmr.o
 .debug_ranges  0x0000000000000010      0x100 output\eep_manager.o
 .debug_ranges  0x0000000000000110      0x190 output\grbl_gcode.o
 .debug_ranges  0x00000000000002a0       0x18 output\grbl_limits.o
 .debug_ranges  0x00000000000002b8       0x48 output\planner.o
 .debug_ranges  0x0000000000000300       0x18 output\grbl_report.o
 .debug_ranges  0x0000000000000318       0x68 output\settings.o
 .debug_ranges  0x0000000000000380       0x30 output\spindle_control.o
 .debug_ranges  0x00000000000003b0      0x160 output\stepper.o
 .debug_ranges  0x0000000000000510       0x20 output\system.o
 .debug_ranges  0x0000000000000530       0x18 output\grbl_homing.o
 .debug_ranges  0x0000000000000548      0x170 output\dee.o
 .debug_ranges  0x00000000000006b8       0x28 output\dee_page.o
 .debug_ranges  0x00000000000006e0       0xd8 output\dee_page_helper.o
 .debug_ranges  0x00000000000007b8       0x40 output\stepper_enable.o
 .debug_ranges  0x00000000000007f8       0x30 output\grbl_protocol.o
 .debug_ranges  0x0000000000000828       0x20 output\grbl_probe.o
 .debug_ranges  0x0000000000000848       0x58 output\ENC28J60.o
 .debug_ranges  0x00000000000008a0       0x48 output\UDP.o
 .debug_ranges  0x00000000000008e8       0x30 output\ethernet_grbl_multi.o
 .debug_ranges  0x0000000000000918       0x48 output\Reboot.o
 .debug_ranges  0x0000000000000960      0x100 output\TCP.o
 .debug_ranges  0x0000000000000a60       0x30 output\mal.o
 .debug_ranges  0x0000000000000a90       0x18 output\usb_app.o
 .debug_ranges  0x0000000000000aa8      0x110 output\sys_int_pic32.o
 .debug_ranges  0x0000000000000bb8       0x80 output\system_init.o
 .debug_ranges  0x0000000000000c38     0x1040 output\peripheral.o
 .debug_ranges  0x0000000000001c78     0x10e8 output\drv_usbhs_device.o
 .debug_ranges  0x0000000000002d60      0x278 output\drv_usbhs.o
 .debug_ranges  0x0000000000002fd8       0x68 output\bsp_sys_init.o
 .debug_ranges  0x0000000000003040       0x60 output\rtcconverter.o
 .debug_ranges  0x00000000000030a0       0x38 output\rtc.o
 .debug_ranges  0x00000000000030d8       0x10 output\daylight.o
 .debug_ranges  0x00000000000030e8       0x18 output\aes_cbc.o
 .debug_ranges  0x0000000000003100       0x50 output\aes_cmac.o
 .debug_ranges  0x0000000000003150       0x30 output\rijndael.o
 .debug_ranges  0x0000000000003180       0x30 output\aes_challenge_response.o
 .debug_ranges  0x00000000000031b0       0x20 output\aes_key.o
 .debug_ranges  0x00000000000031d0       0x30 output\aes_ecb.o
 .debug_ranges  0x0000000000003200       0x30 output\spi2.o
 .debug_ranges  0x0000000000003230       0x10 c:/program files/microchip/xc32/v4.20/bin/bin/../../lib/gcc/pic32mx/8.3.1/../../../../pic32mx/lib\libpic32.a(default-bootstrap-exception-handler.o)
 .debug_ranges  0x0000000000003240       0x10 c:/program files/microchip/xc32/v4.20/bin/bin/../../lib/gcc/pic32mx/8.3.1/../../../../pic32mx/lib\libpic32.a(default-on-reset.o)
 .debug_ranges  0x0000000000003250       0x10 c:/program files/microchip/xc32/v4.20/bin/bin/../../lib/gcc/pic32mx/8.3.1/../../../../pic32mx/lib\libpic32.a(default-on-bootstrap.o)
 .debug_ranges  0x0000000000003260       0x10 c:/program files/microchip/xc32/v4.20/bin/bin/../../lib/gcc/pic32mx/8.3.1/../../../../pic32mx/lib\libpic32.a(defaultinterrupt.o)
 .debug_ranges  0x0000000000003270       0x10 c:/program files/microchip/xc32/v4.20/bin/bin/../../lib/gcc/pic32mx/8.3.1/../../../../pic32mx/lib\libpic32.a(default-cache-err-exception-handler.o)
 .debug_ranges  0x0000000000003280       0x10 c:/program files/microchip/xc32/v4.20/bin/bin/../../lib/gcc/pic32mx/8.3.1/../../../../pic32mx/lib\libpic32.a(default-simple-tlb-refill-exception-handler.o)
 .debug_ranges  0x0000000000003290       0x18 c:/program files/microchip/xc32/v4.20/bin/bin/../../lib/gcc/pic32mx/8.3.1/../../../../pic32mx/lib\libc-musl.a(__sio_sprintf_doux.o)
 .debug_ranges  0x00000000000032a8       0x10 c:/program files/microchip/xc32/v4.20/bin/bin/../../lib/gcc/pic32mx/8.3.1/../../../../pic32mx/lib\libc-musl.a(__fmt_d.o)
 .debug_ranges  0x00000000000032b8       0x10 c:/program files/microchip/xc32/v4.20/bin/bin/../../lib/gcc/pic32mx/8.3.1/../../../../pic32mx/lib\libc-musl.a(__fmt_o.o)
 .debug_ranges  0x00000000000032c8       0x10 c:/program files/microchip/xc32/v4.20/bin/bin/../../lib/gcc/pic32mx/8.3.1/../../../../pic32mx/lib\libc-musl.a(__fmt_s.o)
 .debug_ranges  0x00000000000032d8       0x18 c:/program files/microchip/xc32/v4.20/bin/bin/../../lib/gcc/pic32mx/8.3.1/../../../../pic32mx/lib\libc-musl.a(__fmt_u.o)
 .debug_ranges  0x00000000000032f0       0x10 c:/program files/microchip/xc32/v4.20/bin/bin/../../lib/gcc/pic32mx/8.3.1/../../../../pic32mx/lib\libc-musl.a(__fmt_x.o)
 .debug_ranges  0x0000000000003300       0x10 c:/program files/microchip/xc32/v4.20/bin/bin/../../lib/gcc/pic32mx/8.3.1/../../../../pic32mx/lib\libc-musl.a(__pop_int.o)
 .debug_ranges  0x0000000000003310       0x10 c:/program files/microchip/xc32/v4.20/bin/bin/../../lib/gcc/pic32mx/8.3.1/../../../../pic32mx/lib\libc-musl.a(__pop_ptr.o)
 .debug_ranges  0x0000000000003320       0xf8 c:/program files/microchip/xc32/v4.20/bin/bin/../../lib/gcc/pic32mx/8.3.1/../../../../pic32mx/lib\libc-musl.a(__printf_core.o)
 .debug_ranges  0x0000000000003418       0x28 c:/program files/microchip/xc32/v4.20/bin/bin/../../lib/gcc/pic32mx/8.3.1/../../../../pic32mx/lib\libc-musl.a(atoi.o)
 .debug_ranges  0x0000000000003440       0x10 c:/program files/microchip/xc32/v4.20/bin/bin/../../lib/gcc/pic32mx/8.3.1/../../../../pic32mx/lib\libc-musl.a(strncmp.o)
 .debug_ranges  0x0000000000003450       0x10 c:/program files/microchip/xc32/v4.20/bin/bin/../../lib/gcc/pic32mx/8.3.1/../../../../pic32mx/lib\libc-musl.a(strncpy.o)
 .debug_ranges  0x0000000000003460       0x18 c:/program files/microchip/xc32/v4.20/bin/bin/../../lib/gcc/pic32mx/8.3.1/../../../../pic32mx/lib\libc-musl.a(tolower.o)
 .debug_ranges  0x0000000000003478       0x18 c:/program files/microchip/xc32/v4.20/bin/bin/../../lib/gcc/pic32mx/8.3.1/../../../../pic32mx/lib\libc-musl.a(toupper.o)
 .debug_ranges  0x0000000000003490       0x10 c:/program files/microchip/xc32/v4.20/bin/bin/../../lib/gcc/pic32mx/8.3.1/../../../../pic32mx/lib\libc-musl.a(__int_vsprintf.o)
 .debug_ranges  0x00000000000034a0       0x10 c:/program files/microchip/xc32/v4.20/bin/bin/../../lib/gcc/pic32mx/8.3.1/../../../../pic32mx/lib\libc-musl.a(__pop_float.o)
 .debug_ranges  0x00000000000034b0       0x10 c:/program files/microchip/xc32/v4.20/bin/bin/../../lib/gcc/pic32mx/8.3.1/../../../../pic32mx/lib\libc-musl.a(stpncpy.o)
 .debug_ranges  0x00000000000034c0       0x10 c:/program files/microchip/xc32/v4.20/bin/bin/../../lib/gcc/pic32mx/8.3.1/../../../../pic32mx/lib\libc-musl.a(__int_vsnprintf.o)
 .debug_ranges  0x00000000000034d0       0x10 c:/program files/microchip/xc32/v4.20/bin/bin/../../lib/gcc/pic32mx/8.3.1/../../../../pic32mx/lib\libc-musl.a(__int_vfprintf.o)
 .debug_ranges  0x00000000000034e0       0x70 c:/program files/microchip/xc32/v4.20/bin/bin/../../lib/gcc/pic32mx/8.3.1/../../../../pic32mx/lib\libm.a(atan2.o)
 .debug_ranges  0x0000000000003550       0x10 c:/program files/microchip/xc32/v4.20/bin/bin/../../lib/gcc/pic32mx/8.3.1/../../../../pic32mx/lib\libm.a(w_sqrt.o)
 .debug_ranges  0x0000000000003560       0xb0 c:/program files/microchip/xc32/v4.20/bin/bin/../../lib/gcc/pic32mx/8.3.1/../../../../pic32mx/lib\libm.a(support.o)
 .debug_ranges  0x0000000000003610       0x10 c:/program files/microchip/xc32/v4.20/bin/bin/../../lib/gcc/pic32mx/8.3.1/../../../../pic32mx/lib\libm.a(w_ldexp.o)
 .debug_ranges  0x0000000000003620       0xd8 c:/program files/microchip/xc32/v4.20/bin/bin/../../lib/gcc/pic32mx/8.3.1\libgcc.a(_udivdi3.o)
 .debug_ranges  0x00000000000036f8       0xc0 c:/program files/microchip/xc32/v4.20/bin/bin/../../lib/gcc/pic32mx/8.3.1\libgcc.a(_umoddi3.o)
 .debug_ranges  0x00000000000037b8       0x38 c:/program files/microchip/xc32/v4.20/bin/bin/../../lib/gcc/pic32mx/8.3.1/../../../../pic32mx/lib\libpic32.a(isinf.o)
 .debug_ranges  0x00000000000037f0       0x10 c:/program files/microchip/xc32/v4.20/bin/bin/../../lib/gcc/pic32mx/8.3.1/../../../../pic32mx/lib\libe.a(_unorddf2.o)

.gnu.attributes
                0x0000000000000000       0x10
 *(.gnu.attributes)
 .gnu.attributes
                0x0000000000000000       0x10 c:/program files/microchip/xc32/v4.20/bin/bin/../../lib/gcc/pic32mx/8.3.1/../../../../pic32mx/lib\debug-exception-return.o
 .gnu.attributes
                0x0000000000000010       0x10 output\tmr.o
 .gnu.attributes
                0x0000000000000020       0x10 output\ringBuffer.o
 .gnu.attributes
                0x0000000000000030       0x10 output\task.o
 .gnu.attributes
                0x0000000000000040       0x10 output\eeprom.o
 .gnu.attributes
                0x0000000000000050       0x10 output\eep_manager.o
 .gnu.attributes
                0x0000000000000060       0x10 output\main.o
 .gnu.attributes
                0x0000000000000070       0x10 output\c_eep_manager.o
 .gnu.attributes
                0x0000000000000080       0x10 output\app.o
 .gnu.attributes
                0x0000000000000090       0x10 output\ad.o
 .gnu.attributes
                0x00000000000000a0       0x10 output\grbl_gcode.o
 .gnu.attributes
                0x00000000000000b0       0x10 output\grbl_limits.o
 .gnu.attributes
                0x00000000000000c0       0x10 output\coolant_control.o
 .gnu.attributes
                0x00000000000000d0       0x10 output\motion_control.o
 .gnu.attributes
                0x00000000000000e0       0x10 output\nuts_bolts.o
 .gnu.attributes
                0x00000000000000f0       0x10 output\planner.o
 .gnu.attributes
                0x0000000000000100       0x10 output\grbl_print.o
 .gnu.attributes
                0x0000000000000110       0x10 output\grbl_report.o
 .gnu.attributes
                0x0000000000000120       0x10 output\settings.o
 .gnu.attributes
                0x0000000000000130       0x10 output\spindle_control.o
 .gnu.attributes
                0x0000000000000140       0x10 output\stepper.o
 .gnu.attributes
                0x0000000000000150       0x10 output\system.o
 .gnu.attributes
                0x0000000000000160       0x10 output\grbl.o
 .gnu.attributes
                0x0000000000000170       0x10 output\grbl_homing.o
 .gnu.attributes
                0x0000000000000180       0x10 output\pwm.o
 .gnu.attributes
                0x0000000000000190       0x10 output\jog.o
 .gnu.attributes
                0x00000000000001a0       0x10 output\dee.o
 .gnu.attributes
                0x00000000000001b0       0x10 output\dee_page.o
 .gnu.attributes
                0x00000000000001c0       0x10 output\dee_page_helper.o
 .gnu.attributes
                0x00000000000001d0       0x10 output\eep_manager_crc.o
 .gnu.attributes
                0x00000000000001e0       0x10 output\system_control.o
 .gnu.attributes
                0x00000000000001f0       0x10 output\stepper_enable.o
 .gnu.attributes
                0x0000000000000200       0x10 output\system_exec.o
 .gnu.attributes
                0x0000000000000210       0x10 output\system_alarm.o
 .gnu.attributes
                0x0000000000000220       0x10 output\grbl_eeprom.o
 .gnu.attributes
                0x0000000000000230       0x10 output\bootloader_interface.o
 .gnu.attributes
                0x0000000000000240       0x10 output\grbl_toolchange.o
 .gnu.attributes
                0x0000000000000250       0x10 output\grbl_protocol.o
 .gnu.attributes
                0x0000000000000260       0x10 output\grbl_running.o
 .gnu.attributes
                0x0000000000000270       0x10 output\grbl_bootloader.o
 .gnu.attributes
                0x0000000000000280       0x10 output\grbl_probe.o
 .gnu.attributes
                0x0000000000000290       0x10 output\ethernet.o
 .gnu.attributes
                0x00000000000002a0       0x10 output\ENC28J60.o
 .gnu.attributes
                0x00000000000002b0       0x10 output\DHCP.o
 .gnu.attributes
                0x00000000000002c0       0x10 output\ARP.o
 .gnu.attributes
                0x00000000000002d0       0x10 output\Announce.o
 .gnu.attributes
                0x00000000000002e0       0x10 output\Helpers.o
 .gnu.attributes
                0x00000000000002f0       0x10 output\ICMP.o
 .gnu.attributes
                0x0000000000000300       0x10 output\IP.o
 .gnu.attributes
                0x0000000000000310       0x10 output\StackTsk.o
 .gnu.attributes
                0x0000000000000320       0x10 output\UDP.o
 .gnu.attributes
                0x0000000000000330       0x10 output\ethernet_grbl_multi.o
 .gnu.attributes
                0x0000000000000340       0x10 output\grbl_multi.o
 .gnu.attributes
                0x0000000000000350       0x10 output\Reboot.o
 .gnu.attributes
                0x0000000000000360       0x10 output\TCP.o
 .gnu.attributes
                0x0000000000000370       0x10 output\BerkeleyAPI.o
 .gnu.attributes
                0x0000000000000380       0x10 output\mal.o
 .gnu.attributes
                0x0000000000000390       0x10 output\isr.o
 .gnu.attributes
                0x00000000000003a0       0x10 output\exceptions.o
 .gnu.attributes
                0x00000000000003b0       0x10 output\usb_device_cdc_acm.o
 .gnu.attributes
                0x00000000000003c0       0x10 output\usb_device_cdc.o
 .gnu.attributes
                0x00000000000003d0       0x10 output\usb_device.o
 .gnu.attributes
                0x00000000000003e0       0x10 output\usb_app.o
 .gnu.attributes
                0x00000000000003f0       0x10 output\usb.o
 .gnu.attributes
                0x0000000000000400       0x10 output\system_tasks.o
 .gnu.attributes
                0x0000000000000410       0x10 output\sys_int_pic32.o
 .gnu.attributes
                0x0000000000000420       0x10 output\system_init.o
 .gnu.attributes
                0x0000000000000430       0x10 output\peripheral.o
 .gnu.attributes
                0x0000000000000440       0x10 output\drv_usbhs_device.o
 .gnu.attributes
                0x0000000000000450       0x10 output\drv_usbhs.o
 .gnu.attributes
                0x0000000000000460       0x10 output\bsp_sys_init.o
 .gnu.attributes
                0x0000000000000470       0x10 output\stackmeasure.o
 .gnu.attributes
                0x0000000000000480       0x10 output\stackmeasure_helper.o
 .gnu.attributes
                0x0000000000000490       0x10 output\noinitram.o
 .gnu.attributes
                0x00000000000004a0       0x10 output\usb_grbl_multi.o
 .gnu.attributes
                0x00000000000004b0       0x10 output\sleep.o
 .gnu.attributes
                0x00000000000004c0       0x10 output\rtcconverter.o
 .gnu.attributes
                0x00000000000004d0       0x10 output\rtc.o
 .gnu.attributes
                0x00000000000004e0       0x10 output\daylight.o
 .gnu.attributes
                0x00000000000004f0       0x10 output\aes_128.o
 .gnu.attributes
                0x0000000000000500       0x10 output\aes_block.o
 .gnu.attributes
                0x0000000000000510       0x10 output\aes_cbc.o
 .gnu.attributes
                0x0000000000000520       0x10 output\aes_cbc_mac.o
 .gnu.attributes
                0x0000000000000530       0x10 output\aes_cmac.o
 .gnu.attributes
                0x0000000000000540       0x10 output\rijndael.o
 .gnu.attributes
                0x0000000000000550       0x10 output\aes_challenge_response.o
 .gnu.attributes
                0x0000000000000560       0x10 output\aes_key.o
 .gnu.attributes
                0x0000000000000570       0x10 output\aes_ecb.o
 .gnu.attributes
                0x0000000000000580       0x10 output\MQTT.o
 .gnu.attributes
                0x0000000000000590       0x10 output\MQTTclient.o
 .gnu.attributes
                0x00000000000005a0       0x10 output\DNS.o
 .gnu.attributes
                0x00000000000005b0       0x10 output\sntp.o
 .gnu.attributes
                0x00000000000005c0       0x10 output\random.o
 .gnu.attributes
                0x00000000000005d0       0x10 output\sha256.o
 .gnu.attributes
                0x00000000000005e0       0x10 output\spi2.o
 .gnu.attributes
                0x00000000000005f0       0x10 output\wget.o
 .gnu.attributes
                0x0000000000000600       0x10 c:/program files/microchip/xc32/v4.20/bin/bin/../../lib/gcc/pic32mx/8.3.1/../../../../pic32mx/lib/./proc/32MZ2048ECG144\vector_offset_init.o
 .gnu.attributes
                0x0000000000000610       0x10 C:\Users\kyrk\AppData\Local\Temp\ccy8KzF8.o
 .gnu.attributes
                0x0000000000000620       0x10 C:\Users\kyrk\AppData\Local\Temp\ccopN9yJ.o
 .gnu.attributes
                0x0000000000000630       0x10 C:\Users\kyrk\AppData\Local\Temp\cc4IlKdm.o
 .gnu.attributes
                0x0000000000000640       0x10 c:/program files/microchip/xc32/v4.20/bin/bin/../../lib/gcc/pic32mx/8.3.1/../../../../pic32mx/lib/./proc/32MZ2048ECG144\default_isr_vectors.o
 .gnu.attributes
                0x0000000000000650       0x10 c:/program files/microchip/xc32/v4.20/bin/bin/../../lib/gcc/pic32mx/8.3.1/../../../../pic32mx/lib\pic32_software_reset.o
 .gnu.attributes
                0x0000000000000660       0x10 c:/program files/microchip/xc32/v4.20/bin/bin/../../lib/gcc/pic32mx/8.3.1\libgcc.a(_fixunssfdi.o)
 .gnu.attributes
                0x0000000000000670       0x10 c:/program files/microchip/xc32/v4.20/bin/bin/../../lib/gcc/pic32mx/8.3.1\libgcc.a(_floatundidf.o)
 .gnu.attributes
                0x0000000000000680       0x10 c:/program files/microchip/xc32/v4.20/bin/bin/../../lib/gcc/pic32mx/8.3.1\libgcc.a(floatunsisf.o)
 .gnu.attributes
                0x0000000000000690       0x10 c:/program files/microchip/xc32/v4.20/bin/bin/../../lib/gcc/pic32mx/8.3.1\libgcc.a(floatunsidf.o)
 .gnu.attributes
                0x00000000000006a0       0x10 c:/program files/microchip/xc32/v4.20/bin/bin/../../lib/gcc/pic32mx/8.3.1/../../../../pic32mx/lib\libpic32.a(memcmp.o)
 .gnu.attributes
                0x00000000000006b0       0x10 c:/program files/microchip/xc32/v4.20/bin/bin/../../lib/gcc/pic32mx/8.3.1/../../../../pic32mx/lib\libpic32.a(memcpy.o)
 .gnu.attributes
                0x00000000000006c0       0x10 c:/program files/microchip/xc32/v4.20/bin/bin/../../lib/gcc/pic32mx/8.3.1/../../../../pic32mx/lib\libpic32.a(memset.o)
 .gnu.attributes
                0x00000000000006d0       0x10 c:/program files/microchip/xc32/v4.20/bin/bin/../../lib/gcc/pic32mx/8.3.1/../../../../pic32mx/lib\libpic32.a(strcmp.o)
 .gnu.attributes
                0x00000000000006e0       0x10 c:/program files/microchip/xc32/v4.20/bin/bin/../../lib/gcc/pic32mx/8.3.1/../../../../pic32mx/lib\libpic32.a(strlen.o)
 .gnu.attributes
                0x00000000000006f0       0x10 c:/program files/microchip/xc32/v4.20/bin/bin/../../lib/gcc/pic32mx/8.3.1/../../../../pic32mx/lib\libpic32.a(default-bootstrap-exception-handler.o)
 .gnu.attributes
                0x0000000000000700       0x10 c:/program files/microchip/xc32/v4.20/bin/bin/../../lib/gcc/pic32mx/8.3.1/../../../../pic32mx/lib\libpic32.a(default-on-reset.o)
 .gnu.attributes
                0x0000000000000710       0x10 c:/program files/microchip/xc32/v4.20/bin/bin/../../lib/gcc/pic32mx/8.3.1/../../../../pic32mx/lib\libpic32.a(default-on-bootstrap.o)
 .gnu.attributes
                0x0000000000000720       0x10 c:/program files/microchip/xc32/v4.20/bin/bin/../../lib/gcc/pic32mx/8.3.1/../../../../pic32mx/lib\libpic32.a(default-nmi-handler.o)
 .gnu.attributes
                0x0000000000000730       0x10 c:/program files/microchip/xc32/v4.20/bin/bin/../../lib/gcc/pic32mx/8.3.1/../../../../pic32mx/lib\libpic32.a(pic32_data_init_wrapper.o)
 .gnu.attributes
                0x0000000000000740       0x10 c:/program files/microchip/xc32/v4.20/bin/bin/../../lib/gcc/pic32mx/8.3.1/../../../../pic32mx/lib\libpic32.a(pic32_data_init_0_1.o)
 .gnu.attributes
                0x0000000000000750       0x10 c:/program files/microchip/xc32/v4.20/bin/bin/../../lib/gcc/pic32mx/8.3.1/../../../../pic32mx/lib\libpic32.a(pic32_init_cache.o)
 .gnu.attributes
                0x0000000000000760       0x10 c:/program files/microchip/xc32/v4.20/bin/bin/../../lib/gcc/pic32mx/8.3.1/../../../../pic32mx/lib\libpic32.a(pic32_init_tlb_ebi_sqi.o)
 .gnu.attributes
                0x0000000000000770       0x10 c:/program files/microchip/xc32/v4.20/bin/bin/../../lib/gcc/pic32mx/8.3.1/../../../../pic32mx/lib\libpic32.a(general-exception.o)
 .gnu.attributes
                0x0000000000000780       0x10 c:/program files/microchip/xc32/v4.20/bin/bin/../../lib/gcc/pic32mx/8.3.1/../../../../pic32mx/lib\libpic32.a(cache-err-exception.o)
 .gnu.attributes
                0x0000000000000790       0x10 c:/program files/microchip/xc32/v4.20/bin/bin/../../lib/gcc/pic32mx/8.3.1/../../../../pic32mx/lib\libpic32.a(simple-tlb-refill-exception.o)
 .gnu.attributes
                0x00000000000007a0       0x10 c:/program files/microchip/xc32/v4.20/bin/bin/../../lib/gcc/pic32mx/8.3.1/../../../../pic32mx/lib\libpic32.a(defaultinterrupt.o)
 .gnu.attributes
                0x00000000000007b0       0x10 c:/program files/microchip/xc32/v4.20/bin/bin/../../lib/gcc/pic32mx/8.3.1/../../../../pic32mx/lib\libpic32.a(default-cache-err-exception-handler.o)
 .gnu.attributes
                0x00000000000007c0       0x10 c:/program files/microchip/xc32/v4.20/bin/bin/../../lib/gcc/pic32mx/8.3.1/../../../../pic32mx/lib\libpic32.a(default-simple-tlb-refill-exception-handler.o)
 .gnu.attributes
                0x00000000000007d0       0x10 c:/program files/microchip/xc32/v4.20/bin/bin/../../lib/gcc/pic32mx/8.3.1/../../../../pic32mx/lib\libc-musl.a(__sio_sprintf_doux.o)
 .gnu.attributes
                0x00000000000007e0       0x10 c:/program files/microchip/xc32/v4.20/bin/bin/../../lib/gcc/pic32mx/8.3.1/../../../../pic32mx/lib\libc-musl.a(__fmt_d.o)
 .gnu.attributes
                0x00000000000007f0       0x10 c:/program files/microchip/xc32/v4.20/bin/bin/../../lib/gcc/pic32mx/8.3.1/../../../../pic32mx/lib\libc-musl.a(__fmt_o.o)
 .gnu.attributes
                0x0000000000000800       0x10 c:/program files/microchip/xc32/v4.20/bin/bin/../../lib/gcc/pic32mx/8.3.1/../../../../pic32mx/lib\libc-musl.a(__fmt_s.o)
 .gnu.attributes
                0x0000000000000810       0x10 c:/program files/microchip/xc32/v4.20/bin/bin/../../lib/gcc/pic32mx/8.3.1/../../../../pic32mx/lib\libc-musl.a(__fmt_u.o)
 .gnu.attributes
                0x0000000000000820       0x10 c:/program files/microchip/xc32/v4.20/bin/bin/../../lib/gcc/pic32mx/8.3.1/../../../../pic32mx/lib\libc-musl.a(__fmt_x.o)
 .gnu.attributes
                0x0000000000000830       0x10 c:/program files/microchip/xc32/v4.20/bin/bin/../../lib/gcc/pic32mx/8.3.1/../../../../pic32mx/lib\libc-musl.a(__pop_int.o)
 .gnu.attributes
                0x0000000000000840       0x10 c:/program files/microchip/xc32/v4.20/bin/bin/../../lib/gcc/pic32mx/8.3.1/../../../../pic32mx/lib\libc-musl.a(__pop_ptr.o)
 .gnu.attributes
                0x0000000000000850       0x10 c:/program files/microchip/xc32/v4.20/bin/bin/../../lib/gcc/pic32mx/8.3.1/../../../../pic32mx/lib\libc-musl.a(__printf_core.o)
 .gnu.attributes
                0x0000000000000860       0x10 c:/program files/microchip/xc32/v4.20/bin/bin/../../lib/gcc/pic32mx/8.3.1/../../../../pic32mx/lib\libc-musl.a(atoi.o)
 .gnu.attributes
                0x0000000000000870       0x10 c:/program files/microchip/xc32/v4.20/bin/bin/../../lib/gcc/pic32mx/8.3.1/../../../../pic32mx/lib\libc-musl.a(strncmp.o)
 .gnu.attributes
                0x0000000000000880       0x10 c:/program files/microchip/xc32/v4.20/bin/bin/../../lib/gcc/pic32mx/8.3.1/../../../../pic32mx/lib\libc-musl.a(strncpy.o)
 .gnu.attributes
                0x0000000000000890       0x10 c:/program files/microchip/xc32/v4.20/bin/bin/../../lib/gcc/pic32mx/8.3.1/../../../../pic32mx/lib\libc-musl.a(tolower.o)
 .gnu.attributes
                0x00000000000008a0       0x10 c:/program files/microchip/xc32/v4.20/bin/bin/../../lib/gcc/pic32mx/8.3.1/../../../../pic32mx/lib\libc-musl.a(toupper.o)
 .gnu.attributes
                0x00000000000008b0       0x10 c:/program files/microchip/xc32/v4.20/bin/bin/../../lib/gcc/pic32mx/8.3.1/../../../../pic32mx/lib\libc-musl.a(__int_vsprintf.o)
 .gnu.attributes
                0x00000000000008c0       0x10 c:/program files/microchip/xc32/v4.20/bin/bin/../../lib/gcc/pic32mx/8.3.1/../../../../pic32mx/lib\libc-musl.a(__pop_float.o)
 .gnu.attributes
                0x00000000000008d0       0x10 c:/program files/microchip/xc32/v4.20/bin/bin/../../lib/gcc/pic32mx/8.3.1/../../../../pic32mx/lib\libc-musl.a(stpncpy.o)
 .gnu.attributes
                0x00000000000008e0       0x10 c:/program files/microchip/xc32/v4.20/bin/bin/../../lib/gcc/pic32mx/8.3.1/../../../../pic32mx/lib\libc-musl.a(__int_vsnprintf.o)
 .gnu.attributes
                0x00000000000008f0       0x10 c:/program files/microchip/xc32/v4.20/bin/bin/../../lib/gcc/pic32mx/8.3.1/../../../../pic32mx/lib\libc-musl.a(__int_vfprintf.o)
 .gnu.attributes
                0x0000000000000900       0x10 c:/program files/microchip/xc32/v4.20/bin/bin/../../lib/gcc/pic32mx/8.3.1/../../../../pic32mx/lib\libm.a(floor32.o)
 .gnu.attributes
                0x0000000000000910       0x10 c:/program files/microchip/xc32/v4.20/bin/bin/../../lib/gcc/pic32mx/8.3.1/../../../../pic32mx/lib\libm.a(ceil32.o)
 .gnu.attributes
                0x0000000000000920       0x10 c:/program files/microchip/xc32/v4.20/bin/bin/../../lib/gcc/pic32mx/8.3.1/../../../../pic32mx/lib\libm.a(cos32.o)
 .gnu.attributes
                0x0000000000000930       0x10 c:/program files/microchip/xc32/v4.20/bin/bin/../../lib/gcc/pic32mx/8.3.1/../../../../pic32mx/lib\libm.a(dp32div.o)
 .gnu.attributes
                0x0000000000000940       0x10 c:/program files/microchip/xc32/v4.20/bin/bin/../../lib/gcc/pic32mx/8.3.1/../../../../pic32mx/lib\libm.a(dp32mul.o)
 .gnu.attributes
                0x0000000000000950       0x10 c:/program files/microchip/xc32/v4.20/bin/bin/../../lib/gcc/pic32mx/8.3.1/../../../../pic32mx/lib\libm.a(dp32subadd.o)
 .gnu.attributes
                0x0000000000000960       0x10 c:/program files/microchip/xc32/v4.20/bin/bin/../../lib/gcc/pic32mx/8.3.1/../../../../pic32mx/lib\libm.a(dpcmp.o)
 .gnu.attributes
                0x0000000000000970       0x10 c:/program files/microchip/xc32/v4.20/bin/bin/../../lib/gcc/pic32mx/8.3.1/../../../../pic32mx/lib\libm.a(dpcmplt.o)
 .gnu.attributes
                0x0000000000000980       0x10 c:/program files/microchip/xc32/v4.20/bin/bin/../../lib/gcc/pic32mx/8.3.1/../../../../pic32mx/lib\libm.a(dpsqrt.o)
 .gnu.attributes
                0x0000000000000990       0x10 c:/program files/microchip/xc32/v4.20/bin/bin/../../lib/gcc/pic32mx/8.3.1/../../../../pic32mx/lib\libm.a(dptofp.o)
 .gnu.attributes
                0x00000000000009a0       0x10 c:/program files/microchip/xc32/v4.20/bin/bin/../../lib/gcc/pic32mx/8.3.1/../../../../pic32mx/lib\libm.a(dptoli.o)
 .gnu.attributes
                0x00000000000009b0       0x10 c:/program files/microchip/xc32/v4.20/bin/bin/../../lib/gcc/pic32mx/8.3.1/../../../../pic32mx/lib\libm.a(dptoul.o)
 .gnu.attributes
                0x00000000000009c0       0x10 c:/program files/microchip/xc32/v4.20/bin/bin/../../lib/gcc/pic32mx/8.3.1/../../../../pic32mx/lib\libm.a(exmul.o)
 .gnu.attributes
                0x00000000000009d0       0x10 c:/program files/microchip/xc32/v4.20/bin/bin/../../lib/gcc/pic32mx/8.3.1/../../../../pic32mx/lib\libm.a(exsqrt.o)
 .gnu.attributes
                0x00000000000009e0       0x10 c:/program files/microchip/xc32/v4.20/bin/bin/../../lib/gcc/pic32mx/8.3.1/../../../../pic32mx/lib\libm.a(fp32div.o)
 .gnu.attributes
                0x00000000000009f0       0x10 c:/program files/microchip/xc32/v4.20/bin/bin/../../lib/gcc/pic32mx/8.3.1/../../../../pic32mx/lib\libm.a(fp32mul.o)
 .gnu.attributes
                0x0000000000000a00       0x10 c:/program files/microchip/xc32/v4.20/bin/bin/../../lib/gcc/pic32mx/8.3.1/../../../../pic32mx/lib\libm.a(fp32subadd.o)
 .gnu.attributes
                0x0000000000000a10       0x10 c:/program files/microchip/xc32/v4.20/bin/bin/../../lib/gcc/pic32mx/8.3.1/../../../../pic32mx/lib\libm.a(fpcmp.o)
 .gnu.attributes
                0x0000000000000a20       0x10 c:/program files/microchip/xc32/v4.20/bin/bin/../../lib/gcc/pic32mx/8.3.1/../../../../pic32mx/lib\libm.a(fpcmplt.o)
 .gnu.attributes
                0x0000000000000a30       0x10 c:/program files/microchip/xc32/v4.20/bin/bin/../../lib/gcc/pic32mx/8.3.1/../../../../pic32mx/lib\libm.a(fpexsqrt32.o)
 .gnu.attributes
                0x0000000000000a40       0x10 c:/program files/microchip/xc32/v4.20/bin/bin/../../lib/gcc/pic32mx/8.3.1/../../../../pic32mx/lib\libm.a(fptodp.o)
 .gnu.attributes
                0x0000000000000a50       0x10 c:/program files/microchip/xc32/v4.20/bin/bin/../../lib/gcc/pic32mx/8.3.1/../../../../pic32mx/lib\libm.a(fptoli.o)
 .gnu.attributes
                0x0000000000000a60       0x10 c:/program files/microchip/xc32/v4.20/bin/bin/../../lib/gcc/pic32mx/8.3.1/../../../../pic32mx/lib\libm.a(fptoul.o)
 .gnu.attributes
                0x0000000000000a70       0x10 c:/program files/microchip/xc32/v4.20/bin/bin/../../lib/gcc/pic32mx/8.3.1/../../../../pic32mx/lib\libm.a(litodp.o)
 .gnu.attributes
                0x0000000000000a80       0x10 c:/program files/microchip/xc32/v4.20/bin/bin/../../lib/gcc/pic32mx/8.3.1/../../../../pic32mx/lib\libm.a(reduct32.o)
 .gnu.attributes
                0x0000000000000a90       0x10 c:/program files/microchip/xc32/v4.20/bin/bin/../../lib/gcc/pic32mx/8.3.1/../../../../pic32mx/lib\libm.a(sigmax.o)
 .gnu.attributes
                0x0000000000000aa0       0x10 c:/program files/microchip/xc32/v4.20/bin/bin/../../lib/gcc/pic32mx/8.3.1/../../../../pic32mx/lib\libm.a(sin32.o)
 .gnu.attributes
                0x0000000000000ab0       0x10 c:/program files/microchip/xc32/v4.20/bin/bin/../../lib/gcc/pic32mx/8.3.1/../../../../pic32mx/lib\libm.a(sincos32.o)
 .gnu.attributes
                0x0000000000000ac0       0x10 c:/program files/microchip/xc32/v4.20/bin/bin/../../lib/gcc/pic32mx/8.3.1/../../../../pic32mx/lib\libm.a(sitofp.o)
 .gnu.attributes
                0x0000000000000ad0       0x10 c:/program files/microchip/xc32/v4.20/bin/bin/../../lib/gcc/pic32mx/8.3.1/../../../../pic32mx/lib\libm.a(atan2.o)
 .gnu.attributes
                0x0000000000000ae0       0x10 c:/program files/microchip/xc32/v4.20/bin/bin/../../lib/gcc/pic32mx/8.3.1/../../../../pic32mx/lib\libm.a(w_sqrt.o)
 .gnu.attributes
                0x0000000000000af0       0x10 c:/program files/microchip/xc32/v4.20/bin/bin/../../lib/gcc/pic32mx/8.3.1/../../../../pic32mx/lib\libm.a(support.o)
 .gnu.attributes
                0x0000000000000b00       0x10 c:/program files/microchip/xc32/v4.20/bin/bin/../../lib/gcc/pic32mx/8.3.1/../../../../pic32mx/lib\libm.a(w_ldexp.o)
 .gnu.attributes
                0x0000000000000b10       0x10 c:/program files/microchip/xc32/v4.20/bin/bin/../../lib/gcc/pic32mx/8.3.1/../../../../pic32mx/lib\libm.a(dpldexp.o)
 .gnu.attributes
                0x0000000000000b20       0x10 c:/program files/microchip/xc32/v4.20/bin/bin/../../lib/gcc/pic32mx/8.3.1/../../../../pic32mx/lib\libm.a(s_lib_ver.o)
 .gnu.attributes
                0x0000000000000b30       0x10 c:/program files/microchip/xc32/v4.20/bin/bin/../../lib/gcc/pic32mx/8.3.1\libgcc.a(_udivdi3.o)
 .gnu.attributes
                0x0000000000000b40       0x10 c:/program files/microchip/xc32/v4.20/bin/bin/../../lib/gcc/pic32mx/8.3.1\libgcc.a(_umoddi3.o)
 .gnu.attributes
                0x0000000000000b50       0x10 c:/program files/microchip/xc32/v4.20/bin/bin/../../lib/gcc/pic32mx/8.3.1/../../../../pic32mx/lib\libpic32.a(errno.o)
 .gnu.attributes
                0x0000000000000b60       0x10 c:/program files/microchip/xc32/v4.20/bin/bin/../../lib/gcc/pic32mx/8.3.1/../../../../pic32mx/lib\libpic32.a(isinf.o)
 .gnu.attributes
                0x0000000000000b70       0x10 c:/program files/microchip/xc32/v4.20/bin/bin/../../lib/gcc/pic32mx/8.3.1/../../../../pic32mx/lib\libe.a(_unorddf2.o)
                0x000000009d000000                PROVIDE (__pic32_init_cache_program_base_addr = 0x9d000000)
                0x0000000080000000                PROVIDE (__pic32_init_cache_data_base_addr = 0x80000000)
                0x00000000d0000000                PROVIDE (__pic32_init_sqi_kseg2_virtual_base_addr = 0xd0000000)
                0x0000000030000000                PROVIDE (__pic32_init_sqi_kseg2_physical_base_addr = 0x30000000)
                0x000000000000001f                PROVIDE (__pic32_init_sqi_kseg2_entrylo0_bitset = 0x1f)
                0x00000000d0000000                __pic32_tlb_0_entryhi = __pic32_init_sqi_kseg2_virtual_base_addr
                0x0000000000c0001f                __pic32_tlb_0_entrylo0 = ((__pic32_init_sqi_kseg2_physical_base_addr >> 0x6) | __pic32_init_sqi_kseg2_entrylo0_bitset)
                0x0000000000c4001f                __pic32_tlb_0_entrylo1 = (__pic32_tlb_0_entrylo0 | ((__pic32_init_sqi_kseg2_physical_base_addr + 0x1000000) >> 0x6))
                0x00000000d2000000                __pic32_tlb_1_entryhi = (__pic32_init_sqi_kseg2_virtual_base_addr + 0x2000000)
                0x0000000000c8001f                __pic32_tlb_1_entrylo0 = (((__pic32_init_sqi_kseg2_physical_base_addr + 0x2000000) >> 0x6) | __pic32_init_sqi_kseg2_entrylo0_bitset)
                0x0000000000cc001f                __pic32_tlb_1_entrylo1 = (__pic32_tlb_1_entrylo0 | 0x40000)
                0x00000000f0000000                PROVIDE (__pic32_init_sqi_kseg3_virtual_base_addr = 0xf0000000)
                0x0000000030000000                PROVIDE (__pic32_init_sqi_kseg3_physical_base_addr = 0x30000000)
                0x0000000000000017                PROVIDE (__pic32_init_sqi_kseg3_entrylo0_bitset = 0x17)
                0x00000000f0000000                __pic32_tlb_2_entryhi = __pic32_init_sqi_kseg3_virtual_base_addr
                0x0000000000c00017                __pic32_tlb_2_entrylo0 = ((__pic32_init_sqi_kseg3_physical_base_addr >> 0x6) | __pic32_init_sqi_kseg3_entrylo0_bitset)
                0x0000000000c40017                __pic32_tlb_2_entrylo1 = (__pic32_tlb_2_entrylo0 | ((__pic32_init_sqi_kseg3_physical_base_addr + 0x1000000) >> 0x6))
                0x00000000f2000000                __pic32_tlb_3_entryhi = (__pic32_init_sqi_kseg3_virtual_base_addr + 0x2000000)
                0x0000000000c80017                __pic32_tlb_3_entrylo0 = (((__pic32_init_sqi_kseg3_physical_base_addr + 0x2000000) >> 0x6) | __pic32_init_sqi_kseg3_entrylo0_bitset)
                0x0000000000cc0017                __pic32_tlb_3_entrylo1 = (__pic32_tlb_3_entrylo0 | 0x40000)
                0x00000000c0000000                PROVIDE (__pic32_init_ebi_kseg2_virtual_base_addr = 0xc0000000)
                0x0000000020000000                PROVIDE (__pic32_init_ebi_kseg2_physical_base_addr = 0x20000000)
                0x000000000000001f                PROVIDE (__pic32_init_ebi_kseg2_entrylo0_bitset = 0x1f)
                0x00000000c0000000                __pic32_tlb_4_entryhi = __pic32_init_ebi_kseg2_virtual_base_addr
                0x000000000080001f                __pic32_tlb_4_entrylo0 = ((__pic32_init_ebi_kseg2_physical_base_addr >> 0x6) | __pic32_init_ebi_kseg2_entrylo0_bitset)
                0x000000000084001f                __pic32_tlb_4_entrylo1 = (__pic32_tlb_4_entrylo0 | ((__pic32_init_ebi_kseg2_physical_base_addr + 0x1000000) >> 0x6))
                0x00000000c2000000                __pic32_tlb_5_entryhi = (__pic32_init_ebi_kseg2_virtual_base_addr + 0x2000000)
                0x000000000088001f                __pic32_tlb_5_entrylo0 = (((__pic32_init_ebi_kseg2_physical_base_addr + 0x2000000) >> 0x6) | __pic32_init_ebi_kseg2_entrylo0_bitset)
                0x00000000008c001f                __pic32_tlb_5_entrylo1 = (__pic32_tlb_5_entrylo0 | 0x40000)
                0x00000000e0000000                PROVIDE (__pic32_init_ebi_kseg3_virtual_base_addr = 0xe0000000)
                0x0000000020000000                PROVIDE (__pic32_init_ebi_kseg3_physical_base_addr = 0x20000000)
                0x0000000000000017                PROVIDE (__pic32_init_ebi_kseg3_entrylo0_bitset = 0x17)
                0x00000000e0000000                __pic32_tlb_6_entryhi = __pic32_init_ebi_kseg3_virtual_base_addr
                0x0000000000800017                __pic32_tlb_6_entrylo0 = ((__pic32_init_ebi_kseg3_physical_base_addr >> 0x6) | __pic32_init_ebi_kseg3_entrylo0_bitset)
                0x0000000000840017                __pic32_tlb_6_entrylo1 = (__pic32_tlb_6_entrylo0 | ((__pic32_init_ebi_kseg3_physical_base_addr + 0x1000000) >> 0x6))
                0x00000000e2000000                __pic32_tlb_7_entryhi = (__pic32_init_ebi_kseg3_virtual_base_addr + 0x2000000)
                0x0000000000880017                __pic32_tlb_7_entrylo0 = (((__pic32_init_ebi_kseg3_physical_base_addr + 0x2000000) >> 0x6) | __pic32_init_ebi_kseg3_entrylo0_bitset)
                0x00000000008c0017                __pic32_tlb_7_entrylo1 = (__pic32_tlb_7_entrylo0 | 0x40000)
                0x0000000000000001                __MPLAB_BUILD = 0x1
                0x0000000000001000                _min_heap_size = 0x1000
LOAD C:\Users\kyrk\AppData\Local\Temp\ccy8KzF8.o
LOAD C:\Users\kyrk\AppData\Local\Temp\ccopN9yJ.o
LOAD C:\Users\kyrk\AppData\Local\Temp\cc4IlKdm.o
LOAD c:/program files/microchip/xc32/v4.20/bin/bin/../../lib/gcc/pic32mx/8.3.1/../../../../pic32mx/lib/./proc/32MZ2048ECG144\default_isr_vectors.o
LOAD c:/program files/microchip/xc32/v4.20/bin/bin/../../lib/gcc/pic32mx/8.3.1/../../../../pic32mx/lib\pic32_software_reset.o
LOAD c:/program files/microchip/xc32/v4.20/bin/bin/../../lib/gcc/pic32mx/8.3.1\libgcc.a
START GROUP
LOAD c:/program files/microchip/xc32/v4.20/bin/bin/../../lib/gcc/pic32mx/8.3.1/../../../../pic32mx/lib\libpic32.a
LOAD c:/program files/microchip/xc32/v4.20/bin/bin/../../lib/gcc/pic32mx/8.3.1/../../../../pic32mx/lib\libdebug.a
LOAD c:/program files/microchip/xc32/v4.20/bin/bin/../../lib/gcc/pic32mx/8.3.1/../../../../pic32mx/lib\libc-musl.a
LOAD c:/program files/microchip/xc32/v4.20/bin/bin/../../lib/gcc/pic32mx/8.3.1/../../../../pic32mx/lib\libm.a
LOAD c:/program files/microchip/xc32/v4.20/bin/bin/../../lib/gcc/pic32mx/8.3.1/../../../../pic32mx/lib\libe.a
LOAD c:/program files/microchip/xc32/v4.20/bin/bin/../../lib/gcc/pic32mx/8.3.1/../../../../pic32mx/lib\libm-musl.a
LOAD c:/program files/microchip/xc32/v4.20/bin/bin/../../lib/gcc/pic32mx/8.3.1/../../../../pic32mx/lib\libdspr2.a
LOAD c:/program files/microchip/xc32/v4.20/bin/bin/../../lib/gcc/pic32mx/8.3.1/../../../../pic32mx/lib\libdsp.a
LOAD c:/program files/microchip/xc32/v4.20/bin/bin/../../lib/gcc/pic32mx/8.3.1\libgcc.a
END GROUP
LOAD c:/program files/microchip/xc32/v4.20/bin/bin/../../lib/gcc/pic32mx/8.3.1\libgcc.a
OUTPUT(.\output\cnc_1_0_0.elf elf32-tradlittlemips)
LOAD stack
LOAD data_init

.reginfo        0x0000000000000000       0x18
 .reginfo       0x0000000000000000       0x18 c:/program files/microchip/xc32/v4.20/bin/bin/../../lib/gcc/pic32mx/8.3.1/../../../../pic32mx/lib\debug-exception-return.o

.stack          0x0000000080006718      0x400
 .stack         0x0000000080006718      0x400 stack

.exceptionLog   0x000000008007f200       0xc0
 .exceptionLog  0x000000008007f200       0xc0 output\exceptions.o
                0x000000008007f200                exceptionLog

.__vector_offset_BF81062C_data
                0x00000000bf81062c       0xc0
 .__vector_offset_BF81062C_data
                0x00000000bf81062c       0xc0 c:/program files/microchip/xc32/v4.20/bin/bin/../../lib/gcc/pic32mx/8.3.1/../../../../pic32mx/lib/./proc/32MZ2048ECG144\vector_offset_init.o

.__vector_offset_BF810540_data
                0x00000000bf810540       0xb4
 .__vector_offset_BF810540_data
                0x00000000bf810540       0xb4 c:/program files/microchip/xc32/v4.20/bin/bin/../../lib/gcc/pic32mx/8.3.1/../../../../pic32mx/lib/./proc/32MZ2048ECG144\vector_offset_init.o

.__vector_offset_BF8106F4_data
                0x00000000bf8106f4       0xa8
 .__vector_offset_BF8106F4_data
                0x00000000bf8106f4       0xa8 c:/program files/microchip/xc32/v4.20/bin/bin/../../lib/gcc/pic32mx/8.3.1/../../../../pic32mx/lib/./proc/32MZ2048ECG144\vector_offset_init.o

.__vector_offset_BF8107A4_data
                0x00000000bf8107a4       0x98
 .__vector_offset_BF8107A4_data
                0x00000000bf8107a4       0x98 c:/program files/microchip/xc32/v4.20/bin/bin/../../lib/gcc/pic32mx/8.3.1/../../../../pic32mx/lib/./proc/32MZ2048ECG144\vector_offset_init.o

.noinitram_2    0x000000008007f3a0       0x80
 .noinitram_2   0x000000008007f3a0       0x80 output\noinitram.o
                0x000000008007f3a0                noinitram_2

.noinitram_1    0x000000008007f310       0x80
 .noinitram_1   0x000000008007f310       0x80 output\noinitram.o
                0x000000008007f310                noinitram_1

.__vector_offset_BF8105F8_data
                0x00000000bf8105f8       0x30
 .__vector_offset_BF8105F8_data
                0x00000000bf8105f8       0x30 c:/program files/microchip/xc32/v4.20/bin/bin/../../lib/gcc/pic32mx/8.3.1/../../../../pic32mx/lib/./proc/32MZ2048ECG144\vector_offset_init.o

.grbl_eeprom_sys_position_3
                0x000000008007f460       0x10
 .grbl_eeprom_sys_position_3
                0x000000008007f460       0x10 output\grbl_eeprom.o
                0x000000008007f460                grbl_eeprom_sys_position_3

.grbl_eeprom_sys_position_2
                0x000000008007f450       0x10
 .grbl_eeprom_sys_position_2
                0x000000008007f450       0x10 output\grbl_eeprom.o
                0x000000008007f450                grbl_eeprom_sys_position_2

.grbl_eeprom_sys_position_1
                0x000000008007f440       0x10
 .grbl_eeprom_sys_position_1
                0x000000008007f440       0x10 output\grbl_eeprom.o
                0x000000008007f440                grbl_eeprom_sys_position_1

.bootloader_MAC
                0x000000008007f030        0x8
 .bootloader_MAC
                0x000000008007f030        0x8 output\bootloader_interface.o
                0x000000008007f030                bootloader_MAC

.noinitram_crc_2
                0x000000008007f390        0x8
 .noinitram_crc_2
                0x000000008007f390        0x8 output\noinitram.o
                0x000000008007f390                noinitram_crc_2

.noinitram_crc_1
                0x000000008007f300        0x8
 .noinitram_crc_1
                0x000000008007f300        0x8 output\noinitram.o
                0x000000008007f300                noinitram_crc_1

.bootloader_was_reset_called
                0x000000008007f020        0x4
 .bootloader_was_reset_called
                0x000000008007f020        0x4 output\bootloader_interface.o
                0x000000008007f020                bootloader_was_reset_called

.bootloader_request_B
                0x000000008007f010        0x4
 .bootloader_request_B
                0x000000008007f010        0x4 output\bootloader_interface.o
                0x000000008007f010                bootloader_request_B

.bootloader_request_A
                0x000000008007f000        0x4
 .bootloader_request_A
                0x000000008007f000        0x4 output\bootloader_interface.o
                0x000000008007f000                bootloader_request_A

.COHERENTPERSIST$
                0x00000000a0004cb0        0x4
 .COHERENTPERSIST$
                0x00000000a0004cb0        0x2 output\UDP.o
 .pbss          0x00000000a0004cb2        0x2 output\TCP.o

.data           0x0000000080004cc0      0x1c4
 .data          0x0000000080004cc0      0x154 output\c_eep_manager.o
                0x0000000080004cc0                eepManager_ItemTable
 .data          0x0000000080004e14       0x70 c:/program files/microchip/xc32/v4.20/bin/bin/../../lib/gcc/pic32mx/8.3.1/../../../../pic32mx/lib\libm.a(sincos32.o)
                0x0000000080004e14                sincon
                0x0000000080004e4c                coscon

.data           0x0000000080004e84       0x78
 .data          0x0000000080004e84       0x50 output\drv_usbhs_device.o
                0x0000000080004e84                gDrvUSBHSDeviceInterface
 .data          0x0000000080004ed4       0x28 output\rtc.o
                0x0000000080004ed4                rtc_compiler_time
                0x0000000080004ee0                rtc_compiler_date
                0x0000000080004eec                timeDate

.data           0x0000000080004efc       0x18
 .data          0x0000000080004efc       0x18 output\main.o
                0x0000000080004efc                VERSION_ID
                0x0000000080004f08                softwareIdentification

.data.math_errhandling_flag
                0x0000000080004ca8        0x4
 .data.math_errhandling_flag
                0x0000000080004ca8        0x4 c:/program files/microchip/xc32/v4.20/bin/bin/../../lib/gcc/pic32mx/8.3.1/../../../../pic32mx/lib\libm.a(s_lib_ver.o)
                0x0000000080004ca8                math_errhandling

.data%z1        0x0000000000000000        0x0
 .data          0x0000000000000000        0x0 c:/program files/microchip/xc32/v4.20/bin/bin/../../lib/gcc/pic32mx/8.3.1/../../../../pic32mx/lib\libe.a(_unorddf2.o)

.data%z2        0x0000000000000000        0x0
 .data          0x0000000000000000        0x0 c:/program files/microchip/xc32/v4.20/bin/bin/../../lib/gcc/pic32mx/8.3.1/../../../../pic32mx/lib\libpic32.a(isinf.o)

.data%z3        0x0000000000000000        0x0
 .data          0x0000000000000000        0x0 c:/program files/microchip/xc32/v4.20/bin/bin/../../lib/gcc/pic32mx/8.3.1/../../../../pic32mx/lib\libpic32.a(errno.o)

.data%z4        0x0000000000000000        0x0
 .data          0x0000000000000000        0x0 c:/program files/microchip/xc32/v4.20/bin/bin/../../lib/gcc/pic32mx/8.3.1\libgcc.a(_umoddi3.o)

.data%z5        0x0000000000000000        0x0
 .data          0x0000000000000000        0x0 c:/program files/microchip/xc32/v4.20/bin/bin/../../lib/gcc/pic32mx/8.3.1\libgcc.a(_udivdi3.o)

.data%z6        0x0000000000000000        0x0
 .data          0x0000000000000000        0x0 c:/program files/microchip/xc32/v4.20/bin/bin/../../lib/gcc/pic32mx/8.3.1/../../../../pic32mx/lib\libm.a(s_lib_ver.o)

.data%z7        0x0000000000000000        0x0
 .data          0x0000000000000000        0x0 c:/program files/microchip/xc32/v4.20/bin/bin/../../lib/gcc/pic32mx/8.3.1/../../../../pic32mx/lib\libm.a(dpldexp.o)

.data%z8        0x0000000000000000        0x0
 .data          0x0000000000000000        0x0 c:/program files/microchip/xc32/v4.20/bin/bin/../../lib/gcc/pic32mx/8.3.1/../../../../pic32mx/lib\libm.a(w_ldexp.o)

.data%z9        0x0000000000000000        0x0
 .data          0x0000000000000000        0x0 c:/program files/microchip/xc32/v4.20/bin/bin/../../lib/gcc/pic32mx/8.3.1/../../../../pic32mx/lib\libm.a(support.o)

.data%z10       0x0000000000000000        0x0
 .data          0x0000000000000000        0x0 c:/program files/microchip/xc32/v4.20/bin/bin/../../lib/gcc/pic32mx/8.3.1/../../../../pic32mx/lib\libm.a(w_sqrt.o)

.data%z11       0x0000000000000000        0x0
 .data          0x0000000000000000        0x0 c:/program files/microchip/xc32/v4.20/bin/bin/../../lib/gcc/pic32mx/8.3.1/../../../../pic32mx/lib\libm.a(atan2.o)

.data%z12       0x0000000000000000        0x0
 .data          0x0000000000000000        0x0 c:/program files/microchip/xc32/v4.20/bin/bin/../../lib/gcc/pic32mx/8.3.1/../../../../pic32mx/lib\libm.a(sitofp.o)

.data%z13       0x0000000000000000        0x0
 .data          0x0000000000000000        0x0 c:/program files/microchip/xc32/v4.20/bin/bin/../../lib/gcc/pic32mx/8.3.1/../../../../pic32mx/lib\libm.a(sin32.o)

.data%z14       0x0000000000000000        0x0
 .data          0x0000000000000000        0x0 c:/program files/microchip/xc32/v4.20/bin/bin/../../lib/gcc/pic32mx/8.3.1/../../../../pic32mx/lib\libm.a(sigmax.o)

.data%z15       0x0000000000000000        0x0
 .data          0x0000000000000000        0x0 c:/program files/microchip/xc32/v4.20/bin/bin/../../lib/gcc/pic32mx/8.3.1/../../../../pic32mx/lib\libm.a(reduct32.o)

.data%z16       0x0000000000000000        0x0
 .data          0x0000000000000000        0x0 c:/program files/microchip/xc32/v4.20/bin/bin/../../lib/gcc/pic32mx/8.3.1/../../../../pic32mx/lib\libm.a(litodp.o)

.data%z17       0x0000000000000000        0x0
 .data          0x0000000000000000        0x0 c:/program files/microchip/xc32/v4.20/bin/bin/../../lib/gcc/pic32mx/8.3.1/../../../../pic32mx/lib\libm.a(fptoul.o)

.data%z18       0x0000000000000000        0x0
 .data          0x0000000000000000        0x0 c:/program files/microchip/xc32/v4.20/bin/bin/../../lib/gcc/pic32mx/8.3.1/../../../../pic32mx/lib\libm.a(fptoli.o)

.data%z19       0x0000000000000000        0x0
 .data          0x0000000000000000        0x0 c:/program files/microchip/xc32/v4.20/bin/bin/../../lib/gcc/pic32mx/8.3.1/../../../../pic32mx/lib\libm.a(fptodp.o)

.data%z20       0x0000000000000000        0x0
 .data          0x0000000000000000        0x0 c:/program files/microchip/xc32/v4.20/bin/bin/../../lib/gcc/pic32mx/8.3.1/../../../../pic32mx/lib\libm.a(fpexsqrt32.o)

.data%z21       0x0000000000000000        0x0
 .data          0x0000000000000000        0x0 c:/program files/microchip/xc32/v4.20/bin/bin/../../lib/gcc/pic32mx/8.3.1/../../../../pic32mx/lib\libm.a(fpcmplt.o)

.data%z22       0x0000000000000000        0x0
 .data          0x0000000000000000        0x0 c:/program files/microchip/xc32/v4.20/bin/bin/../../lib/gcc/pic32mx/8.3.1/../../../../pic32mx/lib\libm.a(fpcmp.o)

.data%z23       0x0000000000000000        0x0
 .data          0x0000000000000000        0x0 c:/program files/microchip/xc32/v4.20/bin/bin/../../lib/gcc/pic32mx/8.3.1/../../../../pic32mx/lib\libm.a(fp32subadd.o)

.data%z24       0x0000000000000000        0x0
 .data          0x0000000000000000        0x0 c:/program files/microchip/xc32/v4.20/bin/bin/../../lib/gcc/pic32mx/8.3.1/../../../../pic32mx/lib\libm.a(fp32mul.o)

.data%z25       0x0000000000000000        0x0
 .data          0x0000000000000000        0x0 c:/program files/microchip/xc32/v4.20/bin/bin/../../lib/gcc/pic32mx/8.3.1/../../../../pic32mx/lib\libm.a(fp32div.o)

.data%z26       0x0000000000000000        0x0
 .data          0x0000000000000000        0x0 c:/program files/microchip/xc32/v4.20/bin/bin/../../lib/gcc/pic32mx/8.3.1/../../../../pic32mx/lib\libm.a(exsqrt.o)

.data%z27       0x0000000000000000        0x0
 .data          0x0000000000000000        0x0 c:/program files/microchip/xc32/v4.20/bin/bin/../../lib/gcc/pic32mx/8.3.1/../../../../pic32mx/lib\libm.a(exmul.o)

.data%z28       0x0000000000000000        0x0
 .data          0x0000000000000000        0x0 c:/program files/microchip/xc32/v4.20/bin/bin/../../lib/gcc/pic32mx/8.3.1/../../../../pic32mx/lib\libm.a(dptoul.o)

.data%z29       0x0000000000000000        0x0
 .data          0x0000000000000000        0x0 c:/program files/microchip/xc32/v4.20/bin/bin/../../lib/gcc/pic32mx/8.3.1/../../../../pic32mx/lib\libm.a(dptoli.o)

.data%z30       0x0000000000000000        0x0
 .data          0x0000000000000000        0x0 c:/program files/microchip/xc32/v4.20/bin/bin/../../lib/gcc/pic32mx/8.3.1/../../../../pic32mx/lib\libm.a(dptofp.o)

.data%z31       0x0000000000000000        0x0
 .data          0x0000000000000000        0x0 c:/program files/microchip/xc32/v4.20/bin/bin/../../lib/gcc/pic32mx/8.3.1/../../../../pic32mx/lib\libm.a(dpsqrt.o)

.data%z32       0x0000000000000000        0x0
 .data          0x0000000000000000        0x0 c:/program files/microchip/xc32/v4.20/bin/bin/../../lib/gcc/pic32mx/8.3.1/../../../../pic32mx/lib\libm.a(dpcmplt.o)

.data%z33       0x0000000000000000        0x0
 .data          0x0000000000000000        0x0 c:/program files/microchip/xc32/v4.20/bin/bin/../../lib/gcc/pic32mx/8.3.1/../../../../pic32mx/lib\libm.a(dpcmp.o)

.data%z34       0x0000000000000000        0x0
 .data          0x0000000000000000        0x0 c:/program files/microchip/xc32/v4.20/bin/bin/../../lib/gcc/pic32mx/8.3.1/../../../../pic32mx/lib\libm.a(dp32subadd.o)

.data%z35       0x0000000000000000        0x0
 .data          0x0000000000000000        0x0 c:/program files/microchip/xc32/v4.20/bin/bin/../../lib/gcc/pic32mx/8.3.1/../../../../pic32mx/lib\libm.a(dp32mul.o)

.data%z36       0x0000000000000000        0x0
 .data          0x0000000000000000        0x0 c:/program files/microchip/xc32/v4.20/bin/bin/../../lib/gcc/pic32mx/8.3.1/../../../../pic32mx/lib\libm.a(dp32div.o)

.data%z37       0x0000000000000000        0x0
 .data          0x0000000000000000        0x0 c:/program files/microchip/xc32/v4.20/bin/bin/../../lib/gcc/pic32mx/8.3.1/../../../../pic32mx/lib\libm.a(cos32.o)

.data%z38       0x0000000000000000        0x0
 .data          0x0000000000000000        0x0 c:/program files/microchip/xc32/v4.20/bin/bin/../../lib/gcc/pic32mx/8.3.1/../../../../pic32mx/lib\libm.a(ceil32.o)

.data%z39       0x0000000000000000        0x0
 .data          0x0000000000000000        0x0 c:/program files/microchip/xc32/v4.20/bin/bin/../../lib/gcc/pic32mx/8.3.1/../../../../pic32mx/lib\libm.a(floor32.o)

.data%z40       0x0000000000000000        0x0
 .data          0x0000000000000000        0x0 c:/program files/microchip/xc32/v4.20/bin/bin/../../lib/gcc/pic32mx/8.3.1/../../../../pic32mx/lib\libc-musl.a(__int_vfprintf.o)

.data%z41       0x0000000000000000        0x0
 .data          0x0000000000000000        0x0 c:/program files/microchip/xc32/v4.20/bin/bin/../../lib/gcc/pic32mx/8.3.1/../../../../pic32mx/lib\libc-musl.a(__int_vsnprintf.o)

.data%z42       0x0000000000000000        0x0
 .data          0x0000000000000000        0x0 c:/program files/microchip/xc32/v4.20/bin/bin/../../lib/gcc/pic32mx/8.3.1/../../../../pic32mx/lib\libc-musl.a(stpncpy.o)

.data%z43       0x0000000000000000        0x0
 .data          0x0000000000000000        0x0 c:/program files/microchip/xc32/v4.20/bin/bin/../../lib/gcc/pic32mx/8.3.1/../../../../pic32mx/lib\libc-musl.a(__pop_float.o)

.data%z44       0x0000000000000000        0x0
 .data          0x0000000000000000        0x0 c:/program files/microchip/xc32/v4.20/bin/bin/../../lib/gcc/pic32mx/8.3.1/../../../../pic32mx/lib\libc-musl.a(__int_vsprintf.o)

.data%z45       0x0000000000000000        0x0
 .data          0x0000000000000000        0x0 c:/program files/microchip/xc32/v4.20/bin/bin/../../lib/gcc/pic32mx/8.3.1/../../../../pic32mx/lib\libc-musl.a(toupper.o)

.data%z46       0x0000000000000000        0x0
 .data          0x0000000000000000        0x0 c:/program files/microchip/xc32/v4.20/bin/bin/../../lib/gcc/pic32mx/8.3.1/../../../../pic32mx/lib\libc-musl.a(tolower.o)

.data%z47       0x0000000000000000        0x0
 .data          0x0000000000000000        0x0 c:/program files/microchip/xc32/v4.20/bin/bin/../../lib/gcc/pic32mx/8.3.1/../../../../pic32mx/lib\libc-musl.a(strncpy.o)

.data%z48       0x0000000000000000        0x0
 .data          0x0000000000000000        0x0 c:/program files/microchip/xc32/v4.20/bin/bin/../../lib/gcc/pic32mx/8.3.1/../../../../pic32mx/lib\libc-musl.a(strncmp.o)

.data%z49       0x0000000000000000        0x0
 .data          0x0000000000000000        0x0 c:/program files/microchip/xc32/v4.20/bin/bin/../../lib/gcc/pic32mx/8.3.1/../../../../pic32mx/lib\libc-musl.a(atoi.o)

.data%z50       0x0000000000000000        0x0
 .data          0x0000000000000000        0x0 c:/program files/microchip/xc32/v4.20/bin/bin/../../lib/gcc/pic32mx/8.3.1/../../../../pic32mx/lib\libc-musl.a(__printf_core.o)

.data%z51       0x0000000000000000        0x0
 .data          0x0000000000000000        0x0 c:/program files/microchip/xc32/v4.20/bin/bin/../../lib/gcc/pic32mx/8.3.1/../../../../pic32mx/lib\libc-musl.a(__pop_ptr.o)

.data%z52       0x0000000000000000        0x0
 .data          0x0000000000000000        0x0 c:/program files/microchip/xc32/v4.20/bin/bin/../../lib/gcc/pic32mx/8.3.1/../../../../pic32mx/lib\libc-musl.a(__pop_int.o)

.data%z53       0x0000000000000000        0x0
 .data          0x0000000000000000        0x0 c:/program files/microchip/xc32/v4.20/bin/bin/../../lib/gcc/pic32mx/8.3.1/../../../../pic32mx/lib\libc-musl.a(__fmt_x.o)

.data%z54       0x0000000000000000        0x0
 .data          0x0000000000000000        0x0 c:/program files/microchip/xc32/v4.20/bin/bin/../../lib/gcc/pic32mx/8.3.1/../../../../pic32mx/lib\libc-musl.a(__fmt_u.o)

.data%z55       0x0000000000000000        0x0
 .data          0x0000000000000000        0x0 c:/program files/microchip/xc32/v4.20/bin/bin/../../lib/gcc/pic32mx/8.3.1/../../../../pic32mx/lib\libc-musl.a(__fmt_s.o)

.data%z56       0x0000000000000000        0x0
 .data          0x0000000000000000        0x0 c:/program files/microchip/xc32/v4.20/bin/bin/../../lib/gcc/pic32mx/8.3.1/../../../../pic32mx/lib\libc-musl.a(__fmt_o.o)

.data%z57       0x0000000000000000        0x0
 .data          0x0000000000000000        0x0 c:/program files/microchip/xc32/v4.20/bin/bin/../../lib/gcc/pic32mx/8.3.1/../../../../pic32mx/lib\libc-musl.a(__fmt_d.o)

.data%z58       0x0000000000000000        0x0
 .data          0x0000000000000000        0x0 c:/program files/microchip/xc32/v4.20/bin/bin/../../lib/gcc/pic32mx/8.3.1/../../../../pic32mx/lib\libc-musl.a(__sio_sprintf_doux.o)

.data%z59       0x0000000000000000        0x0
 .data          0x0000000000000000        0x0 c:/program files/microchip/xc32/v4.20/bin/bin/../../lib/gcc/pic32mx/8.3.1/../../../../pic32mx/lib\libpic32.a(default-simple-tlb-refill-exception-handler.o)

.data%z60       0x0000000000000000        0x0
 .data          0x0000000000000000        0x0 c:/program files/microchip/xc32/v4.20/bin/bin/../../lib/gcc/pic32mx/8.3.1/../../../../pic32mx/lib\libpic32.a(default-cache-err-exception-handler.o)

.data%z61       0x0000000000000000        0x0
 .data          0x0000000000000000        0x0 c:/program files/microchip/xc32/v4.20/bin/bin/../../lib/gcc/pic32mx/8.3.1/../../../../pic32mx/lib\libpic32.a(defaultinterrupt.o)

.data%z62       0x0000000000000000        0x0
 .data          0x0000000000000000        0x0 c:/program files/microchip/xc32/v4.20/bin/bin/../../lib/gcc/pic32mx/8.3.1/../../../../pic32mx/lib\libpic32.a(simple-tlb-refill-exception.o)

.data%z63       0x0000000000000000        0x0
 .data          0x0000000000000000        0x0 c:/program files/microchip/xc32/v4.20/bin/bin/../../lib/gcc/pic32mx/8.3.1/../../../../pic32mx/lib\libpic32.a(cache-err-exception.o)

.data%z64       0x0000000000000000        0x0
 .data          0x0000000000000000        0x0 c:/program files/microchip/xc32/v4.20/bin/bin/../../lib/gcc/pic32mx/8.3.1/../../../../pic32mx/lib\libpic32.a(general-exception.o)

.data%z65       0x0000000000000000        0x0
 .data          0x0000000000000000        0x0 c:/program files/microchip/xc32/v4.20/bin/bin/../../lib/gcc/pic32mx/8.3.1/../../../../pic32mx/lib\libpic32.a(pic32_init_tlb_ebi_sqi.o)

.data%z66       0x0000000000000000        0x0
 .data          0x0000000000000000        0x0 c:/program files/microchip/xc32/v4.20/bin/bin/../../lib/gcc/pic32mx/8.3.1/../../../../pic32mx/lib\libpic32.a(pic32_init_cache.o)

.data%z67       0x0000000000000000        0x0
 .data          0x0000000000000000        0x0 c:/program files/microchip/xc32/v4.20/bin/bin/../../lib/gcc/pic32mx/8.3.1/../../../../pic32mx/lib\libpic32.a(pic32_data_init_0_1.o)

.data%z68       0x0000000000000000        0x0
 .data          0x0000000000000000        0x0 c:/program files/microchip/xc32/v4.20/bin/bin/../../lib/gcc/pic32mx/8.3.1/../../../../pic32mx/lib\libpic32.a(pic32_data_init_wrapper.o)

.data%z69       0x0000000000000000        0x0
 .data          0x0000000000000000        0x0 c:/program files/microchip/xc32/v4.20/bin/bin/../../lib/gcc/pic32mx/8.3.1/../../../../pic32mx/lib\libpic32.a(default-nmi-handler.o)

.data%z70       0x0000000000000000        0x0
 .data          0x0000000000000000        0x0 c:/program files/microchip/xc32/v4.20/bin/bin/../../lib/gcc/pic32mx/8.3.1/../../../../pic32mx/lib\libpic32.a(default-on-bootstrap.o)

.data%z71       0x0000000000000000        0x0
 .data          0x0000000000000000        0x0 c:/program files/microchip/xc32/v4.20/bin/bin/../../lib/gcc/pic32mx/8.3.1/../../../../pic32mx/lib\libpic32.a(default-on-reset.o)

.data%z72       0x0000000000000000        0x0
 .data          0x0000000000000000        0x0 c:/program files/microchip/xc32/v4.20/bin/bin/../../lib/gcc/pic32mx/8.3.1/../../../../pic32mx/lib\libpic32.a(default-bootstrap-exception-handler.o)

.data%z73       0x0000000000000000        0x0
 .data          0x0000000000000000        0x0 c:/program files/microchip/xc32/v4.20/bin/bin/../../lib/gcc/pic32mx/8.3.1/../../../../pic32mx/lib\libpic32.a(strlen.o)

.data%z74       0x0000000000000000        0x0
 .data          0x0000000000000000        0x0 c:/program files/microchip/xc32/v4.20/bin/bin/../../lib/gcc/pic32mx/8.3.1/../../../../pic32mx/lib\libpic32.a(strcmp.o)

.data%z75       0x0000000000000000        0x0
 .data          0x0000000000000000        0x0 c:/program files/microchip/xc32/v4.20/bin/bin/../../lib/gcc/pic32mx/8.3.1/../../../../pic32mx/lib\libpic32.a(memset.o)

.data%z76       0x0000000000000000        0x0
 .data          0x0000000000000000        0x0 c:/program files/microchip/xc32/v4.20/bin/bin/../../lib/gcc/pic32mx/8.3.1/../../../../pic32mx/lib\libpic32.a(memcpy.o)

.data%z77       0x0000000000000000        0x0
 .data          0x0000000000000000        0x0 c:/program files/microchip/xc32/v4.20/bin/bin/../../lib/gcc/pic32mx/8.3.1/../../../../pic32mx/lib\libpic32.a(memcmp.o)

.data%z78       0x0000000000000000        0x0
 .data          0x0000000000000000        0x0 c:/program files/microchip/xc32/v4.20/bin/bin/../../lib/gcc/pic32mx/8.3.1\libgcc.a(floatunsidf.o)

.data%z79       0x0000000000000000        0x0
 .data          0x0000000000000000        0x0 c:/program files/microchip/xc32/v4.20/bin/bin/../../lib/gcc/pic32mx/8.3.1\libgcc.a(floatunsisf.o)

.data%z80       0x0000000000000000        0x0
 .data          0x0000000000000000        0x0 c:/program files/microchip/xc32/v4.20/bin/bin/../../lib/gcc/pic32mx/8.3.1\libgcc.a(_floatundidf.o)

.data%z81       0x0000000000000000        0x0
 .data          0x0000000000000000        0x0 c:/program files/microchip/xc32/v4.20/bin/bin/../../lib/gcc/pic32mx/8.3.1\libgcc.a(_fixunssfdi.o)

.data%z82       0x0000000000000000        0x0
 .data          0x0000000000000000        0x0 c:/program files/microchip/xc32/v4.20/bin/bin/../../lib/gcc/pic32mx/8.3.1/../../../../pic32mx/lib\pic32_software_reset.o

.data%z83       0x0000000000000000        0x0
 .data          0x0000000000000000        0x0 c:/program files/microchip/xc32/v4.20/bin/bin/../../lib/gcc/pic32mx/8.3.1/../../../../pic32mx/lib/./proc/32MZ2048ECG144\default_isr_vectors.o

.data%z84       0x0000000000000000        0x0
 .data          0x0000000000000000        0x0 C:\Users\kyrk\AppData\Local\Temp\cc4IlKdm.o

.data%z85       0x0000000000000000        0x0
 .data          0x0000000000000000        0x0 C:\Users\kyrk\AppData\Local\Temp\ccopN9yJ.o

.data%z86       0x0000000000000000        0x0
 .data          0x0000000000000000        0x0 C:\Users\kyrk\AppData\Local\Temp\ccy8KzF8.o

.data%z87       0x0000000000000000        0x0
 .data          0x0000000000000000        0x0 c:/program files/microchip/xc32/v4.20/bin/bin/../../lib/gcc/pic32mx/8.3.1/../../../../pic32mx/lib/./proc/32MZ2048ECG144\vector_offset_init.o

.data%z88       0x0000000000000000        0x0
 .data          0x0000000000000000        0x0 output\wget.o

.data%z89       0x0000000000000000        0x0
 .data          0x0000000000000000        0x0 output\spi2.o

.data%z90       0x0000000000000000        0x0
 .data          0x0000000000000000        0x0 output\sha256.o

.data%z91       0x0000000000000000        0x0
 .data          0x0000000000000000        0x0 output\random.o

.data%z92       0x0000000000000000        0x0
 .data          0x0000000000000000        0x0 output\sntp.o

.data%z93       0x0000000000000000        0x0
 .data          0x0000000000000000        0x0 output\DNS.o

.data%z94       0x0000000000000000        0x0
 .data          0x0000000000000000        0x0 output\MQTTclient.o

.data%z95       0x0000000000000000        0x0
 .data          0x0000000000000000        0x0 output\MQTT.o

.data%z96       0x0000000000000000        0x0
 .data          0x0000000000000000        0x0 output\aes_ecb.o

.data%z97       0x0000000000000000        0x0
 .data          0x0000000000000000        0x0 output\aes_key.o

.data%z98       0x0000000000000000        0x0
 .data          0x0000000000000000        0x0 output\aes_challenge_response.o

.data%z99       0x0000000000000000        0x0
 .data          0x0000000000000000        0x0 output\rijndael.o

.data%z100      0x0000000000000000        0x0
 .data          0x0000000000000000        0x0 output\aes_cmac.o

.data%z101      0x0000000000000000        0x0
 .data          0x0000000000000000        0x0 output\aes_cbc_mac.o

.data%z102      0x0000000000000000        0x0
 .data          0x0000000000000000        0x0 output\aes_cbc.o

.data%z103      0x0000000000000000        0x0
 .data          0x0000000000000000        0x0 output\aes_block.o

.data%z104      0x0000000000000000        0x0
 .data          0x0000000000000000        0x0 output\aes_128.o

.data%z105      0x0000000000000000        0x0
 .data          0x0000000000000000        0x0 output\daylight.o

.data%z106      0x0000000000000000        0x0
 .data          0x0000000000000000        0x0 output\rtcconverter.o

.data%z107      0x0000000000000000        0x0
 .data          0x0000000000000000        0x0 output\sleep.o

.data%z108      0x0000000000000000        0x0
 .data          0x0000000000000000        0x0 output\usb_grbl_multi.o

.data%z109      0x0000000000000000        0x0
 .data          0x0000000000000000        0x0 output\noinitram.o

.data%z110      0x0000000000000000        0x0
 .data          0x0000000000000000        0x0 output\stackmeasure_helper.o

.data%z111      0x0000000000000000        0x0
 .data          0x0000000000000000        0x0 output\stackmeasure.o

.data%z112      0x0000000000000000        0x0
 .data          0x0000000000000000        0x0 output\bsp_sys_init.o

.data%z113      0x0000000000000000        0x0
 .data          0x0000000000000000        0x0 output\drv_usbhs.o

.data%z114      0x0000000000000000        0x0
 .data          0x0000000000000000        0x0 output\peripheral.o

.data%z115      0x0000000000000000        0x0
 .data          0x0000000000000000        0x0 output\system_init.o

.data%z116      0x0000000000000000        0x0
 .data          0x0000000000000000        0x0 output\sys_int_pic32.o

.data%z117      0x0000000000000000        0x0
 .data          0x0000000000000000        0x0 output\system_tasks.o

.data%z118      0x0000000000000000        0x0
 .data          0x0000000000000000        0x0 output\usb.o

.data%z119      0x0000000000000000        0x0
 .data          0x0000000000000000        0x0 output\usb_app.o

.data%z120      0x0000000000000000        0x0
 .data          0x0000000000000000        0x0 output\usb_device.o

.data%z121      0x0000000000000000        0x0
 .data          0x0000000000000000        0x0 output\usb_device_cdc.o

.data%z122      0x0000000000000000        0x0
 .data          0x0000000000000000        0x0 output\usb_device_cdc_acm.o

.data%z123      0x0000000000000000        0x0
 .data          0x0000000000000000        0x0 output\exceptions.o

.data%z124      0x0000000000000000        0x0
 .data          0x0000000000000000        0x0 output\isr.o

.data%z125      0x0000000000000000        0x0
 .data          0x0000000000000000        0x0 output\mal.o

.data%z126      0x0000000000000000        0x0
 .data          0x0000000000000000        0x0 output\BerkeleyAPI.o

.data%z127      0x0000000000000000        0x0
 .data          0x0000000000000000        0x0 output\TCP.o

.data%z128      0x0000000000000000        0x0
 .data          0x0000000000000000        0x0 output\Reboot.o

.data%z129      0x0000000000000000        0x0
 .data          0x0000000000000000        0x0 output\grbl_multi.o

.data%z130      0x0000000000000000        0x0
 .data          0x0000000000000000        0x0 output\ethernet_grbl_multi.o

.data%z131      0x0000000000000000        0x0
 .data          0x0000000000000000        0x0 output\UDP.o

.data%z132      0x0000000000000000        0x0
 .data          0x0000000000000000        0x0 output\StackTsk.o

.data%z133      0x0000000000000000        0x0
 .data          0x0000000000000000        0x0 output\IP.o

.data%z134      0x0000000000000000        0x0
 .data          0x0000000000000000        0x0 output\ICMP.o

.data%z135      0x0000000000000000        0x0
 .data          0x0000000000000000        0x0 output\Helpers.o

.data%z136      0x0000000000000000        0x0
 .data          0x0000000000000000        0x0 output\Announce.o

.data%z137      0x0000000000000000        0x0
 .data          0x0000000000000000        0x0 output\ARP.o

.data%z138      0x0000000000000000        0x0
 .data          0x0000000000000000        0x0 output\DHCP.o

.data%z139      0x0000000000000000        0x0
 .data          0x0000000000000000        0x0 output\ENC28J60.o

.data%z140      0x0000000000000000        0x0
 .data          0x0000000000000000        0x0 output\ethernet.o

.data%z141      0x0000000000000000        0x0
 .data          0x0000000000000000        0x0 output\grbl_probe.o

.data%z142      0x0000000000000000        0x0
 .data          0x0000000000000000        0x0 output\grbl_bootloader.o

.data%z143      0x0000000000000000        0x0
 .data          0x0000000000000000        0x0 output\grbl_running.o

.data%z144      0x0000000000000000        0x0
 .data          0x0000000000000000        0x0 output\grbl_protocol.o

.data%z145      0x0000000000000000        0x0
 .data          0x0000000000000000        0x0 output\grbl_toolchange.o

.data%z146      0x0000000000000000        0x0
 .data          0x0000000000000000        0x0 output\bootloader_interface.o

.data%z147      0x0000000000000000        0x0
 .data          0x0000000000000000        0x0 output\grbl_eeprom.o

.data%z148      0x0000000000000000        0x0
 .data          0x0000000000000000        0x0 output\system_alarm.o

.data%z149      0x0000000000000000        0x0
 .data          0x0000000000000000        0x0 output\system_exec.o

.data%z150      0x0000000000000000        0x0
 .data          0x0000000000000000        0x0 output\stepper_enable.o

.data%z151      0x0000000000000000        0x0
 .data          0x0000000000000000        0x0 output\system_control.o

.data%z152      0x0000000000000000        0x0
 .data          0x0000000000000000        0x0 output\eep_manager_crc.o

.data%z153      0x0000000000000000        0x0
 .data          0x0000000000000000        0x0 output\dee_page_helper.o

.data%z154      0x0000000000000000        0x0
 .data          0x0000000000000000        0x0 output\dee_page.o

.data%z155      0x0000000000000000        0x0
 .data          0x0000000000000000        0x0 output\dee.o

.data%z156      0x0000000000000000        0x0
 .data          0x0000000000000000        0x0 output\jog.o

.data%z157      0x0000000000000000        0x0
 .data          0x0000000000000000        0x0 output\pwm.o

.data%z158      0x0000000000000000        0x0
 .data          0x0000000000000000        0x0 output\grbl_homing.o

.data%z159      0x0000000000000000        0x0
 .data          0x0000000000000000        0x0 output\grbl.o

.data%z160      0x0000000000000000        0x0
 .data          0x0000000000000000        0x0 output\system.o

.data%z161      0x0000000000000000        0x0
 .data          0x0000000000000000        0x0 output\stepper.o

.data%z162      0x0000000000000000        0x0
 .data          0x0000000000000000        0x0 output\spindle_control.o

.data%z163      0x0000000000000000        0x0
 .data          0x0000000000000000        0x0 output\settings.o

.data%z164      0x0000000000000000        0x0
 .data          0x0000000000000000        0x0 output\grbl_report.o

.data%z165      0x0000000000000000        0x0
 .data          0x0000000000000000        0x0 output\grbl_print.o

.data%z166      0x0000000000000000        0x0
 .data          0x0000000000000000        0x0 output\planner.o

.data%z167      0x0000000000000000        0x0
 .data          0x0000000000000000        0x0 output\nuts_bolts.o

.data%z168      0x0000000000000000        0x0
 .data          0x0000000000000000        0x0 output\motion_control.o

.data%z169      0x0000000000000000        0x0
 .data          0x0000000000000000        0x0 output\coolant_control.o

.data%z170      0x0000000000000000        0x0
 .data          0x0000000000000000        0x0 output\grbl_limits.o

.data%z171      0x0000000000000000        0x0
 .data          0x0000000000000000        0x0 output\grbl_gcode.o

.data%z172      0x0000000000000000        0x0
 .data          0x0000000000000000        0x0 output\ad.o

.data%z173      0x0000000000000000        0x0
 .data          0x0000000000000000        0x0 output\app.o

.data%z174      0x0000000000000000        0x0
 .data          0x0000000000000000        0x0 output\eep_manager.o

.data%z175      0x0000000000000000        0x0
 .data          0x0000000000000000        0x0 output\eeprom.o

.data%z176      0x0000000000000000        0x0
 .data          0x0000000000000000        0x0 output\task.o

.data%z177      0x0000000000000000        0x0
 .data          0x0000000000000000        0x0 output\ringBuffer.o

.data%z178      0x0000000000000000        0x0
 .data          0x0000000000000000        0x0 output\tmr.o

.data%z179      0x0000000000000000        0x0
 .data          0x0000000000000000        0x0 c:/program files/microchip/xc32/v4.20/bin/bin/../../lib/gcc/pic32mx/8.3.1/../../../../pic32mx/lib\debug-exception-return.o

.bss.readBuffer
                0x00000000a0004f20      0x200
 .bss.readBuffer
                0x00000000a0004f20      0x200 output\usb_app.o
                0x00000000a0004f20                readBuffer

.bss.writeBuffer
                0x00000000a0005120      0x200
 .bss.writeBuffer
                0x00000000a0005120      0x200 output\usb_app.o
                0x00000000a0005120                writeBuffer

.bss            0x0000000080005320      0x218
 .bss           0x0000000080005320      0x128 output\TCP.o
 .bss           0x0000000080005448       0xf0 output\usb_device.o

.bss            0x0000000080005538      0x110
 .bss           0x0000000080005538       0x8c output\BerkeleyAPI.o
 .bss           0x00000000800055c4       0x84 output\grbl_gcode.o
                0x00000000800055c4                gc_block
                0x0000000080005604                gc_state

.bss            0x0000000080005648       0x6c
 .bss           0x0000000080005648       0x40 output\tmr.o
 .bss           0x0000000080005688       0x2c output\DHCP.o

.bss            0x00000000800056b4       0x36
 .bss           0x00000000800056b4       0x20 output\grbl_report.o
                0x00000000800056b4                buffer_missed_char_logger
 .bss           0x00000000800056d4       0x16 output\ARP.o

.bss            0x00000000800056ec       0x10
 .bss           0x00000000800056ec       0x10 output\c_eep_manager.o
                0x00000000800056ec                app_rfe_last_raw_packet

.bss            0x0000000080004f14        0xc
 .bss           0x0000000080004f14        0xc output\dee.o
                0x0000000080004f14                GetIndexOfEmptyDataElement_LastFoundHere

.bss.errno      0x0000000080004cac        0x4
 .bss.errno     0x0000000080004cac        0x4 c:/program files/microchip/xc32/v4.20/bin/bin/../../lib/gcc/pic32mx/8.3.1/../../../../pic32mx/lib\libpic32.a(errno.o)
                0x0000000080004cac                errno

.bss%z180       0x0000000000000000        0x0
 .bss           0x0000000000000000        0x0 c:/program files/microchip/xc32/v4.20/bin/bin/../../lib/gcc/pic32mx/8.3.1/../../../../pic32mx/lib\libe.a(_unorddf2.o)

.bss%z181       0x0000000000000000        0x0
 .bss           0x0000000000000000        0x0 c:/program files/microchip/xc32/v4.20/bin/bin/../../lib/gcc/pic32mx/8.3.1/../../../../pic32mx/lib\libpic32.a(isinf.o)

.bss%z182       0x0000000000000000        0x0
 .bss           0x0000000000000000        0x0 c:/program files/microchip/xc32/v4.20/bin/bin/../../lib/gcc/pic32mx/8.3.1/../../../../pic32mx/lib\libpic32.a(errno.o)

.bss%z183       0x0000000000000000        0x0
 .bss           0x0000000000000000        0x0 c:/program files/microchip/xc32/v4.20/bin/bin/../../lib/gcc/pic32mx/8.3.1\libgcc.a(_umoddi3.o)

.bss%z184       0x0000000000000000        0x0
 .bss           0x0000000000000000        0x0 c:/program files/microchip/xc32/v4.20/bin/bin/../../lib/gcc/pic32mx/8.3.1\libgcc.a(_udivdi3.o)

.bss%z185       0x0000000000000000        0x0
 .bss           0x0000000000000000        0x0 c:/program files/microchip/xc32/v4.20/bin/bin/../../lib/gcc/pic32mx/8.3.1/../../../../pic32mx/lib\libm.a(s_lib_ver.o)

.bss%z186       0x0000000000000000        0x0
 .bss           0x0000000000000000        0x0 c:/program files/microchip/xc32/v4.20/bin/bin/../../lib/gcc/pic32mx/8.3.1/../../../../pic32mx/lib\libm.a(dpldexp.o)

.bss%z187       0x0000000000000000        0x0
 .bss           0x0000000000000000        0x0 c:/program files/microchip/xc32/v4.20/bin/bin/../../lib/gcc/pic32mx/8.3.1/../../../../pic32mx/lib\libm.a(w_ldexp.o)

.bss%z188       0x0000000000000000        0x0
 .bss           0x0000000000000000        0x0 c:/program files/microchip/xc32/v4.20/bin/bin/../../lib/gcc/pic32mx/8.3.1/../../../../pic32mx/lib\libm.a(support.o)

.bss%z189       0x0000000000000000        0x0
 .bss           0x0000000000000000        0x0 c:/program files/microchip/xc32/v4.20/bin/bin/../../lib/gcc/pic32mx/8.3.1/../../../../pic32mx/lib\libm.a(w_sqrt.o)

.bss%z190       0x0000000000000000        0x0
 .bss           0x0000000000000000        0x0 c:/program files/microchip/xc32/v4.20/bin/bin/../../lib/gcc/pic32mx/8.3.1/../../../../pic32mx/lib\libm.a(atan2.o)

.bss%z191       0x0000000000000000        0x0
 .bss           0x0000000000000000        0x0 c:/program files/microchip/xc32/v4.20/bin/bin/../../lib/gcc/pic32mx/8.3.1/../../../../pic32mx/lib\libm.a(sitofp.o)

.bss%z192       0x0000000000000000        0x0
 .bss           0x0000000000000000        0x0 c:/program files/microchip/xc32/v4.20/bin/bin/../../lib/gcc/pic32mx/8.3.1/../../../../pic32mx/lib\libm.a(sincos32.o)

.bss%z193       0x0000000000000000        0x0
 .bss           0x0000000000000000        0x0 c:/program files/microchip/xc32/v4.20/bin/bin/../../lib/gcc/pic32mx/8.3.1/../../../../pic32mx/lib\libm.a(sin32.o)

.bss%z194       0x0000000000000000        0x0
 .bss           0x0000000000000000        0x0 c:/program files/microchip/xc32/v4.20/bin/bin/../../lib/gcc/pic32mx/8.3.1/../../../../pic32mx/lib\libm.a(sigmax.o)

.bss%z195       0x0000000000000000        0x0
 .bss           0x0000000000000000        0x0 c:/program files/microchip/xc32/v4.20/bin/bin/../../lib/gcc/pic32mx/8.3.1/../../../../pic32mx/lib\libm.a(reduct32.o)

.bss%z196       0x0000000000000000        0x0
 .bss           0x0000000000000000        0x0 c:/program files/microchip/xc32/v4.20/bin/bin/../../lib/gcc/pic32mx/8.3.1/../../../../pic32mx/lib\libm.a(litodp.o)

.bss%z197       0x0000000000000000        0x0
 .bss           0x0000000000000000        0x0 c:/program files/microchip/xc32/v4.20/bin/bin/../../lib/gcc/pic32mx/8.3.1/../../../../pic32mx/lib\libm.a(fptoul.o)

.bss%z198       0x0000000000000000        0x0
 .bss           0x0000000000000000        0x0 c:/program files/microchip/xc32/v4.20/bin/bin/../../lib/gcc/pic32mx/8.3.1/../../../../pic32mx/lib\libm.a(fptoli.o)

.bss%z199       0x0000000000000000        0x0
 .bss           0x0000000000000000        0x0 c:/program files/microchip/xc32/v4.20/bin/bin/../../lib/gcc/pic32mx/8.3.1/../../../../pic32mx/lib\libm.a(fptodp.o)

.bss%z200       0x0000000000000000        0x0
 .bss           0x0000000000000000        0x0 c:/program files/microchip/xc32/v4.20/bin/bin/../../lib/gcc/pic32mx/8.3.1/../../../../pic32mx/lib\libm.a(fpexsqrt32.o)

.bss%z201       0x0000000000000000        0x0
 .bss           0x0000000000000000        0x0 c:/program files/microchip/xc32/v4.20/bin/bin/../../lib/gcc/pic32mx/8.3.1/../../../../pic32mx/lib\libm.a(fpcmplt.o)

.bss%z202       0x0000000000000000        0x0
 .bss           0x0000000000000000        0x0 c:/program files/microchip/xc32/v4.20/bin/bin/../../lib/gcc/pic32mx/8.3.1/../../../../pic32mx/lib\libm.a(fpcmp.o)

.bss%z203       0x0000000000000000        0x0
 .bss           0x0000000000000000        0x0 c:/program files/microchip/xc32/v4.20/bin/bin/../../lib/gcc/pic32mx/8.3.1/../../../../pic32mx/lib\libm.a(fp32subadd.o)

.bss%z204       0x0000000000000000        0x0
 .bss           0x0000000000000000        0x0 c:/program files/microchip/xc32/v4.20/bin/bin/../../lib/gcc/pic32mx/8.3.1/../../../../pic32mx/lib\libm.a(fp32mul.o)

.bss%z205       0x0000000000000000        0x0
 .bss           0x0000000000000000        0x0 c:/program files/microchip/xc32/v4.20/bin/bin/../../lib/gcc/pic32mx/8.3.1/../../../../pic32mx/lib\libm.a(fp32div.o)

.bss%z206       0x0000000000000000        0x0
 .bss           0x0000000000000000        0x0 c:/program files/microchip/xc32/v4.20/bin/bin/../../lib/gcc/pic32mx/8.3.1/../../../../pic32mx/lib\libm.a(exsqrt.o)

.bss%z207       0x0000000000000000        0x0
 .bss           0x0000000000000000        0x0 c:/program files/microchip/xc32/v4.20/bin/bin/../../lib/gcc/pic32mx/8.3.1/../../../../pic32mx/lib\libm.a(exmul.o)

.bss%z208       0x0000000000000000        0x0
 .bss           0x0000000000000000        0x0 c:/program files/microchip/xc32/v4.20/bin/bin/../../lib/gcc/pic32mx/8.3.1/../../../../pic32mx/lib\libm.a(dptoul.o)

.bss%z209       0x0000000000000000        0x0
 .bss           0x0000000000000000        0x0 c:/program files/microchip/xc32/v4.20/bin/bin/../../lib/gcc/pic32mx/8.3.1/../../../../pic32mx/lib\libm.a(dptoli.o)

.bss%z210       0x0000000000000000        0x0
 .bss           0x0000000000000000        0x0 c:/program files/microchip/xc32/v4.20/bin/bin/../../lib/gcc/pic32mx/8.3.1/../../../../pic32mx/lib\libm.a(dptofp.o)

.bss%z211       0x0000000000000000        0x0
 .bss           0x0000000000000000        0x0 c:/program files/microchip/xc32/v4.20/bin/bin/../../lib/gcc/pic32mx/8.3.1/../../../../pic32mx/lib\libm.a(dpsqrt.o)

.bss%z212       0x0000000000000000        0x0
 .bss           0x0000000000000000        0x0 c:/program files/microchip/xc32/v4.20/bin/bin/../../lib/gcc/pic32mx/8.3.1/../../../../pic32mx/lib\libm.a(dpcmplt.o)

.bss%z213       0x0000000000000000        0x0
 .bss           0x0000000000000000        0x0 c:/program files/microchip/xc32/v4.20/bin/bin/../../lib/gcc/pic32mx/8.3.1/../../../../pic32mx/lib\libm.a(dpcmp.o)

.bss%z214       0x0000000000000000        0x0
 .bss           0x0000000000000000        0x0 c:/program files/microchip/xc32/v4.20/bin/bin/../../lib/gcc/pic32mx/8.3.1/../../../../pic32mx/lib\libm.a(dp32subadd.o)

.bss%z215       0x0000000000000000        0x0
 .bss           0x0000000000000000        0x0 c:/program files/microchip/xc32/v4.20/bin/bin/../../lib/gcc/pic32mx/8.3.1/../../../../pic32mx/lib\libm.a(dp32mul.o)

.bss%z216       0x0000000000000000        0x0
 .bss           0x0000000000000000        0x0 c:/program files/microchip/xc32/v4.20/bin/bin/../../lib/gcc/pic32mx/8.3.1/../../../../pic32mx/lib\libm.a(dp32div.o)

.bss%z217       0x0000000000000000        0x0
 .bss           0x0000000000000000        0x0 c:/program files/microchip/xc32/v4.20/bin/bin/../../lib/gcc/pic32mx/8.3.1/../../../../pic32mx/lib\libm.a(cos32.o)

.bss%z218       0x0000000000000000        0x0
 .bss           0x0000000000000000        0x0 c:/program files/microchip/xc32/v4.20/bin/bin/../../lib/gcc/pic32mx/8.3.1/../../../../pic32mx/lib\libm.a(ceil32.o)

.bss%z219       0x0000000000000000        0x0
 .bss           0x0000000000000000        0x0 c:/program files/microchip/xc32/v4.20/bin/bin/../../lib/gcc/pic32mx/8.3.1/../../../../pic32mx/lib\libm.a(floor32.o)

.bss%z220       0x0000000000000000        0x0
 .bss           0x0000000000000000        0x0 c:/program files/microchip/xc32/v4.20/bin/bin/../../lib/gcc/pic32mx/8.3.1/../../../../pic32mx/lib\libc-musl.a(__int_vfprintf.o)

.bss%z221       0x0000000000000000        0x0
 .bss           0x0000000000000000        0x0 c:/program files/microchip/xc32/v4.20/bin/bin/../../lib/gcc/pic32mx/8.3.1/../../../../pic32mx/lib\libc-musl.a(__int_vsnprintf.o)

.bss%z222       0x0000000000000000        0x0
 .bss           0x0000000000000000        0x0 c:/program files/microchip/xc32/v4.20/bin/bin/../../lib/gcc/pic32mx/8.3.1/../../../../pic32mx/lib\libc-musl.a(stpncpy.o)

.bss%z223       0x0000000000000000        0x0
 .bss           0x0000000000000000        0x0 c:/program files/microchip/xc32/v4.20/bin/bin/../../lib/gcc/pic32mx/8.3.1/../../../../pic32mx/lib\libc-musl.a(__pop_float.o)

.bss%z224       0x0000000000000000        0x0
 .bss           0x0000000000000000        0x0 c:/program files/microchip/xc32/v4.20/bin/bin/../../lib/gcc/pic32mx/8.3.1/../../../../pic32mx/lib\libc-musl.a(__int_vsprintf.o)

.bss%z225       0x0000000000000000        0x0
 .bss           0x0000000000000000        0x0 c:/program files/microchip/xc32/v4.20/bin/bin/../../lib/gcc/pic32mx/8.3.1/../../../../pic32mx/lib\libc-musl.a(toupper.o)

.bss%z226       0x0000000000000000        0x0
 .bss           0x0000000000000000        0x0 c:/program files/microchip/xc32/v4.20/bin/bin/../../lib/gcc/pic32mx/8.3.1/../../../../pic32mx/lib\libc-musl.a(tolower.o)

.bss%z227       0x0000000000000000        0x0
 .bss           0x0000000000000000        0x0 c:/program files/microchip/xc32/v4.20/bin/bin/../../lib/gcc/pic32mx/8.3.1/../../../../pic32mx/lib\libc-musl.a(strncpy.o)

.bss%z228       0x0000000000000000        0x0
 .bss           0x0000000000000000        0x0 c:/program files/microchip/xc32/v4.20/bin/bin/../../lib/gcc/pic32mx/8.3.1/../../../../pic32mx/lib\libc-musl.a(strncmp.o)

.bss%z229       0x0000000000000000        0x0
 .bss           0x0000000000000000        0x0 c:/program files/microchip/xc32/v4.20/bin/bin/../../lib/gcc/pic32mx/8.3.1/../../../../pic32mx/lib\libc-musl.a(atoi.o)

.bss%z230       0x0000000000000000        0x0
 .bss           0x0000000000000000        0x0 c:/program files/microchip/xc32/v4.20/bin/bin/../../lib/gcc/pic32mx/8.3.1/../../../../pic32mx/lib\libc-musl.a(__printf_core.o)

.bss%z231       0x0000000000000000        0x0
 .bss           0x0000000000000000        0x0 c:/program files/microchip/xc32/v4.20/bin/bin/../../lib/gcc/pic32mx/8.3.1/../../../../pic32mx/lib\libc-musl.a(__pop_ptr.o)

.bss%z232       0x0000000000000000        0x0
 .bss           0x0000000000000000        0x0 c:/program files/microchip/xc32/v4.20/bin/bin/../../lib/gcc/pic32mx/8.3.1/../../../../pic32mx/lib\libc-musl.a(__pop_int.o)

.bss%z233       0x0000000000000000        0x0
 .bss           0x0000000000000000        0x0 c:/program files/microchip/xc32/v4.20/bin/bin/../../lib/gcc/pic32mx/8.3.1/../../../../pic32mx/lib\libc-musl.a(__fmt_x.o)

.bss%z234       0x0000000000000000        0x0
 .bss           0x0000000000000000        0x0 c:/program files/microchip/xc32/v4.20/bin/bin/../../lib/gcc/pic32mx/8.3.1/../../../../pic32mx/lib\libc-musl.a(__fmt_u.o)

.bss%z235       0x0000000000000000        0x0
 .bss           0x0000000000000000        0x0 c:/program files/microchip/xc32/v4.20/bin/bin/../../lib/gcc/pic32mx/8.3.1/../../../../pic32mx/lib\libc-musl.a(__fmt_s.o)

.bss%z236       0x0000000000000000        0x0
 .bss           0x0000000000000000        0x0 c:/program files/microchip/xc32/v4.20/bin/bin/../../lib/gcc/pic32mx/8.3.1/../../../../pic32mx/lib\libc-musl.a(__fmt_o.o)

.bss%z237       0x0000000000000000        0x0
 .bss           0x0000000000000000        0x0 c:/program files/microchip/xc32/v4.20/bin/bin/../../lib/gcc/pic32mx/8.3.1/../../../../pic32mx/lib\libc-musl.a(__fmt_d.o)

.bss%z238       0x0000000000000000        0x0
 .bss           0x0000000000000000        0x0 c:/program files/microchip/xc32/v4.20/bin/bin/../../lib/gcc/pic32mx/8.3.1/../../../../pic32mx/lib\libc-musl.a(__sio_sprintf_doux.o)

.bss%z239       0x0000000000000000        0x0
 .bss           0x0000000000000000        0x0 c:/program files/microchip/xc32/v4.20/bin/bin/../../lib/gcc/pic32mx/8.3.1/../../../../pic32mx/lib\libpic32.a(default-simple-tlb-refill-exception-handler.o)

.bss%z240       0x0000000000000000        0x0
 .bss           0x0000000000000000        0x0 c:/program files/microchip/xc32/v4.20/bin/bin/../../lib/gcc/pic32mx/8.3.1/../../../../pic32mx/lib\libpic32.a(default-cache-err-exception-handler.o)

.bss%z241       0x0000000000000000        0x0
 .bss           0x0000000000000000        0x0 c:/program files/microchip/xc32/v4.20/bin/bin/../../lib/gcc/pic32mx/8.3.1/../../../../pic32mx/lib\libpic32.a(defaultinterrupt.o)

.bss%z242       0x0000000000000000        0x0
 .bss           0x0000000000000000        0x0 c:/program files/microchip/xc32/v4.20/bin/bin/../../lib/gcc/pic32mx/8.3.1/../../../../pic32mx/lib\libpic32.a(simple-tlb-refill-exception.o)

.bss%z243       0x0000000000000000        0x0
 .bss           0x0000000000000000        0x0 c:/program files/microchip/xc32/v4.20/bin/bin/../../lib/gcc/pic32mx/8.3.1/../../../../pic32mx/lib\libpic32.a(cache-err-exception.o)

.bss%z244       0x0000000000000000        0x0
 .bss           0x0000000000000000        0x0 c:/program files/microchip/xc32/v4.20/bin/bin/../../lib/gcc/pic32mx/8.3.1/../../../../pic32mx/lib\libpic32.a(general-exception.o)

.bss%z245       0x0000000000000000        0x0
 .bss           0x0000000000000000        0x0 c:/program files/microchip/xc32/v4.20/bin/bin/../../lib/gcc/pic32mx/8.3.1/../../../../pic32mx/lib\libpic32.a(pic32_init_tlb_ebi_sqi.o)

.bss%z246       0x0000000000000000        0x0
 .bss           0x0000000000000000        0x0 c:/program files/microchip/xc32/v4.20/bin/bin/../../lib/gcc/pic32mx/8.3.1/../../../../pic32mx/lib\libpic32.a(pic32_init_cache.o)

.bss%z247       0x0000000000000000        0x0
 .bss           0x0000000000000000        0x0 c:/program files/microchip/xc32/v4.20/bin/bin/../../lib/gcc/pic32mx/8.3.1/../../../../pic32mx/lib\libpic32.a(pic32_data_init_0_1.o)

.bss%z248       0x0000000000000000        0x0
 .bss           0x0000000000000000        0x0 c:/program files/microchip/xc32/v4.20/bin/bin/../../lib/gcc/pic32mx/8.3.1/../../../../pic32mx/lib\libpic32.a(pic32_data_init_wrapper.o)

.bss%z249       0x0000000000000000        0x0
 .bss           0x0000000000000000        0x0 c:/program files/microchip/xc32/v4.20/bin/bin/../../lib/gcc/pic32mx/8.3.1/../../../../pic32mx/lib\libpic32.a(default-nmi-handler.o)

.bss%z250       0x0000000000000000        0x0
 .bss           0x0000000000000000        0x0 c:/program files/microchip/xc32/v4.20/bin/bin/../../lib/gcc/pic32mx/8.3.1/../../../../pic32mx/lib\libpic32.a(default-on-bootstrap.o)

.bss%z251       0x0000000000000000        0x0
 .bss           0x0000000000000000        0x0 c:/program files/microchip/xc32/v4.20/bin/bin/../../lib/gcc/pic32mx/8.3.1/../../../../pic32mx/lib\libpic32.a(default-on-reset.o)

.bss%z252       0x0000000000000000        0x0
 .bss           0x0000000000000000        0x0 c:/program files/microchip/xc32/v4.20/bin/bin/../../lib/gcc/pic32mx/8.3.1/../../../../pic32mx/lib\libpic32.a(default-bootstrap-exception-handler.o)

.bss%z253       0x0000000000000000        0x0
 .bss           0x0000000000000000        0x0 c:/program files/microchip/xc32/v4.20/bin/bin/../../lib/gcc/pic32mx/8.3.1/../../../../pic32mx/lib\libpic32.a(strlen.o)

.bss%z254       0x0000000000000000        0x0
 .bss           0x0000000000000000        0x0 c:/program files/microchip/xc32/v4.20/bin/bin/../../lib/gcc/pic32mx/8.3.1/../../../../pic32mx/lib\libpic32.a(strcmp.o)

.bss%z255       0x0000000000000000        0x0
 .bss           0x0000000000000000        0x0 c:/program files/microchip/xc32/v4.20/bin/bin/../../lib/gcc/pic32mx/8.3.1/../../../../pic32mx/lib\libpic32.a(memset.o)

.bss%z256       0x0000000000000000        0x0
 .bss           0x0000000000000000        0x0 c:/program files/microchip/xc32/v4.20/bin/bin/../../lib/gcc/pic32mx/8.3.1/../../../../pic32mx/lib\libpic32.a(memcpy.o)

.bss%z257       0x0000000000000000        0x0
 .bss           0x0000000000000000        0x0 c:/program files/microchip/xc32/v4.20/bin/bin/../../lib/gcc/pic32mx/8.3.1/../../../../pic32mx/lib\libpic32.a(memcmp.o)

.bss%z258       0x0000000000000000        0x0
 .bss           0x0000000000000000        0x0 c:/program files/microchip/xc32/v4.20/bin/bin/../../lib/gcc/pic32mx/8.3.1\libgcc.a(floatunsidf.o)

.bss%z259       0x0000000000000000        0x0
 .bss           0x0000000000000000        0x0 c:/program files/microchip/xc32/v4.20/bin/bin/../../lib/gcc/pic32mx/8.3.1\libgcc.a(floatunsisf.o)

.bss%z260       0x0000000000000000        0x0
 .bss           0x0000000000000000        0x0 c:/program files/microchip/xc32/v4.20/bin/bin/../../lib/gcc/pic32mx/8.3.1\libgcc.a(_floatundidf.o)

.bss%z261       0x0000000000000000        0x0
 .bss           0x0000000000000000        0x0 c:/program files/microchip/xc32/v4.20/bin/bin/../../lib/gcc/pic32mx/8.3.1\libgcc.a(_fixunssfdi.o)

.bss%z262       0x0000000000000000        0x0
 .bss           0x0000000000000000        0x0 c:/program files/microchip/xc32/v4.20/bin/bin/../../lib/gcc/pic32mx/8.3.1/../../../../pic32mx/lib\pic32_software_reset.o

.bss%z263       0x0000000000000000        0x0
 .bss           0x0000000000000000        0x0 c:/program files/microchip/xc32/v4.20/bin/bin/../../lib/gcc/pic32mx/8.3.1/../../../../pic32mx/lib/./proc/32MZ2048ECG144\default_isr_vectors.o

.bss%z264       0x0000000000000000        0x0
 .bss           0x0000000000000000        0x0 C:\Users\kyrk\AppData\Local\Temp\cc4IlKdm.o

.bss%z265       0x0000000000000000        0x0
 .bss           0x0000000000000000        0x0 C:\Users\kyrk\AppData\Local\Temp\ccopN9yJ.o

.bss%z266       0x0000000000000000        0x0
 .bss           0x0000000000000000        0x0 C:\Users\kyrk\AppData\Local\Temp\ccy8KzF8.o

.bss%z267       0x0000000000000000        0x0
 .bss           0x0000000000000000        0x0 c:/program files/microchip/xc32/v4.20/bin/bin/../../lib/gcc/pic32mx/8.3.1/../../../../pic32mx/lib/./proc/32MZ2048ECG144\vector_offset_init.o

.bss%z268       0x0000000000000000        0x0
 .bss           0x0000000000000000        0x0 output\wget.o

.bss%z269       0x0000000000000000        0x0
 .bss           0x0000000000000000        0x0 output\spi2.o

.bss%z270       0x0000000000000000        0x0
 .bss           0x0000000000000000        0x0 output\sha256.o

.bss%z271       0x0000000000000000        0x0
 .bss           0x0000000000000000        0x0 output\random.o

.bss%z272       0x0000000000000000        0x0
 .bss           0x0000000000000000        0x0 output\sntp.o

.bss%z273       0x0000000000000000        0x0
 .bss           0x0000000000000000        0x0 output\DNS.o

.bss%z274       0x0000000000000000        0x0
 .bss           0x0000000000000000        0x0 output\MQTTclient.o

.bss%z275       0x0000000000000000        0x0
 .bss           0x0000000000000000        0x0 output\MQTT.o

.bss%z276       0x0000000000000000        0x0
 .bss           0x0000000000000000        0x0 output\aes_ecb.o

.bss%z277       0x0000000000000000        0x0
 .bss           0x0000000000000000        0x0 output\aes_key.o

.bss%z278       0x0000000000000000        0x0
 .bss           0x0000000000000000        0x0 output\aes_challenge_response.o

.bss%z279       0x0000000000000000        0x0
 .bss           0x0000000000000000        0x0 output\rijndael.o

.bss%z280       0x0000000000000000        0x0
 .bss           0x0000000000000000        0x0 output\aes_cmac.o

.bss%z281       0x0000000000000000        0x0
 .bss           0x0000000000000000        0x0 output\aes_cbc_mac.o

.bss%z282       0x0000000000000000        0x0
 .bss           0x0000000000000000        0x0 output\aes_cbc.o

.bss%z283       0x0000000000000000        0x0
 .bss           0x0000000000000000        0x0 output\aes_block.o

.bss%z284       0x0000000000000000        0x0
 .bss           0x0000000000000000        0x0 output\aes_128.o

.bss%z285       0x0000000000000000        0x0
 .bss           0x0000000000000000        0x0 output\daylight.o

.bss%z286       0x0000000000000000        0x0
 .bss           0x0000000000000000        0x0 output\rtc.o

.bss%z287       0x0000000000000000        0x0
 .bss           0x0000000000000000        0x0 output\rtcconverter.o

.bss%z288       0x0000000000000000        0x0
 .bss           0x0000000000000000        0x0 output\sleep.o

.bss%z289       0x0000000000000000        0x0
 .bss           0x0000000000000000        0x0 output\usb_grbl_multi.o

.bss%z290       0x0000000000000000        0x0
 .bss           0x0000000000000000        0x0 output\noinitram.o

.bss%z291       0x0000000000000000        0x0
 .bss           0x0000000000000000        0x0 output\stackmeasure_helper.o

.bss%z292       0x0000000000000000        0x0
 .bss           0x0000000000000000        0x0 output\stackmeasure.o

.bss%z293       0x0000000000000000        0x0
 .bss           0x0000000000000000        0x0 output\bsp_sys_init.o

.bss%z294       0x0000000000000000        0x0
 .bss           0x0000000000000000        0x0 output\drv_usbhs.o

.bss%z295       0x0000000000000000        0x0
 .bss           0x0000000000000000        0x0 output\drv_usbhs_device.o

.bss%z296       0x0000000000000000        0x0
 .bss           0x0000000000000000        0x0 output\peripheral.o

.bss%z297       0x0000000000000000        0x0
 .bss           0x0000000000000000        0x0 output\system_init.o

.bss%z298       0x0000000000000000        0x0
 .bss           0x0000000000000000        0x0 output\sys_int_pic32.o

.bss%z299       0x0000000000000000        0x0
 .bss           0x0000000000000000        0x0 output\system_tasks.o

.bss%z300       0x0000000000000000        0x0
 .bss           0x0000000000000000        0x0 output\usb.o

.bss%z301       0x0000000000000000        0x0
 .bss           0x0000000000000000        0x0 output\usb_app.o

.bss%z302       0x0000000000000000        0x0
 .bss           0x0000000000000000        0x0 output\usb_device_cdc.o

.bss%z303       0x0000000000000000        0x0
 .bss           0x0000000000000000        0x0 output\usb_device_cdc_acm.o

.bss%z304       0x0000000000000000        0x0
 .bss           0x0000000000000000        0x0 output\exceptions.o

.bss%z305       0x0000000000000000        0x0
 .bss           0x0000000000000000        0x0 output\isr.o

.bss%z306       0x0000000000000000        0x0
 .bss           0x0000000000000000        0x0 output\mal.o

.bss%z307       0x0000000000000000        0x0
 .bss           0x0000000000000000        0x0 output\Reboot.o

.bss%z308       0x0000000000000000        0x0
 .bss           0x0000000000000000        0x0 output\grbl_multi.o

.bss%z309       0x0000000000000000        0x0
 .bss           0x0000000000000000        0x0 output\ethernet_grbl_multi.o

.bss%z310       0x0000000000000000        0x0
 .bss           0x0000000000000000        0x0 output\UDP.o

.bss%z311       0x0000000000000000        0x0
 .bss           0x0000000000000000        0x0 output\StackTsk.o

.bss%z312       0x0000000000000000        0x0
 .bss           0x0000000000000000        0x0 output\IP.o

.bss%z313       0x0000000000000000        0x0
 .bss           0x0000000000000000        0x0 output\ICMP.o

.bss%z314       0x0000000000000000        0x0
 .bss           0x0000000000000000        0x0 output\Helpers.o

.bss%z315       0x0000000000000000        0x0
 .bss           0x0000000000000000        0x0 output\Announce.o

.bss%z316       0x0000000000000000        0x0
 .bss           0x0000000000000000        0x0 output\ENC28J60.o

.bss%z317       0x0000000000000000        0x0
 .bss           0x0000000000000000        0x0 output\ethernet.o

.bss%z318       0x0000000000000000        0x0
 .bss           0x0000000000000000        0x0 output\grbl_probe.o

.bss%z319       0x0000000000000000        0x0
 .bss           0x0000000000000000        0x0 output\grbl_bootloader.o

.bss%z320       0x0000000000000000        0x0
 .bss           0x0000000000000000        0x0 output\grbl_running.o

.bss%z321       0x0000000000000000        0x0
 .bss           0x0000000000000000        0x0 output\grbl_protocol.o

.bss%z322       0x0000000000000000        0x0
 .bss           0x0000000000000000        0x0 output\grbl_toolchange.o

.bss%z323       0x0000000000000000        0x0
 .bss           0x0000000000000000        0x0 output\bootloader_interface.o

.bss%z324       0x0000000000000000        0x0
 .bss           0x0000000000000000        0x0 output\grbl_eeprom.o

.bss%z325       0x0000000000000000        0x0
 .bss           0x0000000000000000        0x0 output\system_alarm.o

.bss%z326       0x0000000000000000        0x0
 .bss           0x0000000000000000        0x0 output\system_exec.o

.bss%z327       0x0000000000000000        0x0
 .bss           0x0000000000000000        0x0 output\stepper_enable.o

.bss%z328       0x0000000000000000        0x0
 .bss           0x0000000000000000        0x0 output\system_control.o

.bss%z329       0x0000000000000000        0x0
 .bss           0x0000000000000000        0x0 output\eep_manager_crc.o

.bss%z330       0x0000000000000000        0x0
 .bss           0x0000000000000000        0x0 output\dee_page_helper.o

.bss%z331       0x0000000000000000        0x0
 .bss           0x0000000000000000        0x0 output\dee_page.o

.bss%z332       0x0000000000000000        0x0
 .bss           0x0000000000000000        0x0 output\jog.o

.bss%z333       0x0000000000000000        0x0
 .bss           0x0000000000000000        0x0 output\pwm.o

.bss%z334       0x0000000000000000        0x0
 .bss           0x0000000000000000        0x0 output\grbl_homing.o

.bss%z335       0x0000000000000000        0x0
 .bss           0x0000000000000000        0x0 output\grbl.o

.bss%z336       0x0000000000000000        0x0
 .bss           0x0000000000000000        0x0 output\system.o

.bss%z337       0x0000000000000000        0x0
 .bss           0x0000000000000000        0x0 output\stepper.o

.bss%z338       0x0000000000000000        0x0
 .bss           0x0000000000000000        0x0 output\spindle_control.o

.bss%z339       0x0000000000000000        0x0
 .bss           0x0000000000000000        0x0 output\settings.o

.bss%z340       0x0000000000000000        0x0
 .bss           0x0000000000000000        0x0 output\grbl_print.o

.bss%z341       0x0000000000000000        0x0
 .bss           0x0000000000000000        0x0 output\planner.o

.bss%z342       0x0000000000000000        0x0
 .bss           0x0000000000000000        0x0 output\nuts_bolts.o

.bss%z343       0x0000000000000000        0x0
 .bss           0x0000000000000000        0x0 output\motion_control.o

.bss%z344       0x0000000000000000        0x0
 .bss           0x0000000000000000        0x0 output\coolant_control.o

.bss%z345       0x0000000000000000        0x0
 .bss           0x0000000000000000        0x0 output\grbl_limits.o

.bss%z346       0x0000000000000000        0x0
 .bss           0x0000000000000000        0x0 output\ad.o

.bss%z347       0x0000000000000000        0x0
 .bss           0x0000000000000000        0x0 output\app.o

.bss%z348       0x0000000000000000        0x0
 .bss           0x0000000000000000        0x0 output\main.o

.bss%z349       0x0000000000000000        0x0
 .bss           0x0000000000000000        0x0 output\eep_manager.o

.bss%z350       0x0000000000000000        0x0
 .bss           0x0000000000000000        0x0 output\eeprom.o

.bss%z351       0x0000000000000000        0x0
 .bss           0x0000000000000000        0x0 output\task.o

.bss%z352       0x0000000000000000        0x0
 .bss           0x0000000000000000        0x0 output\ringBuffer.o

.bss%z353       0x0000000000000000        0x0
 .bss           0x0000000000000000        0x0 c:/program files/microchip/xc32/v4.20/bin/bin/../../lib/gcc/pic32mx/8.3.1/../../../../pic32mx/lib\debug-exception-return.o

_050fee10693de8bb
                0x000000009d030000    0x18000
 _050fee10693de8bb
                0x000000009d030000    0x18000 output\dee_page.o
                0x000000009d030000                dee_page

_05292c60693de8b9
                0x000000009d02f040      0xfc0
 _05292c60693de8b9
                0x000000009d02f040      0xfc0 output\main.o
                0x000000009d02f040                VERSION_APP_PLACEHOLDER

_037bd5a0693de8b9
                0x000000009d008160       0x18
 _037bd5a0693de8b9
                0x000000009d008160       0x18 output\main.o
                0x000000009d008160                VERSION_MAKEFILE_NAME

_037bd750693de8b9
                0x000000009d02f020       0x10
 _037bd750693de8b9
                0x000000009d02f020       0x10 output\main.o
                0x000000009d02f020                VERSION_APP_KEY_BOOT_MAC

_037bd6c0693de8b9
                0x000000009d02f010       0x10
 _037bd6c0693de8b9
                0x000000009d02f010       0x10 output\main.o
                0x000000009d02f010                VERSION_APP_KEY_BOOT

_037bd630693de8b9
                0x000000009d02f000       0x10
 _037bd630693de8b9
                0x000000009d02f000       0x10 output\main.o
                0x000000009d02f000                VERSION_APP_KEY_ROM

_05292b40693de8b9
                0x000000009d02f034        0xc
 _05292b40693de8b9
                0x000000009d02f034        0xc output\main.o
                0x000000009d02f034                VERSION_APP_RESERVER_0

_052926c0693de8b9
                0x000000009d008190        0xc
 _052926c0693de8b9
                0x000000009d008190        0xc output\main.o
                0x000000009d008190                FILE_CRC

_037bd510693de8b9
                0x000000009d008140        0xc
 _037bd510693de8b9
                0x000000009d008140        0xc output\main.o
                0x000000009d008140                VERSION_ID_FIX

_037bd480693de8b9
                0x000000009d008120        0xc
 _037bd480693de8b9
                0x000000009d008120        0xc output\main.o
                0x000000009d008120                VERSION_TIME

_037bd3f0693de8b9
                0x000000009d008100        0xc
 _037bd3f0693de8b9
                0x000000009d008100        0xc output\main.o
                0x000000009d008100                VERSION_DATE

_037bd7e0693de8b9
                0x000000009d02f030        0x4
 _037bd7e0693de8b9
                0x000000009d02f030        0x4 output\main.o
                0x000000009d02f030                VERSION_APP_SERIAL_NUMBER

.text           0x000000009d001370     0x44e0
 .text          0x000000009d001370     0x44e0 output\TCP.o
                0x000000009d001fc4                init_tcp
                0x000000009d001fcc                do_tcp
                0x000000009d002058                isr_tcp_1ms
                0x000000009d002068                deinit_tcp
                0x000000009d002070                TCPInit
                0x000000009d0021fc                TCPdeInit
                0x000000009d002204                TCPOpen
                0x000000009d00249c                TCPWasReset
                0x000000009d002504                TCPIsConnected
                0x000000009d002540                TCPDisconnect
                0x000000009d00272c                TCPClose
                0x000000009d00277c                TCPGetRemoteInfo
                0x000000009d0027dc                TCPFlush
                0x000000009d002844                TCPIsPutReady
                0x000000009d0028f4                TCPPut
                0x000000009d002ae0                TCPPutArray
                0x000000009d002d6c                TCPPutString
                0x000000009d002db4                TCPGetTxFIFOFull
                0x000000009d002e20                TCPIsGetReady
                0x000000009d002eac                TCPDiscard
                0x000000009d002f04                TCPGet
                0x000000009d003070                TCPGetArray
                0x000000009d003274                TCPGetRxFIFOFree
                0x000000009d0032dc                TCPPeekArray
                0x000000009d003478                TCPPeek
                0x000000009d0034a0                TCPFindArrayEx
                0x000000009d003844                TCPFindEx
                0x000000009d003878                TCPTick
                0x000000009d004090                TCPProcess
                0x000000009d0054f0                TCPAdjustFIFOSize

.text           0x000000009d00819c     0x5728
 .text          0x000000009d00819c     0x2db4 output\isr.o
                0x000000009d00819c                Timer1Handler
                0x000000009d008364                Timer2Handler
                0x000000009d00852c                Timer3Handler
                0x000000009d0086f4                Timer4Handler
                0x000000009d0088bc                __SPI2FAULTInterrupt
                0x000000009d00894c                __SPI2RXInterrupt
                0x000000009d0089dc                __SPI2TXInterrupt
                0x000000009d008a6c                __SPI4FAULTInterrupt
                0x000000009d008afc                __SPI4RXInterrupt
                0x000000009d008b8c                __SPI4TXInterrupt
                0x000000009d008c1c                __EINT3Interrupt
                0x000000009d008cac                DmaHandler0
                0x000000009d008d3c                DmaHandler1
                0x000000009d008dcc                DmaHandler2
                0x000000009d008e5c                ChangeNotificationA
                0x000000009d009030                ChangeNotificationB
                0x000000009d009204                ChangeNotificationC
                0x000000009d0093d8                ChangeNotificationD
                0x000000009d0095ac                ChangeNotificationE
                0x000000009d009780                ChangeNotificationF
                0x000000009d009954                ChangeNotificationG
                0x000000009d009b28                ChangeNotificationH
                0x000000009d009cfc                ChangeNotificationJ
                0x000000009d009ed0                ChangeNotificationK
                0x000000009d00a0a4                IntUart1FAULTHandler
                0x000000009d00a184                IntUart1RXHandler
                0x000000009d00a264                IntUart1TXHandler
                0x000000009d00a320                IntUart2FAULTHandler
                0x000000009d00a3ec                IntUart2RXHandler
                0x000000009d00a4b8                IntUart2TXHandler
                0x000000009d00a560                IntOC1Handler
                0x000000009d00a5f0                IntOC2Handler
                0x000000009d00a680                IntOC3Handler
                0x000000009d00a710                IntOC4Handler
                0x000000009d00a7a0                CoreTimerHandler
                0x000000009d00a854                _IntHandlerUSBInstance0
                0x000000009d00aa04                _IntHandlerUSBInstance0_USBDMA
                0x000000009d00abb4                init_isr
 .text          0x000000009d00af50     0x2974 output\grbl_report.o
                0x000000009d00af60                report_util_setting_prefix
                0x000000009d00af98                report_util_line_feed
                0x000000009d00afb8                report_util_feedback_line_feed
                0x000000009d00afdc                report_util_gcode_modes_G
                0x000000009d00affc                report_util_gcode_modes_M
                0x000000009d00b01c                system_get_external_power
                0x000000009d00b024                report_util_axis_values
                0x000000009d00b088                report_util_uint8_setting
                0x000000009d00b0bc                report_util_float_setting
                0x000000009d00b100                init_grbl_report
                0x000000009d00b17c                isr_grbl_report_1ms
                0x000000009d00b1ac                grbl_report_dump_eeprom
                0x000000009d00b1b8                report_status_message
                0x000000009d00b20c                report_alarm_message
                0x000000009d00b248                report_feedback_message
                0x000000009d00b430                report_init_message
                0x000000009d00b450                report_grbl_help
                0x000000009d00b470                report_grbl_debug_0
                0x000000009d00b47c                report_grbl_debug_1
                0x000000009d00b488                report_grbl_crypto_0
                0x000000009d00b494                report_grbl_crypto_1
                0x000000009d00b4a0                report_grbl_crypto_2
                0x000000009d00b4ac                report_grbl_settings
                0x000000009d00b7a4                report_probe_parameters
                0x000000009d00b7f8                report_ngc_parameters
                0x000000009d00b960                report_gcode_modes
                0x000000009d00bb84                report_build_info
                0x000000009d00bc18                report_echo_line_received
                0x000000009d00bc64                report_stack_usage
                0x000000009d00bcc8                report_mac_address
                0x000000009d00bd54                report_realtime_status
                0x000000009d00c38c                debug_missed_char_logger
                0x000000009d00c3b8                report_print_pins_helper
                0x000000009d00c60c                do_grbl_report

.text           0x000000009d005850     0x2860
 .text          0x000000009d005850     0x2860 output\drv_usbhs_device.o
                0x000000009d005850                DRV_USBHS_DEVICE_AddressSet
                0x000000009d005874                DRV_USBHS_DEVICE_CurrentSpeedGet
                0x000000009d00587c                DRV_USBHS_DEVICE_RemoteWakeupStart
                0x000000009d005884                DRV_USBHS_DEVICE_RemoteWakeupStop
                0x000000009d00588c                DRV_USBHS_DEVICE_Attach
                0x000000009d0058e4                DRV_USBHS_DEVICE_Detach
                0x000000009d005914                DRV_USBHS_DEVICE_SOFNumberGet
                0x000000009d00591c                DRV_USBHS_DEVICE_EndpointIsEnabled
                0x000000009d005954                DRV_USBHS_DEVICE_EndpointIsStalled
                0x000000009d00598c                DRV_USBHS_DEVICE_TestModeEnter
                0x000000009d005b20                DRV_USBHS_DEVICE_EndpointDisable
                0x000000009d005e24                DRV_USBHS_DEVICE_EndpointEnable
                0x000000009d0061bc                _DRV_USBHS_DEVICE_Initialize
                0x000000009d0061e8                _DRV_USBHS_DEVICE_EndpointObjectEnable
                0x000000009d006204                _DRV_USBHS_DEVICE_IRPQueueFlush
                0x000000009d006268                DRV_USBHS_DEVICE_IRPCancelAll
                0x000000009d006430                DRV_USBHS_DEVICE_EndpointStall
                0x000000009d006670                DRV_USBHS_DEVICE_EndpointStallClear
                0x000000009d006870                DRV_USBHS_DEVICE_IRPCancel
                0x000000009d006a38                _DRV_USBHS_DEVICE_Get_FreeDMAChannel
                0x000000009d006a98                _DRV_USBHS_ProcessIRPFIFO
                0x000000009d006ec8                DRV_USBHS_DEVICE_IRPSubmit
                0x000000009d007404                _DRV_USBHS_DEVICE_Tasks_ISR
                0x000000009d007d20                DRV_USBHS_DEVICE_TestModeExit
                0x000000009d007dc0                _DRV_USBHS_DEVICE_Tasks_ISR_USBDMA

.rodata         0x000000009d00d8c4     0x2828
 .rodata        0x000000009d00d8c4     0x2828 output\rijndael.o

.text           0x000000009d0100ec     0x4808
 .text          0x000000009d0100ec     0x2560 output\peripheral.o
                0x000000009d0100ec                PLIB_INT_ExistsSingleVectorShadowSet
                0x000000009d0100f4                PLIB_INT_SingleVectorShadowSetDisable
                0x000000009d010110                PLIB_INT_SingleVectorShadowSetEnable
                0x000000009d01012c                PLIB_INT_ExistsVectorSelect
                0x000000009d010134                PLIB_INT_MultiVectorSelect
                0x000000009d010150                PLIB_INT_SingleVectorSelect
                0x000000009d01016c                PLIB_INT_ExistsProximityTimerEnable
                0x000000009d010174                PLIB_INT_ProximityTimerEnable
                0x000000009d01019c                PLIB_INT_ProximityTimerDisable
                0x000000009d0101b8                PLIB_INT_ExistsProximityTimerControl
                0x000000009d0101c0                PLIB_INT_ProximityTimerSet
                0x000000009d0101d4                PLIB_INT_ProximityTimerGet
                0x000000009d0101ec                PLIB_INT_ExistsExternalINTEdgeSelect
                0x000000009d0101f4                PLIB_INT_ExternalRisingEdgeSelect
                0x000000009d010210                PLIB_INT_ExternalFallingEdgeSelect
                0x000000009d01022c                PLIB_INT_ExistsINTCPUPriority
                0x000000009d010234                PLIB_INT_PriorityGet
                0x000000009d010250                PLIB_INT_ExistsINTCPUVector
                0x000000009d010258                PLIB_INT_VectorGet
                0x000000009d010274                PLIB_INT_ExistsSourceFlag
                0x000000009d01027c                PLIB_INT_SourceFlagGet
                0x000000009d0102b0                PLIB_INT_SourceFlagSet
                0x000000009d0102e0                PLIB_INT_SourceFlagClear
                0x000000009d010310                PLIB_INT_ExistsSourceControl
                0x000000009d010318                PLIB_INT_SourceEnable
                0x000000009d010348                PLIB_INT_SourceDisable
                0x000000009d010378                PLIB_INT_SourceIsEnabled
                0x000000009d0103ac                PLIB_INT_ExistsVectorPriority
                0x000000009d0103b4                PLIB_INT_VectorPrioritySet
                0x000000009d010400                PLIB_INT_VectorPriorityGet
                0x000000009d010440                PLIB_INT_VectorSubPrioritySet
                0x000000009d010488                PLIB_INT_VectorSubPriorityGet
                0x000000009d0104c4                PLIB_INT_ExistsCPUCurrentPriorityLevel
                0x000000009d0104cc                PLIB_INT_CPUCurrentPriorityLevelGet
                0x000000009d0104f8                PLIB_INT_ExistsEnableControl
                0x000000009d010500                PLIB_INT_Enable
                0x000000009d010534                PLIB_INT_Disable
                0x000000009d010560                PLIB_INT_IsEnabled
                0x000000009d01058c                PLIB_INT_SetState
                0x000000009d0105b8                PLIB_INT_GetStateAndDisable
                0x000000009d0105e4                PLIB_INT_ExistsShadowRegisterAssign
                0x000000009d0105ec                PLIB_INT_ShadowRegisterAssign
                0x000000009d01060c                PLIB_INT_ShadowRegisterGet
                0x000000009d01062c                PLIB_INT_ExistsVariableOffset
                0x000000009d010634                PLIB_INT_VariableVectorOffsetSet
                0x000000009d010654                PLIB_INT_VariableVectorOffsetGet
                0x000000009d010674                PLIB_INT_ExistsSoftwareNMI
                0x000000009d01067c                PLIB_INT_SoftwareNMITrigger
                0x000000009d010684                PLIB_PCACHE_ExistsWaitState
                0x000000009d01068c                PLIB_PCACHE_WaitStateSet
                0x000000009d0106b0                PLIB_PCACHE_WaitStateGet
                0x000000009d0106cc                PLIB_PCACHE_ExistsPrefetchEnable
                0x000000009d0106d4                PLIB_PCACHE_PrefetchEnableSet
                0x000000009d0106fc                PLIB_PCACHE_PrefetchEnableGet
                0x000000009d010718                PLIB_PCACHE_ExistsDataCacheEnable
                0x000000009d010720                PLIB_PCACHE_DataCacheEnableSet
                0x000000009d010728                PLIB_PCACHE_DataCacheEnableGet
                0x000000009d010730                PLIB_PCACHE_ExistsFlashSECInt
                0x000000009d010738                PLIB_PCACHE_FlashSECIntEnable
                0x000000009d010754                PLIB_PCACHE_FlashSECIntDisable
                0x000000009d010770                PLIB_PCACHE_ExistsFlashDEDStatus
                0x000000009d010778                PLIB_PCACHE_FlashDEDStatusGet
                0x000000009d010794                PLIB_PCACHE_FlashDEDStatusClear
                0x000000009d0107b0                PLIB_PCACHE_ExistsFlashSECStatus
                0x000000009d0107b8                PLIB_PCACHE_FlashSECStatusGet
                0x000000009d0107d4                PLIB_PCACHE_FlashSECStatusSet
                0x000000009d0107f0                PLIB_PCACHE_FlashSECStatusClear
                0x000000009d01080c                PLIB_PCACHE_ExistsFlashSECCount
                0x000000009d010814                PLIB_PCACHE_FlashSECCountSet
                0x000000009d010834                PLIB_PCACHE_FlashSECCountGet
                0x000000009d010850                PLIB_PCACHE_ExistsInvalidateOnPFMProgram
                0x000000009d010858                PLIB_PCACHE_InvalidateOnPFMProgramAll
                0x000000009d010860                PLIB_PCACHE_InvalidateOnPFMProgramUnlocked
                0x000000009d010868                PLIB_PCACHE_ExistsCacheLine
                0x000000009d010870                PLIB_PCACHE_CacheLineSelect
                0x000000009d010878                PLIB_PCACHE_CacheLineDeselect
                0x000000009d010880                PLIB_PCACHE_CacheLineData
                0x000000009d010888                PLIB_PCACHE_CacheLineInst
                0x000000009d010890                PLIB_PCACHE_CacheLineIsInst
                0x000000009d010898                PLIB_PCACHE_ExistsCacheLineType
                0x000000009d0108a0                PLIB_PCACHE_CacheLineLock
                0x000000009d0108a8                PLIB_PCACHE_CacheLineUnlock
                0x000000009d0108b0                PLIB_PCACHE_CacheLineIsLocked
                0x000000009d0108b8                PLIB_PCACHE_ExistsCacheLineLock
                0x000000009d0108c0                PLIB_PCACHE_CacheLineValid
                0x000000009d0108c8                PLIB_PCACHE_CacheLineInvalid
                0x000000009d0108d0                PLIB_PCACHE_CacheLineIsValid
                0x000000009d0108d8                PLIB_PCACHE_ExistsCacheLineValid
                0x000000009d0108e0                PLIB_PCACHE_CacheLineAddrSet
                0x000000009d0108e8                PLIB_PCACHE_CacheLineAddrGet
                0x000000009d0108f0                PLIB_PCACHE_ExistsCacheLineAddr
                0x000000009d0108f8                PLIB_PCACHE_CacheLineFlashTypeBoot
                0x000000009d010900                PLIB_PCACHE_CacheLineFlashTypeInst
                0x000000009d010908                PLIB_PCACHE_CacheLineFlashTypeIsInst
                0x000000009d010910                PLIB_PCACHE_ExistsCacheLineFlashType
                0x000000009d010918                PLIB_PCACHE_CacheLineMaskSet
                0x000000009d010920                PLIB_PCACHE_CacheLineMaskGet
                0x000000009d010928                PLIB_PCACHE_ExistsCacheLineMask
                0x000000009d010930                PLIB_PCACHE_WordRead
                0x000000009d010938                PLIB_PCACHE_WordWrite
                0x000000009d010940                PLIB_PCACHE_ExistsWord
                0x000000009d010948                PLIB_PCACHE_LeastRecentlyUsedStateRead
                0x000000009d010950                PLIB_PCACHE_ExistsLeastRecentlyUsedState
                0x000000009d010958                PLIB_PCACHE_CacheHitRead
                0x000000009d010960                PLIB_PCACHE_CacheHitWrite
                0x000000009d010968                PLIB_PCACHE_ExistsCacheHit
                0x000000009d010970                PLIB_PCACHE_CacheMissRead
                0x000000009d010978                PLIB_PCACHE_CacheMissWrite
                0x000000009d010980                PLIB_PCACHE_ExistsCacheMiss
                0x000000009d010988                PLIB_PCACHE_PrefetchAbortRead
                0x000000009d010990                PLIB_PCACHE_PrefetchAbortWrite
                0x000000009d010998                PLIB_PCACHE_ExistsPrefetchAbort
                0x000000009d0109a0                PLIB_PORTS_RemapInput
                0x000000009d0109d0                PLIB_PORTS_ExistsRemapInput
                0x000000009d0109d8                PLIB_PORTS_RemapOutput
                0x000000009d010a14                PLIB_PORTS_ExistsRemapOutput
                0x000000009d010a1c                PLIB_PORTS_PinModeSelect
                0x000000009d010a84                PLIB_PORTS_ExistsPinMode
                0x000000009d010a8c                PLIB_PORTS_AnPinsModeSelect
                0x000000009d010a94                PLIB_PORTS_ExistsAnPinsMode
                0x000000009d010a9c                PLIB_PORTS_PinGet
                0x000000009d010ad8                PLIB_PORTS_Read
                0x000000009d010b04                PLIB_PORTS_ExistsPortsRead
                0x000000009d010b0c                PLIB_PORTS_PinGetLatched
                0x000000009d010b48                PLIB_PORTS_ReadLatched
                0x000000009d010b74                PLIB_PORTS_ExistsLatchRead
                0x000000009d010b7c                PLIB_PORTS_PinWrite
                0x000000009d010bf0                PLIB_PORTS_PinSet
                0x000000009d010c28                PLIB_PORTS_PinClear
                0x000000009d010c60                PLIB_PORTS_PinToggle
                0x000000009d010c98                PLIB_PORTS_Write
                0x000000009d010cc4                PLIB_PORTS_Set
                0x000000009d010cf8                PLIB_PORTS_Toggle
                0x000000009d010d28                PLIB_PORTS_Clear
                0x000000009d010d58                PLIB_PORTS_ExistsPortsWrite
                0x000000009d010d60                PLIB_PORTS_PinDirectionInputSet
                0x000000009d010d98                PLIB_PORTS_PinDirectionOutputSet
                0x000000009d010dd0                PLIB_PORTS_DirectionInputSet
                0x000000009d010e00                PLIB_PORTS_DirectionOutputSet
                0x000000009d010e30                PLIB_PORTS_DirectionGet
                0x000000009d010e60                PLIB_PORTS_ExistsPortsDirection
                0x000000009d010e68                PLIB_PORTS_PinOpenDrainEnable
                0x000000009d010ea0                PLIB_PORTS_PinOpenDrainDisable
                0x000000009d010ed8                PLIB_PORTS_OpenDrainEnable
                0x000000009d010f08                PLIB_PORTS_OpenDrainDisable
                0x000000009d010f38                PLIB_PORTS_ExistsPortsOpenDrain
                0x000000009d010f40                PLIB_PORTS_ChangeNoticeEnable
                0x000000009d010f48                PLIB_PORTS_ChangeNoticeDisable
                0x000000009d010f50                PLIB_PORTS_ExistsChangeNotice
                0x000000009d010f58                PLIB_PORTS_PinChangeNoticeEnable
                0x000000009d010f60                PLIB_PORTS_PinChangeNoticeDisable
                0x000000009d010f68                PLIB_PORTS_CnPinsEnable
                0x000000009d010f70                PLIB_PORTS_CnPinsDisable
                0x000000009d010f78                PLIB_PORTS_ExistsPinChangeNotice
                0x000000009d010f80                PLIB_PORTS_ChangeNoticeInIdleEnable
                0x000000009d010f88                PLIB_PORTS_ChangeNoticeInIdleDisable
                0x000000009d010f90                PLIB_PORTS_ExistsChangeNoticeInIdle
                0x000000009d010f98                PLIB_PORTS_ChangeNoticePullUpEnable
                0x000000009d010fa0                PLIB_PORTS_ChangeNoticePullUpDisable
                0x000000009d010fa8                PLIB_PORTS_CnPinsPullUpEnable
                0x000000009d010fb0                PLIB_PORTS_CnPinsPullUpDisable
                0x000000009d010fb8                PLIB_PORTS_ExistsChangeNoticePullUp
                0x000000009d010fc0                PLIB_PORTS_PinModePerPortSelect
                0x000000009d011034                PLIB_PORTS_ChannelModeSelect
                0x000000009d011094                PLIB_PORTS_ExistsPinModePerPort
                0x000000009d01109c                PLIB_PORTS_ChangeNoticePullDownPerPortEnable
                0x000000009d0110d4                PLIB_PORTS_ChangeNoticePullDownPerPortDisable
                0x000000009d01110c                PLIB_PORTS_ChannelChangeNoticePullDownEnable
                0x000000009d01113c                PLIB_PORTS_ChannelChangeNoticePullDownDisable
                0x000000009d01116c                PLIB_PORTS_ExistsChangeNoticePullDownPerPort
                0x000000009d011174                PLIB_PORTS_ChangeNoticePullUpPerPortEnable
                0x000000009d0111ac                PLIB_PORTS_ChangeNoticePullUpPerPortDisable
                0x000000009d0111e4                PLIB_PORTS_ChannelChangeNoticePullUpEnable
                0x000000009d011214                PLIB_PORTS_ChannelChangeNoticePullUpDisable
                0x000000009d011244                PLIB_PORTS_ExistsChangeNoticePullUpPerPort
                0x000000009d01124c                PLIB_PORTS_PinChangeNoticePerPortEnable
                0x000000009d011284                PLIB_PORTS_PinChangeNoticePerPortDisable
                0x000000009d0112bc                PLIB_PORTS_ChannelChangeNoticeEnable
                0x000000009d0112ec                PLIB_PORTS_ChannelChangeNoticeDisable
                0x000000009d01131c                PLIB_PORTS_ExistsPinChangeNoticePerPort
                0x000000009d011324                PLIB_PORTS_ChangeNoticePerPortTurnOn
                0x000000009d011358                PLIB_PORTS_ChangeNoticePerPortTurnOff
                0x000000009d01138c                PLIB_PORTS_ExistsChangeNoticePerPortTurnOn
                0x000000009d011394                PLIB_PORTS_ChangeNoticeInIdlePerPortEnable
                0x000000009d0113c8                PLIB_PORTS_ChangeNoticeInIdlePerPortDisable
                0x000000009d0113fc                PLIB_PORTS_ExistsChangeNoticePerPortInIdle
                0x000000009d011404                PLIB_PORTS_ChangeNoticePerPortHasOccured
                0x000000009d011440                PLIB_PORTS_ChangeNoticePerPortHasOccurred
                0x000000009d01147c                PLIB_PORTS_ExistsChangeNoticePerPortStatus
                0x000000009d011484                PLIB_PORTS_ChannelSlewRateSelect
                0x000000009d01148c                PLIB_PORTS_PinSlewRateGet
                0x000000009d011494                PLIB_PORTS_ExistsSlewRateControl
                0x000000009d01149c                PLIB_PORTS_ChannelChangeNoticeMethodSelect
                0x000000009d0114a4                PLIB_PORTS_ChannelChangeNoticeMethodGet
                0x000000009d0114ac                PLIB_PORTS_ExistsChannelChangeNoticeMethod
                0x000000009d0114b4                PLIB_PORTS_ChannelChangeNoticeEdgeEnable
                0x000000009d0114bc                PLIB_PORTS_ChannelChangeNoticeEdgeDisable
                0x000000009d0114c4                PLIB_PORTS_PinChangeNoticeEdgeIsEnabled
                0x000000009d0114cc                PLIB_PORTS_ExistsChangeNoticeEdgeControl
                0x000000009d0114d4                PLIB_PORTS_PinChangeNoticeEdgeHasOccurred
                0x000000009d0114dc                PLIB_PORTS_ExistsChangeNoticeEdgeStatus
                0x000000009d0114e4                PLIB_USBHS_EndpointFIFOLoad
                0x000000009d011564                PLIB_USBHS_EndpointFIFOUnload
                0x000000009d01160c                PLIB_USBHS_Endpoint0FIFOFlush
                0x000000009d011640                PLIB_USBHS_EndpointTxFIFOFlush
                0x000000009d01167c                PLIB_USBHS_EndpointRxFIFOFlush
                0x000000009d0116c0                PLIB_USBHS_Endpoint0SetupPacketLoad
                0x000000009d011744                PLIB_USBHS_Endpoint0SetupPacketUnload
                0x000000009d011770                PLIB_USBHS_DeviceEPFIFOLoad
                0x000000009d0117b4                PLIB_USBHS_DeviceEPFIFOUnload
                0x000000009d011828                PLIB_USBHS_ExistsEndpointFIFO
                0x000000009d011830                PLIB_USBHS_SoftResetEnable
                0x000000009d01184c                PLIB_USBHS_SoftResetDisable
                0x000000009d011864                PLIB_USBHS_ExistsSoftReset
                0x000000009d01186c                PLIB_USBHS_InterruptEnableSet
                0x000000009d011898                PLIB_USBHS_TxInterruptFlagsGet
                0x000000009d0118b8                PLIB_USBHS_RxInterruptFlagsGet
                0x000000009d0118d8                PLIB_USBHS_GenInterruptFlagsGet
                0x000000009d0118f8                PLIB_USBHS_TxInterruptEnable
                0x000000009d01191c                PLIB_USBHS_RxInterruptEnable
                0x000000009d011940                PLIB_USBHS_TxInterruptDisable
                0x000000009d011964                PLIB_USBHS_RxInterruptDisable
                0x000000009d011988                PLIB_USBHS_ExistsInterrupts
                0x000000009d011990                PLIB_USBHS_HighSpeedEnable
                0x000000009d0119b0                PLIB_USBHS_HighSpeedDisable
                0x000000009d0119d0                PLIB_USBHS_HighSpeedIsConnected
                0x000000009d0119f0                PLIB_USBHS_FullOrHighSpeedIsConnected
                0x000000009d011a28                PLIB_USBHS_ExistsHighSpeedSupport
                0x000000009d011a30                PLIB_USBHS_DMAErrorGet
                0x000000009d011a74                PLIB_USBHS_DMAInterruptGet
                0x000000009d011a94                PLIB_USBHS_DMAOperationEnable
                0x000000009d011afc                PLIB_USBHS_LoadEPInIndex
                0x000000009d011b14                PLIB_USBHS_GetEP0FIFOAddress
                0x000000009d011b2c                PLIB_USBHS_GetEP0CSRAddress
                0x000000009d011b44                PLIB_USBHS_GetReceiveDataCount
                0x000000009d011b64                PLIB_USBHS_TestModeEnter
                0x000000009d011c20                PLIB_USBHS_TestModeExit
                0x000000009d011cac                PLIB_USBHS_ExistsClockResetControl
                0x000000009d011cb4                PLIB_USBHS_GlobalInterruptEnable
                0x000000009d011cbc                PLIB_USBHS_GlobalInterruptDisable
                0x000000009d011cc4                PLIB_USBHS_ExistsUSBIDControl
                0x000000009d011ccc                PLIB_USBHS_USBIDOverrideEnable
                0x000000009d011cd4                PLIB_USBHS_USBIDOverrideDisable
                0x000000009d011cdc                PLIB_USBHS_USBIDOverrideValueSet
                0x000000009d011ce4                PLIB_USBHS_PhyIDMonitoringEnable
                0x000000009d011cec                PLIB_USBHS_PhyIDMonitoringDisable
                0x000000009d011cf4                PLIB_USBHS_ResumeEnable
                0x000000009d011d14                PLIB_USBHS_ResumeDisable
                0x000000009d011d34                PLIB_USBHS_SuspendEnable
                0x000000009d011d54                PLIB_USBHS_SuspendDisable
                0x000000009d011d74                PLIB_USBHS_ResetEnable
                0x000000009d011d94                PLIB_USBHS_ResetDisable
                0x000000009d011db4                PLIB_USBHS_VBUSLevelGet
                0x000000009d011dd4                PLIB_USBHS_HostModeIsEnabled
                0x000000009d011df4                PLIB_USBHS_IsBDevice
                0x000000009d011e14                PLIB_USBHS_SessionEnable
                0x000000009d011e34                PLIB_USBHS_SessionDisable
                0x000000009d011e54                PLIB_USBHS_DeviceAddressSet
                0x000000009d011e68                PLIB_USBHS_DeviceAttach
                0x000000009d011eac                PLIB_USBHS_DeviceDetach
                0x000000009d011ecc                PLIB_USBHS_ExistsModuleControl
                0x000000009d011ed4                PLIB_USBHS_EP0StatusGet
                0x000000009d011ef4                PLIB_USBHS_EP0StatusClear
                0x000000009d011f18                PLIB_USBHS_EP0SentStallClear
                0x000000009d011f38                PLIB_USBHS_EP0INHandshakeSend
                0x000000009d011f54                PLIB_USBHS_EP0INTokenSend
                0x000000009d011f70                PLIB_USBHS_EP0OUTHandshakeSend
                0x000000009d011f8c                PLIB_USBHS_EP0INHandshakeClear
                0x000000009d011fac                PLIB_USBHS_EP0StallEnable
                0x000000009d011fc8                PLIB_USBHS_EP0StallDisable
                0x000000009d011fe8                PLIB_USBHS_EP0SetupEndServiced
                0x000000009d012008                PLIB_USBHS_EP0RxPktRdyServiced
                0x000000009d012024                PLIB_USBHS_EP0RxPktRdyServicedDataEnd
                0x000000009d012040                PLIB_USBHS_EP0TxPktRdyDataEnd
                0x000000009d01205c                PLIB_USBHS_EP0TxPktRdy
                0x000000009d012078                PLIB_USBHS_EP0DataEndSet
                0x000000009d012094                PLIB_USBHS_ExistsEP0Status
                0x000000009d01209c                PLIB_USBHS_TxEPStatusGet
                0x000000009d0120c0                PLIB_USBHS_TxEPStatusClear
                0x000000009d0120f0                PLIB_USBHS_ExistsTxEPStatus
                0x000000009d0120f8                PLIB_USBHS_RxEPStatusGet
                0x000000009d01211c                PLIB_USBHS_RxEPStatusClear
                0x000000009d01214c                PLIB_USBHS_RxEPINTokenSend
                0x000000009d012178                PLIB_USBHS_ExistsRxEPStatus
                0x000000009d012180                PLIB_USBHS_EndpointRxRequestEnable
                0x000000009d0121ac                PLIB_USBHS_EndpointRxRequestClear
                0x000000009d0121d8                PLIB_USBHS_HostRxEndpointConfigure
                0x000000009d0122b8                PLIB_USBHS_HostTxEndpointConfigure
                0x000000009d012398                PLIB_USBHS_HostTxEndpointDataToggleClear
                0x000000009d0123c4                PLIB_USBHS_HostRxEndpointDataToggleClear
                0x000000009d0123f0                PLIB_USBHS_DeviceRxEndpointConfigure
                0x000000009d0124b8                PLIB_USBHS_DeviceTxEndpointConfigure
                0x000000009d012550                PLIB_USBHS_DeviceRxEndpointStallEnable
                0x000000009d01257c                PLIB_USBHS_DeviceTxEndpointStallEnable
                0x000000009d0125a8                PLIB_USBHS_DeviceRxEndpointStallDisable
                0x000000009d0125e0                PLIB_USBHS_DeviceTxEndpointStallDisable
                0x000000009d012618                PLIB_USBHS_DeviceTxEndpointPacketReady
                0x000000009d012644                PLIB_USBHS_ExistsEndpointOperations
 .text          0x000000009d01264c     0x22a8 output\grbl_gcode.o
                0x000000009d01264c                gc_init
                0x000000009d012714                gc_soft_init
                0x000000009d01274c                gc_sync_position
                0x000000009d012774                gc_main
                0x000000009d01277c                gc_check_for_sync_needed
                0x000000009d012874                gc_execute_line_step_1
                0x000000009d01294c                gc_execute_line_step_2
                0x000000009d0132d0                gc_execute_line_step_3
                0x000000009d013fe8                gc_execute_line_step_4
                0x000000009d014818                gc_execute_line
                0x000000009d0148c8                gcode_probe_update_pos

.text           0x000000009d0148f4     0x3954
 .text          0x000000009d0148f4     0x1e08 output\ENC28J60.o
                0x000000009d0148f4                init_enc28j60
                0x000000009d014924                isr_enc28j60_1ms
                0x000000009d01495c                deinit_enc28j60
                0x000000009d014964                MACdeInit
                0x000000009d01496c                get_enc28j60_spi_corruption1_cnt
                0x000000009d014974                get_enc28j60_spi_corruption2_cnt
                0x000000009d01497c                MACIsAvailable
                0x000000009d014988                enc28j60_readWrite_helper
                0x000000009d014b14                MACIsTxReady
                0x000000009d014b40                MACIsMemCopyDone
                0x000000009d014cec                MACGetFreeRxSize
                0x000000009d014dec                GetCLKOUT
                0x000000009d014e2c                MACPowerDown
                0x000000009d014e8c                MACPowerUp
                0x000000009d014fb4                MACDiscardRx
                0x000000009d015020                MACSetReadPtrInRx
                0x000000009d015078                MACSetWritePtr
                0x000000009d0150e0                MACSetReadPtr
                0x000000009d015148                SetCLKOUT
                0x000000009d015184                MACGet
                0x000000009d015230                MACGetArray
                0x000000009d015374                MACGetHeader
                0x000000009d015518                MACFlush
                0x000000009d015750                CalcIPBufferChecksum
                0x000000009d01587c                MACCalcRxChecksum
                0x000000009d015938                MACPut
                0x000000009d0159ec                MACMemCopyAsync
                0x000000009d015cf4                MACPutArray
                0x000000009d015e88                MACPutHeader
                0x000000009d015ff4                ReadPHYReg
                0x000000009d0160b4                MACIsLinked
                0x000000009d0160dc                WritePHYReg
                0x000000009d016158                MACInit_Async
                0x000000009d01652c                do_enc28j60
                0x000000009d0166dc                MACInit
 .text          0x000000009d0166fc     0x1b4c output\stepper.o
                0x000000009d0166fc                init_stepper
                0x000000009d016820                do_stepper
                0x000000009d016828                st_wake_up
                0x000000009d016884                st_go_idle
                0x000000009d0168ec                TIMER1_COMPA_vect
                0x000000009d016dc4                TIMER0_OVF_vect
                0x000000009d016e64                st_generate_step_dir_invert_masks
                0x000000009d016f14                st_reset
                0x000000009d017110                st_update_plan_block_parameters
                0x000000009d01715c                st_next_block_index
                0x000000009d017174                st_prep_buffer
                0x000000009d0181fc                st_get_realtime_rate
                0x000000009d018220                st_isRunning
                0x000000009d018228                st_isDelayRunning

.text           0x000000009d018248     0x2f74
 .text          0x000000009d018248     0x183c output\usb_device.o
                0x000000009d018248                _USB_DEVICE_Ep0TransmitCompleteCallback
                0x000000009d018304                _USB_DEVICE_Ep0ReceiveCompleteCallback
                0x000000009d018488                USB_DEVICE_Initialize
                0x000000009d0185bc                USB_DEVICE_Status
                0x000000009d0185f0                USB_DEVICE_Deinitialize
                0x000000009d018620                USB_DEVICE_Tasks
                0x000000009d0187f0                USB_DEVICE_Open
                0x000000009d01883c                USB_DEVICE_Tasks_ISR
                0x000000009d018844                USB_DEVICE_Tasks_ISR_USBDMA
                0x000000009d01884c                _USB_DEVICE_DeInitializeAllFunctionDrivers
                0x000000009d0188f8                _USB_DEVICE_EventHandler
                0x000000009d018b08                _USB_DEVICE_GetFunctionDriverEntryByInterface
                0x000000009d018b88                _USB_DEVICE_ConfigureDevice
                0x000000009d018c84                _USB_DEVICE_FindEndpoint
                0x000000009d018d00                _USB_DEVICE_RedirectControlXfrToClient
                0x000000009d018d54                _USB_DEVICE_ClientHandleValidate
                0x000000009d018d78                USB_DEVICE_IsSuspended
                0x000000009d018d9c                USB_DEVICE_StateGet
                0x000000009d018dc0                USB_DEVICE_Close
                0x000000009d018dec                USB_DEVICE_ClientStatusGet
                0x000000009d018e18                USB_DEVICE_EventHandlerSet
                0x000000009d018e70                USB_DEVICE_ActiveConfigurationGet
                0x000000009d018e9c                USB_DEVICE_ActiveSpeedGet
                0x000000009d018ecc                USB_DEVICE_ControlSend
                0x000000009d018f50                USB_DEVICE_ControlReceive
                0x000000009d018f9c                USB_DEVICE_ControlStatus
                0x000000009d019018                _USB_DEVICE_ForwardControlXfrToFunction
                0x000000009d0190b8                _USB_DEVICE_ProcessStandardEndpointRequest
                0x000000009d0191b8                _USB_DEVICE_ProcessStandardDeviceSetRequests
                0x000000009d0193cc                USB_DEVICE_PowerStateSet
                0x000000009d019404                USB_DEVICE_RemoteWakeupStatusGet
                0x000000009d019430                USB_DEVICE_RemoteWakeupStop
                0x000000009d019464                USB_DEVICE_RemoteWakeupStart
                0x000000009d019498                _USB_DEVICE_EndpointMutexCreateFunction
                0x000000009d0194b4                _USB_DEVICE_EndpointMutexDeleteFunction
                0x000000009d0194bc                _USB_DEVICE_GetStringDescriptorRequestProcess
                0x000000009d019588                _USB_DEVICE_ProcessStandardDeviceGetRequests
                0x000000009d0197d8                _USB_DEVICE_ControlTransferHandler
                0x000000009d0199dc                _USB_DEVICE_GetStringDescriptorRequestProcessAdvanced
 .text          0x000000009d019a84     0x1738 output\system.o
                0x000000009d019a84                system_init_exteral_power
                0x000000009d019a8c                do_system_exteral_power
                0x000000009d019a94                isr_system_exteral_power_1ms
                0x000000009d019a9c                system_get_external_power_disengage_alarm
                0x000000009d019aa4                isr_system_1ms
                0x000000009d019ac0                system_check_safety_door_ajar
                0x000000009d019adc                system_flag_wco_change
                0x000000009d019ae8                system_convert_axis_steps_to_mpos
                0x000000009d019b28                system_convert_array_steps_to_mpos
                0x000000009d019b8c                system_check_travel_limits
                0x000000009d019c44                system_set_exec_motion_override_flag
                0x000000009d019cbc                system_set_exec_accessory_override_flag
                0x000000009d019d34                system_clear_exec_motion_overrides
                0x000000009d019da4                system_clear_exec_accessory_overrides
                0x000000009d019e14                system_set_requestSuspendTime
                0x000000009d019e34                system_get_requestSuspendTime
                0x000000009d019e54                system_exec_rt_system_override
                0x000000009d01a0c4                protocol_exec_rt_suspend_preapare
                0x000000009d01a13c                grbl_set_serial_number
                0x000000009d01a19c                system_log_add_event
                0x000000009d01a208                system_log_unlock
                0x000000009d01a228                system_log_sm_abort_input
                0x000000009d01a248                system_log_internal_stepper_enable
                0x000000009d01a268                system_log_internal_stepper_disable
                0x000000009d01a288                system_log_home
                0x000000009d01a2a8                system_log_limit_x
                0x000000009d01a2c8                system_log_limit_y
                0x000000009d01a2e8                system_log_limit_z
                0x000000009d01a308                system_log_home_finished
                0x000000009d01a328                system_log_spindle_on
                0x000000009d01a348                system_log_spindle_off
                0x000000009d01a368                protocol_exec_rt_suspend_async
                0x000000009d01a6b4                system_log_probe_start
                0x000000009d01a6d4                system_log_probe_touch
                0x000000009d01a6f4                system_log_st_reset
                0x000000009d01a714                system_log_sm_plan_reset
                0x000000009d01a734                system_log_st_go_idle
                0x000000009d01a754                system_log_st_wake_up
                0x000000009d01a774                system_log_sm_g28
                0x000000009d01a794                system_log_st_update_plan_block_parameters
                0x000000009d01a7b4                system_log_EXEC_MOTION_CANCEL
                0x000000009d01a7d4                system_log_sm_init_log
                0x000000009d01a7f4                system_log_sm_idle_log
                0x000000009d01a814                system_log_sm_suspend_log
                0x000000009d01a834                system_log_sm_suspend_delay_log
                0x000000009d01a854                system_log_sm_sys_state
                0x000000009d01a874                system_set_sys_state
                0x000000009d01a8a0                system_init
                0x000000009d01a988                system_exec_rt_system_alarm
                0x000000009d01aa40                system_log_sm_sys_suspend
                0x000000009d01aa60                system_set_sys_suspend
                0x000000009d01aa8c                system_exec_rt_system_state
                0x000000009d01afc8                do_system

.text           0x000000009d01b1bc     0x2614
 .text          0x000000009d01b1bc     0x1340 output\rijndael.o
                0x000000009d01b1bc                rijndaelSetupEncrypt
                0x000000009d01b5dc                rijndaelSetupDecrypt
                0x000000009d01b84c                rijndaelEncrypt_async
                0x000000009d01be28                rijndaelEncrypt_sync
                0x000000009d01bea4                rijndaelDecrypt_async
                0x000000009d01c480                rijndaelDecrypt_sync
 .text          0x000000009d01c4fc     0x12d4 output\BerkeleyAPI.o
                0x000000009d01c628                init_berkeleyapi
                0x000000009d01c630                do_berkeleyapi
                0x000000009d01c658                isr_berkeleyapi_1ms
                0x000000009d01c668                deinit_berkeleyapi
                0x000000009d01c670                BerkeleySocketInit
                0x000000009d01c6a8                BerkeleySocketdeInit
                0x000000009d01c6b0                socket
                0x000000009d01c7a8                bind
                0x000000009d01c8e0                listen
                0x000000009d01ca94                accept
                0x000000009d01cc4c                connect
                0x000000009d01ced0                sendto
                0x000000009d01d1b0                send
                0x000000009d01d1d0                recv
                0x000000009d01d314                recvfrom
                0x000000009d01d4f8                gethostname
                0x000000009d01d58c                closesocket

.text.atan2     0x000000009d01d7d0     0x1254
 .text.atan2    0x000000009d01d7d0     0x1254 c:/program files/microchip/xc32/v4.20/bin/bin/../../lib/gcc/pic32mx/8.3.1/../../../../pic32mx/lib\libm.a(atan2.o)
                0x000000009d01d7d0                atan2

.text           0x000000009d01ea24     0x21cc
 .text          0x000000009d01ea24     0x11b4 output\dee.o
                0x000000009d01ea24                deinit_dee
                0x000000009d01ea40                isr_dee_1ms
                0x000000009d01ea68                GetIndexOfEmptyDataElement
                0x000000009d01eb54                ErasePage
                0x000000009d01ec28                MassErasePage
                0x000000009d01ecb0                init_dee
                0x000000009d01eed8                DataEERead
                0x000000009d01f1c8                dee_read_eeprom
                0x000000009d01f250                dee_is_pack_running
                0x000000009d01f258                Dee_CloseCurrentPage
                0x000000009d01f2f4                DataEEWrite
                0x000000009d01f644                dee_write_eeprom
                0x000000009d01f6a8                PackEE_async
                0x000000009d01fa14                do_dee
                0x000000009d01fa88                _NVMOperation
                0x000000009d01fb80                NVMWriteWord
                0x000000009d01fbb0                NVMErasePage
 .text          0x000000009d01fbd8     0x1018 output\grbl_protocol.o
                0x000000009d01fbd8                init_protocol_main_loop
                0x000000009d01fc3c                isr_protocol_main_loop_1ms
                0x000000009d01fc44                protocol_set_requestSynchMotion
                0x000000009d01fc50                protocol_get_requestSynchMotion
                0x000000009d01fc58                protocol_clear_requestSynchMotion
                0x000000009d01fc60                protocol_set_requestDwell
                0x000000009d01fc68                protocol_update_requestDwell
                0x000000009d01fc98                protocol_get_requestDwell
                0x000000009d01fcd0                process_single_char_command
                0x000000009d01ff5c                process_multi_char_command
                0x000000009d0203a8                protocol_execute_line
                0x000000009d0208a0                getChar_grbl_protocol
                0x000000009d0208d8                putChar_grbl_protocol
                0x000000009d020910                do_protocol_main_loop

.text           0x000000009d020bf0     0x1e0c
 .text          0x000000009d020bf0      0xf08 output\planner.o
                0x000000009d020bf0                init_planner
                0x000000009d020c28                plan_next_block_index
                0x000000009d020c40                plan_prev_block_index
                0x000000009d020c54                planner_recalculate
                0x000000009d020fe4                plan_reset_buffer
                0x000000009d021020                plan_reset
                0x000000009d02105c                plan_discard_current_block
                0x000000009d021090                plan_get_system_motion_block
                0x000000009d0210b8                plan_get_current_block
                0x000000009d0210f0                plan_get_exec_block_exit_speed_sqr
                0x000000009d02113c                plan_check_full_buffer
                0x000000009d021150                plan_compute_profile_nominal_speed
                0x000000009d021290                plan_compute_profile_parameters
                0x000000009d021314                plan_update_velocity_profile_parameters
                0x000000009d0213cc                plan_buffer_line
                0x000000009d021a40                plan_sync_position
                0x000000009d021a6c                plan_get_block_buffer_available
                0x000000009d021a9c                plan_get_block_buffer_count
                0x000000009d021ac8                plan_cycle_reinitialize
 .text          0x000000009d021af8      0xf04 output\DHCP.o
                0x000000009d022240                DHCPInit
                0x000000009d0222c0                DHCPdeInit
                0x000000009d0222c8                DHCPDisable
                0x000000009d022314                DHCPEnable
                0x000000009d02234c                DHCPIsEnabled
                0x000000009d02235c                DHCPIsBound
                0x000000009d02236c                DHCPStateChanged
                0x000000009d0223a0                DHCPIsServerDetected
                0x000000009d0223b0                DHCPTempIPAddr
                0x000000009d0223cc                DHCPTask

.text           0x000000009d0229fc     0x1c24
 .text          0x000000009d0229fc      0xe8c output\rtc.o
                0x000000009d0229fc                isr_rtc_1ms
                0x000000009d022a24                isr_rtc_1s
                0x000000009d022a30                rtc_is_leap_year
                0x000000009d022aa0                rtc_get_day_in_year
                0x000000009d022ac4                rtc_get_day_in_month
                0x000000009d022b28                rtc_update_dofw_and_week
                0x000000009d022d2c                rtc_getTime
                0x000000009d022d80                rtc_inc_year
                0x000000009d022db4                rtc_dec_year
                0x000000009d022de8                rtc_inc_month
                0x000000009d022e40                rtc_dec_month
                0x000000009d022ea4                do_rtc
                0x000000009d022fe4                rtc_inc_day
                0x000000009d023060                rtc_inc_hour
                0x000000009d0230ac                rtc_inc_min
                0x000000009d0230f8                rtc_inc_sec
                0x000000009d023144                rtc_dec_day
                0x000000009d0231b0                rtc_dec_hour
                0x000000009d0231f8                rtc_dec_min
                0x000000009d023240                rtc_dec_sec
                0x000000009d023288                rtc_isDateValid
                0x000000009d023318                rtc_setTime
                0x000000009d023380                init_rtc
                0x000000009d0233c8                rtc_LoadCompilerDefaultTime
                0x000000009d023750                putString_usb
                0x000000009d023758                rtc_print_time
                0x000000009d0237b8                rtc_compare_date
 .text          0x000000009d023888      0xd98 output\aes_cmac.o
                0x000000009d023a14                aes_cmac_init
                0x000000009d023a50                aes_encrypt_cmac_start
                0x000000009d023b10                aes_encrypt_cmac_update
                0x000000009d0243f8                aes_encrypt_cmac_finish
                0x000000009d024478                aes_encrypt_cmac

.text           0x000000009d024620      0xd0c
 .text          0x000000009d024620      0xd0c output\eep_manager.o
                0x000000009d024620                deinit_eep_manager
                0x000000009d024628                isr_eep_manager_1ms
                0x000000009d024638                eep_manager_WriteAll_Trigger
                0x000000009d024688                eep_manager_WriteItem_Trigger
                0x000000009d0246cc                eep_manager_IsBusy
                0x000000009d024714                eepManagerFindAddr
                0x000000009d02475c                eepManagerReadVarBackup
                0x000000009d0248f0                eepManagerReadVar
                0x000000009d024abc                eepManagerValid
                0x000000009d024b38                eepManagerUpdate
                0x000000009d024b98                eepManagerWriteVar_Asynch
                0x000000009d024ee0                do_eep_manager
                0x000000009d025010                eepManagerEmpty
                0x000000009d025108                eep_manager_WriteAllDefault
                0x000000009d025124                eepManagerConfigPersistentValue
                0x000000009d0251a0                eep_manager_ReadAll
                0x000000009d0252bc                init_eep_manager

.dinit          0x000000009d02532c      0xba0
 .dinit         0x000000009d02532c      0xba0 data_init

.rodata.str1.4  0x000000009d025ecc      0xb18
 .rodata.str1.4
                0x000000009d025ecc      0xb18 output\grbl_report.o

.text           0x000000009d0269e4     0x1580
 .text          0x000000009d0269e4      0xac8 output\motion_control.o
                0x000000009d0269e4                init_motion_control
                0x000000009d026aa0                isArcGeneratingRunning
                0x000000009d026ab0                mc_line
                0x000000009d026b14                mc_arc_pre
                0x000000009d026f90                mc_arc
                0x000000009d02707c                mc_arc_async
                0x000000009d0272d8                do_motion_control
                0x000000009d027364                mc_dwell_ms
                0x000000009d0273cc                mc_dwell
                0x000000009d0273e8                mc_dwell_s
                0x000000009d027410                mc_stop
 .text          0x000000009d0274ac      0xab8 output\aes_key.o
                0x000000009d0274f8                init_aes_key
                0x000000009d0275bc                aes_injectKey
                0x000000009d027710                aes_key_loading_completed_callout
                0x000000009d027b80                do_aes_key_1ms
                0x000000009d027d9c                aes_injectKeySecured
                0x000000009d027f58                aes_key_loading_finished

.text           0x000000009d027f64     0x1494
 .text          0x000000009d027f64      0xa68 output\usb_device_cdc.o
                0x000000009d027f64                _USB_DEVICE_CDC_GlobalInitialize
                0x000000009d027f84                _USB_DEVICE_CDC_Initialization
                0x000000009d0280c8                _USB_DEVICE_CDC_SerialStateSendIRPCallback
                0x000000009d028178                _USB_DEVICE_CDC_ReadIRPCallback
                0x000000009d028228                _USB_DEVICE_CDC_WriteIRPCallback
                0x000000009d0282d8                _USB_DEVICE_CDC_ControlTransferHandler
                0x000000009d0283d8                _USB_DEVICE_CDC_EndpointDisable
                0x000000009d028444                _USB_DEVICE_CDC_Deinitialization
                0x000000009d0284b4                USB_DEVICE_CDC_Read
                0x000000009d028648                USB_DEVICE_CDC_Write
                0x000000009d0287f4                USB_DEVICE_CDC_EventHandlerSet
                0x000000009d028820                USB_DEVICE_CDC_ReadPacketSizeGet
                0x000000009d028838                USB_DEVICE_CDC_WritePacketSizeGet
                0x000000009d028850                USB_DEVICE_CDC_SerialStateNotificationSend
 .text          0x000000009d0289cc      0xa2c output\UDP.o
                0x000000009d0289cc                init_udp
                0x000000009d0289d4                do_udp
                0x000000009d028a18                isr_udp_1ms
                0x000000009d028a28                deinit_udp
                0x000000009d028a30                UDPdeInit
                0x000000009d028a38                UDPOpenEx
                0x000000009d028b58                UDPTask
                0x000000009d028c38                UDPIsOpened
                0x000000009d028c60                UDPClose
                0x000000009d028c9c                UDPInit
                0x000000009d028cec                UDPSetTxBuffer
                0x000000009d028d1c                UDPSetRxBuffer
                0x000000009d028d4c                UDPIsPutReady
                0x000000009d028dbc                UDPPut
                0x000000009d028e20                UDPPutArray
                0x000000009d028ebc                UDPPutString
                0x000000009d028f04                UDPFlush
                0x000000009d029084                UDPIsGetReady
                0x000000009d0290d8                UDPGet
                0x000000009d029134                UDPGetArray
                0x000000009d0291c4                UDPDiscard
                0x000000009d02920c                UDPProcess

.text           0x000000009d0293f8     0x1218
 .text          0x000000009d0293f8      0x950 output\grbl_print.o
                0x000000009d0293f8                printString
                0x000000009d029438                printPgmString
                0x000000009d029478                print_uint8_base10
                0x000000009d029550                print_uint8_base2_ndigit
                0x000000009d0295ec                print_uint32_base10
                0x000000009d0296a8                print_uint32_base16
                0x000000009d029714                print_uint16_base16
                0x000000009d029780                print_uint8_base16
                0x000000009d0297f0                printInteger
                0x000000009d029834                printDouble
                0x000000009d029a34                printFloat
                0x000000009d029bec                printFloat_CoordValue
                0x000000009d029c5c                printFloat_RateValue
                0x000000009d029ccc                print_lat_long
 .text          0x000000009d029d48      0x8c8 output\settings.o
                0x000000009d029d48                settings_write_coord_data
                0x000000009d029db0                write_global_settings
                0x000000009d029e14                settings_restore
                0x000000009d029fa8                settings_read_coord_data
                0x000000009d02a008                read_global_settings
                0x000000009d02a064                settings_init
                0x000000009d02a0b4                settings_store_global_setting
                0x000000009d02a5d0                get_step_pin_mask
                0x000000009d02a5f0                get_direction_pin_mask

.text           0x000000009d02a610     0x103c
 .text          0x000000009d02a610      0x828 output\drv_usbhs.o
                0x000000009d02a610                DRV_USBHS_Initialize
                0x000000009d02a6dc                DRV_USBHS_Tasks
                0x000000009d02aa7c                DRV_USBHS_Deinitialize
                0x000000009d02ab00                DRV_USBHS_Status
                0x000000009d02ab38                DRV_USBHS_Open
                0x000000009d02ab8c                DRV_USBHS_Close
                0x000000009d02abb4                DRV_USBHS_Tasks_ISR
                0x000000009d02ac8c                DRV_USBHS_Tasks_ISR_USBDMA
                0x000000009d02ad50                DRV_USBHS_ResumeControl
                0x000000009d02ada0                DRV_USBHS_HOST_Resume
                0x000000009d02add8                DRV_USBHS_HOST_Suspend
                0x000000009d02ae10                DRV_USBHS_ClientEventCallBackSet
 .text          0x000000009d02ae38      0x814 output\grbl_homing.o
                0x000000009d02ae38                init_homing
                0x000000009d02aeb8                grbl_homing_mc_homing_cycle_running
                0x000000009d02aec4                mc_homing_cycle
                0x000000009d02aed4                grbl_homing_go_home_running
                0x000000009d02aee4                grbl_homing_go_home
                0x000000009d02aef4                grbl_homing_calculate_set_axis_position
                0x000000009d02af90                do_homing_single_axis_sm
                0x000000009d02b4c8                do_homing
                0x000000009d02b5e0                grbl_homing_clear_go_come_instant
                0x000000009d02b5f0                grbl_homing_EXEC_SAFETY_DOOR_event
                0x000000009d02b624                grbl_homing_EXEC_CYCLE_STOP_event

.text           0x000000009d02b64c      0xe48
 .text          0x000000009d02b64c      0x734 output\spi2.o
                0x000000009d02b64c                init_spi2
                0x000000009d02b788                deinit_spi2
                0x000000009d02b7dc                do_spi2
                0x000000009d02ba78                isr_spi2_1ms
                0x000000009d02ba80                isr_spi2
                0x000000009d02ba88                spi2_reconfigure
                0x000000009d02bb0c                spi2_mode8
                0x000000009d02bb60                spi2_mode16
                0x000000009d02bbb8                spi2_mode32
                0x000000009d02bc10                spi2_readWrite_asynch
                0x000000009d02bc5c                spi2_readWrite_synch
                0x000000009d02bcb4                spi2_calculate_BRG
                0x000000009d02bcf8                spi2_get_state
                0x000000009d02bd00                spi2_islocked
                0x000000009d02bd08                spi2_lock
                0x000000009d02bd48                spi2_unlock
 .text          0x000000009d02bd80      0x714 output\nuts_bolts.o
                0x000000009d02bd80                init_nuts_bolts
                0x000000009d02bd88                do_nuts_bolts
                0x000000009d02bd90                isr_nuts_bolts_1ms
                0x000000009d02bd98                read_float
                0x000000009d02bfe4                hypot_f
                0x000000009d02c050                convert_delta_vector_to_unit_vector
                0x000000009d02c144                limit_value_by_axis_maximum
                0x000000009d02c1ec                trunc_my
                0x000000009d02c258                round_my
                0x000000009d02c288                lround_my
                0x000000009d02c300                isequal_position_vector
                0x000000009d02c3c8                nuts_bolts_tooth_load_rpm_to_feed

.text           0x000000009d02c494      0xd7c
 .text          0x000000009d02c494      0x6c8 output\grbl_eeprom.o
                0x000000009d02c494                isr_grbl_eeprom_1ms
                0x000000009d02c4a4                grbl_eeprom_trigger
                0x000000009d02c4b0                grbl_eeprom_trigger_settings
                0x000000009d02c4bc                grbl_NotifyUserFailedRead
                0x000000009d02c4ec                grbl_reset_eep_messages
                0x000000009d02c4fc                grbl_eeprom_checkIs
                0x000000009d02c5d8                do_grbl_eeprom
                0x000000009d02c844                grbl_eeprom_storePositionToNoInit
                0x000000009d02c8b0                grbl_eeprom_restorePositionFromNoInit
                0x000000009d02c9a8                init_grbl_eeprom
                0x000000009d02ca74                grbl_eeprom_get_eeprom
                0x000000009d02cae0                grbl_eeprom_set_eeprom
 .text          0x000000009d02cb5c      0x6b4 output\Helpers.o
                0x000000009d02cb5c                LFSRRand
                0x000000009d02cb98                LFSRSeedRand
                0x000000009d02cbe4                GenerateRandomDWORD
                0x000000009d02cc00                StringToIPAddress
                0x000000009d02cde8                uitoa
                0x000000009d02ce6c                hexatob
                0x000000009d02ced4                btohexa_high
                0x000000009d02ceec                btohexa_low
                0x000000009d02cf04                stricmppgm2ram
                0x000000009d02cfa0                swaps
                0x000000009d02cfb8                swapl
                0x000000009d02cfdc                CalcIPChecksum
                0x000000009d02d044                strupr
                0x000000009d02d088                FormatNetBIOSName
                0x000000009d02d100                strnchr
                0x000000009d02d13c                strncpy_m

.text           0x000000009d02d210      0xcdc
 .text          0x000000009d02d210      0x670 output\pwm.o
                0x000000009d02d210                init_pwm
                0x000000009d02d3e4                do_pwm
                0x000000009d02d3ec                setPwmFreq
                0x000000009d02d620                getPwmDuty
                0x000000009d02d638                setPWMRaw
                0x000000009d02d7d4                setPwmDuty
 .text          0x000000009d02d880      0x66c output\task.o
                0x000000009d02d880                isr_task_1ms
                0x000000009d02d890                clearTaskItem
                0x000000009d02d8d0                init_task
                0x000000009d02d904                deinit_task
                0x000000009d02d938                findFreeTaskList
                0x000000009d02d998                addTask
                0x000000009d02da50                addTriggerTask
                0x000000009d02da74                addSingleShootTimedTask
                0x000000009d02dab4                removeTask
                0x000000009d02db10                suspendTask
                0x000000009d02db30                resumeTask
                0x000000009d02db54                scheduleTask
                0x000000009d02db78                changeActivationCycleTask
                0x000000009d02db98                triggerTask
                0x000000009d02dc2c                addSingleShootTask
                0x000000009d02dc68                taskHelperActivator
                0x000000009d02dd50                do_task
                0x000000009d02decc                setTaskName

.text           0x000000009d02deec      0xc30
 .text          0x000000009d02deec      0x65c output\tmr.o
                0x000000009d02deec                init_tmr
                0x000000009d02df7c                deinit_tmr
                0x000000009d02dfc4                do_tmr
                0x000000009d02dfcc                delayms
                0x000000009d02e004                add_timer
                0x000000009d02e0d4                remove_timer
                0x000000009d02e1a4                read_timer
                0x000000009d02e224                write_timer
                0x000000009d02e2a4                init_timer
                0x000000009d02e2dc                setTimer
                0x000000009d02e2f4                getTimer
                0x000000009d02e30c                isr_tmr4
                0x000000009d02e314                isr_tmr3
                0x000000009d02e31c                isr_tmr2
                0x000000009d02e340                isr_tmr1
                0x000000009d02e468                getGlobalTime
                0x000000009d02e4d8                getGlobalTimeUs
 .text          0x000000009d02e548      0x5d4 output\rtcconverter.o
                0x000000009d02e548                rtc_UTCtoLocalTime
                0x000000009d02e630                rtc_LocalTimeToUTC
                0x000000009d02e718                rtc_NtpToDate
                0x000000009d02e854                rtc_DateToNtp
                0x000000009d02e9ac                rtc_UnixToJ2000Days
                0x000000009d02ea10                rtc_UnixToJulianDays
                0x000000009d02ea5c                rtc_JulianDaysToJ2000Days
                0x000000009d02ea80                rtc_UnixToDeg
                0x000000009d02eafc                rtc_ntp2unix
                0x000000009d02eb0c                rtc_unix2ntp

.text.__printf_core
                0x000000009d048000      0x580
 .text.__printf_core
                0x000000009d048000      0x580 c:/program files/microchip/xc32/v4.20/bin/bin/../../lib/gcc/pic32mx/8.3.1/../../../../pic32mx/lib\libc-musl.a(__printf_core.o)
                0x000000009d048000                __printf_core

.text           0x000000009d02eb1c      0x4dc
 .text          0x000000009d02eb1c      0x4dc output\dee_page_helper.o
                0x000000009d02eb1c                GetUnexpiredPage
                0x000000009d02eb84                GetActiveCurrentPage
                0x000000009d02ec14                GetActiveCurrentPageCount
                0x000000009d02ec78                GetNextPage
                0x000000009d02ecb0                GetPreviousPage
                0x000000009d02ecd8                GetPageStatus
                0x000000009d02ed30                SetPageStatus

.text           0x000000009d048580      0x984
 .text          0x000000009d048580      0x4c4 output\ethernet_grbl_multi.o
                0x000000009d048580                init_serial_grbl_ethernet_multi
                0x000000009d0485c4                isr_serial_grbl_ethernet_multi_1ms
                0x000000009d0485f8                ethernet_grbl_multi_loadbufferRx
                0x000000009d04870c                isCharInBuffer_grbl_ethernet_multi
                0x000000009d048734                isCharOutBuffer_grbl_ethernet_multi
                0x000000009d04875c                ethernet_grbl_multi_loadbufferTx
                0x000000009d048874                do_serial_grbl_ethernet_multi
                0x000000009d0489c0                getChar_grbl_ethernet_multi
                0x000000009d0489f8                putChar_grbl_ethernet_multi
 .text          0x000000009d048a44      0x4c0 output\sha256.o
                0x000000009d048a44                sha256_transform
                0x000000009d048c4c                sha256_init
                0x000000009d048cc4                sha256_update
                0x000000009d048d68                sha256_final

.text.dp32mul   0x000000009d048f04      0x4b8
 .text.dp32mul  0x000000009d048f04      0x4b8 c:/program files/microchip/xc32/v4.20/bin/bin/../../lib/gcc/pic32mx/8.3.1/../../../../pic32mx/lib\libm.a(dp32div.o)
                0x000000009d048f04                dpdiv
                0x000000009d048f04                __divdf3

.text           0x000000009d0493bc      0x93c
 .text          0x000000009d0493bc      0x4a4 output\usb_app.o
                0x000000009d0493bc                APP_USBDeviceCDCEventHandler
                0x000000009d0494e0                APP_USBDeviceEventHandler
                0x000000009d0495a4                APP_StateReset
                0x000000009d0495e0                APP_Initialize
                0x000000009d049624                APP_Tasks
 .text          0x000000009d049860      0x498 output\dee_page.o
                0x000000009d049860                GetEraseCounter
                0x000000009d049874                dee_page_update_debug_status
                0x000000009d0498b0                init_dee_page
                0x000000009d0498ec                do_dee_page
                0x000000009d049908                dee_page_mass_erase_page
                0x000000009d049958                dee_page_erase_page
                0x000000009d0499e8                dee_page_read_raw
                0x000000009d049a00                dee_page_read_status
                0x000000009d049a18                dee_page_read_address
                0x000000009d049a38                dee_page_read_data
                0x000000009d049a54                dee_page_read_crc
                0x000000009d049a74                dee_page_write_status
                0x000000009d049a9c                dee_page_write_address
                0x000000009d049ad4                dee_page_write_data
                0x000000009d049b0c                dee_page_write_crc
                0x000000009d049b44                dee_page_read_element
                0x000000009d049bd0                dee_page_write_element

.text           0x000000009d049cf8      0x8e0
 .text          0x000000009d049cf8      0x478 output\grbl.o
                0x000000009d049d10                init_grbl
                0x000000009d049dfc                do_grbl
                0x000000009d049fa8                isr_grbl_1ms
                0x000000009d04a024                isr_grbl_tmr_stepper_delay
                0x000000009d04a050                set_grbl_tmr0_trigger
                0x000000009d04a07c                set_grbl_tmr0_trigger_Step_Pulse_Delay
                0x000000009d04a0a8                isr_grbl_tmr_stepper
                0x000000009d04a0c4                set_grbl_tmr1_period
                0x000000009d04a0fc                set_grbl_tmr1_enabled
                0x000000009d04a118                set_grbl_tmr1_disabled
                0x000000009d04a130                isr_grbl_cn
                0x000000009d04a154                grlb_notify_new_connection
 .text          0x000000009d04a170      0x468 output\mal.o
                0x000000009d04a178                mal_get_reset_reason
                0x000000009d04a190                mal_reset
                0x000000009d04a1ac                mal_reset_reason
                0x000000009d04a314                init_mal
                0x000000009d04a44c                DmaSuspend
                0x000000009d04a488                DmaResume
                0x000000009d04a4bc                hexStringToChar
                0x000000009d04a54c                hexStringToInt
                0x000000009d04a5cc                mal_get_reset_counter

.text           0x000000009d04a5d8      0x458
 .text          0x000000009d04a5d8      0x458 output\spindle_control.o
                0x000000009d04a5d8                do_spindle
                0x000000009d04a5e0                spindle_get_state
                0x000000009d04a630                spindle_compute_pwm_value
                0x000000009d04a908                spindle_set_state
                0x000000009d04a9d0                spindle_init

.text.dreml     0x000000009d04aa30      0x454
 .text.dreml    0x000000009d04aa30      0x454 c:/program files/microchip/xc32/v4.20/bin/bin/../../lib/gcc/pic32mx/8.3.1/../../../../pic32mx/lib\libm.a(support.o)
                0x000000009d04aa30                dreml

.text.dp32subadd
                0x000000009d04ae84      0x430
 .text.dp32subadd
                0x000000009d04ae84      0x430 c:/program files/microchip/xc32/v4.20/bin/bin/../../lib/gcc/pic32mx/8.3.1/../../../../pic32mx/lib\libm.a(dp32subadd.o)
                0x000000009d04ae84                dpsub
                0x000000009d04ae84                __subdf3
                0x000000009d04ae8c                __adddf3
                0x000000009d04ae8c                dpadd

.text           0x000000009d04b2b4      0x798
 .text          0x000000009d04b2b4      0x3cc output\ARP.o
                0x000000009d04b2b4                ARPInit
                0x000000009d04b2e4                ARPdeInit
                0x000000009d04b2ec                ARPIsResolved
                0x000000009d04b36c                SwapARPPacket
                0x000000009d04b470                ARPSendPkt
                0x000000009d04b4b8                ARPResolve
                0x000000009d04b550                ARPProcess
 .text          0x000000009d04b680      0x3cc output\StackTsk.o
                0x000000009d04b680                StackInit_Async
                0x000000009d04b788                StackInit
                0x000000009d04b7a8                StackTask
                0x000000009d04b984                StackApplications
                0x000000009d04b9ec                StackdeInit
                0x000000009d04ba44                isr_Stack_1ms

.text           0x000000009d04ba4c      0x774
 .text          0x000000009d04ba4c      0x3bc c:/program files/microchip/xc32/v4.20/bin/bin/../../lib/gcc/pic32mx/8.3.1\libgcc.a(_udivdi3.o)
                0x000000009d04ba4c                __udivdi3
 .text          0x000000009d04be08      0x3b8 c:/program files/microchip/xc32/v4.20/bin/bin/../../lib/gcc/pic32mx/8.3.1\libgcc.a(_umoddi3.o)
                0x000000009d04be08                __umoddi3

.text           0x000000009d04c1c0      0x6f8
 .text          0x000000009d04c1c0      0x388 output\stepper_enable.o
                0x000000009d04c1c0                isr_stepper_enable_1ms
                0x000000009d04c1d0                get_stepper_enable_emergency_stop_active
                0x000000009d04c1d8                stepper_enable_emergency_stop
                0x000000009d04c1f4                stepper_enable_enable
                0x000000009d04c248                stepper_enable_emergency_stop_cleared
                0x000000009d04c2a4                stepper_enable_disable
                0x000000009d04c2e8                init_stepper_enable
                0x000000009d04c348                do_stepper_enable
                0x000000009d04c52c                exceptions_user_callout_grbl
 .text          0x000000009d04c548      0x370 output\grbl_limits.o
                0x000000009d04c548                isr_limits_1ms
                0x000000009d04c558                LIMIT_INT_vect
                0x000000009d04c570                limits_disable
                0x000000009d04c57c                limits_enable
                0x000000009d04c594                limits_get_state_non_filtered
                0x000000009d04c660                limits_init
                0x000000009d04c700                do_limits
                0x000000009d04c850                limits_get_state_filtered
                0x000000009d04c858                limits_set_state_filtered
                0x000000009d04c860                limits_soft_check

.text           0x000000009d04c8b8      0x33c
 .text          0x000000009d04c8b8      0x33c output\grbl_probe.o
                0x000000009d04c8b8                isr_probe_1ms
                0x000000009d04c8c8                probe_configure_invert_mask
                0x000000009d04c8f8                probe_init
                0x000000009d04c940                probe_get_state
                0x000000009d04c958                probe_state_monitor
                0x000000009d04c9b8                isProbing_cycleRunning
                0x000000009d04c9c8                mc_probe_cycle
                0x000000009d04ca64                mc_probe_cycle_async
                0x000000009d04cb4c                do_probe

.text.dp32mul   0x000000009d04cbf4      0x32c
 .text.dp32mul  0x000000009d04cbf4      0x32c c:/program files/microchip/xc32/v4.20/bin/bin/../../lib/gcc/pic32mx/8.3.1/../../../../pic32mx/lib\libm.a(dp32mul.o)
                0x000000009d04cbf4                __muldf3
                0x000000009d04cbf4                dpmul

.text.libm      0x000000009d04cf20      0x328
 .text.libm     0x000000009d04cf20      0x328 c:/program files/microchip/xc32/v4.20/bin/bin/../../lib/gcc/pic32mx/8.3.1/../../../../pic32mx/lib\libm.a(dpsqrt.o)
                0x000000009d04cf20                __mchp_sqrt
                0x000000009d04cf20                sqrt
                0x000000009d04cf20                dpsqrt

.text           0x000000009d04d248      0x5e4
 .text          0x000000009d04d248      0x2f8 output\ethernet.o
                0x000000009d04d248                init_ethernet
                0x000000009d04d250                init_ethernet_Asynch
                0x000000009d04d3b8                do_ethernet
                0x000000009d04d434                isr_ethernet_1ms
                0x000000009d04d470                deinit_ethernet
                0x000000009d04d4b0                ethernet_set_mac_address
                0x000000009d04d538                ethernet_is_initialized
 .text          0x000000009d04d540      0x2ec output\noinitram.o
                0x000000009d04d5e4                noinitram_IsValid
                0x000000009d04d684                noinitram_getByte
                0x000000009d04d6f8                noinitram_getByteArray
                0x000000009d04d7a8                noinitram_setByte
                0x000000009d04d7e4                noinitram_setByteArray

.text           0x000000009d04d82c      0x5c8
 .text          0x000000009d04d82c      0x2e8 output\eeprom.o
                0x000000009d04d82c                init_eeprom
                0x000000009d04d834                isr_eeprom_1ms
                0x000000009d04d844                deinit_eeprom
                0x000000009d04d84c                is_eeprom_write_protected
                0x000000009d04d86c                write_eeprom_char
                0x000000009d04d90c                do_eeprom
                0x000000009d04d984                read_eeprom_char
                0x000000009d04d9b8                write_eeprom_float
                0x000000009d04da0c                read_eeprom_float
                0x000000009d04da68                write_eeprom_int
                0x000000009d04dabc                read_eeprom_int
 .text          0x000000009d04db14      0x2e0 output\main.o
                0x000000009d04db44                init_sd_spi
                0x000000009d04db4c                do_sd_spi
                0x000000009d04db54                isr_sd_spi_1ms
                0x000000009d04db5c                init_random
                0x000000009d04db64                do_random
                0x000000009d04db6c                isr_random_1ms
                0x000000009d04db74                MDD_SDSPI_MediaDetect
                0x000000009d04db7c                main
                0x000000009d04dcf4                isr_main_1ms
                0x000000009d04dda8                isr_main_100us
                0x000000009d04ddc4                SPI2_LOCK_COLLISION_CALLOUT
                0x000000009d04ddd4                ethernet_callout_wait_for_other_device

.text           0x000000009d04ddf4      0x578
 .text          0x000000009d04ddf4      0x2c4 output\sleep.o
                0x000000009d04ddf4                init_sleep
                0x000000009d04de48                deinit_sleep
                0x000000009d04de50                isr_sleep_1ms
                0x000000009d04de60                sleep_SetRequestRunApp
                0x000000009d04de9c                sleep_ClearRequestRunApp
                0x000000009d04dec4                sleep_GetRequestRunApp
                0x000000009d04ded0                sleep_SetRequestRunDriver
                0x000000009d04defc                sleep_ClearRequestRunDriver
                0x000000009d04df24                sleep_GetRequestRunDriver
                0x000000009d04df30                do_sleep
                0x000000009d04e014                sleep_GetMainLoopRun
                0x000000009d04e01c                sleep_Request
                0x000000009d04e024                sleep_ExecuteSleep
                0x000000009d04e084                PowerSaveSleep
                0x000000009d04e08c                sleep_stay_in_loop
                0x000000009d04e094                sleep_after_deinit
 .text          0x000000009d04e0b8      0x2b4 output\system_control.o
                0x000000009d04e0b8                init_system_control
                0x000000009d04e108                isr_system_control_1ms
                0x000000009d04e118                CONTROL_INT_vect
                0x000000009d04e128                system_control_get_state_ABORT
                0x000000009d04e160                system_control_get_state_FEED_HOLD
                0x000000009d04e174                system_control_get_state_CYCLE_START
                0x000000009d04e188                system_control_get_state_SAFETY_DOOR
                0x000000009d04e19c                system_control_pins
                0x000000009d04e340                do_system_control

.text           0x000000009d04e36c      0x2ac
 .text          0x000000009d04e36c      0x2ac output\Announce.o
                0x000000009d04e36c                AnnounceIP
                0x000000009d04e46c                DiscoveryTask

.text.exsqrt    0x000000009d04e618      0x29c
 .text.exsqrt   0x000000009d04e618      0x29c c:/program files/microchip/xc32/v4.20/bin/bin/../../lib/gcc/pic32mx/8.3.1/../../../../pic32mx/lib\libm.a(exsqrt.o)
                0x000000009d04e618                exsqrt

.text           0x000000009d04e8b4      0x524
 .text          0x000000009d04e8b4      0x298 output\ringBuffer.o
                0x000000009d04e8b4                ringBuffer_initBuffer
                0x000000009d04e914                ringBuffer_getFillness
                0x000000009d04e944                ringBuffer_getEmptyness
                0x000000009d04e97c                ringBuffer_addItem
                0x000000009d04e9c0                ringBuffer_getItem
                0x000000009d04ea24                ringBuffer_readItem
                0x000000009d04ea94                ringBuffer_addBuffer
                0x000000009d04eaf0                ringBuffer_getBuffer
 .text          0x000000009d04eb4c      0x28c output\app.o
                0x000000009d04eb4c                init_app_mqtt
                0x000000009d04eb54                do_app_mqtt
                0x000000009d04eb5c                isr_app_mqtt_1ms
                0x000000009d04eb64                init_app_rfe
                0x000000009d04eb6c                do_app_rfe
                0x000000009d04eb74                isr_app_rfe_1ms
                0x000000009d04eb7c                init_app_bootloader
                0x000000009d04eb84                do_app_bootloader
                0x000000009d04eb8c                isr_app_bootloader_1ms
                0x000000009d04eb94                SetClockVars
                0x000000009d04eb9c                init_app
                0x000000009d04ebdc                isr_app_1ms
                0x000000009d04ec38                isr_app_100us
                0x000000009d04ec40                isr_app_custom
                0x000000009d04ec48                backToSleep
                0x000000009d04ec50                eepManager_NotifyUserFailedRead
                0x000000009d04ec6c                app_get_noinitram_tester
                0x000000009d04ec74                sntp_user_callout
                0x000000009d04ecc0                aes_LoadROMKey
                0x000000009d04ed14                doAppUpdateFSIOClock
                0x000000009d04ed54                do_app

.text.fpsubadd  0x000000009d04edd8      0x278
 .text.fpsubadd
                0x000000009d04edd8      0x278 c:/program files/microchip/xc32/v4.20/bin/bin/../../lib/gcc/pic32mx/8.3.1/../../../../pic32mx/lib\libm.a(fp32subadd.o)
                0x000000009d04edd8                __subsf3
                0x000000009d04edd8                fpsub
                0x000000009d04ede0                __addsf3
                0x000000009d04ede0                fpadd

.text.fp32div   0x000000009d04f050      0x230
 .text.fp32div  0x000000009d04f050      0x230 c:/program files/microchip/xc32/v4.20/bin/bin/../../lib/gcc/pic32mx/8.3.1/../../../../pic32mx/lib\libm.a(fp32div.o)
                0x000000009d04f050                fpdiv
                0x000000009d04f050                __divsf3

.text           0x000000009d04f280      0x20c
 .text          0x000000009d04f280      0x20c output\IP.o
                0x000000009d04f2c4                IPGetHeader
                0x000000009d04f3a0                IPPutHeader
                0x000000009d04f468                IPSetRxBuffer

.text.__fmt_x   0x000000009d04f48c      0x208
 .text.__fmt_x  0x000000009d04f48c      0x208 c:/program files/microchip/xc32/v4.20/bin/bin/../../lib/gcc/pic32mx/8.3.1/../../../../pic32mx/lib\libc-musl.a(__fmt_x.o)
                0x000000009d04f48c                __fmt_x_needed
                0x000000009d04f48c                __fmt_x

.text           0x000000009d04f694      0x3d4
 .text          0x000000009d04f694      0x1f4 output\aes_cbc.o
                0x000000009d04f84c                aes_encrypt_cbc
                0x000000009d04f86c                aes_decrypt_cbc
 .text          0x000000009d04f888      0x1e0 output\aes_challenge_response.o
                0x000000009d04f888                aes_getChallenge
                0x000000009d04f988                aes_checkResponse

.rodata         0x000000009d04fa68      0x1d4
 .rodata        0x000000009d04fa68      0x1d4 output\system_init.o
                0x000000009d04fa68                usbDevInitData
                0x000000009d04fa9c                usbMasterDescriptor
                0x000000009d04fac8                stringDescriptors
                0x000000009d04fad4                sd002
                0x000000009d04fb04                sd001
                0x000000009d04fb38                sd000
                0x000000009d04fb3c                fullSpeedConfigDescSet
                0x000000009d04fb40                fullSpeedConfigurationDescriptor
                0x000000009d04fb84                highSpeedConfigDescSet
                0x000000009d04fb88                highSpeedConfigurationDescriptor
                0x000000009d04fbcc                deviceQualifierDescriptor1
                0x000000009d04fbd8                deviceDescriptor
                0x000000009d04fbec                funcRegistrationTable
                0x000000009d04fc00                cdcInit0
                0x000000009d04fc0c                drvUSBInit

.text           0x000000009d04fc3c      0x38c
 .text          0x000000009d04fc3c      0x1c8 output\aes_ecb.o
                0x000000009d04fc3c                aes_encrypt_ecb
                0x000000009d04fd20                aes_decrypt_ecb
 .text          0x000000009d04fe04      0x1c4 output\exceptions.o
                0x000000009d04fe04                _general_exception_handler
                0x000000009d04ff4c                init_exception
                0x000000009d04ffb0                do_exception_examples
                0x000000009d04ffb8                exceptions_clearException
                0x000000009d04ffc0                exceptions_getException

.text.fp32mul   0x000000009d04ffc8      0x1bc
 .text.fp32mul  0x000000009d04ffc8      0x1bc c:/program files/microchip/xc32/v4.20/bin/bin/../../lib/gcc/pic32mx/8.3.1/../../../../pic32mx/lib\libm.a(fp32mul.o)
                0x000000009d04ffc8                __mulsf3
                0x000000009d04ffc8                fpmul

.text.libm      0x000000009d050184      0x1b8
 .text.libm     0x000000009d050184      0x1b8 c:/program files/microchip/xc32/v4.20/bin/bin/../../lib/gcc/pic32mx/8.3.1/../../../../pic32mx/lib\libm.a(reduct32.o)
                0x000000009d050184                reduct

.text           0x000000009d05033c      0x35c
 .text          0x000000009d05033c      0x1b0 output\Reboot.o
                0x000000009d05033c                RebootTask
 .text          0x000000009d0504ec      0x1ac output\grbl_toolchange.o
                0x000000009d0504ec                init_grbl_toolchange
                0x000000009d05051c                do_grbl_toolchange
                0x000000009d050650                isr_grbl_toolchange_1ms
                0x000000009d050660                setToolChangeRunning
                0x000000009d050688                updateToolChangeRunning
                0x000000009d050690                isToolChangeRunning

.text           0x000000009d050698      0x1a8
 .text          0x000000009d050698      0x1a8 output\grbl_running.o
                0x000000009d050698                init_grbl_running
                0x000000009d0506cc                do_grbl_running
                0x000000009d050810                isr_grbl_running_1ms

.text.libm      0x000000009d050840      0x1a4
 .text.libm     0x000000009d050840      0x1a4 c:/program files/microchip/xc32/v4.20/bin/bin/../../lib/gcc/pic32mx/8.3.1/../../../../pic32mx/lib\libm.a(cos32.o)
                0x000000009d050840                cos
                0x000000009d050840                dpcos
                0x000000009d050840                cosl

.text           0x000000009d0509e4      0x19c
 .text          0x000000009d0509e4      0x19c c:/program files/microchip/xc32/v4.20/bin/bin/../../lib/gcc/pic32mx/8.3.1/../../../../pic32mx/lib\libm.a(sin32.o)
                0x000000009d0509e4                sin
                0x000000009d0509e4                sinl
                0x000000009d0509e4                dpsin

.text.__pop_int
                0x000000009d050b80      0x188
 .text.__pop_int
                0x000000009d050b80      0x188 c:/program files/microchip/xc32/v4.20/bin/bin/../../lib/gcc/pic32mx/8.3.1/../../../../pic32mx/lib\libc-musl.a(__pop_int.o)
                0x000000009d050b80                __pop_int_needed
                0x000000009d050b80                __pop_int

.text           0x000000009d050d08      0x2e4
 .text          0x000000009d050d08      0x174 output\system_exec.o
                0x000000009d050d08                init_system_exec
                0x000000009d050d14                system_set_exec_state_flag
                0x000000009d050d8c                system_clear_exec_state_flag
                0x000000009d050e08                system_get_exec_state_flag
 .text          0x000000009d050e7c      0x170 output\usb_device_cdc_acm.o
                0x000000009d050e7c                _USB_DEVICE_CDC_ACMSetUpPacketHandler

.text.libm      0x000000009d050fec      0x16c
 .text.libm     0x000000009d050fec      0x16c c:/program files/microchip/xc32/v4.20/bin/bin/../../lib/gcc/pic32mx/8.3.1/../../../../pic32mx/lib\libm.a(dpldexp.o)
                0x000000009d050fec                __mchp_ldexp
                0x000000009d050fec                ldexp
                0x000000009d050fec                dpldexp

.text           0x000000009d051158      0x2d0
 .text          0x000000009d051158      0x168 output\eep_manager_crc.o
                0x000000009d051158                calculate_eep_manager_crc
                0x000000009d051198                calculate_eep_manager_xor
                0x000000009d0511cc                calculate_eep_manager_sum
                0x000000009d051204                calculate_eep_manager_crc32
                0x000000009d051264                calculate_eep_manager_crc32_special
 .text          0x000000009d0512c0      0x168 c:/program files/microchip/xc32/v4.20/bin/bin/../../lib/gcc/pic32mx/8.3.1/../../../../pic32mx/lib\libpic32.a(memcpy.o)
                0x000000009d0512c0                memcpy

.text           0x000000009d051428      0x2c8
 .text          0x000000009d051428      0x168 c:/program files/microchip/xc32/v4.20/bin/bin/../../lib/gcc/pic32mx/8.3.1/../../../../pic32mx/lib\libpic32.a(strlen.o)
                0x000000009d051428                strlen
 .text          0x000000009d051590      0x160 output\system_alarm.o
                0x000000009d051590                init_system_alarm
                0x000000009d05159c                system_set_exec_alarm
                0x000000009d05160c                system_get_exec_alarm
                0x000000009d051680                system_clear_exec_alarm

.text           0x000000009d0516f0      0x154
 .text          0x000000009d0516f0      0x154 output\aes_cbc_mac.o
                0x000000009d0516f0                aes_encrypt_cbc_mac

.rodata         0x000000009d051844      0x150
 .rodata        0x000000009d051844      0x150 output\c_eep_manager.o
                0x000000009d051844                default_app_rfe_last_raw_packet
                0x000000009d051854                default_grbl_serial_number
                0x000000009d051858                default_grbl_Tool_Length_2
                0x000000009d05185c                default_grbl_Tool_Length_1
                0x000000009d051860                default_SerializedMACAddress
                0x000000009d051868                default_grbl_running_spindle_running_minutes
                0x000000009d05186c                default_grbl_running_startup_cnt
                0x000000009d051870                default_grbl_running_running_hours
                0x000000009d051874                default_grbl_running_running_minutes
                0x000000009d051878                default_coord_offset_eep
                0x000000009d051884                default_coord_system_eep
                0x000000009d051890                default_sys_position
                0x000000009d05189c                default_eep_coord_teached
                0x000000009d0518a8                default_eep_coord_data
                0x000000009d051920                default_eep_settings
                0x000000009d051990                default_eep_settings_version

.text           0x000000009d051994      0x150
 .text          0x000000009d051994      0x150 output\grbl_multi.o
                0x000000009d0519e4                init_serial_grbl
                0x000000009d051a08                do_serial_grbl
                0x000000009d051a2c                isr_serial_grbl_1ms
                0x000000009d051a50                getChar_grbl
                0x000000009d051a98                putChar_grbl

.text.__fmt_d   0x000000009d051ae4      0x150
 .text.__fmt_d  0x000000009d051ae4      0x150 c:/program files/microchip/xc32/v4.20/bin/bin/../../lib/gcc/pic32mx/8.3.1/../../../../pic32mx/lib\libc-musl.a(__fmt_d.o)
                0x000000009d051ae4                __fmt_d_needed
                0x000000009d051ae4                __fmt_d

.text.__cvt_u   0x000000009d051c34      0x13c
 .text.__cvt_u  0x000000009d051c34      0x13c c:/program files/microchip/xc32/v4.20/bin/bin/../../lib/gcc/pic32mx/8.3.1/../../../../pic32mx/lib\libc-musl.a(__fmt_u.o)
                0x000000009d051c34                __cvt_u

.text           0x000000009d051d70      0x264
 .text          0x000000009d051d70      0x134 output\aes_block.o
                0x000000009d051d70                aes_block_encrypt
                0x000000009d051e04                aes_block_decrypt
 .text          0x000000009d051ea4      0x130 output\usb_grbl_multi.o
                0x000000009d051ea4                init_serial_grbl_usb_multi
                0x000000009d051ee8                do_serial_grbl_usb_multi
                0x000000009d051ef0                isr_serial_grbl_usb_multi_1ms
                0x000000009d051ef8                isCharInBuffer_grbl_usb_multi
                0x000000009d051f20                isCharOutBuffer_grbl_usb_multi
                0x000000009d051f48                isCharOutBuffer_usb
                0x000000009d051f64                getChar_grbl_usb_multi
                0x000000009d051f9c                putChar_grbl_usb_multi

.text.dpcmp     0x000000009d051fd4      0x12c
 .text.dpcmp    0x000000009d051fd4      0x12c c:/program files/microchip/xc32/v4.20/bin/bin/../../lib/gcc/pic32mx/8.3.1/../../../../pic32mx/lib\libm.a(dpcmp.o)
                0x000000009d051fd4                __gedf2
                0x000000009d051fd4                dpcmp
                0x000000009d051fd4                __nedf2
                0x000000009d051fd4                __eqdf2
                0x000000009d051fd4                __gtdf2

.text.dfcmplt   0x000000009d052100      0x12c
 .text.dfcmplt  0x000000009d052100      0x12c c:/program files/microchip/xc32/v4.20/bin/bin/../../lib/gcc/pic32mx/8.3.1/../../../../pic32mx/lib\libm.a(dpcmplt.o)
                0x000000009d052100                __ledf2
                0x000000009d052100                dpcmplt
                0x000000009d052100                __ltdf2

.text           0x000000009d05222c      0x120
 .text          0x000000009d05222c      0x120 c:/program files/microchip/xc32/v4.20/bin/bin/../../lib/gcc/pic32mx/8.3.1/../../../../pic32mx/lib\libpic32.a(strcmp.o)
                0x000000009d05222c                strcmp

.text.logbl     0x000000009d05234c      0x120
 .text.logbl    0x000000009d05234c      0x120 c:/program files/microchip/xc32/v4.20/bin/bin/../../lib/gcc/pic32mx/8.3.1/../../../../pic32mx/lib\libm.a(support.o)
                0x000000009d05234c                logbl

.text.libm      0x000000009d05246c      0x10c
 .text.libm     0x000000009d05246c      0x10c c:/program files/microchip/xc32/v4.20/bin/bin/../../lib/gcc/pic32mx/8.3.1/../../../../pic32mx/lib\libm.a(sigmax.o)
                0x000000009d05246c                sigmax

.text           0x000000009d052578      0x20c
 .text          0x000000009d052578      0x108 c:/program files/microchip/xc32/v4.20/bin/bin/../../lib/gcc/pic32mx/8.3.1/../../../../pic32mx/lib\libm.a(floor32.o)
                0x000000009d052578                floorl
                0x000000009d052578                dpfloor
                0x000000009d052578                floor
 .text          0x000000009d052680      0x104 output\daylight.o
                0x000000009d052680                daylight_SavingsBegin
                0x000000009d0526c4                daylight_SavingsEnd
                0x000000009d052708                daylight_isDaylightSavings

.rodata         0x000000009d052784      0x200
 .rodata        0x000000009d052784      0x100 output\eep_manager_crc.o
                0x000000009d052784                crcTableEepManager
 .rodata        0x000000009d052884      0x100 output\sha256.o

.text.__pad     0x000000009d052984      0x100
 .text.__pad    0x000000009d052984      0x100 c:/program files/microchip/xc32/v4.20/bin/bin/../../lib/gcc/pic32mx/8.3.1/../../../../pic32mx/lib\libc-musl.a(__printf_core.o)
                0x000000009d052984                __pad

.text.libm      0x000000009d052a84      0x100
 .text.libm     0x000000009d052a84      0x100 c:/program files/microchip/xc32/v4.20/bin/bin/../../lib/gcc/pic32mx/8.3.1/../../../../pic32mx/lib\libm.a(ceil32.o)
                0x000000009d052a84                ceill
                0x000000009d052a84                ceil
                0x000000009d052a84                dpceil

.text.dptofp    0x000000009d052b84      0x100
 .text.dptofp   0x000000009d052b84      0x100 c:/program files/microchip/xc32/v4.20/bin/bin/../../lib/gcc/pic32mx/8.3.1/../../../../pic32mx/lib\libm.a(dptofp.o)
                0x000000009d052b84                __truncdfsf2
                0x000000009d052b84                dptofp

.text.libm.fpexsqrt
                0x000000009d052c84       0xfc
 .text.libm.fpexsqrt
                0x000000009d052c84       0xfc c:/program files/microchip/xc32/v4.20/bin/bin/../../lib/gcc/pic32mx/8.3.1/../../../../pic32mx/lib\libm.a(fpexsqrt32.o)
                0x000000009d052c84                fpexsqrt

.text.__fmt_o   0x000000009d052d80       0xf4
 .text.__fmt_o  0x000000009d052d80       0xf4 c:/program files/microchip/xc32/v4.20/bin/bin/../../lib/gcc/pic32mx/8.3.1/../../../../pic32mx/lib\libc-musl.a(__fmt_o.o)
                0x000000009d052d80                __fmt_o_needed
                0x000000009d052d80                __fmt_o

.text           0x000000009d001010       0xf0
 .text          0x000000009d001010       0xf0 output\ICMP.o
                0x000000009d001010                ICMPProcess

.text           0x000000009d052e74      0x1d0
 .text          0x000000009d052e74       0xe8 output\grbl_bootloader.o
                0x000000009d052e74                init_grbl_bootloader
                0x000000009d052e94                do_grbl_bootloader
                0x000000009d052f3c                isr_grbl_bootloader_1ms
                0x000000009d052f4c                grbl_bootloader_trigger
 .text          0x000000009d052f5c       0xe8 output\sys_int_pic32.o
                0x000000009d052f5c                SYS_INT_Initialize
                0x000000009d052f64                SYS_INT_StatusGetAndDisable
                0x000000009d052f80                SYS_INT_StatusRestore
                0x000000009d052f9c                SYS_INT_Disable
                0x000000009d052fbc                SYS_INT_SourceDisable
                0x000000009d053010                SYS_INT_ExternalInterruptTriggerSet

.text.__pop_ptr
                0x000000009d053044       0xe4
 .text.__pop_ptr
                0x000000009d053044       0xe4 c:/program files/microchip/xc32/v4.20/bin/bin/../../lib/gcc/pic32mx/8.3.1/../../../../pic32mx/lib\libc-musl.a(__pop_ptr.o)
                0x000000009d053044                __pop_ptr_needed
                0x000000009d053044                __pop_ptr

.text.general_exception
                0x000000009d053128       0xdc
 .text.general_exception
                0x000000009d053128       0xdc c:/program files/microchip/xc32/v4.20/bin/bin/../../lib/gcc/pic32mx/8.3.1/../../../../pic32mx/lib\libpic32.a(general-exception.o)
                0x000000009d053128                _general_exception_context

.text._cache_err_exception_context
                0x000000009d053204       0xd8
 .text._cache_err_exception_context
                0x000000009d053204       0xd8 c:/program files/microchip/xc32/v4.20/bin/bin/../../lib/gcc/pic32mx/8.3.1/../../../../pic32mx/lib\libpic32.a(cache-err-exception.o)
                0x000000009d053204                _cache_err_exception_context

.text.simple_tlb_refill_context
                0x000000009d0532dc       0xd8
 .text.simple_tlb_refill_context
                0x000000009d0532dc       0xd8 c:/program files/microchip/xc32/v4.20/bin/bin/../../lib/gcc/pic32mx/8.3.1/../../../../pic32mx/lib\libpic32.a(simple-tlb-refill-exception.o)
                0x000000009d0532dc                _simple_tlb_refill_exception_context

.text.libm      0x000000009d0533b4       0xd0
 .text.libm     0x000000009d0533b4       0xd0 c:/program files/microchip/xc32/v4.20/bin/bin/../../lib/gcc/pic32mx/8.3.1/../../../../pic32mx/lib\libm.a(exmul.o)
                0x000000009d0533b4                exmul

.text           0x000000009d053484       0xcc
 .text          0x000000009d053484       0xcc output\bootloader_interface.o
                0x000000009d053484                bootloader_interface_clearRequest
                0x000000009d0534a0                bootloader_interface_setRequest
                0x000000009d0534c8                bootloader_get_bootloader_was_reset_called
                0x000000009d0534dc                bootloader_reset
                0x000000009d053508                bootloader_write_mac

.rodata.cst8    0x000000009d053550       0xc8
 .rodata.cst8   0x000000009d053550       0xc8 c:/program files/microchip/xc32/v4.20/bin/bin/../../lib/gcc/pic32mx/8.3.1/../../../../pic32mx/lib\libm.a(atan2.o)

.text           0x000000009d053618       0xc4
 .text          0x000000009d053618       0xc4 output\aes_128.o
                0x000000009d053620                init_aes_128
                0x000000009d053644                deinit_aes_128
                0x000000009d05364c                do_aes_128
                0x000000009d053674                isr_aes_128_1ms
                0x000000009d053680                aes_block_xor
                0x000000009d0536b0                aes_block_buffer_xor

.tlb.__pic32_tlb_init_ebi_sqi
                0x000000009d0536dc       0xbc
 .tlb.__pic32_tlb_init_ebi_sqi
                0x000000009d0536dc       0xbc c:/program files/microchip/xc32/v4.20/bin/bin/../../lib/gcc/pic32mx/8.3.1/../../../../pic32mx/lib\libpic32.a(pic32_init_tlb_ebi_sqi.o)
                0x000000009d0536dc                __pic32_tlb_init_ebi_sqi

.text.__fmt_u   0x000000009d053798       0xbc
 .text.__fmt_u  0x000000009d053798       0xbc c:/program files/microchip/xc32/v4.20/bin/bin/../../lib/gcc/pic32mx/8.3.1/../../../../pic32mx/lib\libc-musl.a(__fmt_u.o)
                0x000000009d053798                __fmt_u_needed
                0x000000009d053798                __fmt_u

.text           0x000000009d053854      0x168
 .text          0x000000009d053854       0xb8 output\jog.o
                0x000000009d053854                jog_execute
 .text          0x000000009d05390c       0xb0 output\stackmeasure.o
                0x000000009d05390c                init_stackmeasure
                0x000000009d05394c                do_stackmeasure
                0x000000009d0539a4                getStackFillnessMax
                0x000000009d0539ac                getStackSize

.text.fptodp    0x000000009d0539bc       0xac
 .text.fptodp   0x000000009d0539bc       0xac c:/program files/microchip/xc32/v4.20/bin/bin/../../lib/gcc/pic32mx/8.3.1/../../../../pic32mx/lib\libm.a(fptodp.o)
                0x000000009d0539bc                fptodp
                0x000000009d0539bc                __extendsfdf2

.text           0x000000009d053a68      0x14c
 .text          0x000000009d053a68       0xa8 c:/program files/microchip/xc32/v4.20/bin/bin/../../lib/gcc/pic32mx/8.3.1/../../../../pic32mx/lib\libpic32.a(memset.o)
                0x000000009d053a68                memset
 .text          0x000000009d053b10       0xa4 c:/program files/microchip/xc32/v4.20/bin/bin/../../lib/gcc/pic32mx/8.3.1\libgcc.a(_fixunssfdi.o)
                0x000000009d053b10                __fixunssfdi

.text.__fmt_s   0x000000009d053bb4       0xa4
 .text.__fmt_s  0x000000009d053bb4       0xa4 c:/program files/microchip/xc32/v4.20/bin/bin/../../lib/gcc/pic32mx/8.3.1/../../../../pic32mx/lib\libc-musl.a(__fmt_s.o)
                0x000000009d053bb4                __fmt_0_needed
                0x000000009d053bb4                __fmt_s_needed
                0x000000009d053bb4                __fmt_s

.text.fpcmp     0x000000009d053c58       0x9c
 .text.fpcmp    0x000000009d053c58       0x9c c:/program files/microchip/xc32/v4.20/bin/bin/../../lib/gcc/pic32mx/8.3.1/../../../../pic32mx/lib\libm.a(fpcmp.o)
                0x000000009d053c58                __gtsf2
                0x000000009d053c58                __nesf2
                0x000000009d053c58                fpcmp
                0x000000009d053c58                __gesf2
                0x000000009d053c58                __eqsf2

.text.fpcmplt   0x000000009d053cf4       0x9c
 .text.fpcmplt  0x000000009d053cf4       0x9c c:/program files/microchip/xc32/v4.20/bin/bin/../../lib/gcc/pic32mx/8.3.1/../../../../pic32mx/lib\libm.a(fpcmplt.o)
                0x000000009d053cf4                __lesf2
                0x000000009d053cf4                fpcmplt
                0x000000009d053cf4                __ltsf2

.text           0x000000009d053d90      0x12c
 .text          0x000000009d053d90       0x98 c:/program files/microchip/xc32/v4.20/bin/bin/../../lib/gcc/pic32mx/8.3.1/../../../../pic32mx/lib\libpic32.a(memcmp.o)
                0x000000009d053d90                memcmp
 .text          0x000000009d053e28       0x94 output\system_init.o
                0x000000009d053e28                SYS_Initialize

.text.dptoli    0x000000009d053ebc       0x90
 .text.dptoli   0x000000009d053ebc       0x90 c:/program files/microchip/xc32/v4.20/bin/bin/../../lib/gcc/pic32mx/8.3.1/../../../../pic32mx/lib\libm.a(dptoli.o)
                0x000000009d053ebc                __fixdfsi
                0x000000009d053ebc                dptoli

.text.dptoul    0x000000009d053f4c       0x8c
 .text.dptoul   0x000000009d053f4c       0x8c c:/program files/microchip/xc32/v4.20/bin/bin/../../lib/gcc/pic32mx/8.3.1/../../../../pic32mx/lib\libm.a(dptoul.o)
                0x000000009d053f4c                dptoul
                0x000000009d053f4c                __fixunsdfsi

.text.copysignf
                0x000000009d053fd8       0x8c
 .text.copysignf
                0x000000009d053fd8       0x8c c:/program files/microchip/xc32/v4.20/bin/bin/../../lib/gcc/pic32mx/8.3.1/../../../../pic32mx/lib\libm.a(support.o)
                0x000000009d053fd8                copysignf

.text           0x000000009d054064       0x88
 .text          0x000000009d054064       0x88 output\usb.o
                0x000000009d054064                init_usb
                0x000000009d054088                do_usb
                0x000000009d0540a4                isr_usb
                0x000000009d0540c4                isr_usb_dma
                0x000000009d0540e4                isr_usb_1ms

.text.isinff    0x000000009d0540ec       0x88
 .text.isinff   0x000000009d0540ec       0x88 c:/program files/microchip/xc32/v4.20/bin/bin/../../lib/gcc/pic32mx/8.3.1/../../../../pic32mx/lib\libpic32.a(isinf.o)
                0x000000009d0540ec                isinff

.text.sqrtl     0x000000009d054174       0x84
 .text.sqrtl    0x000000009d054174       0x84 c:/program files/microchip/xc32/v4.20/bin/bin/../../lib/gcc/pic32mx/8.3.1/../../../../pic32mx/lib\libm.a(w_sqrt.o)
                0x000000009d054174                sqrtl

.text           0x000000009d0541f8       0x80
 .text          0x000000009d0541f8       0x80 output\ad.o
                0x000000009d0541f8                init_ad
                0x000000009d054218                do_ad
                0x000000009d054220                isr_ad_1ms
                0x000000009d054244                getAd
                0x000000009d054258                ad_configure_conversion
                0x000000009d054260                ad_start_conversion
                0x000000009d054268                ad_is_conversion_finished
                0x000000009d054270                ad_read_out_value

.text.dinit.startup
                0x000000009d054278       0x80
 .text.dinit.startup
                0x000000009d054278       0x80 c:/program files/microchip/xc32/v4.20/bin/bin/../../lib/gcc/pic32mx/8.3.1/../../../../pic32mx/lib\libpic32.a(pic32_data_init_0_1.o)
                0x000000009d054278                __pic32_data_init_impl
                0x000000009d054278                __copy_needed

.text.__vsnprintf
                0x000000009d0542f8       0x80
 .text.__vsnprintf
                0x000000009d0542f8       0x80 c:/program files/microchip/xc32/v4.20/bin/bin/../../lib/gcc/pic32mx/8.3.1/../../../../pic32mx/lib\libc-musl.a(__int_vsnprintf.o)
                0x000000009d0542f8                __vsnprintf

.text.fptoli    0x000000009d054378       0x80
 .text.fptoli   0x000000009d054378       0x80 c:/program files/microchip/xc32/v4.20/bin/bin/../../lib/gcc/pic32mx/8.3.1/../../../../pic32mx/lib\libm.a(fptoli.o)
                0x000000009d054378                fptoli
                0x000000009d054378                fptosi
                0x000000009d054378                __fixsfsi

.text.dremf     0x000000009d0543f8       0x80
 .text.dremf    0x000000009d0543f8       0x80 c:/program files/microchip/xc32/v4.20/bin/bin/../../lib/gcc/pic32mx/8.3.1/../../../../pic32mx/lib\libm.a(support.o)
                0x000000009d0543f8                dremf

.text.isinf     0x000000009d054478       0x80
 .text.isinf    0x000000009d054478       0x80 c:/program files/microchip/xc32/v4.20/bin/bin/../../lib/gcc/pic32mx/8.3.1/../../../../pic32mx/lib\libpic32.a(isinf.o)
                0x000000009d054478                isinf

.text           0x000000009d0544f8       0x7c
 .text          0x000000009d0544f8       0x7c output\bsp_sys_init.o
                0x000000009d0544f8                BSP_Initialize
                0x000000009d054520                BSP_SwitchStateGet
                0x000000009d05453c                BSP_USBVBUSPowerEnable
                0x000000009d05456c                BSP_USBVBUSSwitchOverCurrentDetect

.text.atoi      0x000000009d054574       0x7c
 .text.atoi     0x000000009d054574       0x7c c:/program files/microchip/xc32/v4.20/bin/bin/../../lib/gcc/pic32mx/8.3.1/../../../../pic32mx/lib\libc-musl.a(atoi.o)
                0x000000009d054574                atoi

.text.fptoul    0x000000009d0545f0       0x7c
 .text.fptoul   0x000000009d0545f0       0x7c c:/program files/microchip/xc32/v4.20/bin/bin/../../lib/gcc/pic32mx/8.3.1/../../../../pic32mx/lib\libm.a(fptoul.o)
                0x000000009d0545f0                fptoul
                0x000000009d0545f0                fptoui
                0x000000009d0545f0                __fixunssfsi

.text.litodp    0x000000009d05466c       0x78
 .text.litodp   0x000000009d05466c       0x78 c:/program files/microchip/xc32/v4.20/bin/bin/../../lib/gcc/pic32mx/8.3.1/../../../../pic32mx/lib\libm.a(litodp.o)
                0x000000009d05466c                __floatsidf
                0x000000009d05466c                litodp

.text           0x000000009d0546e4       0x74
 .text          0x000000009d0546e4       0x74 c:/program files/microchip/xc32/v4.20/bin/bin/../../lib/gcc/pic32mx/8.3.1\libgcc.a(_floatundidf.o)
                0x000000009d0546e4                __floatundidf

.text           0x000000009d001110       0x70
 .text          0x000000009d001110       0x70 output\stackmeasure_helper.o
                0x000000009d001110                fill_stack
                0x000000009d00113c                stack_usage

.text.ldexpl    0x000000009d001190       0x6c
 .text.ldexpl   0x000000009d001190       0x6c c:/program files/microchip/xc32/v4.20/bin/bin/../../lib/gcc/pic32mx/8.3.1/../../../../pic32mx/lib\libm.a(w_ldexp.o)
                0x000000009d001190                ldexpl

.text.__unorddf2
                0x000000009d054758       0x68
 .text.__unorddf2
                0x000000009d054758       0x68 c:/program files/microchip/xc32/v4.20/bin/bin/../../lib/gcc/pic32mx/8.3.1/../../../../pic32mx/lib\libe.a(_unorddf2.o)
                0x000000009d054758                __unorddf2

.text.sitofp    0x000000009d0547c0       0x60
 .text.sitofp   0x000000009d0547c0       0x60 c:/program files/microchip/xc32/v4.20/bin/bin/../../lib/gcc/pic32mx/8.3.1/../../../../pic32mx/lib\libm.a(sitofp.o)
                0x000000009d0547c0                sitofp
                0x000000009d0547c0                litofp
                0x000000009d0547c0                __floatsisf

.text.__string_out
                0x000000009d054820       0x5c
 .text.__string_out
                0x000000009d054820       0x5c c:/program files/microchip/xc32/v4.20/bin/bin/../../lib/gcc/pic32mx/8.3.1/../../../../pic32mx/lib\libc-musl.a(__printf_core.o)
                0x000000009d054820                __out

.rodata.str1.4  0x000000009d05487c       0x58
 .rodata.str1.4
                0x000000009d05487c       0x58 output\grbl_protocol.o

.text.__fmt_state
                0x000000009d0548d4       0x58
 .text.__fmt_state
                0x000000009d0548d4       0x58 c:/program files/microchip/xc32/v4.20/bin/bin/../../lib/gcc/pic32mx/8.3.1/../../../../pic32mx/lib\libc-musl.a(__printf_core.o)
                0x000000009d0548d4                __fmt_state

.text.main_entry
                0x000000009d05492c       0x54
 .text.main_entry
                0x000000009d05492c       0x54 C:\Users\kyrk\AppData\Local\Temp\ccy8KzF8.o
                0x000000009d054960                __crt0_exit

.text.__pop_float
                0x000000009d0080b0       0x50
 .text.__pop_float
                0x000000009d0080b0       0x50 c:/program files/microchip/xc32/v4.20/bin/bin/../../lib/gcc/pic32mx/8.3.1/../../../../pic32mx/lib\libc-musl.a(__pop_float.o)
                0x000000009d0080b0                __pop_float_needed
                0x000000009d0080b0                __pop_float

.text.__sio_sprintf_doux
                0x000000009d054980       0x4c
 .text.__sio_sprintf_doux
                0x000000009d054980       0x4c c:/program files/microchip/xc32/v4.20/bin/bin/../../lib/gcc/pic32mx/8.3.1/../../../../pic32mx/lib\libc-musl.a(__sio_sprintf_doux.o)
                0x000000009d054980                __sio_sprintf_doux

.text.stpncpy   0x000000009d0549cc       0x4c
 .text.stpncpy  0x000000009d0549cc       0x4c c:/program files/microchip/xc32/v4.20/bin/bin/../../lib/gcc/pic32mx/8.3.1/../../../../pic32mx/lib\libc-musl.a(stpncpy.o)
                0x000000009d0549cc                __stpncpy
                0x000000009d0549cc                stpncpy

.text           0x000000009d054a18       0x48
 .text          0x000000009d054a18       0x48 c:/program files/microchip/xc32/v4.20/bin/bin/../../lib/gcc/pic32mx/8.3.1\libgcc.a(floatunsisf.o)
                0x000000009d054a18                __floatunsisf

.text._bootstrap_exception_handler
                0x000000009d054a60       0x48
 .text._bootstrap_exception_handler
                0x000000009d054a60       0x48 c:/program files/microchip/xc32/v4.20/bin/bin/../../lib/gcc/pic32mx/8.3.1/../../../../pic32mx/lib\libpic32.a(default-bootstrap-exception-handler.o)
                0x000000009d054a60                _bootstrap_exception_handler

.text._cache_err_exception_handler
                0x000000009d054aa8       0x48
 .text._cache_err_exception_handler
                0x000000009d054aa8       0x48 c:/program files/microchip/xc32/v4.20/bin/bin/../../lib/gcc/pic32mx/8.3.1/../../../../pic32mx/lib\libpic32.a(default-cache-err-exception-handler.o)
                0x000000009d054aa8                _cache_err_exception_handler

.text._simple_tlb_refill_exception_handler
                0x000000009d054af0       0x48
 .text._simple_tlb_refill_exception_handler
                0x000000009d054af0       0x48 c:/program files/microchip/xc32/v4.20/bin/bin/../../lib/gcc/pic32mx/8.3.1/../../../../pic32mx/lib\libpic32.a(default-simple-tlb-refill-exception-handler.o)
                0x000000009d054af0                _simple_tlb_refill_exception_handler

.text.strncmp   0x000000009d054b38       0x48
 .text.strncmp  0x000000009d054b38       0x48 c:/program files/microchip/xc32/v4.20/bin/bin/../../lib/gcc/pic32mx/8.3.1/../../../../pic32mx/lib\libc-musl.a(strncmp.o)
                0x000000009d054b38                strncmp

.text           0x000000009d054b80       0x44
 .text          0x000000009d054b80       0x44 c:/program files/microchip/xc32/v4.20/bin/bin/../../lib/gcc/pic32mx/8.3.1/../../../../pic32mx/lib\pic32_software_reset.o
                0x000000009d054b80                __pic32_software_reset

.rodata.cst4    0x000000009d054bc4       0x40
 .rodata.cst4   0x000000009d054bc4       0x40 output\settings.o

.text           0x000000009d054c04       0x7c
 .text          0x000000009d054c04       0x40 c:/program files/microchip/xc32/v4.20/bin/bin/../../lib/gcc/pic32mx/8.3.1\libgcc.a(floatunsidf.o)
                0x000000009d054c04                __floatunsidf
 .text          0x000000009d054c44       0x3c output\system_tasks.o
                0x000000009d054c44                SYS_Tasks

.text.__vfprintf
                0x000000009d054c80       0x3c
 .text.__vfprintf
                0x000000009d054c80       0x3c c:/program files/microchip/xc32/v4.20/bin/bin/../../lib/gcc/pic32mx/8.3.1/../../../../pic32mx/lib\libc-musl.a(__int_vfprintf.o)
                0x000000009d054c80                __vfprintf

.text.logbf     0x000000009d054cbc       0x3c
 .text.logbf    0x000000009d054cbc       0x3c c:/program files/microchip/xc32/v4.20/bin/bin/../../lib/gcc/pic32mx/8.3.1/../../../../pic32mx/lib\libm.a(support.o)
                0x000000009d054cbc                logbf

.rodata         0x000000009d054cf8       0x38
 .rodata        0x000000009d054cf8       0x38 output\drv_usbhs_device.o

.text.finitef   0x000000009d054d30       0x34
 .text.finitef  0x000000009d054d30       0x34 c:/program files/microchip/xc32/v4.20/bin/bin/../../lib/gcc/pic32mx/8.3.1/../../../../pic32mx/lib\libm.a(support.o)
                0x000000009d054d30                finitef

.text.isnanf    0x000000009d054d64       0x34
 .text.isnanf   0x000000009d054d64       0x34 c:/program files/microchip/xc32/v4.20/bin/bin/../../lib/gcc/pic32mx/8.3.1/../../../../pic32mx/lib\libpic32.a(isinf.o)
                0x000000009d054d64                isnanf

.text           0x000000009d054d98       0x30
 .text          0x000000009d054d98       0x30 output\coolant_control.o
                0x000000009d054d98                coolant_init
                0x000000009d054da0                coolant_get_state
                0x000000009d054da8                coolant_stop
                0x000000009d054db0                coolant_set_state
                0x000000009d054dbc                coolant_sync

.rodata.cst8    0x000000009d054dc8       0x30
 .rodata.cst8   0x000000009d054dc8       0x30 output\motion_control.o

.text.copysign  0x000000009d054df8       0x30
 .text.copysign
                0x000000009d054df8       0x30 c:/program files/microchip/xc32/v4.20/bin/bin/../../lib/gcc/pic32mx/8.3.1/../../../../pic32mx/lib\libm.a(support.o)
                0x000000009d054df8                copysign

.text.copysignl
                0x000000009d054e28       0x2c
 .text.copysignl
                0x000000009d054e28       0x2c c:/program files/microchip/xc32/v4.20/bin/bin/../../lib/gcc/pic32mx/8.3.1/../../../../pic32mx/lib\libm.a(support.o)
                0x000000009d054e28                copysignl

.rodata.cst8    0x000000009d054e58       0x28
 .rodata.cst8   0x000000009d054e58       0x28 output\planner.o

.rodata.cst4    0x000000009d054e80       0x28
 .rodata.cst4   0x000000009d054e80       0x28 output\pwm.o

.rodata.cst8    0x000000009d054ea8       0x28
 .rodata.cst8   0x000000009d054ea8       0x28 output\rtcconverter.o

.text.__wrap_sprintf
                0x000000009d054ed0       0x28
 .text.__wrap_sprintf
                0x000000009d054ed0       0x28 c:/program files/microchip/xc32/v4.20/bin/bin/../../lib/gcc/pic32mx/8.3.1/../../../../pic32mx/lib\libc-musl.a(__sio_sprintf_doux.o)
                0x000000009d054ed0                _sprintf_cdnopuxX
                0x000000009d054ed0                _dsprintf_cdnopuxX

.text.strncpy   0x000000009d054ef8       0x28
 .text.strncpy  0x000000009d054ef8       0x28 c:/program files/microchip/xc32/v4.20/bin/bin/../../lib/gcc/pic32mx/8.3.1/../../../../pic32mx/lib\libc-musl.a(strncpy.o)
                0x000000009d054ef8                strncpy

.text.__vsprintf
                0x000000009d054f20       0x28
 .text.__vsprintf
                0x000000009d054f20       0x28 c:/program files/microchip/xc32/v4.20/bin/bin/../../lib/gcc/pic32mx/8.3.1/../../../../pic32mx/lib\libc-musl.a(__int_vsprintf.o)
                0x000000009d054f20                __vsprintf

.rodata.str1.4  0x000000009d054f48       0x24
 .rodata.str1.4
                0x000000009d054f48       0x24 output\rtc.o

.text.isnanl    0x000000009d054f6c       0x24
 .text.isnanl   0x000000009d054f6c       0x24 c:/program files/microchip/xc32/v4.20/bin/bin/../../lib/gcc/pic32mx/8.3.1/../../../../pic32mx/lib\libpic32.a(isinf.o)
                0x000000009d054f6c                isnanl

.text.isnan     0x000000009d054f90       0x24
 .text.isnan    0x000000009d054f90       0x24 c:/program files/microchip/xc32/v4.20/bin/bin/../../lib/gcc/pic32mx/8.3.1/../../../../pic32mx/lib\libpic32.a(isinf.o)
                0x000000009d054f90                isnan

.text.isinfl    0x000000009d054fb4       0x24
 .text.isinfl   0x000000009d054fb4       0x24 c:/program files/microchip/xc32/v4.20/bin/bin/../../lib/gcc/pic32mx/8.3.1/../../../../pic32mx/lib\libpic32.a(isinf.o)
                0x000000009d054fb4                isinfl

.rodata.cst8    0x000000009d054fd8       0x20
 .rodata.cst8   0x000000009d054fd8       0x20 output\grbl_print.o

.rodata         0x000000009d054ff8       0x20
 .rodata        0x000000009d054ff8       0x20 output\TCP.o
                0x000000009d054ff8                TCPSocketInitializer

.text.dinit.startup
                0x000000009d055018       0x20
 .text.dinit.startup
                0x000000009d055018       0x20 c:/program files/microchip/xc32/v4.20/bin/bin/../../lib/gcc/pic32mx/8.3.1/../../../../pic32mx/lib\libpic32.a(pic32_data_init_wrapper.o)
                0x000000009d055018                __pic32_data_init

.rodata.cst8    0x000000009d055038       0x20
 .rodata.cst8   0x000000009d055038       0x20 c:/program files/microchip/xc32/v4.20/bin/bin/../../lib/gcc/pic32mx/8.3.1/../../../../pic32mx/lib\libm.a(support.o)

.rodata.str1.4  0x000000009d055058       0x1c
 .rodata.str1.4
                0x000000009d055058       0x1c output\Announce.o

.text.tolower   0x000000009d055074       0x1c
 .text.tolower  0x000000009d055074       0x1c c:/program files/microchip/xc32/v4.20/bin/bin/../../lib/gcc/pic32mx/8.3.1/../../../../pic32mx/lib\libc-musl.a(tolower.o)
                0x000000009d055074                tolower

.text.__tolower_l
                0x000000009d055090       0x1c
 .text.__tolower_l
                0x000000009d055090       0x1c c:/program files/microchip/xc32/v4.20/bin/bin/../../lib/gcc/pic32mx/8.3.1/../../../../pic32mx/lib\libc-musl.a(tolower.o)
                0x000000009d055090                tolower_l
                0x000000009d055090                __tolower_l

.text.toupper   0x000000009d0550ac       0x1c
 .text.toupper  0x000000009d0550ac       0x1c c:/program files/microchip/xc32/v4.20/bin/bin/../../lib/gcc/pic32mx/8.3.1/../../../../pic32mx/lib\libc-musl.a(toupper.o)
                0x000000009d0550ac                toupper

.text.__toupper_l
                0x000000009d0550c8       0x1c
 .text.__toupper_l
                0x000000009d0550c8       0x1c c:/program files/microchip/xc32/v4.20/bin/bin/../../lib/gcc/pic32mx/8.3.1/../../../../pic32mx/lib\libc-musl.a(toupper.o)
                0x000000009d0550c8                __toupper_l
                0x000000009d0550c8                toupper_l

.text.logb      0x000000009d0550e4       0x1c
 .text.logb     0x000000009d0550e4       0x1c c:/program files/microchip/xc32/v4.20/bin/bin/../../lib/gcc/pic32mx/8.3.1/../../../../pic32mx/lib\libm.a(support.o)
                0x000000009d0550e4                logb

.text.drem      0x000000009d055100       0x1c
 .text.drem     0x000000009d055100       0x1c c:/program files/microchip/xc32/v4.20/bin/bin/../../lib/gcc/pic32mx/8.3.1/../../../../pic32mx/lib\libm.a(support.o)
                0x000000009d055100                drem

.MIPS.abiflags  0x000000009d008178       0x18
 .MIPS.abiflags
                0x000000009d008178       0x18 c:/program files/microchip/xc32/v4.20/bin/bin/../../lib/gcc/pic32mx/8.3.1/../../../../pic32mx/lib\debug-exception-return.o

.rodata.cst8    0x000000009d055120       0x18
 .rodata.cst8   0x000000009d055120       0x18 output\nuts_bolts.o

.rodata.cst4    0x000000009d055138       0x18
 .rodata.cst4   0x000000009d055138       0x18 output\nuts_bolts.o

.rodata.str1.4  0x000000009d055150       0x18
 .rodata.str1.4
                0x000000009d055150       0x18 output\grbl_eeprom.o

.text           0x000000009d055168       0x18
 .text          0x000000009d055168       0x18 c:/program files/microchip/xc32/v4.20/bin/bin/../../lib/gcc/pic32mx/8.3.1/../../../../pic32mx/lib\libpic32.a(default-nmi-handler.o)
                0x000000009d055168                _nmi_handler

.rodata         0x000000009d055180       0x18
 .rodata        0x000000009d055180       0x18 c:/program files/microchip/xc32/v4.20/bin/bin/../../lib/gcc/pic32mx/8.3.1/../../../../pic32mx/lib\libc-musl.a(__printf_core.o)

.rodata.cst4    0x000000009d00814c       0x14
 .rodata.cst4   0x000000009d00814c       0x14 output\motion_control.o

.rodata.cst4    0x000000009d00812c       0x14
 .rodata.cst4   0x000000009d00812c       0x14 output\stepper.o

.rodata         0x000000009d00810c       0x14
 .rodata        0x000000009d00810c       0x14 output\usb_device_cdc.o
                0x000000009d00810c                cdcFunctionDriver

.rodata.str1.4  0x000000009d055198       0x14
 .rodata.str1.4
                0x000000009d055198       0x14 output\aes_key.o

.text.finitel   0x000000009d0551ac       0x14
 .text.finitel  0x000000009d0551ac       0x14 c:/program files/microchip/xc32/v4.20/bin/bin/../../lib/gcc/pic32mx/8.3.1/../../../../pic32mx/lib\libm.a(support.o)
                0x000000009d0551ac                finitel

.text.finite    0x000000009d0551c0       0x14
 .text.finite   0x000000009d0551c0       0x14 c:/program files/microchip/xc32/v4.20/bin/bin/../../lib/gcc/pic32mx/8.3.1/../../../../pic32mx/lib\libm.a(support.o)
                0x000000009d0551c0                finite

.rodata.cst8    0x000000009d0551d8       0x10
 .rodata.cst8   0x000000009d0551d8       0x10 output\grbl_gcode.o

.rodata.str1.4  0x000000009d0551e8       0x10
 .rodata.str1.4
                0x000000009d0551e8       0x10 output\grbl_print.o

.rodata.cst8    0x000000009d0551f8       0x10
 .rodata.cst8   0x000000009d0551f8       0x10 output\stepper.o

.rodata         0x000000009d055208       0x10
 .rodata        0x000000009d055208       0x10 output\rtc.o
                0x000000009d055208                day_in_month

.bev_handler    0x000000009d055218       0x10
 .bev_handler   0x000000009d055218       0x10 C:\Users\kyrk\AppData\Local\Temp\ccy8KzF8.o

.rodata.cst8    0x000000009d055228       0x10
 .rodata.cst8   0x000000009d055228       0x10 c:/program files/microchip/xc32/v4.20/bin/bin/../../lib/gcc/pic32mx/8.3.1\libgcc.a(_fixunssfdi.o)

.rodata.cst4    0x000000009d055238       0x18
 .rodata.cst4   0x000000009d055238        0xc output\grbl_gcode.o
 .rodata.cst4   0x000000009d055244        0xc output\grbl_print.o

.rodata.cst4    0x000000009d055250        0xc
 .rodata.cst4   0x000000009d055250        0xc output\spindle_control.o

.rodata.str1.4  0x000000009d05525c        0xc
 .rodata.str1.4
                0x000000009d05525c        0xc output\ethernet.o

.rodata.cst4    0x000000009d02eff8        0x8
 .rodata.cst4   0x000000009d02eff8        0x8 output\planner.o

.rodata.cst8    0x000000009d055268       0x10
 .rodata.cst8   0x000000009d055268        0x8 output\grbl_homing.o
 .rodata.cst8   0x000000009d055270        0x8 c:/program files/microchip/xc32/v4.20/bin/bin/../../lib/gcc/pic32mx/8.3.1\libgcc.a(_floatundidf.o)

.rodata.cst8    0x000000009d055278        0x8
 .rodata.cst8   0x000000009d055278        0x8 c:/program files/microchip/xc32/v4.20/bin/bin/../../lib/gcc/pic32mx/8.3.1\libgcc.a(floatunsidf.o)

.text._on_reset
                0x000000009d055280        0x8
 .text._on_reset
                0x000000009d055280        0x8 c:/program files/microchip/xc32/v4.20/bin/bin/../../lib/gcc/pic32mx/8.3.1/../../../../pic32mx/lib\libpic32.a(default-on-reset.o)
                0x000000009d055280                _on_reset

.text._on_bootstrap
                0x000000009d055288        0x8
 .text._on_bootstrap
                0x000000009d055288        0x8 c:/program files/microchip/xc32/v4.20/bin/bin/../../lib/gcc/pic32mx/8.3.1/../../../../pic32mx/lib\libpic32.a(default-on-bootstrap.o)
                0x000000009d055288                _on_bootstrap

.text.__dummy_fmt3
                0x000000009d055290        0x8
 .text.__dummy_fmt3
                0x000000009d055290        0x8 c:/program files/microchip/xc32/v4.20/bin/bin/../../lib/gcc/pic32mx/8.3.1/../../../../pic32mx/lib\libc-musl.a(__printf_core.o)

.text.__dummy_fmt4
                0x000000009d055298        0x8
 .text.__dummy_fmt4
                0x000000009d055298        0x8 c:/program files/microchip/xc32/v4.20/bin/bin/../../lib/gcc/pic32mx/8.3.1/../../../../pic32mx/lib\libc-musl.a(__printf_core.o)
                0x000000009d055298                __fmt_fp
                0x000000009d055298                __fmt_a

.text.__dummy_fmts
                0x000000009d0552a0        0x8
 .text.__dummy_fmts
                0x000000009d0552a0        0x8 c:/program files/microchip/xc32/v4.20/bin/bin/../../lib/gcc/pic32mx/8.3.1/../../../../pic32mx/lib\libc-musl.a(__printf_core.o)

.rodata.str1.4  0x000000009d0552a8        0x8
 .rodata.str1.4
                0x000000009d0552a8        0x8 c:/program files/microchip/xc32/v4.20/bin/bin/../../lib/gcc/pic32mx/8.3.1/../../../../pic32mx/lib\libc-musl.a(__printf_core.o)

.rodata.cst8    0x000000009d0552b0        0x8
 .rodata.cst8   0x000000009d0552b0        0x8 c:/program files/microchip/xc32/v4.20/bin/bin/../../lib/gcc/pic32mx/8.3.1/../../../../pic32mx/lib\libpic32.a(isinf.o)

.rodata.cst4    0x000000009d0011fc        0x4
 .rodata.cst4   0x000000009d0011fc        0x4 output\grbl_report.o

.rodata.cst4    0x000000009d054e54        0x4
 .rodata.cst4   0x000000009d054e54        0x4 output\grbl_homing.o

.rodata.cst4    0x000000009d05511c        0x4
 .rodata.cst4   0x000000009d05511c        0x4 output\grbl_protocol.o

.text%z354      0x0000000000000000        0x0
 .text          0x0000000000000000        0x0 c:/program files/microchip/xc32/v4.20/bin/bin/../../lib/gcc/pic32mx/8.3.1/../../../../pic32mx/lib\libe.a(_unorddf2.o)

.text%z355      0x0000000000000000        0x0
 .text          0x0000000000000000        0x0 c:/program files/microchip/xc32/v4.20/bin/bin/../../lib/gcc/pic32mx/8.3.1/../../../../pic32mx/lib\libpic32.a(isinf.o)

.text%z356      0x0000000000000000        0x0
 .text          0x0000000000000000        0x0 c:/program files/microchip/xc32/v4.20/bin/bin/../../lib/gcc/pic32mx/8.3.1/../../../../pic32mx/lib\libpic32.a(errno.o)

.text%z357      0x0000000000000000        0x0
 .text          0x0000000000000000        0x0 c:/program files/microchip/xc32/v4.20/bin/bin/../../lib/gcc/pic32mx/8.3.1/../../../../pic32mx/lib\libm.a(s_lib_ver.o)

.text%z358      0x0000000000000000        0x0
 .text          0x0000000000000000        0x0 c:/program files/microchip/xc32/v4.20/bin/bin/../../lib/gcc/pic32mx/8.3.1/../../../../pic32mx/lib\libm.a(dpldexp.o)

.text%z359      0x0000000000000000        0x0
 .text          0x0000000000000000        0x0 c:/program files/microchip/xc32/v4.20/bin/bin/../../lib/gcc/pic32mx/8.3.1/../../../../pic32mx/lib\libm.a(w_ldexp.o)

.text%z360      0x0000000000000000        0x0
 .text          0x0000000000000000        0x0 c:/program files/microchip/xc32/v4.20/bin/bin/../../lib/gcc/pic32mx/8.3.1/../../../../pic32mx/lib\libm.a(support.o)

.text%z361      0x0000000000000000        0x0
 .text          0x0000000000000000        0x0 c:/program files/microchip/xc32/v4.20/bin/bin/../../lib/gcc/pic32mx/8.3.1/../../../../pic32mx/lib\libm.a(w_sqrt.o)

.text%z362      0x0000000000000000        0x0
 .text          0x0000000000000000        0x0 c:/program files/microchip/xc32/v4.20/bin/bin/../../lib/gcc/pic32mx/8.3.1/../../../../pic32mx/lib\libm.a(atan2.o)

.text%z363      0x0000000000000000        0x0
 .text          0x0000000000000000        0x0 c:/program files/microchip/xc32/v4.20/bin/bin/../../lib/gcc/pic32mx/8.3.1/../../../../pic32mx/lib\libm.a(sitofp.o)

.text%z364      0x0000000000000000        0x0
 .text          0x0000000000000000        0x0 c:/program files/microchip/xc32/v4.20/bin/bin/../../lib/gcc/pic32mx/8.3.1/../../../../pic32mx/lib\libm.a(sincos32.o)

.text.libm%z365
                0x0000000000000000        0x0
 .text.libm     0x0000000000000000        0x0 c:/program files/microchip/xc32/v4.20/bin/bin/../../lib/gcc/pic32mx/8.3.1/../../../../pic32mx/lib\libm.a(sin32.o)

.text%z366      0x0000000000000000        0x0
 .text          0x0000000000000000        0x0 c:/program files/microchip/xc32/v4.20/bin/bin/../../lib/gcc/pic32mx/8.3.1/../../../../pic32mx/lib\libm.a(sigmax.o)

.text%z367      0x0000000000000000        0x0
 .text          0x0000000000000000        0x0 c:/program files/microchip/xc32/v4.20/bin/bin/../../lib/gcc/pic32mx/8.3.1/../../../../pic32mx/lib\libm.a(reduct32.o)

.text%z368      0x0000000000000000        0x0
 .text          0x0000000000000000        0x0 c:/program files/microchip/xc32/v4.20/bin/bin/../../lib/gcc/pic32mx/8.3.1/../../../../pic32mx/lib\libm.a(litodp.o)

.text%z369      0x0000000000000000        0x0
 .text          0x0000000000000000        0x0 c:/program files/microchip/xc32/v4.20/bin/bin/../../lib/gcc/pic32mx/8.3.1/../../../../pic32mx/lib\libm.a(fptoul.o)

.text%z370      0x0000000000000000        0x0
 .text          0x0000000000000000        0x0 c:/program files/microchip/xc32/v4.20/bin/bin/../../lib/gcc/pic32mx/8.3.1/../../../../pic32mx/lib\libm.a(fptoli.o)

.text%z371      0x0000000000000000        0x0
 .text          0x0000000000000000        0x0 c:/program files/microchip/xc32/v4.20/bin/bin/../../lib/gcc/pic32mx/8.3.1/../../../../pic32mx/lib\libm.a(fptodp.o)

.text%z372      0x0000000000000000        0x0
 .text          0x0000000000000000        0x0 c:/program files/microchip/xc32/v4.20/bin/bin/../../lib/gcc/pic32mx/8.3.1/../../../../pic32mx/lib\libm.a(fpexsqrt32.o)

.text%z373      0x0000000000000000        0x0
 .text          0x0000000000000000        0x0 c:/program files/microchip/xc32/v4.20/bin/bin/../../lib/gcc/pic32mx/8.3.1/../../../../pic32mx/lib\libm.a(fpcmplt.o)

.text%z374      0x0000000000000000        0x0
 .text          0x0000000000000000        0x0 c:/program files/microchip/xc32/v4.20/bin/bin/../../lib/gcc/pic32mx/8.3.1/../../../../pic32mx/lib\libm.a(fpcmp.o)

.text%z375      0x0000000000000000        0x0
 .text          0x0000000000000000        0x0 c:/program files/microchip/xc32/v4.20/bin/bin/../../lib/gcc/pic32mx/8.3.1/../../../../pic32mx/lib\libm.a(fp32subadd.o)

.text%z376      0x0000000000000000        0x0
 .text          0x0000000000000000        0x0 c:/program files/microchip/xc32/v4.20/bin/bin/../../lib/gcc/pic32mx/8.3.1/../../../../pic32mx/lib\libm.a(fp32mul.o)

.text%z377      0x0000000000000000        0x0
 .text          0x0000000000000000        0x0 c:/program files/microchip/xc32/v4.20/bin/bin/../../lib/gcc/pic32mx/8.3.1/../../../../pic32mx/lib\libm.a(fp32div.o)

.text.libm.fpexsqrt%z378
                0x0000000000000000        0x0
 .text.libm.fpexsqrt
                0x0000000000000000        0x0 c:/program files/microchip/xc32/v4.20/bin/bin/../../lib/gcc/pic32mx/8.3.1/../../../../pic32mx/lib\libm.a(exsqrt.o)

.text%z379      0x0000000000000000        0x0
 .text          0x0000000000000000        0x0 c:/program files/microchip/xc32/v4.20/bin/bin/../../lib/gcc/pic32mx/8.3.1/../../../../pic32mx/lib\libm.a(exsqrt.o)

.text%z380      0x0000000000000000        0x0
 .text          0x0000000000000000        0x0 c:/program files/microchip/xc32/v4.20/bin/bin/../../lib/gcc/pic32mx/8.3.1/../../../../pic32mx/lib\libm.a(exmul.o)

.text%z381      0x0000000000000000        0x0
 .text          0x0000000000000000        0x0 c:/program files/microchip/xc32/v4.20/bin/bin/../../lib/gcc/pic32mx/8.3.1/../../../../pic32mx/lib\libm.a(dptoul.o)

.text%z382      0x0000000000000000        0x0
 .text          0x0000000000000000        0x0 c:/program files/microchip/xc32/v4.20/bin/bin/../../lib/gcc/pic32mx/8.3.1/../../../../pic32mx/lib\libm.a(dptoli.o)

.text%z383      0x0000000000000000        0x0
 .text          0x0000000000000000        0x0 c:/program files/microchip/xc32/v4.20/bin/bin/../../lib/gcc/pic32mx/8.3.1/../../../../pic32mx/lib\libm.a(dptofp.o)

.text%z384      0x0000000000000000        0x0
 .text          0x0000000000000000        0x0 c:/program files/microchip/xc32/v4.20/bin/bin/../../lib/gcc/pic32mx/8.3.1/../../../../pic32mx/lib\libm.a(dpsqrt.o)

.text%z385      0x0000000000000000        0x0
 .text          0x0000000000000000        0x0 c:/program files/microchip/xc32/v4.20/bin/bin/../../lib/gcc/pic32mx/8.3.1/../../../../pic32mx/lib\libm.a(dpcmplt.o)

.text%z386      0x0000000000000000        0x0
 .text          0x0000000000000000        0x0 c:/program files/microchip/xc32/v4.20/bin/bin/../../lib/gcc/pic32mx/8.3.1/../../../../pic32mx/lib\libm.a(dpcmp.o)

.text%z387      0x0000000000000000        0x0
 .text          0x0000000000000000        0x0 c:/program files/microchip/xc32/v4.20/bin/bin/../../lib/gcc/pic32mx/8.3.1/../../../../pic32mx/lib\libm.a(dp32subadd.o)

.text%z388      0x0000000000000000        0x0
 .text          0x0000000000000000        0x0 c:/program files/microchip/xc32/v4.20/bin/bin/../../lib/gcc/pic32mx/8.3.1/../../../../pic32mx/lib\libm.a(dp32mul.o)

.text%z389      0x0000000000000000        0x0
 .text          0x0000000000000000        0x0 c:/program files/microchip/xc32/v4.20/bin/bin/../../lib/gcc/pic32mx/8.3.1/../../../../pic32mx/lib\libm.a(dp32div.o)

.text%z390      0x0000000000000000        0x0
 .text          0x0000000000000000        0x0 c:/program files/microchip/xc32/v4.20/bin/bin/../../lib/gcc/pic32mx/8.3.1/../../../../pic32mx/lib\libm.a(cos32.o)

.text%z391      0x0000000000000000        0x0
 .text          0x0000000000000000        0x0 c:/program files/microchip/xc32/v4.20/bin/bin/../../lib/gcc/pic32mx/8.3.1/../../../../pic32mx/lib\libm.a(ceil32.o)

.text%z392      0x0000000000000000        0x0
 .text          0x0000000000000000        0x0 c:/program files/microchip/xc32/v4.20/bin/bin/../../lib/gcc/pic32mx/8.3.1/../../../../pic32mx/lib\libc-musl.a(__int_vfprintf.o)

.text%z393      0x0000000000000000        0x0
 .text          0x0000000000000000        0x0 c:/program files/microchip/xc32/v4.20/bin/bin/../../lib/gcc/pic32mx/8.3.1/../../../../pic32mx/lib\libc-musl.a(__int_vsnprintf.o)

.text%z394      0x0000000000000000        0x0
 .text          0x0000000000000000        0x0 c:/program files/microchip/xc32/v4.20/bin/bin/../../lib/gcc/pic32mx/8.3.1/../../../../pic32mx/lib\libc-musl.a(stpncpy.o)

.text%z395      0x0000000000000000        0x0
 .text          0x0000000000000000        0x0 c:/program files/microchip/xc32/v4.20/bin/bin/../../lib/gcc/pic32mx/8.3.1/../../../../pic32mx/lib\libc-musl.a(__pop_float.o)

.text%z396      0x0000000000000000        0x0
 .text          0x0000000000000000        0x0 c:/program files/microchip/xc32/v4.20/bin/bin/../../lib/gcc/pic32mx/8.3.1/../../../../pic32mx/lib\libc-musl.a(__int_vsprintf.o)

.text%z397      0x0000000000000000        0x0
 .text          0x0000000000000000        0x0 c:/program files/microchip/xc32/v4.20/bin/bin/../../lib/gcc/pic32mx/8.3.1/../../../../pic32mx/lib\libc-musl.a(toupper.o)

.text%z398      0x0000000000000000        0x0
 .text          0x0000000000000000        0x0 c:/program files/microchip/xc32/v4.20/bin/bin/../../lib/gcc/pic32mx/8.3.1/../../../../pic32mx/lib\libc-musl.a(tolower.o)

.text%z399      0x0000000000000000        0x0
 .text          0x0000000000000000        0x0 c:/program files/microchip/xc32/v4.20/bin/bin/../../lib/gcc/pic32mx/8.3.1/../../../../pic32mx/lib\libc-musl.a(strncpy.o)

.text%z400      0x0000000000000000        0x0
 .text          0x0000000000000000        0x0 c:/program files/microchip/xc32/v4.20/bin/bin/../../lib/gcc/pic32mx/8.3.1/../../../../pic32mx/lib\libc-musl.a(strncmp.o)

.text%z401      0x0000000000000000        0x0
 .text          0x0000000000000000        0x0 c:/program files/microchip/xc32/v4.20/bin/bin/../../lib/gcc/pic32mx/8.3.1/../../../../pic32mx/lib\libc-musl.a(atoi.o)

.text%z402      0x0000000000000000        0x0
 .text          0x0000000000000000        0x0 c:/program files/microchip/xc32/v4.20/bin/bin/../../lib/gcc/pic32mx/8.3.1/../../../../pic32mx/lib\libc-musl.a(__printf_core.o)

.text%z403      0x0000000000000000        0x0
 .text          0x0000000000000000        0x0 c:/program files/microchip/xc32/v4.20/bin/bin/../../lib/gcc/pic32mx/8.3.1/../../../../pic32mx/lib\libc-musl.a(__pop_ptr.o)

.text%z404      0x0000000000000000        0x0
 .text          0x0000000000000000        0x0 c:/program files/microchip/xc32/v4.20/bin/bin/../../lib/gcc/pic32mx/8.3.1/../../../../pic32mx/lib\libc-musl.a(__pop_int.o)

.text%z405      0x0000000000000000        0x0
 .text          0x0000000000000000        0x0 c:/program files/microchip/xc32/v4.20/bin/bin/../../lib/gcc/pic32mx/8.3.1/../../../../pic32mx/lib\libc-musl.a(__fmt_x.o)

.text%z406      0x0000000000000000        0x0
 .text          0x0000000000000000        0x0 c:/program files/microchip/xc32/v4.20/bin/bin/../../lib/gcc/pic32mx/8.3.1/../../../../pic32mx/lib\libc-musl.a(__fmt_u.o)

.text%z407      0x0000000000000000        0x0
 .text          0x0000000000000000        0x0 c:/program files/microchip/xc32/v4.20/bin/bin/../../lib/gcc/pic32mx/8.3.1/../../../../pic32mx/lib\libc-musl.a(__fmt_s.o)

.text%z408      0x0000000000000000        0x0
 .text          0x0000000000000000        0x0 c:/program files/microchip/xc32/v4.20/bin/bin/../../lib/gcc/pic32mx/8.3.1/../../../../pic32mx/lib\libc-musl.a(__fmt_o.o)

.text%z409      0x0000000000000000        0x0
 .text          0x0000000000000000        0x0 c:/program files/microchip/xc32/v4.20/bin/bin/../../lib/gcc/pic32mx/8.3.1/../../../../pic32mx/lib\libc-musl.a(__fmt_d.o)

.text%z410      0x0000000000000000        0x0
 .text          0x0000000000000000        0x0 c:/program files/microchip/xc32/v4.20/bin/bin/../../lib/gcc/pic32mx/8.3.1/../../../../pic32mx/lib\libc-musl.a(__sio_sprintf_doux.o)

.text%z411      0x0000000000000000        0x0
 .text          0x0000000000000000        0x0 c:/program files/microchip/xc32/v4.20/bin/bin/../../lib/gcc/pic32mx/8.3.1/../../../../pic32mx/lib\libpic32.a(default-simple-tlb-refill-exception-handler.o)

.text%z412      0x0000000000000000        0x0
 .text          0x0000000000000000        0x0 c:/program files/microchip/xc32/v4.20/bin/bin/../../lib/gcc/pic32mx/8.3.1/../../../../pic32mx/lib\libpic32.a(default-cache-err-exception-handler.o)

.text%z413      0x0000000000000000        0x0
 .text          0x0000000000000000        0x0 c:/program files/microchip/xc32/v4.20/bin/bin/../../lib/gcc/pic32mx/8.3.1/../../../../pic32mx/lib\libpic32.a(defaultinterrupt.o)

.text%z414      0x0000000000000000        0x0
 .text          0x0000000000000000        0x0 c:/program files/microchip/xc32/v4.20/bin/bin/../../lib/gcc/pic32mx/8.3.1/../../../../pic32mx/lib\libpic32.a(simple-tlb-refill-exception.o)

.text%z415      0x0000000000000000        0x0
 .text          0x0000000000000000        0x0 c:/program files/microchip/xc32/v4.20/bin/bin/../../lib/gcc/pic32mx/8.3.1/../../../../pic32mx/lib\libpic32.a(cache-err-exception.o)

.text%z416      0x0000000000000000        0x0
 .text          0x0000000000000000        0x0 c:/program files/microchip/xc32/v4.20/bin/bin/../../lib/gcc/pic32mx/8.3.1/../../../../pic32mx/lib\libpic32.a(general-exception.o)

.text%z417      0x0000000000000000        0x0
 .text          0x0000000000000000        0x0 c:/program files/microchip/xc32/v4.20/bin/bin/../../lib/gcc/pic32mx/8.3.1/../../../../pic32mx/lib\libpic32.a(pic32_init_tlb_ebi_sqi.o)

.text%z418      0x0000000000000000        0x0
 .text          0x0000000000000000        0x0 c:/program files/microchip/xc32/v4.20/bin/bin/../../lib/gcc/pic32mx/8.3.1/../../../../pic32mx/lib\libpic32.a(pic32_init_cache.o)

.text%z419      0x0000000000000000        0x0
 .text          0x0000000000000000        0x0 c:/program files/microchip/xc32/v4.20/bin/bin/../../lib/gcc/pic32mx/8.3.1/../../../../pic32mx/lib\libpic32.a(pic32_data_init_0_1.o)

.text%z420      0x0000000000000000        0x0
 .text          0x0000000000000000        0x0 c:/program files/microchip/xc32/v4.20/bin/bin/../../lib/gcc/pic32mx/8.3.1/../../../../pic32mx/lib\libpic32.a(pic32_data_init_wrapper.o)

.text%z421      0x0000000000000000        0x0
 .text          0x0000000000000000        0x0 c:/program files/microchip/xc32/v4.20/bin/bin/../../lib/gcc/pic32mx/8.3.1/../../../../pic32mx/lib\libpic32.a(default-on-bootstrap.o)

.text%z422      0x0000000000000000        0x0
 .text          0x0000000000000000        0x0 c:/program files/microchip/xc32/v4.20/bin/bin/../../lib/gcc/pic32mx/8.3.1/../../../../pic32mx/lib\libpic32.a(default-on-reset.o)

.text%z423      0x0000000000000000        0x0
 .text          0x0000000000000000        0x0 c:/program files/microchip/xc32/v4.20/bin/bin/../../lib/gcc/pic32mx/8.3.1/../../../../pic32mx/lib\libpic32.a(default-bootstrap-exception-handler.o)

.text%z424      0x0000000000000000        0x0
 .text          0x0000000000000000        0x0 c:/program files/microchip/xc32/v4.20/bin/bin/../../lib/gcc/pic32mx/8.3.1/../../../../pic32mx/lib/./proc/32MZ2048ECG144\default_isr_vectors.o

.text%z425      0x0000000000000000        0x0
 .text          0x0000000000000000        0x0 C:\Users\kyrk\AppData\Local\Temp\cc4IlKdm.o

.text%z426      0x0000000000000000        0x0
 .text          0x0000000000000000        0x0 C:\Users\kyrk\AppData\Local\Temp\ccopN9yJ.o

.text%z427      0x0000000000000000        0x0
 .text          0x0000000000000000        0x0 C:\Users\kyrk\AppData\Local\Temp\ccy8KzF8.o

.text%z428      0x0000000000000000        0x0
 .text          0x0000000000000000        0x0 c:/program files/microchip/xc32/v4.20/bin/bin/../../lib/gcc/pic32mx/8.3.1/../../../../pic32mx/lib/./proc/32MZ2048ECG144\vector_offset_init.o

.text%z429      0x0000000000000000        0x0
 .text          0x0000000000000000        0x0 output\wget.o

.text%z430      0x0000000000000000        0x0
 .text          0x0000000000000000        0x0 output\random.o

.text%z431      0x0000000000000000        0x0
 .text          0x0000000000000000        0x0 output\sntp.o

.text%z432      0x0000000000000000        0x0
 .text          0x0000000000000000        0x0 output\DNS.o

.text%z433      0x0000000000000000        0x0
 .text          0x0000000000000000        0x0 output\MQTTclient.o

.text%z434      0x0000000000000000        0x0
 .text          0x0000000000000000        0x0 output\MQTT.o

.text%z435      0x0000000000000000        0x0
 .text          0x0000000000000000        0x0 output\c_eep_manager.o

.text%z436      0x0000000000000000        0x0
 .text          0x0000000000000000        0x0 c:/program files/microchip/xc32/v4.20/bin/bin/../../lib/gcc/pic32mx/8.3.1/../../../../pic32mx/lib\debug-exception-return.o
